
D:\gcc_arm_none_eabi\gcc-arm-none-eabi-10.3-2021.10-win32\Unit3_Revision\HC-05_UART\DMA_Project.elf:     file format elf32-littlearm


Disassembly of section .vectors:

00000000 <gp_fn_vectors>:
   0:	20001d4c 	andcs	r1, r0, ip, asr #26
   4:	00001289 	andeq	r1, r0, r9, lsl #5
   8:	0000127d 	andeq	r1, r0, sp, ror r2
   c:	0000127d 	andeq	r1, r0, sp, ror r2
  10:	0000127d 	andeq	r1, r0, sp, ror r2
  14:	0000127d 	andeq	r1, r0, sp, ror r2
  18:	0000127d 	andeq	r1, r0, sp, ror r2

Disassembly of section .text:

000008b4 <DMA_PeripheralInitialization>:
     8b4:	b480      	push	{r7}
     8b6:	af00      	add	r7, sp, #0
     8b8:	4a08      	ldr	r2, [pc, #32]	; (8dc <DMA_PeripheralInitialization+0x28>)
     8ba:	6813      	ldr	r3, [r2, #0]
     8bc:	f043 0301 	orr.w	r3, r3, #1
     8c0:	6013      	str	r3, [r2, #0]
     8c2:	4b07      	ldr	r3, [pc, #28]	; (8e0 <DMA_PeripheralInitialization+0x2c>)
     8c4:	681b      	ldr	r3, [r3, #0]
     8c6:	4a06      	ldr	r2, [pc, #24]	; (8e0 <DMA_PeripheralInitialization+0x2c>)
     8c8:	f043 0301 	orr.w	r3, r3, #1
     8cc:	6013      	str	r3, [r2, #0]
     8ce:	4b05      	ldr	r3, [pc, #20]	; (8e4 <DMA_PeripheralInitialization+0x30>)
     8d0:	4a05      	ldr	r2, [pc, #20]	; (8e8 <DMA_PeripheralInitialization+0x34>)
     8d2:	601a      	str	r2, [r3, #0]
     8d4:	bf00      	nop
     8d6:	46bd      	mov	sp, r7
     8d8:	bc80      	pop	{r7}
     8da:	4770      	bx	lr
     8dc:	400fe60c 	andmi	lr, pc, ip, lsl #12
     8e0:	400ff004 	andmi	pc, pc, r4
     8e4:	400ff008 	andmi	pc, pc, r8
     8e8:	20000800 	andcs	r0, r0, r0, lsl #16

000008ec <DMA_EnableChannelAttributes>:
     8ec:	b580      	push	{r7, lr}
     8ee:	b082      	sub	sp, #8
     8f0:	af00      	add	r7, sp, #0
     8f2:	6078      	str	r0, [r7, #4]
     8f4:	687b      	ldr	r3, [r7, #4]
     8f6:	799a      	ldrb	r2, [r3, #6]
     8f8:	687b      	ldr	r3, [r7, #4]
     8fa:	781b      	ldrb	r3, [r3, #0]
     8fc:	4619      	mov	r1, r3
     8fe:	4610      	mov	r0, r2
     900:	f000 f96e 	bl	be0 <DMA_ConfigurePriority>
     904:	4b19      	ldr	r3, [pc, #100]	; (96c <DMA_EnableChannelAttributes+0x80>)
     906:	681b      	ldr	r3, [r3, #0]
     908:	687a      	ldr	r2, [r7, #4]
     90a:	7812      	ldrb	r2, [r2, #0]
     90c:	4611      	mov	r1, r2
     90e:	2201      	movs	r2, #1
     910:	408a      	lsls	r2, r1
     912:	4611      	mov	r1, r2
     914:	4a15      	ldr	r2, [pc, #84]	; (96c <DMA_EnableChannelAttributes+0x80>)
     916:	430b      	orrs	r3, r1
     918:	6013      	str	r3, [r2, #0]
     91a:	4b15      	ldr	r3, [pc, #84]	; (970 <DMA_EnableChannelAttributes+0x84>)
     91c:	681b      	ldr	r3, [r3, #0]
     91e:	687a      	ldr	r2, [r7, #4]
     920:	7812      	ldrb	r2, [r2, #0]
     922:	4611      	mov	r1, r2
     924:	2201      	movs	r2, #1
     926:	408a      	lsls	r2, r1
     928:	4611      	mov	r1, r2
     92a:	4a11      	ldr	r2, [pc, #68]	; (970 <DMA_EnableChannelAttributes+0x84>)
     92c:	430b      	orrs	r3, r1
     92e:	6013      	str	r3, [r2, #0]
     930:	4b10      	ldr	r3, [pc, #64]	; (974 <DMA_EnableChannelAttributes+0x88>)
     932:	681b      	ldr	r3, [r3, #0]
     934:	687a      	ldr	r2, [r7, #4]
     936:	7812      	ldrb	r2, [r2, #0]
     938:	4611      	mov	r1, r2
     93a:	2201      	movs	r2, #1
     93c:	408a      	lsls	r2, r1
     93e:	4611      	mov	r1, r2
     940:	4a0c      	ldr	r2, [pc, #48]	; (974 <DMA_EnableChannelAttributes+0x88>)
     942:	430b      	orrs	r3, r1
     944:	6013      	str	r3, [r2, #0]
     946:	687b      	ldr	r3, [r7, #4]
     948:	781a      	ldrb	r2, [r3, #0]
     94a:	687b      	ldr	r3, [r7, #4]
     94c:	79db      	ldrb	r3, [r3, #7]
     94e:	4619      	mov	r1, r3
     950:	4610      	mov	r0, r2
     952:	f000 f971 	bl	c38 <DMA_AssignChannel>
     956:	687b      	ldr	r3, [r7, #4]
     958:	781b      	ldrb	r3, [r3, #0]
     95a:	4619      	mov	r1, r3
     95c:	2000      	movs	r0, #0
     95e:	f000 f915 	bl	b8c <DMA_ConfigureChannelInterrupt>
     962:	bf00      	nop
     964:	3708      	adds	r7, #8
     966:	46bd      	mov	sp, r7
     968:	bd80      	pop	{r7, pc}
     96a:	bf00      	nop
     96c:	400ff034 	andmi	pc, pc, r4, lsr r0	; <UNPREDICTABLE>
     970:	400ff01c 	andmi	pc, pc, ip, lsl r0	; <UNPREDICTABLE>
     974:	400ff024 	andmi	pc, pc, r4, lsr #32

00000978 <DMA_EnableChannel>:
     978:	b480      	push	{r7}
     97a:	b083      	sub	sp, #12
     97c:	af00      	add	r7, sp, #0
     97e:	4603      	mov	r3, r0
     980:	71fb      	strb	r3, [r7, #7]
     982:	4b07      	ldr	r3, [pc, #28]	; (9a0 <DMA_EnableChannel+0x28>)
     984:	681b      	ldr	r3, [r3, #0]
     986:	79fa      	ldrb	r2, [r7, #7]
     988:	2101      	movs	r1, #1
     98a:	fa01 f202 	lsl.w	r2, r1, r2
     98e:	4611      	mov	r1, r2
     990:	4a03      	ldr	r2, [pc, #12]	; (9a0 <DMA_EnableChannel+0x28>)
     992:	430b      	orrs	r3, r1
     994:	6013      	str	r3, [r2, #0]
     996:	bf00      	nop
     998:	370c      	adds	r7, #12
     99a:	46bd      	mov	sp, r7
     99c:	bc80      	pop	{r7}
     99e:	4770      	bx	lr
     9a0:	400ff028 	andmi	pc, pc, r8, lsr #32

000009a4 <DMA_ChannelControlStructureSet>:
     9a4:	b480      	push	{r7}
     9a6:	b085      	sub	sp, #20
     9a8:	af00      	add	r7, sp, #0
     9aa:	60f8      	str	r0, [r7, #12]
     9ac:	60b9      	str	r1, [r7, #8]
     9ae:	607a      	str	r2, [r7, #4]
     9b0:	4b4c      	ldr	r3, [pc, #304]	; (ae4 <DMA_ChannelControlStructureSet+0x140>)
     9b2:	781b      	ldrb	r3, [r3, #0]
     9b4:	b2db      	uxtb	r3, r3
     9b6:	2b00      	cmp	r3, #0
     9b8:	d004      	beq.n	9c4 <DMA_ChannelControlStructureSet+0x20>
     9ba:	4b4b      	ldr	r3, [pc, #300]	; (ae8 <DMA_ChannelControlStructureSet+0x144>)
     9bc:	781b      	ldrb	r3, [r3, #0]
     9be:	b2db      	uxtb	r3, r3
     9c0:	2b00      	cmp	r3, #0
     9c2:	d107      	bne.n	9d4 <DMA_ChannelControlStructureSet+0x30>
     9c4:	68fb      	ldr	r3, [r7, #12]
     9c6:	781b      	ldrb	r3, [r3, #0]
     9c8:	461a      	mov	r2, r3
     9ca:	4b48      	ldr	r3, [pc, #288]	; (aec <DMA_ChannelControlStructureSet+0x148>)
     9cc:	f853 3022 	ldr.w	r3, [r3, r2, lsl #2]
     9d0:	68ba      	ldr	r2, [r7, #8]
     9d2:	601a      	str	r2, [r3, #0]
     9d4:	4b46      	ldr	r3, [pc, #280]	; (af0 <DMA_ChannelControlStructureSet+0x14c>)
     9d6:	781b      	ldrb	r3, [r3, #0]
     9d8:	b2db      	uxtb	r3, r3
     9da:	2b00      	cmp	r3, #0
     9dc:	d004      	beq.n	9e8 <DMA_ChannelControlStructureSet+0x44>
     9de:	4b42      	ldr	r3, [pc, #264]	; (ae8 <DMA_ChannelControlStructureSet+0x144>)
     9e0:	781b      	ldrb	r3, [r3, #0]
     9e2:	b2db      	uxtb	r3, r3
     9e4:	2b00      	cmp	r3, #0
     9e6:	d107      	bne.n	9f8 <DMA_ChannelControlStructureSet+0x54>
     9e8:	68fb      	ldr	r3, [r7, #12]
     9ea:	781b      	ldrb	r3, [r3, #0]
     9ec:	461a      	mov	r2, r3
     9ee:	4b41      	ldr	r3, [pc, #260]	; (af4 <DMA_ChannelControlStructureSet+0x150>)
     9f0:	f853 3022 	ldr.w	r3, [r3, r2, lsl #2]
     9f4:	687a      	ldr	r2, [r7, #4]
     9f6:	601a      	str	r2, [r3, #0]
     9f8:	68fb      	ldr	r3, [r7, #12]
     9fa:	7859      	ldrb	r1, [r3, #1]
     9fc:	68fb      	ldr	r3, [r7, #12]
     9fe:	781b      	ldrb	r3, [r3, #0]
     a00:	461a      	mov	r2, r3
     a02:	4b3d      	ldr	r3, [pc, #244]	; (af8 <DMA_ChannelControlStructureSet+0x154>)
     a04:	f853 2022 	ldr.w	r2, [r3, r2, lsl #2]
     a08:	460b      	mov	r3, r1
     a0a:	f003 0303 	and.w	r3, r3, #3
     a0e:	b2d9      	uxtb	r1, r3
     a10:	6813      	ldr	r3, [r2, #0]
     a12:	f361 739f 	bfi	r3, r1, #30, #2
     a16:	6013      	str	r3, [r2, #0]
     a18:	68fb      	ldr	r3, [r7, #12]
     a1a:	78d9      	ldrb	r1, [r3, #3]
     a1c:	68fb      	ldr	r3, [r7, #12]
     a1e:	781b      	ldrb	r3, [r3, #0]
     a20:	461a      	mov	r2, r3
     a22:	4b35      	ldr	r3, [pc, #212]	; (af8 <DMA_ChannelControlStructureSet+0x154>)
     a24:	f853 2022 	ldr.w	r2, [r3, r2, lsl #2]
     a28:	460b      	mov	r3, r1
     a2a:	f003 0303 	and.w	r3, r3, #3
     a2e:	b2d9      	uxtb	r1, r3
     a30:	6813      	ldr	r3, [r2, #0]
     a32:	f361 731d 	bfi	r3, r1, #28, #2
     a36:	6013      	str	r3, [r2, #0]
     a38:	68fb      	ldr	r3, [r7, #12]
     a3a:	7899      	ldrb	r1, [r3, #2]
     a3c:	68fb      	ldr	r3, [r7, #12]
     a3e:	781b      	ldrb	r3, [r3, #0]
     a40:	461a      	mov	r2, r3
     a42:	4b2d      	ldr	r3, [pc, #180]	; (af8 <DMA_ChannelControlStructureSet+0x154>)
     a44:	f853 2022 	ldr.w	r2, [r3, r2, lsl #2]
     a48:	460b      	mov	r3, r1
     a4a:	f003 0303 	and.w	r3, r3, #3
     a4e:	b2d9      	uxtb	r1, r3
     a50:	6813      	ldr	r3, [r2, #0]
     a52:	f361 639b 	bfi	r3, r1, #26, #2
     a56:	6013      	str	r3, [r2, #0]
     a58:	68fb      	ldr	r3, [r7, #12]
     a5a:	7919      	ldrb	r1, [r3, #4]
     a5c:	68fb      	ldr	r3, [r7, #12]
     a5e:	781b      	ldrb	r3, [r3, #0]
     a60:	461a      	mov	r2, r3
     a62:	4b25      	ldr	r3, [pc, #148]	; (af8 <DMA_ChannelControlStructureSet+0x154>)
     a64:	f853 2022 	ldr.w	r2, [r3, r2, lsl #2]
     a68:	460b      	mov	r3, r1
     a6a:	f003 0303 	and.w	r3, r3, #3
     a6e:	b2d9      	uxtb	r1, r3
     a70:	6813      	ldr	r3, [r2, #0]
     a72:	f361 6319 	bfi	r3, r1, #24, #2
     a76:	6013      	str	r3, [r2, #0]
     a78:	68fb      	ldr	r3, [r7, #12]
     a7a:	7959      	ldrb	r1, [r3, #5]
     a7c:	68fb      	ldr	r3, [r7, #12]
     a7e:	781b      	ldrb	r3, [r3, #0]
     a80:	461a      	mov	r2, r3
     a82:	4b1d      	ldr	r3, [pc, #116]	; (af8 <DMA_ChannelControlStructureSet+0x154>)
     a84:	f853 2022 	ldr.w	r2, [r3, r2, lsl #2]
     a88:	460b      	mov	r3, r1
     a8a:	f003 0307 	and.w	r3, r3, #7
     a8e:	b2d9      	uxtb	r1, r3
     a90:	6813      	ldr	r3, [r2, #0]
     a92:	f361 0302 	bfi	r3, r1, #0, #3
     a96:	6013      	str	r3, [r2, #0]
     a98:	68fb      	ldr	r3, [r7, #12]
     a9a:	68d9      	ldr	r1, [r3, #12]
     a9c:	68fb      	ldr	r3, [r7, #12]
     a9e:	781b      	ldrb	r3, [r3, #0]
     aa0:	461a      	mov	r2, r3
     aa2:	4b15      	ldr	r3, [pc, #84]	; (af8 <DMA_ChannelControlStructureSet+0x154>)
     aa4:	f853 2022 	ldr.w	r2, [r3, r2, lsl #2]
     aa8:	460b      	mov	r3, r1
     aaa:	f3c3 0309 	ubfx	r3, r3, #0, #10
     aae:	b299      	uxth	r1, r3
     ab0:	6813      	ldr	r3, [r2, #0]
     ab2:	f361 130d 	bfi	r3, r1, #4, #10
     ab6:	6013      	str	r3, [r2, #0]
     ab8:	68fb      	ldr	r3, [r7, #12]
     aba:	7a19      	ldrb	r1, [r3, #8]
     abc:	68fb      	ldr	r3, [r7, #12]
     abe:	781b      	ldrb	r3, [r3, #0]
     ac0:	461a      	mov	r2, r3
     ac2:	4b0d      	ldr	r3, [pc, #52]	; (af8 <DMA_ChannelControlStructureSet+0x154>)
     ac4:	f853 2022 	ldr.w	r2, [r3, r2, lsl #2]
     ac8:	460b      	mov	r3, r1
     aca:	f003 030f 	and.w	r3, r3, #15
     ace:	b2d9      	uxtb	r1, r3
     ad0:	6813      	ldr	r3, [r2, #0]
     ad2:	f361 3391 	bfi	r3, r1, #14, #4
     ad6:	6013      	str	r3, [r2, #0]
     ad8:	bf00      	nop
     ada:	3714      	adds	r7, #20
     adc:	46bd      	mov	sp, r7
     ade:	bc80      	pop	{r7}
     ae0:	4770      	bx	lr
     ae2:	bf00      	nop
     ae4:	20001d51 	andcs	r1, r0, r1, asr sp
     ae8:	20000401 	andcs	r0, r0, r1, lsl #8
     aec:	0000001c 	andeq	r0, r0, ip, lsl r0
     af0:	20001d50 	andcs	r1, r0, r0, asr sp
     af4:	0000011c 	andeq	r0, r0, ip, lsl r1
     af8:	0000029c 	muleq	r0, ip, r2

00000afc <DMA_ConfigureChannelSoftwareRequest>:
     afc:	b480      	push	{r7}
     afe:	b083      	sub	sp, #12
     b00:	af00      	add	r7, sp, #0
     b02:	4603      	mov	r3, r0
     b04:	460a      	mov	r2, r1
     b06:	71fb      	strb	r3, [r7, #7]
     b08:	4613      	mov	r3, r2
     b0a:	71bb      	strb	r3, [r7, #6]
     b0c:	79fb      	ldrb	r3, [r7, #7]
     b0e:	2b00      	cmp	r3, #0
     b10:	d002      	beq.n	b18 <DMA_ConfigureChannelSoftwareRequest+0x1c>
     b12:	2b01      	cmp	r3, #1
     b14:	d00c      	beq.n	b30 <DMA_ConfigureChannelSoftwareRequest+0x34>
     b16:	e016      	b.n	b46 <DMA_ConfigureChannelSoftwareRequest+0x4a>
     b18:	4b0d      	ldr	r3, [pc, #52]	; (b50 <DMA_ConfigureChannelSoftwareRequest+0x54>)
     b1a:	681b      	ldr	r3, [r3, #0]
     b1c:	79ba      	ldrb	r2, [r7, #6]
     b1e:	2101      	movs	r1, #1
     b20:	fa01 f202 	lsl.w	r2, r1, r2
     b24:	43d2      	mvns	r2, r2
     b26:	4611      	mov	r1, r2
     b28:	4a09      	ldr	r2, [pc, #36]	; (b50 <DMA_ConfigureChannelSoftwareRequest+0x54>)
     b2a:	400b      	ands	r3, r1
     b2c:	6013      	str	r3, [r2, #0]
     b2e:	e00a      	b.n	b46 <DMA_ConfigureChannelSoftwareRequest+0x4a>
     b30:	4b07      	ldr	r3, [pc, #28]	; (b50 <DMA_ConfigureChannelSoftwareRequest+0x54>)
     b32:	681b      	ldr	r3, [r3, #0]
     b34:	79ba      	ldrb	r2, [r7, #6]
     b36:	2101      	movs	r1, #1
     b38:	fa01 f202 	lsl.w	r2, r1, r2
     b3c:	4611      	mov	r1, r2
     b3e:	4a04      	ldr	r2, [pc, #16]	; (b50 <DMA_ConfigureChannelSoftwareRequest+0x54>)
     b40:	430b      	orrs	r3, r1
     b42:	6013      	str	r3, [r2, #0]
     b44:	bf00      	nop
     b46:	bf00      	nop
     b48:	370c      	adds	r7, #12
     b4a:	46bd      	mov	sp, r7
     b4c:	bc80      	pop	{r7}
     b4e:	4770      	bx	lr
     b50:	400ff014 	andmi	pc, pc, r4, lsl r0	; <UNPREDICTABLE>

00000b54 <DMA_ConfigurePeripheralInterrupt>:
     b54:	b580      	push	{r7, lr}
     b56:	b082      	sub	sp, #8
     b58:	af00      	add	r7, sp, #0
     b5a:	4603      	mov	r3, r0
     b5c:	71fb      	strb	r3, [r7, #7]
     b5e:	79fb      	ldrb	r3, [r7, #7]
     b60:	2b00      	cmp	r3, #0
     b62:	d106      	bne.n	b72 <DMA_ConfigurePeripheralInterrupt+0x1e>
     b64:	202e      	movs	r0, #46	; 0x2e
     b66:	f000 fb3d 	bl	11e4 <NVIC_Enable_Interrupt>
     b6a:	202f      	movs	r0, #47	; 0x2f
     b6c:	f000 fb3a 	bl	11e4 <NVIC_Enable_Interrupt>
     b70:	e008      	b.n	b84 <DMA_ConfigurePeripheralInterrupt+0x30>
     b72:	79fb      	ldrb	r3, [r7, #7]
     b74:	2b01      	cmp	r3, #1
     b76:	d105      	bne.n	b84 <DMA_ConfigurePeripheralInterrupt+0x30>
     b78:	202e      	movs	r0, #46	; 0x2e
     b7a:	f000 fb59 	bl	1230 <NVIC_Clear_Interrupt>
     b7e:	202f      	movs	r0, #47	; 0x2f
     b80:	f000 fb56 	bl	1230 <NVIC_Clear_Interrupt>
     b84:	bf00      	nop
     b86:	3708      	adds	r7, #8
     b88:	46bd      	mov	sp, r7
     b8a:	bd80      	pop	{r7, pc}

00000b8c <DMA_ConfigureChannelInterrupt>:
     b8c:	b480      	push	{r7}
     b8e:	b083      	sub	sp, #12
     b90:	af00      	add	r7, sp, #0
     b92:	4603      	mov	r3, r0
     b94:	460a      	mov	r2, r1
     b96:	71fb      	strb	r3, [r7, #7]
     b98:	4613      	mov	r3, r2
     b9a:	71bb      	strb	r3, [r7, #6]
     b9c:	79fb      	ldrb	r3, [r7, #7]
     b9e:	2b00      	cmp	r3, #0
     ba0:	d002      	beq.n	ba8 <DMA_ConfigureChannelInterrupt+0x1c>
     ba2:	2b01      	cmp	r3, #1
     ba4:	d00a      	beq.n	bbc <DMA_ConfigureChannelInterrupt+0x30>
     ba6:	e014      	b.n	bd2 <DMA_ConfigureChannelInterrupt+0x46>
     ba8:	4b0c      	ldr	r3, [pc, #48]	; (bdc <DMA_ConfigureChannelInterrupt+0x50>)
     baa:	681b      	ldr	r3, [r3, #0]
     bac:	79ba      	ldrb	r2, [r7, #6]
     bae:	2101      	movs	r1, #1
     bb0:	fa01 f202 	lsl.w	r2, r1, r2
     bb4:	4611      	mov	r1, r2
     bb6:	4a09      	ldr	r2, [pc, #36]	; (bdc <DMA_ConfigureChannelInterrupt+0x50>)
     bb8:	430b      	orrs	r3, r1
     bba:	6013      	str	r3, [r2, #0]
     bbc:	4b07      	ldr	r3, [pc, #28]	; (bdc <DMA_ConfigureChannelInterrupt+0x50>)
     bbe:	681b      	ldr	r3, [r3, #0]
     bc0:	79ba      	ldrb	r2, [r7, #6]
     bc2:	2101      	movs	r1, #1
     bc4:	fa01 f202 	lsl.w	r2, r1, r2
     bc8:	43d2      	mvns	r2, r2
     bca:	4611      	mov	r1, r2
     bcc:	4a03      	ldr	r2, [pc, #12]	; (bdc <DMA_ConfigureChannelInterrupt+0x50>)
     bce:	400b      	ands	r3, r1
     bd0:	6013      	str	r3, [r2, #0]
     bd2:	bf00      	nop
     bd4:	370c      	adds	r7, #12
     bd6:	46bd      	mov	sp, r7
     bd8:	bc80      	pop	{r7}
     bda:	4770      	bx	lr
     bdc:	400ff504 	andmi	pc, pc, r4, lsl #10

00000be0 <DMA_ConfigurePriority>:
     be0:	b480      	push	{r7}
     be2:	b083      	sub	sp, #12
     be4:	af00      	add	r7, sp, #0
     be6:	4603      	mov	r3, r0
     be8:	460a      	mov	r2, r1
     bea:	71fb      	strb	r3, [r7, #7]
     bec:	4613      	mov	r3, r2
     bee:	71bb      	strb	r3, [r7, #6]
     bf0:	79fb      	ldrb	r3, [r7, #7]
     bf2:	2b00      	cmp	r3, #0
     bf4:	d002      	beq.n	bfc <DMA_ConfigurePriority+0x1c>
     bf6:	2b01      	cmp	r3, #1
     bf8:	d00c      	beq.n	c14 <DMA_ConfigurePriority+0x34>
     bfa:	e016      	b.n	c2a <DMA_ConfigurePriority+0x4a>
     bfc:	4b0d      	ldr	r3, [pc, #52]	; (c34 <DMA_ConfigurePriority+0x54>)
     bfe:	681b      	ldr	r3, [r3, #0]
     c00:	79ba      	ldrb	r2, [r7, #6]
     c02:	2101      	movs	r1, #1
     c04:	fa01 f202 	lsl.w	r2, r1, r2
     c08:	43d2      	mvns	r2, r2
     c0a:	4611      	mov	r1, r2
     c0c:	4a09      	ldr	r2, [pc, #36]	; (c34 <DMA_ConfigurePriority+0x54>)
     c0e:	400b      	ands	r3, r1
     c10:	6013      	str	r3, [r2, #0]
     c12:	e00a      	b.n	c2a <DMA_ConfigurePriority+0x4a>
     c14:	4b07      	ldr	r3, [pc, #28]	; (c34 <DMA_ConfigurePriority+0x54>)
     c16:	681b      	ldr	r3, [r3, #0]
     c18:	79ba      	ldrb	r2, [r7, #6]
     c1a:	2101      	movs	r1, #1
     c1c:	fa01 f202 	lsl.w	r2, r1, r2
     c20:	4611      	mov	r1, r2
     c22:	4a04      	ldr	r2, [pc, #16]	; (c34 <DMA_ConfigurePriority+0x54>)
     c24:	430b      	orrs	r3, r1
     c26:	6013      	str	r3, [r2, #0]
     c28:	bf00      	nop
     c2a:	bf00      	nop
     c2c:	370c      	adds	r7, #12
     c2e:	46bd      	mov	sp, r7
     c30:	bc80      	pop	{r7}
     c32:	4770      	bx	lr
     c34:	400ff038 	andmi	pc, pc, r8, lsr r0	; <UNPREDICTABLE>

00000c38 <DMA_AssignChannel>:
     c38:	b480      	push	{r7}
     c3a:	b085      	sub	sp, #20
     c3c:	af00      	add	r7, sp, #0
     c3e:	4603      	mov	r3, r0
     c40:	460a      	mov	r2, r1
     c42:	71fb      	strb	r3, [r7, #7]
     c44:	4613      	mov	r3, r2
     c46:	71bb      	strb	r3, [r7, #6]
     c48:	79fb      	ldrb	r3, [r7, #7]
     c4a:	08db      	lsrs	r3, r3, #3
     c4c:	73fb      	strb	r3, [r7, #15]
     c4e:	79fa      	ldrb	r2, [r7, #7]
     c50:	7bfb      	ldrb	r3, [r7, #15]
     c52:	00db      	lsls	r3, r3, #3
     c54:	1ad3      	subs	r3, r2, r3
     c56:	b2db      	uxtb	r3, r3
     c58:	009b      	lsls	r3, r3, #2
     c5a:	b2da      	uxtb	r2, r3
     c5c:	79bb      	ldrb	r3, [r7, #6]
     c5e:	4413      	add	r3, r2
     c60:	73bb      	strb	r3, [r7, #14]
     c62:	7bfb      	ldrb	r3, [r7, #15]
     c64:	4a09      	ldr	r2, [pc, #36]	; (c8c <DMA_AssignChannel+0x54>)
     c66:	f852 3023 	ldr.w	r3, [r2, r3, lsl #2]
     c6a:	681a      	ldr	r2, [r3, #0]
     c6c:	7bbb      	ldrb	r3, [r7, #14]
     c6e:	2101      	movs	r1, #1
     c70:	fa01 f303 	lsl.w	r3, r1, r3
     c74:	4618      	mov	r0, r3
     c76:	7bfb      	ldrb	r3, [r7, #15]
     c78:	4904      	ldr	r1, [pc, #16]	; (c8c <DMA_AssignChannel+0x54>)
     c7a:	f851 3023 	ldr.w	r3, [r1, r3, lsl #2]
     c7e:	4302      	orrs	r2, r0
     c80:	601a      	str	r2, [r3, #0]
     c82:	bf00      	nop
     c84:	3714      	adds	r7, #20
     c86:	46bd      	mov	sp, r7
     c88:	bc80      	pop	{r7}
     c8a:	4770      	bx	lr
     c8c:	20000000 	andcs	r0, r0, r0

00000c90 <GPIO_EnableRunModeClockGateControl>:
     c90:	b480      	push	{r7}
     c92:	b083      	sub	sp, #12
     c94:	af00      	add	r7, sp, #0
     c96:	4603      	mov	r3, r0
     c98:	71fb      	strb	r3, [r7, #7]
     c9a:	4b14      	ldr	r3, [pc, #80]	; (cec <GPIO_EnableRunModeClockGateControl+0x5c>)
     c9c:	681b      	ldr	r3, [r3, #0]
     c9e:	f3c3 0305 	ubfx	r3, r3, #0, #6
     ca2:	b2db      	uxtb	r3, r3
     ca4:	b25a      	sxtb	r2, r3
     ca6:	79fb      	ldrb	r3, [r7, #7]
     ca8:	2101      	movs	r1, #1
     caa:	fa01 f303 	lsl.w	r3, r1, r3
     cae:	b25b      	sxtb	r3, r3
     cb0:	4313      	orrs	r3, r2
     cb2:	b25b      	sxtb	r3, r3
     cb4:	4a0d      	ldr	r2, [pc, #52]	; (cec <GPIO_EnableRunModeClockGateControl+0x5c>)
     cb6:	f003 033f 	and.w	r3, r3, #63	; 0x3f
     cba:	b2d9      	uxtb	r1, r3
     cbc:	6813      	ldr	r3, [r2, #0]
     cbe:	f361 0305 	bfi	r3, r1, #0, #6
     cc2:	6013      	str	r3, [r2, #0]
     cc4:	bf00      	nop
     cc6:	4b09      	ldr	r3, [pc, #36]	; (cec <GPIO_EnableRunModeClockGateControl+0x5c>)
     cc8:	681b      	ldr	r3, [r3, #0]
     cca:	f3c3 0305 	ubfx	r3, r3, #0, #6
     cce:	b2db      	uxtb	r3, r3
     cd0:	461a      	mov	r2, r3
     cd2:	79fb      	ldrb	r3, [r7, #7]
     cd4:	fa42 f303 	asr.w	r3, r2, r3
     cd8:	f003 0301 	and.w	r3, r3, #1
     cdc:	2b00      	cmp	r3, #0
     cde:	d0f2      	beq.n	cc6 <GPIO_EnableRunModeClockGateControl+0x36>
     ce0:	bf00      	nop
     ce2:	bf00      	nop
     ce4:	370c      	adds	r7, #12
     ce6:	46bd      	mov	sp, r7
     ce8:	bc80      	pop	{r7}
     cea:	4770      	bx	lr
     cec:	400fe608 	andmi	lr, pc, r8, lsl #12

00000cf0 <GPIO_SetPinStatus>:
     cf0:	b480      	push	{r7}
     cf2:	b083      	sub	sp, #12
     cf4:	af00      	add	r7, sp, #0
     cf6:	4603      	mov	r3, r0
     cf8:	71fb      	strb	r3, [r7, #7]
     cfa:	460b      	mov	r3, r1
     cfc:	71bb      	strb	r3, [r7, #6]
     cfe:	4613      	mov	r3, r2
     d00:	717b      	strb	r3, [r7, #5]
     d02:	797b      	ldrb	r3, [r7, #5]
     d04:	2b00      	cmp	r3, #0
     d06:	d002      	beq.n	d0e <GPIO_SetPinStatus+0x1e>
     d08:	2b01      	cmp	r3, #1
     d0a:	d01a      	beq.n	d42 <GPIO_SetPinStatus+0x52>
     d0c:	e031      	b.n	d72 <GPIO_SetPinStatus+0x82>
     d0e:	79fb      	ldrb	r3, [r7, #7]
     d10:	4a1a      	ldr	r2, [pc, #104]	; (d7c <GPIO_SetPinStatus+0x8c>)
     d12:	f852 3023 	ldr.w	r3, [r2, r3, lsl #2]
     d16:	681b      	ldr	r3, [r3, #0]
     d18:	b2db      	uxtb	r3, r3
     d1a:	b25a      	sxtb	r2, r3
     d1c:	79bb      	ldrb	r3, [r7, #6]
     d1e:	2101      	movs	r1, #1
     d20:	fa01 f303 	lsl.w	r3, r1, r3
     d24:	b25b      	sxtb	r3, r3
     d26:	43db      	mvns	r3, r3
     d28:	b25b      	sxtb	r3, r3
     d2a:	4013      	ands	r3, r2
     d2c:	b259      	sxtb	r1, r3
     d2e:	79fb      	ldrb	r3, [r7, #7]
     d30:	4a12      	ldr	r2, [pc, #72]	; (d7c <GPIO_SetPinStatus+0x8c>)
     d32:	f852 2023 	ldr.w	r2, [r2, r3, lsl #2]
     d36:	b2c9      	uxtb	r1, r1
     d38:	6813      	ldr	r3, [r2, #0]
     d3a:	f361 0307 	bfi	r3, r1, #0, #8
     d3e:	6013      	str	r3, [r2, #0]
     d40:	e017      	b.n	d72 <GPIO_SetPinStatus+0x82>
     d42:	79fb      	ldrb	r3, [r7, #7]
     d44:	4a0d      	ldr	r2, [pc, #52]	; (d7c <GPIO_SetPinStatus+0x8c>)
     d46:	f852 3023 	ldr.w	r3, [r2, r3, lsl #2]
     d4a:	681b      	ldr	r3, [r3, #0]
     d4c:	b2db      	uxtb	r3, r3
     d4e:	b25a      	sxtb	r2, r3
     d50:	79bb      	ldrb	r3, [r7, #6]
     d52:	2101      	movs	r1, #1
     d54:	fa01 f303 	lsl.w	r3, r1, r3
     d58:	b25b      	sxtb	r3, r3
     d5a:	4313      	orrs	r3, r2
     d5c:	b259      	sxtb	r1, r3
     d5e:	79fb      	ldrb	r3, [r7, #7]
     d60:	4a06      	ldr	r2, [pc, #24]	; (d7c <GPIO_SetPinStatus+0x8c>)
     d62:	f852 2023 	ldr.w	r2, [r2, r3, lsl #2]
     d66:	b2c9      	uxtb	r1, r1
     d68:	6813      	ldr	r3, [r2, #0]
     d6a:	f361 0307 	bfi	r3, r1, #0, #8
     d6e:	6013      	str	r3, [r2, #0]
     d70:	bf00      	nop
     d72:	bf00      	nop
     d74:	370c      	adds	r7, #12
     d76:	46bd      	mov	sp, r7
     d78:	bc80      	pop	{r7}
     d7a:	4770      	bx	lr
     d7c:	0000031c 	andeq	r0, r0, ip, lsl r3

00000d80 <GPIO_SetData>:
     d80:	b480      	push	{r7}
     d82:	b083      	sub	sp, #12
     d84:	af00      	add	r7, sp, #0
     d86:	4603      	mov	r3, r0
     d88:	71fb      	strb	r3, [r7, #7]
     d8a:	460b      	mov	r3, r1
     d8c:	71bb      	strb	r3, [r7, #6]
     d8e:	4613      	mov	r3, r2
     d90:	717b      	strb	r3, [r7, #5]
     d92:	797b      	ldrb	r3, [r7, #5]
     d94:	2b00      	cmp	r3, #0
     d96:	d002      	beq.n	d9e <GPIO_SetData+0x1e>
     d98:	2b01      	cmp	r3, #1
     d9a:	d01a      	beq.n	dd2 <GPIO_SetData+0x52>
     d9c:	e031      	b.n	e02 <GPIO_SetData+0x82>
     d9e:	79fb      	ldrb	r3, [r7, #7]
     da0:	4a1a      	ldr	r2, [pc, #104]	; (e0c <GPIO_SetData+0x8c>)
     da2:	f852 3023 	ldr.w	r3, [r2, r3, lsl #2]
     da6:	681b      	ldr	r3, [r3, #0]
     da8:	b2db      	uxtb	r3, r3
     daa:	b25a      	sxtb	r2, r3
     dac:	79bb      	ldrb	r3, [r7, #6]
     dae:	2101      	movs	r1, #1
     db0:	fa01 f303 	lsl.w	r3, r1, r3
     db4:	b25b      	sxtb	r3, r3
     db6:	43db      	mvns	r3, r3
     db8:	b25b      	sxtb	r3, r3
     dba:	4013      	ands	r3, r2
     dbc:	b259      	sxtb	r1, r3
     dbe:	79fb      	ldrb	r3, [r7, #7]
     dc0:	4a12      	ldr	r2, [pc, #72]	; (e0c <GPIO_SetData+0x8c>)
     dc2:	f852 2023 	ldr.w	r2, [r2, r3, lsl #2]
     dc6:	b2c9      	uxtb	r1, r1
     dc8:	6813      	ldr	r3, [r2, #0]
     dca:	f361 0307 	bfi	r3, r1, #0, #8
     dce:	6013      	str	r3, [r2, #0]
     dd0:	e017      	b.n	e02 <GPIO_SetData+0x82>
     dd2:	79fb      	ldrb	r3, [r7, #7]
     dd4:	4a0d      	ldr	r2, [pc, #52]	; (e0c <GPIO_SetData+0x8c>)
     dd6:	f852 3023 	ldr.w	r3, [r2, r3, lsl #2]
     dda:	681b      	ldr	r3, [r3, #0]
     ddc:	b2db      	uxtb	r3, r3
     dde:	b25a      	sxtb	r2, r3
     de0:	79bb      	ldrb	r3, [r7, #6]
     de2:	2101      	movs	r1, #1
     de4:	fa01 f303 	lsl.w	r3, r1, r3
     de8:	b25b      	sxtb	r3, r3
     dea:	4313      	orrs	r3, r2
     dec:	b259      	sxtb	r1, r3
     dee:	79fb      	ldrb	r3, [r7, #7]
     df0:	4a06      	ldr	r2, [pc, #24]	; (e0c <GPIO_SetData+0x8c>)
     df2:	f852 2023 	ldr.w	r2, [r2, r3, lsl #2]
     df6:	b2c9      	uxtb	r1, r1
     df8:	6813      	ldr	r3, [r2, #0]
     dfa:	f361 0307 	bfi	r3, r1, #0, #8
     dfe:	6013      	str	r3, [r2, #0]
     e00:	bf00      	nop
     e02:	bf00      	nop
     e04:	370c      	adds	r7, #12
     e06:	46bd      	mov	sp, r7
     e08:	bc80      	pop	{r7}
     e0a:	4770      	bx	lr
     e0c:	00000394 	muleq	r0, r4, r3

00000e10 <GPIO_ConfigureDigitalEnable>:
     e10:	b480      	push	{r7}
     e12:	b083      	sub	sp, #12
     e14:	af00      	add	r7, sp, #0
     e16:	4603      	mov	r3, r0
     e18:	71fb      	strb	r3, [r7, #7]
     e1a:	460b      	mov	r3, r1
     e1c:	71bb      	strb	r3, [r7, #6]
     e1e:	4613      	mov	r3, r2
     e20:	717b      	strb	r3, [r7, #5]
     e22:	797b      	ldrb	r3, [r7, #5]
     e24:	2b00      	cmp	r3, #0
     e26:	d002      	beq.n	e2e <GPIO_ConfigureDigitalEnable+0x1e>
     e28:	2b01      	cmp	r3, #1
     e2a:	d01a      	beq.n	e62 <GPIO_ConfigureDigitalEnable+0x52>
     e2c:	e031      	b.n	e92 <GPIO_ConfigureDigitalEnable+0x82>
     e2e:	79fb      	ldrb	r3, [r7, #7]
     e30:	4a1a      	ldr	r2, [pc, #104]	; (e9c <GPIO_ConfigureDigitalEnable+0x8c>)
     e32:	f852 3023 	ldr.w	r3, [r2, r3, lsl #2]
     e36:	681b      	ldr	r3, [r3, #0]
     e38:	b2db      	uxtb	r3, r3
     e3a:	b25a      	sxtb	r2, r3
     e3c:	79bb      	ldrb	r3, [r7, #6]
     e3e:	2101      	movs	r1, #1
     e40:	fa01 f303 	lsl.w	r3, r1, r3
     e44:	b25b      	sxtb	r3, r3
     e46:	43db      	mvns	r3, r3
     e48:	b25b      	sxtb	r3, r3
     e4a:	4013      	ands	r3, r2
     e4c:	b259      	sxtb	r1, r3
     e4e:	79fb      	ldrb	r3, [r7, #7]
     e50:	4a12      	ldr	r2, [pc, #72]	; (e9c <GPIO_ConfigureDigitalEnable+0x8c>)
     e52:	f852 2023 	ldr.w	r2, [r2, r3, lsl #2]
     e56:	b2c9      	uxtb	r1, r1
     e58:	6813      	ldr	r3, [r2, #0]
     e5a:	f361 0307 	bfi	r3, r1, #0, #8
     e5e:	6013      	str	r3, [r2, #0]
     e60:	e017      	b.n	e92 <GPIO_ConfigureDigitalEnable+0x82>
     e62:	79fb      	ldrb	r3, [r7, #7]
     e64:	4a0d      	ldr	r2, [pc, #52]	; (e9c <GPIO_ConfigureDigitalEnable+0x8c>)
     e66:	f852 3023 	ldr.w	r3, [r2, r3, lsl #2]
     e6a:	681b      	ldr	r3, [r3, #0]
     e6c:	b2db      	uxtb	r3, r3
     e6e:	b25a      	sxtb	r2, r3
     e70:	79bb      	ldrb	r3, [r7, #6]
     e72:	2101      	movs	r1, #1
     e74:	fa01 f303 	lsl.w	r3, r1, r3
     e78:	b25b      	sxtb	r3, r3
     e7a:	4313      	orrs	r3, r2
     e7c:	b259      	sxtb	r1, r3
     e7e:	79fb      	ldrb	r3, [r7, #7]
     e80:	4a06      	ldr	r2, [pc, #24]	; (e9c <GPIO_ConfigureDigitalEnable+0x8c>)
     e82:	f852 2023 	ldr.w	r2, [r2, r3, lsl #2]
     e86:	b2c9      	uxtb	r1, r1
     e88:	6813      	ldr	r3, [r2, #0]
     e8a:	f361 0307 	bfi	r3, r1, #0, #8
     e8e:	6013      	str	r3, [r2, #0]
     e90:	bf00      	nop
     e92:	bf00      	nop
     e94:	370c      	adds	r7, #12
     e96:	46bd      	mov	sp, r7
     e98:	bc80      	pop	{r7}
     e9a:	4770      	bx	lr
     e9c:	000003ac 	andeq	r0, r0, ip, lsr #7

00000ea0 <GPIO_ConfigureCommit>:
     ea0:	b480      	push	{r7}
     ea2:	b083      	sub	sp, #12
     ea4:	af00      	add	r7, sp, #0
     ea6:	4603      	mov	r3, r0
     ea8:	71fb      	strb	r3, [r7, #7]
     eaa:	460b      	mov	r3, r1
     eac:	71bb      	strb	r3, [r7, #6]
     eae:	4613      	mov	r3, r2
     eb0:	717b      	strb	r3, [r7, #5]
     eb2:	797b      	ldrb	r3, [r7, #5]
     eb4:	2b00      	cmp	r3, #0
     eb6:	d002      	beq.n	ebe <GPIO_ConfigureCommit+0x1e>
     eb8:	2b01      	cmp	r3, #1
     eba:	d007      	beq.n	ecc <GPIO_ConfigureCommit+0x2c>
     ebc:	e024      	b.n	f08 <GPIO_ConfigureCommit+0x68>
     ebe:	79fb      	ldrb	r3, [r7, #7]
     ec0:	4a14      	ldr	r2, [pc, #80]	; (f14 <GPIO_ConfigureCommit+0x74>)
     ec2:	f852 3023 	ldr.w	r3, [r2, r3, lsl #2]
     ec6:	2200      	movs	r2, #0
     ec8:	601a      	str	r2, [r3, #0]
     eca:	e01d      	b.n	f08 <GPIO_ConfigureCommit+0x68>
     ecc:	79fb      	ldrb	r3, [r7, #7]
     ece:	4a11      	ldr	r2, [pc, #68]	; (f14 <GPIO_ConfigureCommit+0x74>)
     ed0:	f852 3023 	ldr.w	r3, [r2, r3, lsl #2]
     ed4:	4a10      	ldr	r2, [pc, #64]	; (f18 <GPIO_ConfigureCommit+0x78>)
     ed6:	601a      	str	r2, [r3, #0]
     ed8:	79fb      	ldrb	r3, [r7, #7]
     eda:	4a10      	ldr	r2, [pc, #64]	; (f1c <GPIO_ConfigureCommit+0x7c>)
     edc:	f852 3023 	ldr.w	r3, [r2, r3, lsl #2]
     ee0:	681b      	ldr	r3, [r3, #0]
     ee2:	b2db      	uxtb	r3, r3
     ee4:	b25a      	sxtb	r2, r3
     ee6:	79bb      	ldrb	r3, [r7, #6]
     ee8:	2101      	movs	r1, #1
     eea:	fa01 f303 	lsl.w	r3, r1, r3
     eee:	b25b      	sxtb	r3, r3
     ef0:	4313      	orrs	r3, r2
     ef2:	b259      	sxtb	r1, r3
     ef4:	79fb      	ldrb	r3, [r7, #7]
     ef6:	4a09      	ldr	r2, [pc, #36]	; (f1c <GPIO_ConfigureCommit+0x7c>)
     ef8:	f852 2023 	ldr.w	r2, [r2, r3, lsl #2]
     efc:	b2c9      	uxtb	r1, r1
     efe:	6813      	ldr	r3, [r2, #0]
     f00:	f361 0307 	bfi	r3, r1, #0, #8
     f04:	6013      	str	r3, [r2, #0]
     f06:	bf00      	nop
     f08:	bf00      	nop
     f0a:	370c      	adds	r7, #12
     f0c:	46bd      	mov	sp, r7
     f0e:	bc80      	pop	{r7}
     f10:	4770      	bx	lr
     f12:	bf00      	nop
     f14:	000003dc 	ldrdeq	r0, [r0], -ip
     f18:	4c4f434b 	mcrrmi	3, 4, r4, pc, cr11
     f1c:	000003f4 	strdeq	r0, [r0], -r4

00000f20 <GPIO_ConfigureOutputPin>:
     f20:	b580      	push	{r7, lr}
     f22:	b082      	sub	sp, #8
     f24:	af00      	add	r7, sp, #0
     f26:	6078      	str	r0, [r7, #4]
     f28:	687b      	ldr	r3, [r7, #4]
     f2a:	781b      	ldrb	r3, [r3, #0]
     f2c:	4618      	mov	r0, r3
     f2e:	f7ff feaf 	bl	c90 <GPIO_EnableRunModeClockGateControl>
     f32:	687b      	ldr	r3, [r7, #4]
     f34:	7818      	ldrb	r0, [r3, #0]
     f36:	687b      	ldr	r3, [r7, #4]
     f38:	785b      	ldrb	r3, [r3, #1]
     f3a:	2201      	movs	r2, #1
     f3c:	4619      	mov	r1, r3
     f3e:	f7ff fed7 	bl	cf0 <GPIO_SetPinStatus>
     f42:	687b      	ldr	r3, [r7, #4]
     f44:	7818      	ldrb	r0, [r3, #0]
     f46:	687b      	ldr	r3, [r7, #4]
     f48:	785b      	ldrb	r3, [r3, #1]
     f4a:	2200      	movs	r2, #0
     f4c:	4619      	mov	r1, r3
     f4e:	f7ff ff17 	bl	d80 <GPIO_SetData>
     f52:	687b      	ldr	r3, [r7, #4]
     f54:	7818      	ldrb	r0, [r3, #0]
     f56:	687b      	ldr	r3, [r7, #4]
     f58:	785b      	ldrb	r3, [r3, #1]
     f5a:	2201      	movs	r2, #1
     f5c:	4619      	mov	r1, r3
     f5e:	f7ff ff57 	bl	e10 <GPIO_ConfigureDigitalEnable>
     f62:	687b      	ldr	r3, [r7, #4]
     f64:	7818      	ldrb	r0, [r3, #0]
     f66:	687b      	ldr	r3, [r7, #4]
     f68:	785b      	ldrb	r3, [r3, #1]
     f6a:	2201      	movs	r2, #1
     f6c:	4619      	mov	r1, r3
     f6e:	f7ff ff97 	bl	ea0 <GPIO_ConfigureCommit>
     f72:	bf00      	nop
     f74:	3708      	adds	r7, #8
     f76:	46bd      	mov	sp, r7
     f78:	bd80      	pop	{r7, pc}
	...

00000f7c <GPIO_SetPinDirection>:
     f7c:	b480      	push	{r7}
     f7e:	b083      	sub	sp, #12
     f80:	af00      	add	r7, sp, #0
     f82:	4603      	mov	r3, r0
     f84:	71fb      	strb	r3, [r7, #7]
     f86:	460b      	mov	r3, r1
     f88:	71bb      	strb	r3, [r7, #6]
     f8a:	4613      	mov	r3, r2
     f8c:	717b      	strb	r3, [r7, #5]
     f8e:	797b      	ldrb	r3, [r7, #5]
     f90:	2b00      	cmp	r3, #0
     f92:	d002      	beq.n	f9a <GPIO_SetPinDirection+0x1e>
     f94:	2b01      	cmp	r3, #1
     f96:	d01a      	beq.n	fce <GPIO_SetPinDirection+0x52>
     f98:	e031      	b.n	ffe <GPIO_SetPinDirection+0x82>
     f9a:	79fb      	ldrb	r3, [r7, #7]
     f9c:	4a1a      	ldr	r2, [pc, #104]	; (1008 <GPIO_SetPinDirection+0x8c>)
     f9e:	f852 3023 	ldr.w	r3, [r2, r3, lsl #2]
     fa2:	681b      	ldr	r3, [r3, #0]
     fa4:	b2db      	uxtb	r3, r3
     fa6:	b25a      	sxtb	r2, r3
     fa8:	79bb      	ldrb	r3, [r7, #6]
     faa:	2101      	movs	r1, #1
     fac:	fa01 f303 	lsl.w	r3, r1, r3
     fb0:	b25b      	sxtb	r3, r3
     fb2:	43db      	mvns	r3, r3
     fb4:	b25b      	sxtb	r3, r3
     fb6:	4013      	ands	r3, r2
     fb8:	b259      	sxtb	r1, r3
     fba:	79fb      	ldrb	r3, [r7, #7]
     fbc:	4a12      	ldr	r2, [pc, #72]	; (1008 <GPIO_SetPinDirection+0x8c>)
     fbe:	f852 2023 	ldr.w	r2, [r2, r3, lsl #2]
     fc2:	b2c9      	uxtb	r1, r1
     fc4:	6813      	ldr	r3, [r2, #0]
     fc6:	f361 0307 	bfi	r3, r1, #0, #8
     fca:	6013      	str	r3, [r2, #0]
     fcc:	e017      	b.n	ffe <GPIO_SetPinDirection+0x82>
     fce:	79fb      	ldrb	r3, [r7, #7]
     fd0:	4a0d      	ldr	r2, [pc, #52]	; (1008 <GPIO_SetPinDirection+0x8c>)
     fd2:	f852 3023 	ldr.w	r3, [r2, r3, lsl #2]
     fd6:	681b      	ldr	r3, [r3, #0]
     fd8:	b2db      	uxtb	r3, r3
     fda:	b25a      	sxtb	r2, r3
     fdc:	79bb      	ldrb	r3, [r7, #6]
     fde:	2101      	movs	r1, #1
     fe0:	fa01 f303 	lsl.w	r3, r1, r3
     fe4:	b25b      	sxtb	r3, r3
     fe6:	4313      	orrs	r3, r2
     fe8:	b259      	sxtb	r1, r3
     fea:	79fb      	ldrb	r3, [r7, #7]
     fec:	4a06      	ldr	r2, [pc, #24]	; (1008 <GPIO_SetPinDirection+0x8c>)
     fee:	f852 2023 	ldr.w	r2, [r2, r3, lsl #2]
     ff2:	b2c9      	uxtb	r1, r1
     ff4:	6813      	ldr	r3, [r2, #0]
     ff6:	f361 0307 	bfi	r3, r1, #0, #8
     ffa:	6013      	str	r3, [r2, #0]
     ffc:	bf00      	nop
     ffe:	bf00      	nop
    1000:	370c      	adds	r7, #12
    1002:	46bd      	mov	sp, r7
    1004:	bc80      	pop	{r7}
    1006:	4770      	bx	lr
    1008:	0000031c 	andeq	r0, r0, ip, lsl r3

0000100c <GPIO_SetInputStatus>:
    100c:	b480      	push	{r7}
    100e:	b083      	sub	sp, #12
    1010:	af00      	add	r7, sp, #0
    1012:	4603      	mov	r3, r0
    1014:	460a      	mov	r2, r1
    1016:	71fb      	strb	r3, [r7, #7]
    1018:	4613      	mov	r3, r2
    101a:	71bb      	strb	r3, [r7, #6]
    101c:	79fb      	ldrb	r3, [r7, #7]
    101e:	4a0d      	ldr	r2, [pc, #52]	; (1054 <GPIO_SetInputStatus+0x48>)
    1020:	f852 3023 	ldr.w	r3, [r2, r3, lsl #2]
    1024:	681b      	ldr	r3, [r3, #0]
    1026:	b2db      	uxtb	r3, r3
    1028:	b25a      	sxtb	r2, r3
    102a:	79bb      	ldrb	r3, [r7, #6]
    102c:	2101      	movs	r1, #1
    102e:	fa01 f303 	lsl.w	r3, r1, r3
    1032:	b25b      	sxtb	r3, r3
    1034:	4313      	orrs	r3, r2
    1036:	b259      	sxtb	r1, r3
    1038:	79fb      	ldrb	r3, [r7, #7]
    103a:	4a06      	ldr	r2, [pc, #24]	; (1054 <GPIO_SetInputStatus+0x48>)
    103c:	f852 2023 	ldr.w	r2, [r2, r3, lsl #2]
    1040:	b2c9      	uxtb	r1, r1
    1042:	6813      	ldr	r3, [r2, #0]
    1044:	f361 0307 	bfi	r3, r1, #0, #8
    1048:	6013      	str	r3, [r2, #0]
    104a:	bf00      	nop
    104c:	370c      	adds	r7, #12
    104e:	46bd      	mov	sp, r7
    1050:	bc80      	pop	{r7}
    1052:	4770      	bx	lr
    1054:	00000424 	andeq	r0, r0, r4, lsr #8

00001058 <GPIO_ConfigureInputPin>:
    1058:	b580      	push	{r7, lr}
    105a:	b082      	sub	sp, #8
    105c:	af00      	add	r7, sp, #0
    105e:	6078      	str	r0, [r7, #4]
    1060:	687b      	ldr	r3, [r7, #4]
    1062:	781b      	ldrb	r3, [r3, #0]
    1064:	4618      	mov	r0, r3
    1066:	f7ff fe13 	bl	c90 <GPIO_EnableRunModeClockGateControl>
    106a:	687b      	ldr	r3, [r7, #4]
    106c:	781b      	ldrb	r3, [r3, #0]
    106e:	2b05      	cmp	r3, #5
    1070:	d108      	bne.n	1084 <GPIO_ConfigureInputPin+0x2c>
    1072:	687b      	ldr	r3, [r7, #4]
    1074:	785b      	ldrb	r3, [r3, #1]
    1076:	2b00      	cmp	r3, #0
    1078:	d104      	bne.n	1084 <GPIO_ConfigureInputPin+0x2c>
    107a:	2201      	movs	r2, #1
    107c:	2100      	movs	r1, #0
    107e:	2005      	movs	r0, #5
    1080:	f7ff ff0e 	bl	ea0 <GPIO_ConfigureCommit>
    1084:	687b      	ldr	r3, [r7, #4]
    1086:	7818      	ldrb	r0, [r3, #0]
    1088:	687b      	ldr	r3, [r7, #4]
    108a:	785b      	ldrb	r3, [r3, #1]
    108c:	2200      	movs	r2, #0
    108e:	4619      	mov	r1, r3
    1090:	f7ff ff74 	bl	f7c <GPIO_SetPinDirection>
    1094:	687b      	ldr	r3, [r7, #4]
    1096:	781a      	ldrb	r2, [r3, #0]
    1098:	687b      	ldr	r3, [r7, #4]
    109a:	785b      	ldrb	r3, [r3, #1]
    109c:	4619      	mov	r1, r3
    109e:	4610      	mov	r0, r2
    10a0:	f7ff ffb4 	bl	100c <GPIO_SetInputStatus>
    10a4:	687b      	ldr	r3, [r7, #4]
    10a6:	7818      	ldrb	r0, [r3, #0]
    10a8:	687b      	ldr	r3, [r7, #4]
    10aa:	785b      	ldrb	r3, [r3, #1]
    10ac:	2201      	movs	r2, #1
    10ae:	4619      	mov	r1, r3
    10b0:	f7ff feae 	bl	e10 <GPIO_ConfigureDigitalEnable>
    10b4:	bf00      	nop
    10b6:	3708      	adds	r7, #8
    10b8:	46bd      	mov	sp, r7
    10ba:	bd80      	pop	{r7, pc}

000010bc <GPIO_WriteBitBandBits>:
    10bc:	b490      	push	{r4, r7}
    10be:	b082      	sub	sp, #8
    10c0:	af00      	add	r7, sp, #0
    10c2:	4603      	mov	r3, r0
    10c4:	71fb      	strb	r3, [r7, #7]
    10c6:	460b      	mov	r3, r1
    10c8:	71bb      	strb	r3, [r7, #6]
    10ca:	4613      	mov	r3, r2
    10cc:	717b      	strb	r3, [r7, #5]
    10ce:	797b      	ldrb	r3, [r7, #5]
    10d0:	2b00      	cmp	r3, #0
    10d2:	d012      	beq.n	10fa <GPIO_WriteBitBandBits+0x3e>
    10d4:	2b01      	cmp	r3, #1
    10d6:	d12c      	bne.n	1132 <GPIO_WriteBitBandBits+0x76>
    10d8:	79fb      	ldrb	r3, [r7, #7]
    10da:	2201      	movs	r2, #1
    10dc:	fa02 f003 	lsl.w	r0, r2, r3
    10e0:	79bb      	ldrb	r3, [r7, #6]
    10e2:	4a16      	ldr	r2, [pc, #88]	; (113c <GPIO_WriteBitBandBits+0x80>)
    10e4:	f852 3023 	ldr.w	r3, [r2, r3, lsl #2]
    10e8:	79fa      	ldrb	r2, [r7, #7]
    10ea:	3202      	adds	r2, #2
    10ec:	2101      	movs	r1, #1
    10ee:	fa01 f202 	lsl.w	r2, r1, r2
    10f2:	4413      	add	r3, r2
    10f4:	4602      	mov	r2, r0
    10f6:	601a      	str	r2, [r3, #0]
    10f8:	e01b      	b.n	1132 <GPIO_WriteBitBandBits+0x76>
    10fa:	79bb      	ldrb	r3, [r7, #6]
    10fc:	4a0f      	ldr	r2, [pc, #60]	; (113c <GPIO_WriteBitBandBits+0x80>)
    10fe:	f852 3023 	ldr.w	r3, [r2, r3, lsl #2]
    1102:	79fa      	ldrb	r2, [r7, #7]
    1104:	3202      	adds	r2, #2
    1106:	2101      	movs	r1, #1
    1108:	fa01 f202 	lsl.w	r2, r1, r2
    110c:	441a      	add	r2, r3
    110e:	6812      	ldr	r2, [r2, #0]
    1110:	79f9      	ldrb	r1, [r7, #7]
    1112:	2001      	movs	r0, #1
    1114:	fa00 f101 	lsl.w	r1, r0, r1
    1118:	43c9      	mvns	r1, r1
    111a:	460c      	mov	r4, r1
    111c:	79f9      	ldrb	r1, [r7, #7]
    111e:	3102      	adds	r1, #2
    1120:	2001      	movs	r0, #1
    1122:	fa00 f101 	lsl.w	r1, r0, r1
    1126:	440b      	add	r3, r1
    1128:	4619      	mov	r1, r3
    112a:	ea02 0304 	and.w	r3, r2, r4
    112e:	600b      	str	r3, [r1, #0]
    1130:	bf00      	nop
    1132:	bf00      	nop
    1134:	3708      	adds	r7, #8
    1136:	46bd      	mov	sp, r7
    1138:	bc90      	pop	{r4, r7}
    113a:	4770      	bx	lr
    113c:	20000024 	andcs	r0, r0, r4, lsr #32

00001140 <main>:
    1140:	b580      	push	{r7, lr}
    1142:	b082      	sub	sp, #8
    1144:	af00      	add	r7, sp, #0
    1146:	b662      	cpsie	i
    1148:	2001      	movs	r0, #1
    114a:	f000 f98d 	bl	1468 <SysTickConfigureClockSource>
    114e:	f000 f8ff 	bl	1350 <SC_GetSystemClock>
    1152:	4603      	mov	r3, r0
    1154:	4a1c      	ldr	r2, [pc, #112]	; (11c8 <main+0x88>)
    1156:	6013      	str	r3, [r2, #0]
    1158:	481c      	ldr	r0, [pc, #112]	; (11cc <main+0x8c>)
    115a:	f7ff fee1 	bl	f20 <GPIO_ConfigureOutputPin>
    115e:	481c      	ldr	r0, [pc, #112]	; (11d0 <main+0x90>)
    1160:	f7ff ff7a 	bl	1058 <GPIO_ConfigureInputPin>
    1164:	481b      	ldr	r0, [pc, #108]	; (11d4 <main+0x94>)
    1166:	f7ff ff77 	bl	1058 <GPIO_ConfigureInputPin>
    116a:	f7ff fba3 	bl	8b4 <DMA_PeripheralInitialization>
    116e:	4b1a      	ldr	r3, [pc, #104]	; (11d8 <main+0x98>)
    1170:	681b      	ldr	r3, [r3, #0]
    1172:	4a1a      	ldr	r2, [pc, #104]	; (11dc <main+0x9c>)
    1174:	491a      	ldr	r1, [pc, #104]	; (11e0 <main+0xa0>)
    1176:	4618      	mov	r0, r3
    1178:	f7ff fc14 	bl	9a4 <DMA_ChannelControlStructureSet>
    117c:	4b16      	ldr	r3, [pc, #88]	; (11d8 <main+0x98>)
    117e:	681b      	ldr	r3, [r3, #0]
    1180:	4618      	mov	r0, r3
    1182:	f7ff fbb3 	bl	8ec <DMA_EnableChannelAttributes>
    1186:	2100      	movs	r1, #0
    1188:	201e      	movs	r0, #30
    118a:	f7ff fd55 	bl	c38 <DMA_AssignChannel>
    118e:	201e      	movs	r0, #30
    1190:	f7ff fbf2 	bl	978 <DMA_EnableChannel>
    1194:	2000      	movs	r0, #0
    1196:	f7ff fcdd 	bl	b54 <DMA_ConfigurePeripheralInterrupt>
    119a:	211e      	movs	r1, #30
    119c:	2000      	movs	r0, #0
    119e:	f7ff fcf5 	bl	b8c <DMA_ConfigureChannelInterrupt>
    11a2:	2101      	movs	r1, #1
    11a4:	2001      	movs	r0, #1
    11a6:	f000 f975 	bl	1494 <SysTickGenerateDelay_Interrupt>
    11aa:	211e      	movs	r1, #30
    11ac:	2001      	movs	r0, #1
    11ae:	f7ff fca5 	bl	afc <DMA_ConfigureChannelSoftwareRequest>
    11b2:	2300      	movs	r3, #0
    11b4:	607b      	str	r3, [r7, #4]
    11b6:	687b      	ldr	r3, [r7, #4]
    11b8:	3301      	adds	r3, #1
    11ba:	607b      	str	r3, [r7, #4]
    11bc:	2200      	movs	r2, #0
    11be:	2105      	movs	r1, #5
    11c0:	2001      	movs	r0, #1
    11c2:	f7ff ff7b 	bl	10bc <GPIO_WriteBitBandBits>
    11c6:	e7f6      	b.n	11b6 <main+0x76>
    11c8:	20001544 	andcs	r1, r0, r4, asr #10
    11cc:	20000040 	andcs	r0, r0, r0, asr #32
    11d0:	20000044 	andcs	r0, r0, r4, asr #32
    11d4:	2000003c 	andcs	r0, r0, ip, lsr r0
    11d8:	20000020 	andcs	r0, r0, r0, lsr #32
    11dc:	20001523 	andcs	r1, r0, r3, lsr #10
    11e0:	2000111b 	andcs	r1, r0, fp, lsl r1

000011e4 <NVIC_Enable_Interrupt>:
    11e4:	b480      	push	{r7}
    11e6:	b085      	sub	sp, #20
    11e8:	af00      	add	r7, sp, #0
    11ea:	6078      	str	r0, [r7, #4]
    11ec:	687b      	ldr	r3, [r7, #4]
    11ee:	095b      	lsrs	r3, r3, #5
    11f0:	73fb      	strb	r3, [r7, #15]
    11f2:	687b      	ldr	r3, [r7, #4]
    11f4:	b2da      	uxtb	r2, r3
    11f6:	7bfb      	ldrb	r3, [r7, #15]
    11f8:	015b      	lsls	r3, r3, #5
    11fa:	b2db      	uxtb	r3, r3
    11fc:	1ad3      	subs	r3, r2, r3
    11fe:	73bb      	strb	r3, [r7, #14]
    1200:	7bfb      	ldrb	r3, [r7, #15]
    1202:	4a0a      	ldr	r2, [pc, #40]	; (122c <NVIC_Enable_Interrupt+0x48>)
    1204:	f852 3023 	ldr.w	r3, [r2, r3, lsl #2]
    1208:	681a      	ldr	r2, [r3, #0]
    120a:	7bbb      	ldrb	r3, [r7, #14]
    120c:	2101      	movs	r1, #1
    120e:	fa01 f303 	lsl.w	r3, r1, r3
    1212:	4618      	mov	r0, r3
    1214:	7bfb      	ldrb	r3, [r7, #15]
    1216:	4905      	ldr	r1, [pc, #20]	; (122c <NVIC_Enable_Interrupt+0x48>)
    1218:	f851 3023 	ldr.w	r3, [r1, r3, lsl #2]
    121c:	4302      	orrs	r2, r0
    121e:	601a      	str	r2, [r3, #0]
    1220:	bf00      	nop
    1222:	3714      	adds	r7, #20
    1224:	46bd      	mov	sp, r7
    1226:	bc80      	pop	{r7}
    1228:	4770      	bx	lr
    122a:	bf00      	nop
    122c:	000006bc 			; <UNDEFINED> instruction: 0x000006bc

00001230 <NVIC_Clear_Interrupt>:
    1230:	b480      	push	{r7}
    1232:	b085      	sub	sp, #20
    1234:	af00      	add	r7, sp, #0
    1236:	6078      	str	r0, [r7, #4]
    1238:	687b      	ldr	r3, [r7, #4]
    123a:	095b      	lsrs	r3, r3, #5
    123c:	73fb      	strb	r3, [r7, #15]
    123e:	687b      	ldr	r3, [r7, #4]
    1240:	b2da      	uxtb	r2, r3
    1242:	7bfb      	ldrb	r3, [r7, #15]
    1244:	015b      	lsls	r3, r3, #5
    1246:	b2db      	uxtb	r3, r3
    1248:	1ad3      	subs	r3, r2, r3
    124a:	73bb      	strb	r3, [r7, #14]
    124c:	7bfb      	ldrb	r3, [r7, #15]
    124e:	4a0a      	ldr	r2, [pc, #40]	; (1278 <NVIC_Clear_Interrupt+0x48>)
    1250:	f852 3023 	ldr.w	r3, [r2, r3, lsl #2]
    1254:	681a      	ldr	r2, [r3, #0]
    1256:	7bbb      	ldrb	r3, [r7, #14]
    1258:	2101      	movs	r1, #1
    125a:	fa01 f303 	lsl.w	r3, r1, r3
    125e:	43db      	mvns	r3, r3
    1260:	4618      	mov	r0, r3
    1262:	7bfb      	ldrb	r3, [r7, #15]
    1264:	4904      	ldr	r1, [pc, #16]	; (1278 <NVIC_Clear_Interrupt+0x48>)
    1266:	f851 3023 	ldr.w	r3, [r1, r3, lsl #2]
    126a:	4002      	ands	r2, r0
    126c:	601a      	str	r2, [r3, #0]
    126e:	bf00      	nop
    1270:	3714      	adds	r7, #20
    1272:	46bd      	mov	sp, r7
    1274:	bc80      	pop	{r7}
    1276:	4770      	bx	lr
    1278:	000006cc 	andeq	r0, r0, ip, asr #13

0000127c <Default_Handler>:
    127c:	b580      	push	{r7, lr}
    127e:	af00      	add	r7, sp, #0
    1280:	f000 f802 	bl	1288 <Reset_Handler>
    1284:	bf00      	nop
    1286:	bd80      	pop	{r7, pc}

00001288 <Reset_Handler>:
    1288:	b580      	push	{r7, lr}
    128a:	b086      	sub	sp, #24
    128c:	af00      	add	r7, sp, #0
    128e:	4a19      	ldr	r2, [pc, #100]	; (12f4 <Reset_Handler+0x6c>)
    1290:	4b19      	ldr	r3, [pc, #100]	; (12f8 <Reset_Handler+0x70>)
    1292:	1ad3      	subs	r3, r2, r3
    1294:	60bb      	str	r3, [r7, #8]
    1296:	4a19      	ldr	r2, [pc, #100]	; (12fc <Reset_Handler+0x74>)
    1298:	4b19      	ldr	r3, [pc, #100]	; (1300 <Reset_Handler+0x78>)
    129a:	1ad3      	subs	r3, r2, r3
    129c:	607b      	str	r3, [r7, #4]
    129e:	4b19      	ldr	r3, [pc, #100]	; (1304 <Reset_Handler+0x7c>)
    12a0:	603b      	str	r3, [r7, #0]
    12a2:	4b15      	ldr	r3, [pc, #84]	; (12f8 <Reset_Handler+0x70>)
    12a4:	617b      	str	r3, [r7, #20]
    12a6:	2300      	movs	r3, #0
    12a8:	613b      	str	r3, [r7, #16]
    12aa:	e00a      	b.n	12c2 <Reset_Handler+0x3a>
    12ac:	697a      	ldr	r2, [r7, #20]
    12ae:	1c53      	adds	r3, r2, #1
    12b0:	617b      	str	r3, [r7, #20]
    12b2:	697b      	ldr	r3, [r7, #20]
    12b4:	1c59      	adds	r1, r3, #1
    12b6:	6179      	str	r1, [r7, #20]
    12b8:	7812      	ldrb	r2, [r2, #0]
    12ba:	701a      	strb	r2, [r3, #0]
    12bc:	693b      	ldr	r3, [r7, #16]
    12be:	3301      	adds	r3, #1
    12c0:	613b      	str	r3, [r7, #16]
    12c2:	693b      	ldr	r3, [r7, #16]
    12c4:	68ba      	ldr	r2, [r7, #8]
    12c6:	429a      	cmp	r2, r3
    12c8:	d8f0      	bhi.n	12ac <Reset_Handler+0x24>
    12ca:	2300      	movs	r3, #0
    12cc:	60fb      	str	r3, [r7, #12]
    12ce:	e007      	b.n	12e0 <Reset_Handler+0x58>
    12d0:	697b      	ldr	r3, [r7, #20]
    12d2:	1c5a      	adds	r2, r3, #1
    12d4:	617a      	str	r2, [r7, #20]
    12d6:	2200      	movs	r2, #0
    12d8:	701a      	strb	r2, [r3, #0]
    12da:	68fb      	ldr	r3, [r7, #12]
    12dc:	3301      	adds	r3, #1
    12de:	60fb      	str	r3, [r7, #12]
    12e0:	68fb      	ldr	r3, [r7, #12]
    12e2:	687a      	ldr	r2, [r7, #4]
    12e4:	429a      	cmp	r2, r3
    12e6:	d8f3      	bhi.n	12d0 <Reset_Handler+0x48>
    12e8:	f7ff ff2a 	bl	1140 <main>
    12ec:	bf00      	nop
    12ee:	3718      	adds	r7, #24
    12f0:	46bd      	mov	sp, r7
    12f2:	bd80      	pop	{r7, pc}
    12f4:	20000000 	andcs	r0, r0, r0
    12f8:	20000000 	andcs	r0, r0, r0
    12fc:	20000400 	andcs	r0, r0, r0, lsl #8
    1300:	20001df4 	strdcs	r1, [r0], -r4
    1304:	000014ec 	andeq	r1, r0, ip, ror #9

00001308 <SC_GetOscillatorValue>:
    1308:	b480      	push	{r7}
    130a:	af00      	add	r7, sp, #0
    130c:	4b0c      	ldr	r3, [pc, #48]	; (1340 <SC_GetOscillatorValue+0x38>)
    130e:	681b      	ldr	r3, [r3, #0]
    1310:	f3c3 1301 	ubfx	r3, r3, #4, #2
    1314:	b2db      	uxtb	r3, r3
    1316:	2b03      	cmp	r3, #3
    1318:	d00b      	beq.n	1332 <SC_GetOscillatorValue+0x2a>
    131a:	2b03      	cmp	r3, #3
    131c:	dc03      	bgt.n	1326 <SC_GetOscillatorValue+0x1e>
    131e:	2b01      	cmp	r3, #1
    1320:	d003      	beq.n	132a <SC_GetOscillatorValue+0x22>
    1322:	2b02      	cmp	r3, #2
    1324:	d003      	beq.n	132e <SC_GetOscillatorValue+0x26>
    1326:	4b07      	ldr	r3, [pc, #28]	; (1344 <SC_GetOscillatorValue+0x3c>)
    1328:	e005      	b.n	1336 <SC_GetOscillatorValue+0x2e>
    132a:	4b07      	ldr	r3, [pc, #28]	; (1348 <SC_GetOscillatorValue+0x40>)
    132c:	e003      	b.n	1336 <SC_GetOscillatorValue+0x2e>
    132e:	4b07      	ldr	r3, [pc, #28]	; (134c <SC_GetOscillatorValue+0x44>)
    1330:	e001      	b.n	1336 <SC_GetOscillatorValue+0x2e>
    1332:	f247 5330 	movw	r3, #30000	; 0x7530
    1336:	4618      	mov	r0, r3
    1338:	46bd      	mov	sp, r7
    133a:	bc80      	pop	{r7}
    133c:	4770      	bx	lr
    133e:	bf00      	nop
    1340:	400fe060 	andmi	lr, pc, r0, rrx
    1344:	004c4b40 	subeq	r4, ip, r0, asr #22
    1348:	00f42400 	rscseq	r2, r4, r0, lsl #8
    134c:	003d0900 	eorseq	r0, sp, r0, lsl #18

00001350 <SC_GetSystemClock>:
    1350:	b580      	push	{r7, lr}
    1352:	b082      	sub	sp, #8
    1354:	af00      	add	r7, sp, #0
    1356:	4b22      	ldr	r3, [pc, #136]	; (13e0 <SC_GetSystemClock+0x90>)
    1358:	681b      	ldr	r3, [r3, #0]
    135a:	f3c3 23c0 	ubfx	r3, r3, #11, #1
    135e:	b2db      	uxtb	r3, r3
    1360:	2b00      	cmp	r3, #0
    1362:	d117      	bne.n	1394 <SC_GetSystemClock+0x44>
    1364:	4b1e      	ldr	r3, [pc, #120]	; (13e0 <SC_GetSystemClock+0x90>)
    1366:	681b      	ldr	r3, [r3, #0]
    1368:	f3c3 5380 	ubfx	r3, r3, #22, #1
    136c:	b2db      	uxtb	r3, r3
    136e:	2b01      	cmp	r3, #1
    1370:	d10e      	bne.n	1390 <SC_GetSystemClock+0x40>
    1372:	4b1c      	ldr	r3, [pc, #112]	; (13e4 <SC_GetSystemClock+0x94>)
    1374:	607b      	str	r3, [r7, #4]
    1376:	4b1a      	ldr	r3, [pc, #104]	; (13e0 <SC_GetSystemClock+0x90>)
    1378:	681b      	ldr	r3, [r3, #0]
    137a:	f3c3 53c3 	ubfx	r3, r3, #23, #4
    137e:	b2db      	uxtb	r3, r3
    1380:	461a      	mov	r2, r3
    1382:	4b19      	ldr	r3, [pc, #100]	; (13e8 <SC_GetSystemClock+0x98>)
    1384:	5c9b      	ldrb	r3, [r3, r2]
    1386:	461a      	mov	r2, r3
    1388:	687b      	ldr	r3, [r7, #4]
    138a:	fbb3 f3f2 	udiv	r3, r3, r2
    138e:	607b      	str	r3, [r7, #4]
    1390:	687b      	ldr	r3, [r7, #4]
    1392:	e020      	b.n	13d6 <SC_GetSystemClock+0x86>
    1394:	4b12      	ldr	r3, [pc, #72]	; (13e0 <SC_GetSystemClock+0x90>)
    1396:	681b      	ldr	r3, [r3, #0]
    1398:	f3c3 23c0 	ubfx	r3, r3, #11, #1
    139c:	b2db      	uxtb	r3, r3
    139e:	2b01      	cmp	r3, #1
    13a0:	d118      	bne.n	13d4 <SC_GetSystemClock+0x84>
    13a2:	f7ff ffb1 	bl	1308 <SC_GetOscillatorValue>
    13a6:	6078      	str	r0, [r7, #4]
    13a8:	4b0d      	ldr	r3, [pc, #52]	; (13e0 <SC_GetSystemClock+0x90>)
    13aa:	681b      	ldr	r3, [r3, #0]
    13ac:	f3c3 5380 	ubfx	r3, r3, #22, #1
    13b0:	b2db      	uxtb	r3, r3
    13b2:	2b01      	cmp	r3, #1
    13b4:	d10c      	bne.n	13d0 <SC_GetSystemClock+0x80>
    13b6:	4b0a      	ldr	r3, [pc, #40]	; (13e0 <SC_GetSystemClock+0x90>)
    13b8:	681b      	ldr	r3, [r3, #0]
    13ba:	f3c3 53c3 	ubfx	r3, r3, #23, #4
    13be:	b2db      	uxtb	r3, r3
    13c0:	461a      	mov	r2, r3
    13c2:	4b09      	ldr	r3, [pc, #36]	; (13e8 <SC_GetSystemClock+0x98>)
    13c4:	5c9b      	ldrb	r3, [r3, r2]
    13c6:	461a      	mov	r2, r3
    13c8:	687b      	ldr	r3, [r7, #4]
    13ca:	fbb3 f3f2 	udiv	r3, r3, r2
    13ce:	607b      	str	r3, [r7, #4]
    13d0:	687b      	ldr	r3, [r7, #4]
    13d2:	e000      	b.n	13d6 <SC_GetSystemClock+0x86>
    13d4:	2300      	movs	r3, #0
    13d6:	4618      	mov	r0, r3
    13d8:	3708      	adds	r7, #8
    13da:	46bd      	mov	sp, r7
    13dc:	bd80      	pop	{r7, pc}
    13de:	bf00      	nop
    13e0:	400fe060 	andmi	lr, pc, r0, rrx
    13e4:	0bebc200 	bleq	ffaf1bec <_E_BSS+0xdfaefdf8>
    13e8:	0000071c 	andeq	r0, r0, ip, lsl r7

000013ec <SysTickEnable>:
    13ec:	b480      	push	{r7}
    13ee:	af00      	add	r7, sp, #0
    13f0:	4a04      	ldr	r2, [pc, #16]	; (1404 <SysTickEnable+0x18>)
    13f2:	6813      	ldr	r3, [r2, #0]
    13f4:	f043 0301 	orr.w	r3, r3, #1
    13f8:	6013      	str	r3, [r2, #0]
    13fa:	bf00      	nop
    13fc:	46bd      	mov	sp, r7
    13fe:	bc80      	pop	{r7}
    1400:	4770      	bx	lr
    1402:	bf00      	nop
    1404:	e000e010 	and	lr, r0, r0, lsl r0

00001408 <SysTickDisable>:
    1408:	b480      	push	{r7}
    140a:	af00      	add	r7, sp, #0
    140c:	4a04      	ldr	r2, [pc, #16]	; (1420 <SysTickDisable+0x18>)
    140e:	6813      	ldr	r3, [r2, #0]
    1410:	f36f 0300 	bfc	r3, #0, #1
    1414:	6013      	str	r3, [r2, #0]
    1416:	bf00      	nop
    1418:	46bd      	mov	sp, r7
    141a:	bc80      	pop	{r7}
    141c:	4770      	bx	lr
    141e:	bf00      	nop
    1420:	e000e010 	and	lr, r0, r0, lsl r0

00001424 <SysTickFrequencyGet>:
    1424:	b5b0      	push	{r4, r5, r7, lr}
    1426:	b082      	sub	sp, #8
    1428:	af00      	add	r7, sp, #0
    142a:	4b0d      	ldr	r3, [pc, #52]	; (1460 <SysTickFrequencyGet+0x3c>)
    142c:	681b      	ldr	r3, [r3, #0]
    142e:	f3c3 0380 	ubfx	r3, r3, #2, #1
    1432:	b2db      	uxtb	r3, r3
    1434:	2b00      	cmp	r3, #0
    1436:	d103      	bne.n	1440 <SysTickFrequencyGet+0x1c>
    1438:	4a0a      	ldr	r2, [pc, #40]	; (1464 <SysTickFrequencyGet+0x40>)
    143a:	f04f 0300 	mov.w	r3, #0
    143e:	e009      	b.n	1454 <SysTickFrequencyGet+0x30>
    1440:	f7ff ff86 	bl	1350 <SC_GetSystemClock>
    1444:	4603      	mov	r3, r0
    1446:	2200      	movs	r2, #0
    1448:	461c      	mov	r4, r3
    144a:	4615      	mov	r5, r2
    144c:	e9c7 4500 	strd	r4, r5, [r7]
    1450:	e9d7 2300 	ldrd	r2, r3, [r7]
    1454:	4610      	mov	r0, r2
    1456:	4619      	mov	r1, r3
    1458:	3708      	adds	r7, #8
    145a:	46bd      	mov	sp, r7
    145c:	bdb0      	pop	{r4, r5, r7, pc}
    145e:	bf00      	nop
    1460:	e000e010 	and	lr, r0, r0, lsl r0
    1464:	003d0900 	eorseq	r0, sp, r0, lsl #18

00001468 <SysTickConfigureClockSource>:
    1468:	b480      	push	{r7}
    146a:	b083      	sub	sp, #12
    146c:	af00      	add	r7, sp, #0
    146e:	4603      	mov	r3, r0
    1470:	71fb      	strb	r3, [r7, #7]
    1472:	4a07      	ldr	r2, [pc, #28]	; (1490 <SysTickConfigureClockSource+0x28>)
    1474:	79fb      	ldrb	r3, [r7, #7]
    1476:	f003 0301 	and.w	r3, r3, #1
    147a:	b2d9      	uxtb	r1, r3
    147c:	6813      	ldr	r3, [r2, #0]
    147e:	f361 0382 	bfi	r3, r1, #2, #1
    1482:	6013      	str	r3, [r2, #0]
    1484:	bf00      	nop
    1486:	370c      	adds	r7, #12
    1488:	46bd      	mov	sp, r7
    148a:	bc80      	pop	{r7}
    148c:	4770      	bx	lr
    148e:	bf00      	nop
    1490:	e000e010 	and	lr, r0, r0, lsl r0

00001494 <SysTickGenerateDelay_Interrupt>:
    1494:	b580      	push	{r7, lr}
    1496:	b086      	sub	sp, #24
    1498:	af00      	add	r7, sp, #0
    149a:	6078      	str	r0, [r7, #4]
    149c:	6039      	str	r1, [r7, #0]
    149e:	f7ff ffb3 	bl	1408 <SysTickDisable>
    14a2:	f7ff ffbf 	bl	1424 <SysTickFrequencyGet>
    14a6:	e9c7 0104 	strd	r0, r1, [r7, #16]
    14aa:	f04f 0200 	mov.w	r2, #0
    14ae:	f04f 0300 	mov.w	r3, #0
    14b2:	e9c7 2302 	strd	r2, r3, [r7, #8]
    14b6:	490b      	ldr	r1, [pc, #44]	; (14e4 <SysTickGenerateDelay_Interrupt+0x50>)
    14b8:	68ba      	ldr	r2, [r7, #8]
    14ba:	f022 427f 	bic.w	r2, r2, #4278190080	; 0xff000000
    14be:	680b      	ldr	r3, [r1, #0]
    14c0:	f362 0317 	bfi	r3, r2, #0, #24
    14c4:	600b      	str	r3, [r1, #0]
    14c6:	4a08      	ldr	r2, [pc, #32]	; (14e8 <SysTickGenerateDelay_Interrupt+0x54>)
    14c8:	6813      	ldr	r3, [r2, #0]
    14ca:	f043 0302 	orr.w	r3, r3, #2
    14ce:	6013      	str	r3, [r2, #0]
    14d0:	200f      	movs	r0, #15
    14d2:	f7ff fe87 	bl	11e4 <NVIC_Enable_Interrupt>
    14d6:	f7ff ff89 	bl	13ec <SysTickEnable>
    14da:	bf00      	nop
    14dc:	3718      	adds	r7, #24
    14de:	46bd      	mov	sp, r7
    14e0:	bd80      	pop	{r7, pc}
    14e2:	bf00      	nop
    14e4:	e000e014 	and	lr, r0, r4, lsl r0
    14e8:	e000e010 	and	lr, r0, r0, lsl r0
