
D:\gcc_arm_none_eabi\gcc-arm-none-eabi-10.3-2021.10-win32\Unit3_Revision\HC-05_UART\DMA_Project.elf:     file format elf32-littlearm


Disassembly of section .vectors:

00000000 <gp_fn_vectors>:
   0:	20001d4c 	andcs	r1, r0, ip, asr #26
   4:	00001289 	andeq	r1, r0, r9, lsl #5
   8:	0000127d 	andeq	r1, r0, sp, ror r2
   c:	0000127d 	andeq	r1, r0, sp, ror r2
  10:	0000127d 	andeq	r1, r0, sp, ror r2
  14:	0000127d 	andeq	r1, r0, sp, ror r2
  18:	0000127d 	andeq	r1, r0, sp, ror r2

Disassembly of section .rodata:

0000001c <SourceAddressPointerRegisters>:
  1c:	20000800 	andcs	r0, r0, r0, lsl #16
  20:	20000810 	andcs	r0, r0, r0, lsl r8
  24:	20000820 	andcs	r0, r0, r0, lsr #16
  28:	20000830 	andcs	r0, r0, r0, lsr r8
  2c:	20000840 	andcs	r0, r0, r0, asr #16
  30:	20000850 	andcs	r0, r0, r0, asr r8
  34:	20000860 	andcs	r0, r0, r0, ror #16
  38:	20000870 	andcs	r0, r0, r0, ror r8
  3c:	20000880 	andcs	r0, r0, r0, lsl #17
  40:	20000890 	mulcs	r0, r0, r8
  44:	200008a0 	andcs	r0, r0, r0, lsr #17
  48:	200008b0 			; <UNDEFINED> instruction: 0x200008b0
  4c:	200008c0 	andcs	r0, r0, r0, asr #17
  50:	200008d0 	ldrdcs	r0, [r0], -r0	; <UNPREDICTABLE>
  54:	200008e0 	andcs	r0, r0, r0, ror #17
  58:	200008f0 	strdcs	r0, [r0], -r0	; <UNPREDICTABLE>
  5c:	20000900 	andcs	r0, r0, r0, lsl #18
  60:	20000910 	andcs	r0, r0, r0, lsl r9
  64:	20000920 	andcs	r0, r0, r0, lsr #18
  68:	20000930 	andcs	r0, r0, r0, lsr r9
  6c:	20000940 	andcs	r0, r0, r0, asr #18
  70:	20000950 	andcs	r0, r0, r0, asr r9
  74:	20000960 	andcs	r0, r0, r0, ror #18
  78:	20000970 	andcs	r0, r0, r0, ror r9
  7c:	20000980 	andcs	r0, r0, r0, lsl #19
  80:	20000990 	mulcs	r0, r0, r9
  84:	200009a0 	andcs	r0, r0, r0, lsr #19
  88:	200009b0 			; <UNDEFINED> instruction: 0x200009b0
  8c:	200009c0 	andcs	r0, r0, r0, asr #19
  90:	200009d0 	ldrdcs	r0, [r0], -r0	; <UNPREDICTABLE>
  94:	200009e0 	andcs	r0, r0, r0, ror #19
  98:	200009f0 	strdcs	r0, [r0], -r0	; <UNPREDICTABLE>

0000009c <AlternateSourceAddressPointerRegisters>:
  9c:	20000a00 	andcs	r0, r0, r0, lsl #20
  a0:	20000a10 	andcs	r0, r0, r0, lsl sl
  a4:	20000a20 	andcs	r0, r0, r0, lsr #20
  a8:	20000a30 	andcs	r0, r0, r0, lsr sl
  ac:	20000a40 	andcs	r0, r0, r0, asr #20
  b0:	20000a50 	andcs	r0, r0, r0, asr sl
  b4:	20000a60 	andcs	r0, r0, r0, ror #20
  b8:	20000a70 	andcs	r0, r0, r0, ror sl
  bc:	20000a80 	andcs	r0, r0, r0, lsl #21
  c0:	20000a90 	mulcs	r0, r0, sl
  c4:	20000aa0 	andcs	r0, r0, r0, lsr #21
  c8:	20000ab0 			; <UNDEFINED> instruction: 0x20000ab0
  cc:	20000ac0 	andcs	r0, r0, r0, asr #21
  d0:	20000ad0 	ldrdcs	r0, [r0], -r0	; <UNPREDICTABLE>
  d4:	20000ae0 	andcs	r0, r0, r0, ror #21
  d8:	20000af0 	strdcs	r0, [r0], -r0	; <UNPREDICTABLE>
  dc:	20000b00 	andcs	r0, r0, r0, lsl #22
  e0:	20000b10 	andcs	r0, r0, r0, lsl fp
  e4:	20000b20 	andcs	r0, r0, r0, lsr #22
  e8:	20000b30 	andcs	r0, r0, r0, lsr fp
  ec:	20000b40 	andcs	r0, r0, r0, asr #22
  f0:	20000b50 	andcs	r0, r0, r0, asr fp
  f4:	20000b60 	andcs	r0, r0, r0, ror #22
  f8:	20000b70 	andcs	r0, r0, r0, ror fp
  fc:	20000b80 	andcs	r0, r0, r0, lsl #23
 100:	20000b90 	mulcs	r0, r0, fp
 104:	20000ba0 	andcs	r0, r0, r0, lsr #23
 108:	20000bb0 			; <UNDEFINED> instruction: 0x20000bb0
 10c:	20000bc0 	andcs	r0, r0, r0, asr #23
 110:	20000bd0 	ldrdcs	r0, [r0], -r0	; <UNPREDICTABLE>
 114:	20000be0 	andcs	r0, r0, r0, ror #23
 118:	20000bf0 	strdcs	r0, [r0], -r0	; <UNPREDICTABLE>

0000011c <DestinationAddressPointerRegisters>:
 11c:	20000804 	andcs	r0, r0, r4, lsl #16
 120:	20000814 	andcs	r0, r0, r4, lsl r8
 124:	20000824 	andcs	r0, r0, r4, lsr #16
 128:	20000834 	andcs	r0, r0, r4, lsr r8
 12c:	20000844 	andcs	r0, r0, r4, asr #16
 130:	20000854 	andcs	r0, r0, r4, asr r8
 134:	20000864 	andcs	r0, r0, r4, ror #16
 138:	20000874 	andcs	r0, r0, r4, ror r8
 13c:	20000884 	andcs	r0, r0, r4, lsl #17
 140:	20000894 	mulcs	r0, r4, r8
 144:	200008a4 	andcs	r0, r0, r4, lsr #17
 148:	200008b4 			; <UNDEFINED> instruction: 0x200008b4
 14c:	200008c4 	andcs	r0, r0, r4, asr #17
 150:	200008d4 	ldrdcs	r0, [r0], -r4
 154:	200008e4 	andcs	r0, r0, r4, ror #17
 158:	200008f4 	strdcs	r0, [r0], -r4
 15c:	20000904 	andcs	r0, r0, r4, lsl #18
 160:	20000914 	andcs	r0, r0, r4, lsl r9
 164:	20000924 	andcs	r0, r0, r4, lsr #18
 168:	20000934 	andcs	r0, r0, r4, lsr r9
 16c:	20000944 	andcs	r0, r0, r4, asr #18
 170:	20000954 	andcs	r0, r0, r4, asr r9
 174:	20000964 	andcs	r0, r0, r4, ror #18
 178:	20000974 	andcs	r0, r0, r4, ror r9
 17c:	20000984 	andcs	r0, r0, r4, lsl #19
 180:	20000994 	mulcs	r0, r4, r9
 184:	200009a4 	andcs	r0, r0, r4, lsr #19
 188:	200009b4 			; <UNDEFINED> instruction: 0x200009b4
 18c:	200009c4 	andcs	r0, r0, r4, asr #19
 190:	200009d4 	ldrdcs	r0, [r0], -r4
 194:	200009e4 	andcs	r0, r0, r4, ror #19
 198:	200009f4 	strdcs	r0, [r0], -r4

0000019c <AlternateDestinationAddressPointerRegisters>:
 19c:	20000a04 	andcs	r0, r0, r4, lsl #20
 1a0:	20000a14 	andcs	r0, r0, r4, lsl sl
 1a4:	20000a24 	andcs	r0, r0, r4, lsr #20
 1a8:	20000a34 	andcs	r0, r0, r4, lsr sl
 1ac:	20000a44 	andcs	r0, r0, r4, asr #20
 1b0:	20000a54 	andcs	r0, r0, r4, asr sl
 1b4:	20000a64 	andcs	r0, r0, r4, ror #20
 1b8:	20000a74 	andcs	r0, r0, r4, ror sl
 1bc:	20000a84 	andcs	r0, r0, r4, lsl #21
 1c0:	20000a94 	mulcs	r0, r4, sl
 1c4:	20000aa4 	andcs	r0, r0, r4, lsr #21
 1c8:	20000ab4 			; <UNDEFINED> instruction: 0x20000ab4
 1cc:	20000ac4 	andcs	r0, r0, r4, asr #21
 1d0:	20000ad4 	ldrdcs	r0, [r0], -r4
 1d4:	20000ae4 	andcs	r0, r0, r4, ror #21
 1d8:	20000af4 	strdcs	r0, [r0], -r4
 1dc:	20000b04 	andcs	r0, r0, r4, lsl #22
 1e0:	20000b14 	andcs	r0, r0, r4, lsl fp
 1e4:	20000b24 	andcs	r0, r0, r4, lsr #22
 1e8:	20000b34 	andcs	r0, r0, r4, lsr fp
 1ec:	20000b44 	andcs	r0, r0, r4, asr #22
 1f0:	20000b54 	andcs	r0, r0, r4, asr fp
 1f4:	20000b64 	andcs	r0, r0, r4, ror #22
 1f8:	20000b74 	andcs	r0, r0, r4, ror fp
 1fc:	20000b84 	andcs	r0, r0, r4, lsl #23
 200:	20000b94 	mulcs	r0, r4, fp
 204:	20000ba4 	andcs	r0, r0, r4, lsr #23
 208:	20000bb4 			; <UNDEFINED> instruction: 0x20000bb4
 20c:	20000bc4 	andcs	r0, r0, r4, asr #23
 210:	20000bd4 	ldrdcs	r0, [r0], -r4
 214:	20000be4 	andcs	r0, r0, r4, ror #23
 218:	20000bf4 	strdcs	r0, [r0], -r4

0000021c <AlternateDMA_ChannelControlWordRegisters>:
 21c:	20000a08 	andcs	r0, r0, r8, lsl #20
 220:	20000a18 	andcs	r0, r0, r8, lsl sl
 224:	20000a28 	andcs	r0, r0, r8, lsr #20
 228:	20000a38 	andcs	r0, r0, r8, lsr sl
 22c:	20000a48 	andcs	r0, r0, r8, asr #20
 230:	20000a58 	andcs	r0, r0, r8, asr sl
 234:	20000a68 	andcs	r0, r0, r8, ror #20
 238:	20000a78 	andcs	r0, r0, r8, ror sl
 23c:	20000a88 	andcs	r0, r0, r8, lsl #21
 240:	20000a98 	mulcs	r0, r8, sl
 244:	20000aa8 	andcs	r0, r0, r8, lsr #21
 248:	20000ab8 			; <UNDEFINED> instruction: 0x20000ab8
 24c:	20000ac8 	andcs	r0, r0, r8, asr #21
 250:	20000ad8 	ldrdcs	r0, [r0], -r8
 254:	20000ae8 	andcs	r0, r0, r8, ror #21
 258:	20000af8 	strdcs	r0, [r0], -r8
 25c:	20000b08 	andcs	r0, r0, r8, lsl #22
 260:	20000b18 	andcs	r0, r0, r8, lsl fp
 264:	20000b28 	andcs	r0, r0, r8, lsr #22
 268:	20000b38 	andcs	r0, r0, r8, lsr fp
 26c:	20000b48 	andcs	r0, r0, r8, asr #22
 270:	20000b58 	andcs	r0, r0, r8, asr fp
 274:	20000b68 	andcs	r0, r0, r8, ror #22
 278:	20000b78 	andcs	r0, r0, r8, ror fp
 27c:	20000b88 	andcs	r0, r0, r8, lsl #23
 280:	20000b98 	mulcs	r0, r8, fp
 284:	20000ba8 	andcs	r0, r0, r8, lsr #23
 288:	20000bb8 			; <UNDEFINED> instruction: 0x20000bb8
 28c:	20000bc8 	andcs	r0, r0, r8, asr #23
 290:	20000bd8 	ldrdcs	r0, [r0], -r8
 294:	20000be8 	andcs	r0, r0, r8, ror #23
 298:	20000bf8 	strdcs	r0, [r0], -r8

0000029c <DMA_ChannelControlWordRegisters>:
 29c:	20000808 	andcs	r0, r0, r8, lsl #16
 2a0:	20000818 	andcs	r0, r0, r8, lsl r8
 2a4:	20000828 	andcs	r0, r0, r8, lsr #16
 2a8:	20000838 	andcs	r0, r0, r8, lsr r8
 2ac:	20000848 	andcs	r0, r0, r8, asr #16
 2b0:	20000858 	andcs	r0, r0, r8, asr r8
 2b4:	20000868 	andcs	r0, r0, r8, ror #16
 2b8:	20000878 	andcs	r0, r0, r8, ror r8
 2bc:	20000888 	andcs	r0, r0, r8, lsl #17
 2c0:	20000898 	mulcs	r0, r8, r8
 2c4:	200008a8 	andcs	r0, r0, r8, lsr #17
 2c8:	200008b8 			; <UNDEFINED> instruction: 0x200008b8
 2cc:	200008c8 	andcs	r0, r0, r8, asr #17
 2d0:	200008d8 	ldrdcs	r0, [r0], -r8
 2d4:	200008e8 	andcs	r0, r0, r8, ror #17
 2d8:	200008f8 	strdcs	r0, [r0], -r8
 2dc:	20000908 	andcs	r0, r0, r8, lsl #18
 2e0:	20000918 	andcs	r0, r0, r8, lsl r9
 2e4:	20000928 	andcs	r0, r0, r8, lsr #18
 2e8:	20000938 	andcs	r0, r0, r8, lsr r9
 2ec:	20000948 	andcs	r0, r0, r8, asr #18
 2f0:	20000958 	andcs	r0, r0, r8, asr r9
 2f4:	20000968 	andcs	r0, r0, r8, ror #18
 2f8:	20000978 	andcs	r0, r0, r8, ror r9
 2fc:	20000988 	andcs	r0, r0, r8, lsl #19
 300:	20000998 	mulcs	r0, r8, r9
 304:	200009a8 	andcs	r0, r0, r8, lsr #19
 308:	200009b8 			; <UNDEFINED> instruction: 0x200009b8
 30c:	200009c8 	andcs	r0, r0, r8, asr #19
 310:	200009d8 	ldrdcs	r0, [r0], -r8
 314:	200009e8 	andcs	r0, r0, r8, ror #19
 318:	200009f8 	strdcs	r0, [r0], -r8

0000031c <GPIO_Direction_Registers>:
 31c:	40004400 	andmi	r4, r0, r0, lsl #8
 320:	40005400 	andmi	r5, r0, r0, lsl #8
 324:	40006400 	andmi	r6, r0, r0, lsl #8
 328:	40007400 	andmi	r7, r0, r0, lsl #8
 32c:	40024400 	andmi	r4, r2, r0, lsl #8
 330:	40025400 	andmi	r5, r2, r0, lsl #8

00000334 <GPIO_AlternateFunctionSelect_Registers>:
 334:	40004420 	andmi	r4, r0, r0, lsr #8
 338:	40005420 	andmi	r5, r0, r0, lsr #8
 33c:	40006420 	andmi	r6, r0, r0, lsr #8
 340:	40007420 	andmi	r7, r0, r0, lsr #8
 344:	40024420 	andmi	r4, r2, r0, lsr #8
 348:	40025420 	andmi	r5, r2, r0, lsr #8

0000034c <GPIO_InterruptSense_Registers>:
 34c:	40004404 	andmi	r4, r0, r4, lsl #8
 350:	40005404 	andmi	r5, r0, r4, lsl #8
 354:	40006404 	andmi	r6, r0, r4, lsl #8
 358:	40007404 	andmi	r7, r0, r4, lsl #8
 35c:	40024404 	andmi	r4, r2, r4, lsl #8
 360:	40025404 	andmi	r5, r2, r4, lsl #8

00000364 <GPIO_InterruptEvent_Registers>:
 364:	4000440c 	andmi	r4, r0, ip, lsl #8
 368:	4000540c 	andmi	r5, r0, ip, lsl #8
 36c:	4000640c 	andmi	r6, r0, ip, lsl #8
 370:	4000740c 	andmi	r7, r0, ip, lsl #8
 374:	4002440c 	andmi	r4, r2, ip, lsl #8
 378:	4002540c 	andmi	r5, r2, ip, lsl #8

0000037c <GPIO_InterruptMask_Registers>:
 37c:	40004410 	andmi	r4, r0, r0, lsl r4
 380:	40005410 	andmi	r5, r0, r0, lsl r4
 384:	40006410 	andmi	r6, r0, r0, lsl r4
 388:	40007410 	andmi	r7, r0, r0, lsl r4
 38c:	40024410 	andmi	r4, r2, r0, lsl r4
 390:	40025410 	andmi	r5, r2, r0, lsl r4

00000394 <GPIO_Data_Registers>:
 394:	40004ff0 	strdmi	r4, [r0], -r0
 398:	40005ff0 	strdmi	r5, [r0], -r0
 39c:	400063fc 	strdmi	r6, [r0], -ip
 3a0:	400073fc 	strdmi	r7, [r0], -ip
 3a4:	40024ff0 	strdmi	r4, [r2], -r0
 3a8:	40025038 	andmi	r5, r2, r8, lsr r0

000003ac <GPIO_DigitalEnable_Registers>:
 3ac:	4000451c 	andmi	r4, r0, ip, lsl r5
 3b0:	4000551c 	andmi	r5, r0, ip, lsl r5
 3b4:	4000651c 	andmi	r6, r0, ip, lsl r5
 3b8:	4000751c 	andmi	r7, r0, ip, lsl r5
 3bc:	4002451c 	andmi	r4, r2, ip, lsl r5
 3c0:	4002551c 	andmi	r5, r2, ip, lsl r5

000003c4 <GPIO_PortControl_Registers>:
 3c4:	4000452c 	andmi	r4, r0, ip, lsr #10
 3c8:	4000552c 	andmi	r5, r0, ip, lsr #10
 3cc:	4000652c 	andmi	r6, r0, ip, lsr #10
 3d0:	4000752c 	andmi	r7, r0, ip, lsr #10
 3d4:	4002452c 	andmi	r4, r2, ip, lsr #10
 3d8:	4002552c 	andmi	r5, r2, ip, lsr #10

000003dc <GPIO_LOCK_Registers>:
 3dc:	40004520 	andmi	r4, r0, r0, lsr #10
 3e0:	40005520 	andmi	r5, r0, r0, lsr #10
 3e4:	40006520 	andmi	r6, r0, r0, lsr #10
 3e8:	40007520 	andmi	r7, r0, r0, lsr #10
 3ec:	40024520 	andmi	r4, r2, r0, lsr #10
 3f0:	40025520 	andmi	r5, r2, r0, lsr #10

000003f4 <GPIO_Port_Commit>:
 3f4:	40004524 	andmi	r4, r0, r4, lsr #10
 3f8:	40005524 	andmi	r5, r0, r4, lsr #10
 3fc:	40006524 	andmi	r6, r0, r4, lsr #10
 400:	40007524 	andmi	r7, r0, r4, lsr #10
 404:	40024524 	andmi	r4, r2, r4, lsr #10
 408:	40025524 	andmi	r5, r2, r4, lsr #10

0000040c <GPIO_InterruptClear_Registers>:
 40c:	4000441c 	andmi	r4, r0, ip, lsl r4
 410:	4000541c 	andmi	r5, r0, ip, lsl r4
 414:	4000641c 	andmi	r6, r0, ip, lsl r4
 418:	4000741c 	andmi	r7, r0, ip, lsl r4
 41c:	4002441c 	andmi	r4, r2, ip, lsl r4
 420:	4002541c 	andmi	r5, r2, ip, lsl r4

00000424 <GPIO_PullUp_Registers>:
 424:	40004510 	andmi	r4, r0, r0, lsl r5
 428:	40005510 	andmi	r5, r0, r0, lsl r5
 42c:	40006510 	andmi	r6, r0, r0, lsl r5
 430:	40007510 	andmi	r7, r0, r0, lsl r5
 434:	40024510 	andmi	r4, r2, r0, lsl r5
 438:	40025510 	andmi	r5, r2, r0, lsl r5

0000043c <Timer0A_32_64Bit>:
 43c:	00000402 	andeq	r0, r0, r2, lsl #8

00000440 <Timer0B_32_64Bit>:
 440:	00010502 	andeq	r0, r1, r2, lsl #10

00000444 <Timer1A_32_64Bit>:
 444:	00020602 	andeq	r0, r2, r2, lsl #12

00000448 <Timer1B_32_64Bit>:
 448:	00030702 	andeq	r0, r3, r2, lsl #14

0000044c <Timer2A_32_64Bit>:
 44c:	00040003 	andeq	r0, r4, r3

00000450 <Timer2B_32_64Bit>:
 450:	00050103 	andeq	r0, r5, r3, lsl #2

00000454 <Timer3A_32_64Bit>:
 454:	00060203 	andeq	r0, r6, r3, lsl #4

00000458 <Timer3B_32_64Bit>:
 458:	00070303 	andeq	r0, r7, r3, lsl #6

0000045c <Timer4A_32_64Bit>:
 45c:	00080403 	andeq	r0, r8, r3, lsl #8

00000460 <Timer4B_32_64Bit>:
 460:	00090503 	andeq	r0, r9, r3, lsl #10

00000464 <Timer5A_32_64Bit>:
 464:	000a0603 	andeq	r0, sl, r3, lsl #12

00000468 <Timer5B_32_64Bit>:
 468:	000b0703 	andeq	r0, fp, r3, lsl #14

0000046c <UART0_AFSELConfig>:
 46c:	00010000 	andeq	r0, r1, r0

00000470 <UART1_AFSELConfig>:
 470:	00010001 	andeq	r0, r1, r1

00000474 <UART2_AFSELConfig>:
 474:	00070603 	andeq	r0, r7, r3, lsl #12

00000478 <UART3_AFSELConfig>:
 478:	00070602 	andeq	r0, r7, r2, lsl #12

0000047c <UART4_AFSELConfig>:
 47c:	00050402 	andeq	r0, r5, r2, lsl #8

00000480 <UART5_AFSELConfig>:
 480:	00050404 	andeq	r0, r5, r4, lsl #8

00000484 <UART6_AFSELConfig>:
 484:	00050403 	andeq	r0, r5, r3, lsl #8

00000488 <UART7_AFSELConfig>:
 488:	00010004 	andeq	r0, r1, r4

0000048c <GPIO_TimerAFSELConfig_ArrPtrStruct>:
 48c:	0000043c 	andeq	r0, r0, ip, lsr r4
 490:	00000440 	andeq	r0, r0, r0, asr #8
 494:	00000444 	andeq	r0, r0, r4, asr #8
 498:	00000448 	andeq	r0, r0, r8, asr #8
 49c:	0000044c 	andeq	r0, r0, ip, asr #8
 4a0:	00000450 	andeq	r0, r0, r0, asr r4
 4a4:	00000454 	andeq	r0, r0, r4, asr r4
 4a8:	00000458 	andeq	r0, r0, r8, asr r4
 4ac:	0000045c 	andeq	r0, r0, ip, asr r4
 4b0:	00000460 	andeq	r0, r0, r0, ror #8
 4b4:	00000464 	andeq	r0, r0, r4, ror #8
 4b8:	00000468 	andeq	r0, r0, r8, ror #8

000004bc <GPIO_AFSELUARTConfig_ArrPtrStruct>:
 4bc:	0000046c 	andeq	r0, r0, ip, ror #8
 4c0:	00000470 	andeq	r0, r0, r0, ror r4
 4c4:	00000474 	andeq	r0, r0, r4, ror r4
 4c8:	00000478 	andeq	r0, r0, r8, ror r4
 4cc:	0000047c 	andeq	r0, r0, ip, ror r4
 4d0:	00000480 	andeq	r0, r0, r0, lsl #9
 4d4:	00000484 	andeq	r0, r0, r4, lsl #9
 4d8:	00000488 	andeq	r0, r0, r8, lsl #9

000004dc <GPTM_16_32_BitTimerA_IntervalLoad>:
 4dc:	40030028 	andmi	r0, r3, r8, lsr #32
 4e0:	40031028 	andmi	r1, r3, r8, lsr #32
 4e4:	40032028 	andmi	r2, r3, r8, lsr #32
 4e8:	40033028 	andmi	r3, r3, r8, lsr #32
 4ec:	40034028 	andmi	r4, r3, r8, lsr #32
 4f0:	40035028 	andmi	r5, r3, r8, lsr #32

000004f4 <GPTM_32_64_BitTimerA_IntervalLoad>:
 4f4:	40036028 	andmi	r6, r3, r8, lsr #32
 4f8:	40037028 	andmi	r7, r3, r8, lsr #32
 4fc:	4004c028 	andmi	ip, r4, r8, lsr #32
 500:	4004d028 	andmi	sp, r4, r8, lsr #32
 504:	4004e028 	andmi	lr, r4, r8, lsr #32
 508:	4004f028 	andmi	pc, r4, r8, lsr #32

0000050c <GPTM_16BitTimerB_IntervalLoad>:
 50c:	4003002c 	andmi	r0, r3, ip, lsr #32
 510:	4003102c 	andmi	r1, r3, ip, lsr #32
 514:	4003202c 	andmi	r2, r3, ip, lsr #32
 518:	4003302c 	andmi	r3, r3, ip, lsr #32
 51c:	4003402c 	andmi	r4, r3, ip, lsr #32
 520:	4003502c 	andmi	r5, r3, ip, lsr #32

00000524 <GPTM_32BitTimerB_IntervalLoad>:
 524:	4003602c 	andmi	r6, r3, ip, lsr #32
 528:	4003702c 	andmi	r7, r3, ip, lsr #32
 52c:	4004c02c 	andmi	ip, r4, ip, lsr #32
 530:	4004d02c 	andmi	sp, r4, ip, lsr #32
 534:	4004e02c 	andmi	lr, r4, ip, lsr #32
 538:	4004f02c 	andmi	pc, r4, ip, lsr #32

0000053c <GPTM_32_64_BitTimerA_Match>:
 53c:	40036030 	andmi	r6, r3, r0, lsr r0
 540:	40037030 	andmi	r7, r3, r0, lsr r0
 544:	4004c030 	andmi	ip, r4, r0, lsr r0
 548:	4004d030 	andmi	sp, r4, r0, lsr r0
 54c:	4004e030 	andmi	lr, r4, r0, lsr r0
 550:	4004f030 	andmi	pc, r4, r0, lsr r0	; <UNPREDICTABLE>

00000554 <GPTM_32BitTimerB_Match>:
 554:	40036034 	andmi	r6, r3, r4, lsr r0
 558:	40036034 	andmi	r6, r3, r4, lsr r0
 55c:	40036034 	andmi	r6, r3, r4, lsr r0
 560:	40036034 	andmi	r6, r3, r4, lsr r0
 564:	40036034 	andmi	r6, r3, r4, lsr r0
 568:	40036034 	andmi	r6, r3, r4, lsr r0

0000056c <GPTM_TimerMode>:
 56c:	40030004 	andmi	r0, r3, r4
 570:	40031004 	andmi	r1, r3, r4
 574:	40032004 	andmi	r2, r3, r4
 578:	40033004 	andmi	r3, r3, r4
 57c:	40034004 	andmi	r4, r3, r4
 580:	40035004 	andmi	r5, r3, r4
 584:	40036004 	andmi	r6, r3, r4
 588:	40037004 	andmi	r7, r3, r4
 58c:	4004c004 	andmi	ip, r4, r4
 590:	4004d004 	andmi	sp, r4, r4
 594:	4004e004 	andmi	lr, r4, r4
 598:	4004f004 	andmi	pc, r4, r4
 59c:	40030008 	andmi	r0, r3, r8
 5a0:	40031008 	andmi	r1, r3, r8
 5a4:	40032008 	andmi	r2, r3, r8
 5a8:	40033008 	andmi	r3, r3, r8
 5ac:	40034008 	andmi	r4, r3, r8
 5b0:	40035008 	andmi	r5, r3, r8
 5b4:	40036008 	andmi	r6, r3, r8
 5b8:	40037008 	andmi	r7, r3, r8
 5bc:	4004c008 	andmi	ip, r4, r8
 5c0:	4004d008 	andmi	sp, r4, r8
 5c4:	4004e008 	andmi	lr, r4, r8
 5c8:	4004f008 	andmi	pc, r4, r8

000005cc <GPTM_Control>:
 5cc:	4003000c 	andmi	r0, r3, ip
 5d0:	4003100c 	andmi	r1, r3, ip
 5d4:	4003200c 	andmi	r2, r3, ip
 5d8:	4003300c 	andmi	r3, r3, ip
 5dc:	4003400c 	andmi	r4, r3, ip
 5e0:	4003500c 	andmi	r5, r3, ip
 5e4:	4003600c 	andmi	r6, r3, ip
 5e8:	4003700c 	andmi	r7, r3, ip
 5ec:	4004c00c 	andmi	ip, r4, ip
 5f0:	4004d00c 	andmi	sp, r4, ip
 5f4:	4004e00c 	andmi	lr, r4, ip
 5f8:	4004f00c 	andmi	pc, r4, ip

000005fc <GPTM_ConfigurationRegisters>:
 5fc:	40030000 	andmi	r0, r3, r0
 600:	40031000 	andmi	r1, r3, r0
 604:	40032000 	andmi	r2, r3, r0
 608:	40033000 	andmi	r3, r3, r0
 60c:	40034000 	andmi	r4, r3, r0
 610:	40035000 	andmi	r5, r3, r0
 614:	40036000 	andmi	r6, r3, r0
 618:	40037000 	andmi	r7, r3, r0
 61c:	4004c000 	andmi	ip, r4, r0
 620:	4004d000 	andmi	sp, r4, r0
 624:	4004e000 	andmi	lr, r4, r0
 628:	4004f000 	andmi	pc, r4, r0

0000062c <GPTM_ICRRegisters>:
 62c:	40030024 	andmi	r0, r3, r4, lsr #32
 630:	40031024 	andmi	r1, r3, r4, lsr #32
 634:	40032024 	andmi	r2, r3, r4, lsr #32
 638:	40033024 	andmi	r3, r3, r4, lsr #32
 63c:	40034024 	andmi	r4, r3, r4, lsr #32
 640:	40035024 	andmi	r5, r3, r4, lsr #32
 644:	40036024 	andmi	r6, r3, r4, lsr #32
 648:	40037024 	andmi	r7, r3, r4, lsr #32
 64c:	4004c024 	andmi	ip, r4, r4, lsr #32
 650:	4004d024 	andmi	sp, r4, r4, lsr #32
 654:	4004e024 	andmi	lr, r4, r4, lsr #32
 658:	4004f024 	andmi	pc, r4, r4, lsr #32

0000065c <GPTM_RISRegisters>:
 65c:	4003001c 	andmi	r0, r3, ip, lsl r0
 660:	4003101c 	andmi	r1, r3, ip, lsl r0
 664:	4003201c 	andmi	r2, r3, ip, lsl r0
 668:	4003301c 	andmi	r3, r3, ip, lsl r0
 66c:	4003401c 	andmi	r4, r3, ip, lsl r0
 670:	4003501c 	andmi	r5, r3, ip, lsl r0
 674:	4003601c 	andmi	r6, r3, ip, lsl r0
 678:	4003701c 	andmi	r7, r3, ip, lsl r0
 67c:	4004c01c 	andmi	ip, r4, ip, lsl r0
 680:	4004d01c 	andmi	sp, r4, ip, lsl r0
 684:	4004e01c 	andmi	lr, r4, ip, lsl r0
 688:	4004f01c 	andmi	pc, r4, ip, lsl r0	; <UNPREDICTABLE>

0000068c <GPTM_Config_32BitTimer0A>:
 68c:	00010001 	andeq	r0, r1, r1

00000690 <GPTM_Config_32BitTimer0B>:
 690:	00030801 	andeq	r0, r3, r1, lsl #16

00000694 <GPTM_Config_32BitTimer1A>:
 694:	01010001 	tsteq	r1, r1

00000698 <GPTM_Config_32BitTimer1B>:
 698:	01030801 	tsteq	r3, r1, lsl #16

0000069c <GPTM_Config_32BitTimer2A>:
 69c:	02010001 	andeq	r0, r1, #1

000006a0 <GPTM_Config_32BitTimer2B>:
 6a0:	02030801 	andeq	r0, r3, #65536	; 0x10000

000006a4 <GPTM_Config_32BitTimer3A>:
 6a4:	03010001 	movweq	r0, #4097	; 0x1001

000006a8 <GPTM_Config_32BitTimer3B>:
 6a8:	03030801 	movweq	r0, #14337	; 0x3801

000006ac <GPTM_Config_32BitTimer4A>:
 6ac:	04010001 	streq	r0, [r1], #-1

000006b0 <GPTM_Config_32BitTimer4B>:
 6b0:	04030801 	streq	r0, [r3], #-2049	; 0xfffff7ff

000006b4 <GPTM_Config_32BitTimer5A>:
 6b4:	05010001 	streq	r0, [r1, #-1]

000006b8 <GPTM_Config_32BitTimer5B>:
 6b8:	05030801 	streq	r0, [r3, #-2049]	; 0xfffff7ff

000006bc <Interrupt_Enable_Registers>:
 6bc:	e000e100 	and	lr, r0, r0, lsl #2
 6c0:	e000e104 	and	lr, r0, r4, lsl #2
 6c4:	e000e108 	and	lr, r0, r8, lsl #2
 6c8:	e000e10c 	and	lr, r0, ip, lsl #2

000006cc <Interrupt_Clear_Registers>:
 6cc:	e000e180 	and	lr, r0, r0, lsl #3
 6d0:	e000e184 	and	lr, r0, r4, lsl #3
 6d4:	e000e188 	and	lr, r0, r8, lsl #3
 6d8:	e000e18c 	and	lr, r0, ip, lsl #3

000006dc <Set_Pending_Register>:
 6dc:	e000e200 	and	lr, r0, r0, lsl #4
 6e0:	e000e204 	and	lr, r0, r4, lsl #4
 6e4:	e000e208 	and	lr, r0, r8, lsl #4
 6e8:	e000e20c 	and	lr, r0, ip, lsl #4

000006ec <Clear_Pending_Register>:
 6ec:	e000e280 	and	lr, r0, r0, lsl #5
 6f0:	e000e284 	and	lr, r0, r4, lsl #5
 6f4:	e000e288 	and	lr, r0, r8, lsl #5
 6f8:	e000e28c 	and	lr, r0, ip, lsl #5

000006fc <Interrupt_Priority_Register>:
 6fc:	e000e400 	and	lr, r0, r0, lsl #8
 700:	e000e404 	and	lr, r0, r4, lsl #8
 704:	e000e408 	and	lr, r0, r8, lsl #8
 708:	e000e40c 	and	lr, r0, ip, lsl #8
 70c:	e000e410 	and	lr, r0, r0, lsl r4
 710:	e000e414 	and	lr, r0, r4, lsl r4
 714:	e000e418 	and	lr, r0, r8, lsl r4
 718:	e000e41c 	and	lr, r0, ip, lsl r4

0000071c <SC_SYSDIV>:
 71c:	04030201 	streq	r0, [r3], #-513	; 0xfffffdff
 720:	08070605 	stmdaeq	r7, {r0, r2, r9, sl}
 724:	0c0b0a09 			; <UNDEFINED> instruction: 0x0c0b0a09
 728:	100f0e0d 	andne	r0, pc, sp, lsl #28

0000072c <SC_PWMDIV>:
 72c:	10080402 	andne	r0, r8, r2, lsl #8
 730:	40404020 	submi	r4, r0, r0, lsr #32

00000734 <UART_DataRegisters>:
 734:	4000c000 	andmi	ip, r0, r0
 738:	4000d000 	andmi	sp, r0, r0
 73c:	4000e000 	andmi	lr, r0, r0
 740:	4000f000 	andmi	pc, r0, r0
 744:	40010000 	andmi	r0, r1, r0
 748:	40011000 	andmi	r1, r1, r0
 74c:	40012000 	andmi	r2, r1, r0
 750:	40013000 	andmi	r3, r1, r0

00000754 <UART_FlagRegisters>:
 754:	4000c018 	andmi	ip, r0, r8, lsl r0
 758:	4000d018 	andmi	sp, r0, r8, lsl r0
 75c:	4000e018 	andmi	lr, r0, r8, lsl r0
 760:	4000f018 	andmi	pc, r0, r8, lsl r0	; <UNPREDICTABLE>
 764:	40010018 	andmi	r0, r1, r8, lsl r0
 768:	40011018 	andmi	r1, r1, r8, lsl r0
 76c:	40012018 	andmi	r2, r1, r8, lsl r0
 770:	40013018 	andmi	r3, r1, r8, lsl r0

00000774 <UART_InterruptClearRegisters>:
 774:	4000c044 	andmi	ip, r0, r4, asr #32
 778:	4000d044 	andmi	sp, r0, r4, asr #32
 77c:	4000e044 	andmi	lr, r0, r4, asr #32
 780:	4000f044 	andmi	pc, r0, r4, asr #32
 784:	40010044 	andmi	r0, r1, r4, asr #32
 788:	40011044 	andmi	r1, r1, r4, asr #32
 78c:	40012044 	andmi	r2, r1, r4, asr #32
 790:	40013044 	andmi	r3, r1, r4, asr #32

00000794 <UART_IntegerBaudRateDivisorRegisters>:
 794:	4000c024 	andmi	ip, r0, r4, lsr #32
 798:	4000d024 	andmi	sp, r0, r4, lsr #32
 79c:	4000e024 	andmi	lr, r0, r4, lsr #32
 7a0:	4000f024 	andmi	pc, r0, r4, lsr #32
 7a4:	40010024 	andmi	r0, r1, r4, lsr #32
 7a8:	40011024 	andmi	r1, r1, r4, lsr #32
 7ac:	40012024 	andmi	r2, r1, r4, lsr #32
 7b0:	40013024 	andmi	r3, r1, r4, lsr #32

000007b4 <UART_FractionalBaudRateDivisorRegisters>:
 7b4:	4000c028 	andmi	ip, r0, r8, lsr #32
 7b8:	4000d028 	andmi	sp, r0, r8, lsr #32
 7bc:	4000e028 	andmi	lr, r0, r8, lsr #32
 7c0:	4000f028 	andmi	pc, r0, r8, lsr #32
 7c4:	40010028 	andmi	r0, r1, r8, lsr #32
 7c8:	40011028 	andmi	r1, r1, r8, lsr #32
 7cc:	40012028 	andmi	r2, r1, r8, lsr #32
 7d0:	40013028 	andmi	r3, r1, r8, lsr #32

000007d4 <UART_ClockConfigurationRegisters>:
 7d4:	4000cfc8 	andmi	ip, r0, r8, asr #31
 7d8:	4000dfc8 	andmi	sp, r0, r8, asr #31
 7dc:	4000efc8 	andmi	lr, r0, r8, asr #31
 7e0:	4000ffc8 	andmi	pc, r0, r8, asr #31
 7e4:	40010fc8 	andmi	r0, r1, r8, asr #31
 7e8:	40011fc8 	andmi	r1, r1, r8, asr #31
 7ec:	40012fc8 	andmi	r2, r1, r8, asr #31
 7f0:	40013fc8 	andmi	r3, r1, r8, asr #31

000007f4 <UART_ControlRegisters>:
 7f4:	4000c030 	andmi	ip, r0, r0, lsr r0
 7f8:	4000d030 	andmi	sp, r0, r0, lsr r0
 7fc:	4000e030 	andmi	lr, r0, r0, lsr r0
 800:	4000f030 	andmi	pc, r0, r0, lsr r0	; <UNPREDICTABLE>
 804:	40010030 	andmi	r0, r1, r0, lsr r0
 808:	40011030 	andmi	r1, r1, r0, lsr r0
 80c:	40012030 	andmi	r2, r1, r0, lsr r0
 810:	40013030 	andmi	r3, r1, r0, lsr r0

00000814 <UART_LineControlRegisters>:
 814:	4000c02c 	andmi	ip, r0, ip, lsr #32
 818:	4000d02c 	andmi	sp, r0, ip, lsr #32
 81c:	4000e02c 	andmi	lr, r0, ip, lsr #32
 820:	4000f02c 	andmi	pc, r0, ip, lsr #32
 824:	4001002c 	andmi	r0, r1, ip, lsr #32
 828:	4001102c 	andmi	r1, r1, ip, lsr #32
 82c:	4001202c 	andmi	r2, r1, ip, lsr #32
 830:	4001302c 	andmi	r3, r1, ip, lsr #32

00000834 <UART_InterruptMaskRegisters>:
 834:	4000c038 	andmi	ip, r0, r8, lsr r0
 838:	4000d038 	andmi	sp, r0, r8, lsr r0
 83c:	4000e038 	andmi	lr, r0, r8, lsr r0
 840:	4000f038 	andmi	pc, r0, r8, lsr r0	; <UNPREDICTABLE>
 844:	40010038 	andmi	r0, r1, r8, lsr r0
 848:	40011038 	andmi	r1, r1, r8, lsr r0
 84c:	40012038 	andmi	r2, r1, r8, lsr r0
 850:	40013038 	andmi	r3, r1, r8, lsr r0

00000854 <UART_MaskedInterruptStatusRegisters>:
 854:	4000c040 	andmi	ip, r0, r0, asr #32
 858:	4000d040 	andmi	sp, r0, r0, asr #32
 85c:	4000e040 	andmi	lr, r0, r0, asr #32
 860:	4000f040 	andmi	pc, r0, r0, asr #32
 864:	40010040 	andmi	r0, r1, r0, asr #32
 868:	40011040 	andmi	r1, r1, r0, asr #32
 86c:	40012040 	andmi	r2, r1, r0, asr #32
 870:	40013040 	andmi	r3, r1, r0, asr #32

00000874 <UART_DMAControlRegisters>:
 874:	4000c048 	andmi	ip, r0, r8, asr #32
 878:	4000d048 	andmi	sp, r0, r8, asr #32
 87c:	4000e048 	andmi	lr, r0, r8, asr #32
 880:	4000f048 	andmi	pc, r0, r8, asr #32
 884:	40010048 	andmi	r0, r1, r8, asr #32
 888:	40011048 	andmi	r1, r1, r8, asr #32
 88c:	40012048 	andmi	r2, r1, r8, asr #32
 890:	40013048 	andmi	r3, r1, r8, asr #32

00000894 <UART_InterruptFIFOLevelSelect>:
 894:	4000c034 	andmi	ip, r0, r4, lsr r0
 898:	4000d034 	andmi	sp, r0, r4, lsr r0
 89c:	4000e034 	andmi	lr, r0, r4, lsr r0
 8a0:	4000f034 	andmi	pc, r0, r4, lsr r0	; <UNPREDICTABLE>
 8a4:	40010034 	andmi	r0, r1, r4, lsr r0
 8a8:	40011034 	andmi	r1, r1, r4, lsr r0
 8ac:	40012034 	andmi	r2, r1, r4, lsr r0
 8b0:	40013034 	andmi	r3, r1, r4, lsr r0

Disassembly of section .text:

000008b4 <DMA_PeripheralInitialization>:
     8b4:	b480      	push	{r7}
     8b6:	af00      	add	r7, sp, #0
     8b8:	4a08      	ldr	r2, [pc, #32]	; (8dc <DMA_PeripheralInitialization+0x28>)
     8ba:	6813      	ldr	r3, [r2, #0]
     8bc:	f043 0301 	orr.w	r3, r3, #1
     8c0:	6013      	str	r3, [r2, #0]
     8c2:	4b07      	ldr	r3, [pc, #28]	; (8e0 <DMA_PeripheralInitialization+0x2c>)
     8c4:	681b      	ldr	r3, [r3, #0]
     8c6:	4a06      	ldr	r2, [pc, #24]	; (8e0 <DMA_PeripheralInitialization+0x2c>)
     8c8:	f043 0301 	orr.w	r3, r3, #1
     8cc:	6013      	str	r3, [r2, #0]
     8ce:	4b05      	ldr	r3, [pc, #20]	; (8e4 <DMA_PeripheralInitialization+0x30>)
     8d0:	4a05      	ldr	r2, [pc, #20]	; (8e8 <DMA_PeripheralInitialization+0x34>)
     8d2:	601a      	str	r2, [r3, #0]
     8d4:	bf00      	nop
     8d6:	46bd      	mov	sp, r7
     8d8:	bc80      	pop	{r7}
     8da:	4770      	bx	lr
     8dc:	400fe60c 	andmi	lr, pc, ip, lsl #12
     8e0:	400ff004 	andmi	pc, pc, r4
     8e4:	400ff008 	andmi	pc, pc, r8
     8e8:	20000800 	andcs	r0, r0, r0, lsl #16

000008ec <DMA_EnableChannelAttributes>:
     8ec:	b580      	push	{r7, lr}
     8ee:	b082      	sub	sp, #8
     8f0:	af00      	add	r7, sp, #0
     8f2:	6078      	str	r0, [r7, #4]
     8f4:	687b      	ldr	r3, [r7, #4]
     8f6:	799a      	ldrb	r2, [r3, #6]
     8f8:	687b      	ldr	r3, [r7, #4]
     8fa:	781b      	ldrb	r3, [r3, #0]
     8fc:	4619      	mov	r1, r3
     8fe:	4610      	mov	r0, r2
     900:	f000 f96e 	bl	be0 <DMA_ConfigurePriority>
     904:	4b19      	ldr	r3, [pc, #100]	; (96c <DMA_EnableChannelAttributes+0x80>)
     906:	681b      	ldr	r3, [r3, #0]
     908:	687a      	ldr	r2, [r7, #4]
     90a:	7812      	ldrb	r2, [r2, #0]
     90c:	4611      	mov	r1, r2
     90e:	2201      	movs	r2, #1
     910:	408a      	lsls	r2, r1
     912:	4611      	mov	r1, r2
     914:	4a15      	ldr	r2, [pc, #84]	; (96c <DMA_EnableChannelAttributes+0x80>)
     916:	430b      	orrs	r3, r1
     918:	6013      	str	r3, [r2, #0]
     91a:	4b15      	ldr	r3, [pc, #84]	; (970 <DMA_EnableChannelAttributes+0x84>)
     91c:	681b      	ldr	r3, [r3, #0]
     91e:	687a      	ldr	r2, [r7, #4]
     920:	7812      	ldrb	r2, [r2, #0]
     922:	4611      	mov	r1, r2
     924:	2201      	movs	r2, #1
     926:	408a      	lsls	r2, r1
     928:	4611      	mov	r1, r2
     92a:	4a11      	ldr	r2, [pc, #68]	; (970 <DMA_EnableChannelAttributes+0x84>)
     92c:	430b      	orrs	r3, r1
     92e:	6013      	str	r3, [r2, #0]
     930:	4b10      	ldr	r3, [pc, #64]	; (974 <DMA_EnableChannelAttributes+0x88>)
     932:	681b      	ldr	r3, [r3, #0]
     934:	687a      	ldr	r2, [r7, #4]
     936:	7812      	ldrb	r2, [r2, #0]
     938:	4611      	mov	r1, r2
     93a:	2201      	movs	r2, #1
     93c:	408a      	lsls	r2, r1
     93e:	4611      	mov	r1, r2
     940:	4a0c      	ldr	r2, [pc, #48]	; (974 <DMA_EnableChannelAttributes+0x88>)
     942:	430b      	orrs	r3, r1
     944:	6013      	str	r3, [r2, #0]
     946:	687b      	ldr	r3, [r7, #4]
     948:	781a      	ldrb	r2, [r3, #0]
     94a:	687b      	ldr	r3, [r7, #4]
     94c:	79db      	ldrb	r3, [r3, #7]
     94e:	4619      	mov	r1, r3
     950:	4610      	mov	r0, r2
     952:	f000 f971 	bl	c38 <DMA_AssignChannel>
     956:	687b      	ldr	r3, [r7, #4]
     958:	781b      	ldrb	r3, [r3, #0]
     95a:	4619      	mov	r1, r3
     95c:	2000      	movs	r0, #0
     95e:	f000 f915 	bl	b8c <DMA_ConfigureChannelInterrupt>
     962:	bf00      	nop
     964:	3708      	adds	r7, #8
     966:	46bd      	mov	sp, r7
     968:	bd80      	pop	{r7, pc}
     96a:	bf00      	nop
     96c:	400ff034 	andmi	pc, pc, r4, lsr r0	; <UNPREDICTABLE>
     970:	400ff01c 	andmi	pc, pc, ip, lsl r0	; <UNPREDICTABLE>
     974:	400ff024 	andmi	pc, pc, r4, lsr #32

00000978 <DMA_EnableChannel>:
     978:	b480      	push	{r7}
     97a:	b083      	sub	sp, #12
     97c:	af00      	add	r7, sp, #0
     97e:	4603      	mov	r3, r0
     980:	71fb      	strb	r3, [r7, #7]
     982:	4b07      	ldr	r3, [pc, #28]	; (9a0 <DMA_EnableChannel+0x28>)
     984:	681b      	ldr	r3, [r3, #0]
     986:	79fa      	ldrb	r2, [r7, #7]
     988:	2101      	movs	r1, #1
     98a:	fa01 f202 	lsl.w	r2, r1, r2
     98e:	4611      	mov	r1, r2
     990:	4a03      	ldr	r2, [pc, #12]	; (9a0 <DMA_EnableChannel+0x28>)
     992:	430b      	orrs	r3, r1
     994:	6013      	str	r3, [r2, #0]
     996:	bf00      	nop
     998:	370c      	adds	r7, #12
     99a:	46bd      	mov	sp, r7
     99c:	bc80      	pop	{r7}
     99e:	4770      	bx	lr
     9a0:	400ff028 	andmi	pc, pc, r8, lsr #32

000009a4 <DMA_ChannelControlStructureSet>:
     9a4:	b480      	push	{r7}
     9a6:	b085      	sub	sp, #20
     9a8:	af00      	add	r7, sp, #0
     9aa:	60f8      	str	r0, [r7, #12]
     9ac:	60b9      	str	r1, [r7, #8]
     9ae:	607a      	str	r2, [r7, #4]
     9b0:	4b4c      	ldr	r3, [pc, #304]	; (ae4 <DMA_ChannelControlStructureSet+0x140>)
     9b2:	781b      	ldrb	r3, [r3, #0]
     9b4:	b2db      	uxtb	r3, r3
     9b6:	2b00      	cmp	r3, #0
     9b8:	d004      	beq.n	9c4 <DMA_ChannelControlStructureSet+0x20>
     9ba:	4b4b      	ldr	r3, [pc, #300]	; (ae8 <DMA_ChannelControlStructureSet+0x144>)
     9bc:	781b      	ldrb	r3, [r3, #0]
     9be:	b2db      	uxtb	r3, r3
     9c0:	2b00      	cmp	r3, #0
     9c2:	d107      	bne.n	9d4 <DMA_ChannelControlStructureSet+0x30>
     9c4:	68fb      	ldr	r3, [r7, #12]
     9c6:	781b      	ldrb	r3, [r3, #0]
     9c8:	461a      	mov	r2, r3
     9ca:	4b48      	ldr	r3, [pc, #288]	; (aec <DMA_ChannelControlStructureSet+0x148>)
     9cc:	f853 3022 	ldr.w	r3, [r3, r2, lsl #2]
     9d0:	68ba      	ldr	r2, [r7, #8]
     9d2:	601a      	str	r2, [r3, #0]
     9d4:	4b46      	ldr	r3, [pc, #280]	; (af0 <DMA_ChannelControlStructureSet+0x14c>)
     9d6:	781b      	ldrb	r3, [r3, #0]
     9d8:	b2db      	uxtb	r3, r3
     9da:	2b00      	cmp	r3, #0
     9dc:	d004      	beq.n	9e8 <DMA_ChannelControlStructureSet+0x44>
     9de:	4b42      	ldr	r3, [pc, #264]	; (ae8 <DMA_ChannelControlStructureSet+0x144>)
     9e0:	781b      	ldrb	r3, [r3, #0]
     9e2:	b2db      	uxtb	r3, r3
     9e4:	2b00      	cmp	r3, #0
     9e6:	d107      	bne.n	9f8 <DMA_ChannelControlStructureSet+0x54>
     9e8:	68fb      	ldr	r3, [r7, #12]
     9ea:	781b      	ldrb	r3, [r3, #0]
     9ec:	461a      	mov	r2, r3
     9ee:	4b41      	ldr	r3, [pc, #260]	; (af4 <DMA_ChannelControlStructureSet+0x150>)
     9f0:	f853 3022 	ldr.w	r3, [r3, r2, lsl #2]
     9f4:	687a      	ldr	r2, [r7, #4]
     9f6:	601a      	str	r2, [r3, #0]
     9f8:	68fb      	ldr	r3, [r7, #12]
     9fa:	7859      	ldrb	r1, [r3, #1]
     9fc:	68fb      	ldr	r3, [r7, #12]
     9fe:	781b      	ldrb	r3, [r3, #0]
     a00:	461a      	mov	r2, r3
     a02:	4b3d      	ldr	r3, [pc, #244]	; (af8 <DMA_ChannelControlStructureSet+0x154>)
     a04:	f853 2022 	ldr.w	r2, [r3, r2, lsl #2]
     a08:	460b      	mov	r3, r1
     a0a:	f003 0303 	and.w	r3, r3, #3
     a0e:	b2d9      	uxtb	r1, r3
     a10:	6813      	ldr	r3, [r2, #0]
     a12:	f361 739f 	bfi	r3, r1, #30, #2
     a16:	6013      	str	r3, [r2, #0]
     a18:	68fb      	ldr	r3, [r7, #12]
     a1a:	78d9      	ldrb	r1, [r3, #3]
     a1c:	68fb      	ldr	r3, [r7, #12]
     a1e:	781b      	ldrb	r3, [r3, #0]
     a20:	461a      	mov	r2, r3
     a22:	4b35      	ldr	r3, [pc, #212]	; (af8 <DMA_ChannelControlStructureSet+0x154>)
     a24:	f853 2022 	ldr.w	r2, [r3, r2, lsl #2]
     a28:	460b      	mov	r3, r1
     a2a:	f003 0303 	and.w	r3, r3, #3
     a2e:	b2d9      	uxtb	r1, r3
     a30:	6813      	ldr	r3, [r2, #0]
     a32:	f361 731d 	bfi	r3, r1, #28, #2
     a36:	6013      	str	r3, [r2, #0]
     a38:	68fb      	ldr	r3, [r7, #12]
     a3a:	7899      	ldrb	r1, [r3, #2]
     a3c:	68fb      	ldr	r3, [r7, #12]
     a3e:	781b      	ldrb	r3, [r3, #0]
     a40:	461a      	mov	r2, r3
     a42:	4b2d      	ldr	r3, [pc, #180]	; (af8 <DMA_ChannelControlStructureSet+0x154>)
     a44:	f853 2022 	ldr.w	r2, [r3, r2, lsl #2]
     a48:	460b      	mov	r3, r1
     a4a:	f003 0303 	and.w	r3, r3, #3
     a4e:	b2d9      	uxtb	r1, r3
     a50:	6813      	ldr	r3, [r2, #0]
     a52:	f361 639b 	bfi	r3, r1, #26, #2
     a56:	6013      	str	r3, [r2, #0]
     a58:	68fb      	ldr	r3, [r7, #12]
     a5a:	7919      	ldrb	r1, [r3, #4]
     a5c:	68fb      	ldr	r3, [r7, #12]
     a5e:	781b      	ldrb	r3, [r3, #0]
     a60:	461a      	mov	r2, r3
     a62:	4b25      	ldr	r3, [pc, #148]	; (af8 <DMA_ChannelControlStructureSet+0x154>)
     a64:	f853 2022 	ldr.w	r2, [r3, r2, lsl #2]
     a68:	460b      	mov	r3, r1
     a6a:	f003 0303 	and.w	r3, r3, #3
     a6e:	b2d9      	uxtb	r1, r3
     a70:	6813      	ldr	r3, [r2, #0]
     a72:	f361 6319 	bfi	r3, r1, #24, #2
     a76:	6013      	str	r3, [r2, #0]
     a78:	68fb      	ldr	r3, [r7, #12]
     a7a:	7959      	ldrb	r1, [r3, #5]
     a7c:	68fb      	ldr	r3, [r7, #12]
     a7e:	781b      	ldrb	r3, [r3, #0]
     a80:	461a      	mov	r2, r3
     a82:	4b1d      	ldr	r3, [pc, #116]	; (af8 <DMA_ChannelControlStructureSet+0x154>)
     a84:	f853 2022 	ldr.w	r2, [r3, r2, lsl #2]
     a88:	460b      	mov	r3, r1
     a8a:	f003 0307 	and.w	r3, r3, #7
     a8e:	b2d9      	uxtb	r1, r3
     a90:	6813      	ldr	r3, [r2, #0]
     a92:	f361 0302 	bfi	r3, r1, #0, #3
     a96:	6013      	str	r3, [r2, #0]
     a98:	68fb      	ldr	r3, [r7, #12]
     a9a:	68d9      	ldr	r1, [r3, #12]
     a9c:	68fb      	ldr	r3, [r7, #12]
     a9e:	781b      	ldrb	r3, [r3, #0]
     aa0:	461a      	mov	r2, r3
     aa2:	4b15      	ldr	r3, [pc, #84]	; (af8 <DMA_ChannelControlStructureSet+0x154>)
     aa4:	f853 2022 	ldr.w	r2, [r3, r2, lsl #2]
     aa8:	460b      	mov	r3, r1
     aaa:	f3c3 0309 	ubfx	r3, r3, #0, #10
     aae:	b299      	uxth	r1, r3
     ab0:	6813      	ldr	r3, [r2, #0]
     ab2:	f361 130d 	bfi	r3, r1, #4, #10
     ab6:	6013      	str	r3, [r2, #0]
     ab8:	68fb      	ldr	r3, [r7, #12]
     aba:	7a19      	ldrb	r1, [r3, #8]
     abc:	68fb      	ldr	r3, [r7, #12]
     abe:	781b      	ldrb	r3, [r3, #0]
     ac0:	461a      	mov	r2, r3
     ac2:	4b0d      	ldr	r3, [pc, #52]	; (af8 <DMA_ChannelControlStructureSet+0x154>)
     ac4:	f853 2022 	ldr.w	r2, [r3, r2, lsl #2]
     ac8:	460b      	mov	r3, r1
     aca:	f003 030f 	and.w	r3, r3, #15
     ace:	b2d9      	uxtb	r1, r3
     ad0:	6813      	ldr	r3, [r2, #0]
     ad2:	f361 3391 	bfi	r3, r1, #14, #4
     ad6:	6013      	str	r3, [r2, #0]
     ad8:	bf00      	nop
     ada:	3714      	adds	r7, #20
     adc:	46bd      	mov	sp, r7
     ade:	bc80      	pop	{r7}
     ae0:	4770      	bx	lr
     ae2:	bf00      	nop
     ae4:	20001d51 	andcs	r1, r0, r1, asr sp
     ae8:	20000401 	andcs	r0, r0, r1, lsl #8
     aec:	0000001c 	andeq	r0, r0, ip, lsl r0
     af0:	20001d50 	andcs	r1, r0, r0, asr sp
     af4:	0000011c 	andeq	r0, r0, ip, lsl r1
     af8:	0000029c 	muleq	r0, ip, r2

00000afc <DMA_ConfigureChannelSoftwareRequest>:
     afc:	b480      	push	{r7}
     afe:	b083      	sub	sp, #12
     b00:	af00      	add	r7, sp, #0
     b02:	4603      	mov	r3, r0
     b04:	460a      	mov	r2, r1
     b06:	71fb      	strb	r3, [r7, #7]
     b08:	4613      	mov	r3, r2
     b0a:	71bb      	strb	r3, [r7, #6]
     b0c:	79fb      	ldrb	r3, [r7, #7]
     b0e:	2b00      	cmp	r3, #0
     b10:	d002      	beq.n	b18 <DMA_ConfigureChannelSoftwareRequest+0x1c>
     b12:	2b01      	cmp	r3, #1
     b14:	d00c      	beq.n	b30 <DMA_ConfigureChannelSoftwareRequest+0x34>
     b16:	e016      	b.n	b46 <DMA_ConfigureChannelSoftwareRequest+0x4a>
     b18:	4b0d      	ldr	r3, [pc, #52]	; (b50 <DMA_ConfigureChannelSoftwareRequest+0x54>)
     b1a:	681b      	ldr	r3, [r3, #0]
     b1c:	79ba      	ldrb	r2, [r7, #6]
     b1e:	2101      	movs	r1, #1
     b20:	fa01 f202 	lsl.w	r2, r1, r2
     b24:	43d2      	mvns	r2, r2
     b26:	4611      	mov	r1, r2
     b28:	4a09      	ldr	r2, [pc, #36]	; (b50 <DMA_ConfigureChannelSoftwareRequest+0x54>)
     b2a:	400b      	ands	r3, r1
     b2c:	6013      	str	r3, [r2, #0]
     b2e:	e00a      	b.n	b46 <DMA_ConfigureChannelSoftwareRequest+0x4a>
     b30:	4b07      	ldr	r3, [pc, #28]	; (b50 <DMA_ConfigureChannelSoftwareRequest+0x54>)
     b32:	681b      	ldr	r3, [r3, #0]
     b34:	79ba      	ldrb	r2, [r7, #6]
     b36:	2101      	movs	r1, #1
     b38:	fa01 f202 	lsl.w	r2, r1, r2
     b3c:	4611      	mov	r1, r2
     b3e:	4a04      	ldr	r2, [pc, #16]	; (b50 <DMA_ConfigureChannelSoftwareRequest+0x54>)
     b40:	430b      	orrs	r3, r1
     b42:	6013      	str	r3, [r2, #0]
     b44:	bf00      	nop
     b46:	bf00      	nop
     b48:	370c      	adds	r7, #12
     b4a:	46bd      	mov	sp, r7
     b4c:	bc80      	pop	{r7}
     b4e:	4770      	bx	lr
     b50:	400ff014 	andmi	pc, pc, r4, lsl r0	; <UNPREDICTABLE>

00000b54 <DMA_ConfigurePeripheralInterrupt>:
     b54:	b580      	push	{r7, lr}
     b56:	b082      	sub	sp, #8
     b58:	af00      	add	r7, sp, #0
     b5a:	4603      	mov	r3, r0
     b5c:	71fb      	strb	r3, [r7, #7]
     b5e:	79fb      	ldrb	r3, [r7, #7]
     b60:	2b00      	cmp	r3, #0
     b62:	d106      	bne.n	b72 <DMA_ConfigurePeripheralInterrupt+0x1e>
     b64:	202e      	movs	r0, #46	; 0x2e
     b66:	f000 fb3d 	bl	11e4 <NVIC_Enable_Interrupt>
     b6a:	202f      	movs	r0, #47	; 0x2f
     b6c:	f000 fb3a 	bl	11e4 <NVIC_Enable_Interrupt>
     b70:	e008      	b.n	b84 <DMA_ConfigurePeripheralInterrupt+0x30>
     b72:	79fb      	ldrb	r3, [r7, #7]
     b74:	2b01      	cmp	r3, #1
     b76:	d105      	bne.n	b84 <DMA_ConfigurePeripheralInterrupt+0x30>
     b78:	202e      	movs	r0, #46	; 0x2e
     b7a:	f000 fb59 	bl	1230 <NVIC_Clear_Interrupt>
     b7e:	202f      	movs	r0, #47	; 0x2f
     b80:	f000 fb56 	bl	1230 <NVIC_Clear_Interrupt>
     b84:	bf00      	nop
     b86:	3708      	adds	r7, #8
     b88:	46bd      	mov	sp, r7
     b8a:	bd80      	pop	{r7, pc}

00000b8c <DMA_ConfigureChannelInterrupt>:
     b8c:	b480      	push	{r7}
     b8e:	b083      	sub	sp, #12
     b90:	af00      	add	r7, sp, #0
     b92:	4603      	mov	r3, r0
     b94:	460a      	mov	r2, r1
     b96:	71fb      	strb	r3, [r7, #7]
     b98:	4613      	mov	r3, r2
     b9a:	71bb      	strb	r3, [r7, #6]
     b9c:	79fb      	ldrb	r3, [r7, #7]
     b9e:	2b00      	cmp	r3, #0
     ba0:	d002      	beq.n	ba8 <DMA_ConfigureChannelInterrupt+0x1c>
     ba2:	2b01      	cmp	r3, #1
     ba4:	d00a      	beq.n	bbc <DMA_ConfigureChannelInterrupt+0x30>
     ba6:	e014      	b.n	bd2 <DMA_ConfigureChannelInterrupt+0x46>
     ba8:	4b0c      	ldr	r3, [pc, #48]	; (bdc <DMA_ConfigureChannelInterrupt+0x50>)
     baa:	681b      	ldr	r3, [r3, #0]
     bac:	79ba      	ldrb	r2, [r7, #6]
     bae:	2101      	movs	r1, #1
     bb0:	fa01 f202 	lsl.w	r2, r1, r2
     bb4:	4611      	mov	r1, r2
     bb6:	4a09      	ldr	r2, [pc, #36]	; (bdc <DMA_ConfigureChannelInterrupt+0x50>)
     bb8:	430b      	orrs	r3, r1
     bba:	6013      	str	r3, [r2, #0]
     bbc:	4b07      	ldr	r3, [pc, #28]	; (bdc <DMA_ConfigureChannelInterrupt+0x50>)
     bbe:	681b      	ldr	r3, [r3, #0]
     bc0:	79ba      	ldrb	r2, [r7, #6]
     bc2:	2101      	movs	r1, #1
     bc4:	fa01 f202 	lsl.w	r2, r1, r2
     bc8:	43d2      	mvns	r2, r2
     bca:	4611      	mov	r1, r2
     bcc:	4a03      	ldr	r2, [pc, #12]	; (bdc <DMA_ConfigureChannelInterrupt+0x50>)
     bce:	400b      	ands	r3, r1
     bd0:	6013      	str	r3, [r2, #0]
     bd2:	bf00      	nop
     bd4:	370c      	adds	r7, #12
     bd6:	46bd      	mov	sp, r7
     bd8:	bc80      	pop	{r7}
     bda:	4770      	bx	lr
     bdc:	400ff504 	andmi	pc, pc, r4, lsl #10

00000be0 <DMA_ConfigurePriority>:
     be0:	b480      	push	{r7}
     be2:	b083      	sub	sp, #12
     be4:	af00      	add	r7, sp, #0
     be6:	4603      	mov	r3, r0
     be8:	460a      	mov	r2, r1
     bea:	71fb      	strb	r3, [r7, #7]
     bec:	4613      	mov	r3, r2
     bee:	71bb      	strb	r3, [r7, #6]
     bf0:	79fb      	ldrb	r3, [r7, #7]
     bf2:	2b00      	cmp	r3, #0
     bf4:	d002      	beq.n	bfc <DMA_ConfigurePriority+0x1c>
     bf6:	2b01      	cmp	r3, #1
     bf8:	d00c      	beq.n	c14 <DMA_ConfigurePriority+0x34>
     bfa:	e016      	b.n	c2a <DMA_ConfigurePriority+0x4a>
     bfc:	4b0d      	ldr	r3, [pc, #52]	; (c34 <DMA_ConfigurePriority+0x54>)
     bfe:	681b      	ldr	r3, [r3, #0]
     c00:	79ba      	ldrb	r2, [r7, #6]
     c02:	2101      	movs	r1, #1
     c04:	fa01 f202 	lsl.w	r2, r1, r2
     c08:	43d2      	mvns	r2, r2
     c0a:	4611      	mov	r1, r2
     c0c:	4a09      	ldr	r2, [pc, #36]	; (c34 <DMA_ConfigurePriority+0x54>)
     c0e:	400b      	ands	r3, r1
     c10:	6013      	str	r3, [r2, #0]
     c12:	e00a      	b.n	c2a <DMA_ConfigurePriority+0x4a>
     c14:	4b07      	ldr	r3, [pc, #28]	; (c34 <DMA_ConfigurePriority+0x54>)
     c16:	681b      	ldr	r3, [r3, #0]
     c18:	79ba      	ldrb	r2, [r7, #6]
     c1a:	2101      	movs	r1, #1
     c1c:	fa01 f202 	lsl.w	r2, r1, r2
     c20:	4611      	mov	r1, r2
     c22:	4a04      	ldr	r2, [pc, #16]	; (c34 <DMA_ConfigurePriority+0x54>)
     c24:	430b      	orrs	r3, r1
     c26:	6013      	str	r3, [r2, #0]
     c28:	bf00      	nop
     c2a:	bf00      	nop
     c2c:	370c      	adds	r7, #12
     c2e:	46bd      	mov	sp, r7
     c30:	bc80      	pop	{r7}
     c32:	4770      	bx	lr
     c34:	400ff038 	andmi	pc, pc, r8, lsr r0	; <UNPREDICTABLE>

00000c38 <DMA_AssignChannel>:
     c38:	b480      	push	{r7}
     c3a:	b085      	sub	sp, #20
     c3c:	af00      	add	r7, sp, #0
     c3e:	4603      	mov	r3, r0
     c40:	460a      	mov	r2, r1
     c42:	71fb      	strb	r3, [r7, #7]
     c44:	4613      	mov	r3, r2
     c46:	71bb      	strb	r3, [r7, #6]
     c48:	79fb      	ldrb	r3, [r7, #7]
     c4a:	08db      	lsrs	r3, r3, #3
     c4c:	73fb      	strb	r3, [r7, #15]
     c4e:	79fa      	ldrb	r2, [r7, #7]
     c50:	7bfb      	ldrb	r3, [r7, #15]
     c52:	00db      	lsls	r3, r3, #3
     c54:	1ad3      	subs	r3, r2, r3
     c56:	b2db      	uxtb	r3, r3
     c58:	009b      	lsls	r3, r3, #2
     c5a:	b2da      	uxtb	r2, r3
     c5c:	79bb      	ldrb	r3, [r7, #6]
     c5e:	4413      	add	r3, r2
     c60:	73bb      	strb	r3, [r7, #14]
     c62:	7bfb      	ldrb	r3, [r7, #15]
     c64:	4a09      	ldr	r2, [pc, #36]	; (c8c <DMA_AssignChannel+0x54>)
     c66:	f852 3023 	ldr.w	r3, [r2, r3, lsl #2]
     c6a:	681a      	ldr	r2, [r3, #0]
     c6c:	7bbb      	ldrb	r3, [r7, #14]
     c6e:	2101      	movs	r1, #1
     c70:	fa01 f303 	lsl.w	r3, r1, r3
     c74:	4618      	mov	r0, r3
     c76:	7bfb      	ldrb	r3, [r7, #15]
     c78:	4904      	ldr	r1, [pc, #16]	; (c8c <DMA_AssignChannel+0x54>)
     c7a:	f851 3023 	ldr.w	r3, [r1, r3, lsl #2]
     c7e:	4302      	orrs	r2, r0
     c80:	601a      	str	r2, [r3, #0]
     c82:	bf00      	nop
     c84:	3714      	adds	r7, #20
     c86:	46bd      	mov	sp, r7
     c88:	bc80      	pop	{r7}
     c8a:	4770      	bx	lr
     c8c:	20000000 	andcs	r0, r0, r0

00000c90 <GPIO_EnableRunModeClockGateControl>:
     c90:	b480      	push	{r7}
     c92:	b083      	sub	sp, #12
     c94:	af00      	add	r7, sp, #0
     c96:	4603      	mov	r3, r0
     c98:	71fb      	strb	r3, [r7, #7]
     c9a:	4b14      	ldr	r3, [pc, #80]	; (cec <GPIO_EnableRunModeClockGateControl+0x5c>)
     c9c:	681b      	ldr	r3, [r3, #0]
     c9e:	f3c3 0305 	ubfx	r3, r3, #0, #6
     ca2:	b2db      	uxtb	r3, r3
     ca4:	b25a      	sxtb	r2, r3
     ca6:	79fb      	ldrb	r3, [r7, #7]
     ca8:	2101      	movs	r1, #1
     caa:	fa01 f303 	lsl.w	r3, r1, r3
     cae:	b25b      	sxtb	r3, r3
     cb0:	4313      	orrs	r3, r2
     cb2:	b25b      	sxtb	r3, r3
     cb4:	4a0d      	ldr	r2, [pc, #52]	; (cec <GPIO_EnableRunModeClockGateControl+0x5c>)
     cb6:	f003 033f 	and.w	r3, r3, #63	; 0x3f
     cba:	b2d9      	uxtb	r1, r3
     cbc:	6813      	ldr	r3, [r2, #0]
     cbe:	f361 0305 	bfi	r3, r1, #0, #6
     cc2:	6013      	str	r3, [r2, #0]
     cc4:	bf00      	nop
     cc6:	4b09      	ldr	r3, [pc, #36]	; (cec <GPIO_EnableRunModeClockGateControl+0x5c>)
     cc8:	681b      	ldr	r3, [r3, #0]
     cca:	f3c3 0305 	ubfx	r3, r3, #0, #6
     cce:	b2db      	uxtb	r3, r3
     cd0:	461a      	mov	r2, r3
     cd2:	79fb      	ldrb	r3, [r7, #7]
     cd4:	fa42 f303 	asr.w	r3, r2, r3
     cd8:	f003 0301 	and.w	r3, r3, #1
     cdc:	2b00      	cmp	r3, #0
     cde:	d0f2      	beq.n	cc6 <GPIO_EnableRunModeClockGateControl+0x36>
     ce0:	bf00      	nop
     ce2:	bf00      	nop
     ce4:	370c      	adds	r7, #12
     ce6:	46bd      	mov	sp, r7
     ce8:	bc80      	pop	{r7}
     cea:	4770      	bx	lr
     cec:	400fe608 	andmi	lr, pc, r8, lsl #12

00000cf0 <GPIO_SetPinStatus>:
     cf0:	b480      	push	{r7}
     cf2:	b083      	sub	sp, #12
     cf4:	af00      	add	r7, sp, #0
     cf6:	4603      	mov	r3, r0
     cf8:	71fb      	strb	r3, [r7, #7]
     cfa:	460b      	mov	r3, r1
     cfc:	71bb      	strb	r3, [r7, #6]
     cfe:	4613      	mov	r3, r2
     d00:	717b      	strb	r3, [r7, #5]
     d02:	797b      	ldrb	r3, [r7, #5]
     d04:	2b00      	cmp	r3, #0
     d06:	d002      	beq.n	d0e <GPIO_SetPinStatus+0x1e>
     d08:	2b01      	cmp	r3, #1
     d0a:	d01a      	beq.n	d42 <GPIO_SetPinStatus+0x52>
     d0c:	e031      	b.n	d72 <GPIO_SetPinStatus+0x82>
     d0e:	79fb      	ldrb	r3, [r7, #7]
     d10:	4a1a      	ldr	r2, [pc, #104]	; (d7c <GPIO_SetPinStatus+0x8c>)
     d12:	f852 3023 	ldr.w	r3, [r2, r3, lsl #2]
     d16:	681b      	ldr	r3, [r3, #0]
     d18:	b2db      	uxtb	r3, r3
     d1a:	b25a      	sxtb	r2, r3
     d1c:	79bb      	ldrb	r3, [r7, #6]
     d1e:	2101      	movs	r1, #1
     d20:	fa01 f303 	lsl.w	r3, r1, r3
     d24:	b25b      	sxtb	r3, r3
     d26:	43db      	mvns	r3, r3
     d28:	b25b      	sxtb	r3, r3
     d2a:	4013      	ands	r3, r2
     d2c:	b259      	sxtb	r1, r3
     d2e:	79fb      	ldrb	r3, [r7, #7]
     d30:	4a12      	ldr	r2, [pc, #72]	; (d7c <GPIO_SetPinStatus+0x8c>)
     d32:	f852 2023 	ldr.w	r2, [r2, r3, lsl #2]
     d36:	b2c9      	uxtb	r1, r1
     d38:	6813      	ldr	r3, [r2, #0]
     d3a:	f361 0307 	bfi	r3, r1, #0, #8
     d3e:	6013      	str	r3, [r2, #0]
     d40:	e017      	b.n	d72 <GPIO_SetPinStatus+0x82>
     d42:	79fb      	ldrb	r3, [r7, #7]
     d44:	4a0d      	ldr	r2, [pc, #52]	; (d7c <GPIO_SetPinStatus+0x8c>)
     d46:	f852 3023 	ldr.w	r3, [r2, r3, lsl #2]
     d4a:	681b      	ldr	r3, [r3, #0]
     d4c:	b2db      	uxtb	r3, r3
     d4e:	b25a      	sxtb	r2, r3
     d50:	79bb      	ldrb	r3, [r7, #6]
     d52:	2101      	movs	r1, #1
     d54:	fa01 f303 	lsl.w	r3, r1, r3
     d58:	b25b      	sxtb	r3, r3
     d5a:	4313      	orrs	r3, r2
     d5c:	b259      	sxtb	r1, r3
     d5e:	79fb      	ldrb	r3, [r7, #7]
     d60:	4a06      	ldr	r2, [pc, #24]	; (d7c <GPIO_SetPinStatus+0x8c>)
     d62:	f852 2023 	ldr.w	r2, [r2, r3, lsl #2]
     d66:	b2c9      	uxtb	r1, r1
     d68:	6813      	ldr	r3, [r2, #0]
     d6a:	f361 0307 	bfi	r3, r1, #0, #8
     d6e:	6013      	str	r3, [r2, #0]
     d70:	bf00      	nop
     d72:	bf00      	nop
     d74:	370c      	adds	r7, #12
     d76:	46bd      	mov	sp, r7
     d78:	bc80      	pop	{r7}
     d7a:	4770      	bx	lr
     d7c:	0000031c 	andeq	r0, r0, ip, lsl r3

00000d80 <GPIO_SetData>:
     d80:	b480      	push	{r7}
     d82:	b083      	sub	sp, #12
     d84:	af00      	add	r7, sp, #0
     d86:	4603      	mov	r3, r0
     d88:	71fb      	strb	r3, [r7, #7]
     d8a:	460b      	mov	r3, r1
     d8c:	71bb      	strb	r3, [r7, #6]
     d8e:	4613      	mov	r3, r2
     d90:	717b      	strb	r3, [r7, #5]
     d92:	797b      	ldrb	r3, [r7, #5]
     d94:	2b00      	cmp	r3, #0
     d96:	d002      	beq.n	d9e <GPIO_SetData+0x1e>
     d98:	2b01      	cmp	r3, #1
     d9a:	d01a      	beq.n	dd2 <GPIO_SetData+0x52>
     d9c:	e031      	b.n	e02 <GPIO_SetData+0x82>
     d9e:	79fb      	ldrb	r3, [r7, #7]
     da0:	4a1a      	ldr	r2, [pc, #104]	; (e0c <GPIO_SetData+0x8c>)
     da2:	f852 3023 	ldr.w	r3, [r2, r3, lsl #2]
     da6:	681b      	ldr	r3, [r3, #0]
     da8:	b2db      	uxtb	r3, r3
     daa:	b25a      	sxtb	r2, r3
     dac:	79bb      	ldrb	r3, [r7, #6]
     dae:	2101      	movs	r1, #1
     db0:	fa01 f303 	lsl.w	r3, r1, r3
     db4:	b25b      	sxtb	r3, r3
     db6:	43db      	mvns	r3, r3
     db8:	b25b      	sxtb	r3, r3
     dba:	4013      	ands	r3, r2
     dbc:	b259      	sxtb	r1, r3
     dbe:	79fb      	ldrb	r3, [r7, #7]
     dc0:	4a12      	ldr	r2, [pc, #72]	; (e0c <GPIO_SetData+0x8c>)
     dc2:	f852 2023 	ldr.w	r2, [r2, r3, lsl #2]
     dc6:	b2c9      	uxtb	r1, r1
     dc8:	6813      	ldr	r3, [r2, #0]
     dca:	f361 0307 	bfi	r3, r1, #0, #8
     dce:	6013      	str	r3, [r2, #0]
     dd0:	e017      	b.n	e02 <GPIO_SetData+0x82>
     dd2:	79fb      	ldrb	r3, [r7, #7]
     dd4:	4a0d      	ldr	r2, [pc, #52]	; (e0c <GPIO_SetData+0x8c>)
     dd6:	f852 3023 	ldr.w	r3, [r2, r3, lsl #2]
     dda:	681b      	ldr	r3, [r3, #0]
     ddc:	b2db      	uxtb	r3, r3
     dde:	b25a      	sxtb	r2, r3
     de0:	79bb      	ldrb	r3, [r7, #6]
     de2:	2101      	movs	r1, #1
     de4:	fa01 f303 	lsl.w	r3, r1, r3
     de8:	b25b      	sxtb	r3, r3
     dea:	4313      	orrs	r3, r2
     dec:	b259      	sxtb	r1, r3
     dee:	79fb      	ldrb	r3, [r7, #7]
     df0:	4a06      	ldr	r2, [pc, #24]	; (e0c <GPIO_SetData+0x8c>)
     df2:	f852 2023 	ldr.w	r2, [r2, r3, lsl #2]
     df6:	b2c9      	uxtb	r1, r1
     df8:	6813      	ldr	r3, [r2, #0]
     dfa:	f361 0307 	bfi	r3, r1, #0, #8
     dfe:	6013      	str	r3, [r2, #0]
     e00:	bf00      	nop
     e02:	bf00      	nop
     e04:	370c      	adds	r7, #12
     e06:	46bd      	mov	sp, r7
     e08:	bc80      	pop	{r7}
     e0a:	4770      	bx	lr
     e0c:	00000394 	muleq	r0, r4, r3

00000e10 <GPIO_ConfigureDigitalEnable>:
     e10:	b480      	push	{r7}
     e12:	b083      	sub	sp, #12
     e14:	af00      	add	r7, sp, #0
     e16:	4603      	mov	r3, r0
     e18:	71fb      	strb	r3, [r7, #7]
     e1a:	460b      	mov	r3, r1
     e1c:	71bb      	strb	r3, [r7, #6]
     e1e:	4613      	mov	r3, r2
     e20:	717b      	strb	r3, [r7, #5]
     e22:	797b      	ldrb	r3, [r7, #5]
     e24:	2b00      	cmp	r3, #0
     e26:	d002      	beq.n	e2e <GPIO_ConfigureDigitalEnable+0x1e>
     e28:	2b01      	cmp	r3, #1
     e2a:	d01a      	beq.n	e62 <GPIO_ConfigureDigitalEnable+0x52>
     e2c:	e031      	b.n	e92 <GPIO_ConfigureDigitalEnable+0x82>
     e2e:	79fb      	ldrb	r3, [r7, #7]
     e30:	4a1a      	ldr	r2, [pc, #104]	; (e9c <GPIO_ConfigureDigitalEnable+0x8c>)
     e32:	f852 3023 	ldr.w	r3, [r2, r3, lsl #2]
     e36:	681b      	ldr	r3, [r3, #0]
     e38:	b2db      	uxtb	r3, r3
     e3a:	b25a      	sxtb	r2, r3
     e3c:	79bb      	ldrb	r3, [r7, #6]
     e3e:	2101      	movs	r1, #1
     e40:	fa01 f303 	lsl.w	r3, r1, r3
     e44:	b25b      	sxtb	r3, r3
     e46:	43db      	mvns	r3, r3
     e48:	b25b      	sxtb	r3, r3
     e4a:	4013      	ands	r3, r2
     e4c:	b259      	sxtb	r1, r3
     e4e:	79fb      	ldrb	r3, [r7, #7]
     e50:	4a12      	ldr	r2, [pc, #72]	; (e9c <GPIO_ConfigureDigitalEnable+0x8c>)
     e52:	f852 2023 	ldr.w	r2, [r2, r3, lsl #2]
     e56:	b2c9      	uxtb	r1, r1
     e58:	6813      	ldr	r3, [r2, #0]
     e5a:	f361 0307 	bfi	r3, r1, #0, #8
     e5e:	6013      	str	r3, [r2, #0]
     e60:	e017      	b.n	e92 <GPIO_ConfigureDigitalEnable+0x82>
     e62:	79fb      	ldrb	r3, [r7, #7]
     e64:	4a0d      	ldr	r2, [pc, #52]	; (e9c <GPIO_ConfigureDigitalEnable+0x8c>)
     e66:	f852 3023 	ldr.w	r3, [r2, r3, lsl #2]
     e6a:	681b      	ldr	r3, [r3, #0]
     e6c:	b2db      	uxtb	r3, r3
     e6e:	b25a      	sxtb	r2, r3
     e70:	79bb      	ldrb	r3, [r7, #6]
     e72:	2101      	movs	r1, #1
     e74:	fa01 f303 	lsl.w	r3, r1, r3
     e78:	b25b      	sxtb	r3, r3
     e7a:	4313      	orrs	r3, r2
     e7c:	b259      	sxtb	r1, r3
     e7e:	79fb      	ldrb	r3, [r7, #7]
     e80:	4a06      	ldr	r2, [pc, #24]	; (e9c <GPIO_ConfigureDigitalEnable+0x8c>)
     e82:	f852 2023 	ldr.w	r2, [r2, r3, lsl #2]
     e86:	b2c9      	uxtb	r1, r1
     e88:	6813      	ldr	r3, [r2, #0]
     e8a:	f361 0307 	bfi	r3, r1, #0, #8
     e8e:	6013      	str	r3, [r2, #0]
     e90:	bf00      	nop
     e92:	bf00      	nop
     e94:	370c      	adds	r7, #12
     e96:	46bd      	mov	sp, r7
     e98:	bc80      	pop	{r7}
     e9a:	4770      	bx	lr
     e9c:	000003ac 	andeq	r0, r0, ip, lsr #7

00000ea0 <GPIO_ConfigureCommit>:
     ea0:	b480      	push	{r7}
     ea2:	b083      	sub	sp, #12
     ea4:	af00      	add	r7, sp, #0
     ea6:	4603      	mov	r3, r0
     ea8:	71fb      	strb	r3, [r7, #7]
     eaa:	460b      	mov	r3, r1
     eac:	71bb      	strb	r3, [r7, #6]
     eae:	4613      	mov	r3, r2
     eb0:	717b      	strb	r3, [r7, #5]
     eb2:	797b      	ldrb	r3, [r7, #5]
     eb4:	2b00      	cmp	r3, #0
     eb6:	d002      	beq.n	ebe <GPIO_ConfigureCommit+0x1e>
     eb8:	2b01      	cmp	r3, #1
     eba:	d007      	beq.n	ecc <GPIO_ConfigureCommit+0x2c>
     ebc:	e024      	b.n	f08 <GPIO_ConfigureCommit+0x68>
     ebe:	79fb      	ldrb	r3, [r7, #7]
     ec0:	4a14      	ldr	r2, [pc, #80]	; (f14 <GPIO_ConfigureCommit+0x74>)
     ec2:	f852 3023 	ldr.w	r3, [r2, r3, lsl #2]
     ec6:	2200      	movs	r2, #0
     ec8:	601a      	str	r2, [r3, #0]
     eca:	e01d      	b.n	f08 <GPIO_ConfigureCommit+0x68>
     ecc:	79fb      	ldrb	r3, [r7, #7]
     ece:	4a11      	ldr	r2, [pc, #68]	; (f14 <GPIO_ConfigureCommit+0x74>)
     ed0:	f852 3023 	ldr.w	r3, [r2, r3, lsl #2]
     ed4:	4a10      	ldr	r2, [pc, #64]	; (f18 <GPIO_ConfigureCommit+0x78>)
     ed6:	601a      	str	r2, [r3, #0]
     ed8:	79fb      	ldrb	r3, [r7, #7]
     eda:	4a10      	ldr	r2, [pc, #64]	; (f1c <GPIO_ConfigureCommit+0x7c>)
     edc:	f852 3023 	ldr.w	r3, [r2, r3, lsl #2]
     ee0:	681b      	ldr	r3, [r3, #0]
     ee2:	b2db      	uxtb	r3, r3
     ee4:	b25a      	sxtb	r2, r3
     ee6:	79bb      	ldrb	r3, [r7, #6]
     ee8:	2101      	movs	r1, #1
     eea:	fa01 f303 	lsl.w	r3, r1, r3
     eee:	b25b      	sxtb	r3, r3
     ef0:	4313      	orrs	r3, r2
     ef2:	b259      	sxtb	r1, r3
     ef4:	79fb      	ldrb	r3, [r7, #7]
     ef6:	4a09      	ldr	r2, [pc, #36]	; (f1c <GPIO_ConfigureCommit+0x7c>)
     ef8:	f852 2023 	ldr.w	r2, [r2, r3, lsl #2]
     efc:	b2c9      	uxtb	r1, r1
     efe:	6813      	ldr	r3, [r2, #0]
     f00:	f361 0307 	bfi	r3, r1, #0, #8
     f04:	6013      	str	r3, [r2, #0]
     f06:	bf00      	nop
     f08:	bf00      	nop
     f0a:	370c      	adds	r7, #12
     f0c:	46bd      	mov	sp, r7
     f0e:	bc80      	pop	{r7}
     f10:	4770      	bx	lr
     f12:	bf00      	nop
     f14:	000003dc 	ldrdeq	r0, [r0], -ip
     f18:	4c4f434b 	mcrrmi	3, 4, r4, pc, cr11
     f1c:	000003f4 	strdeq	r0, [r0], -r4

00000f20 <GPIO_ConfigureOutputPin>:
     f20:	b580      	push	{r7, lr}
     f22:	b082      	sub	sp, #8
     f24:	af00      	add	r7, sp, #0
     f26:	6078      	str	r0, [r7, #4]
     f28:	687b      	ldr	r3, [r7, #4]
     f2a:	781b      	ldrb	r3, [r3, #0]
     f2c:	4618      	mov	r0, r3
     f2e:	f7ff feaf 	bl	c90 <GPIO_EnableRunModeClockGateControl>
     f32:	687b      	ldr	r3, [r7, #4]
     f34:	7818      	ldrb	r0, [r3, #0]
     f36:	687b      	ldr	r3, [r7, #4]
     f38:	785b      	ldrb	r3, [r3, #1]
     f3a:	2201      	movs	r2, #1
     f3c:	4619      	mov	r1, r3
     f3e:	f7ff fed7 	bl	cf0 <GPIO_SetPinStatus>
     f42:	687b      	ldr	r3, [r7, #4]
     f44:	7818      	ldrb	r0, [r3, #0]
     f46:	687b      	ldr	r3, [r7, #4]
     f48:	785b      	ldrb	r3, [r3, #1]
     f4a:	2200      	movs	r2, #0
     f4c:	4619      	mov	r1, r3
     f4e:	f7ff ff17 	bl	d80 <GPIO_SetData>
     f52:	687b      	ldr	r3, [r7, #4]
     f54:	7818      	ldrb	r0, [r3, #0]
     f56:	687b      	ldr	r3, [r7, #4]
     f58:	785b      	ldrb	r3, [r3, #1]
     f5a:	2201      	movs	r2, #1
     f5c:	4619      	mov	r1, r3
     f5e:	f7ff ff57 	bl	e10 <GPIO_ConfigureDigitalEnable>
     f62:	687b      	ldr	r3, [r7, #4]
     f64:	7818      	ldrb	r0, [r3, #0]
     f66:	687b      	ldr	r3, [r7, #4]
     f68:	785b      	ldrb	r3, [r3, #1]
     f6a:	2201      	movs	r2, #1
     f6c:	4619      	mov	r1, r3
     f6e:	f7ff ff97 	bl	ea0 <GPIO_ConfigureCommit>
     f72:	bf00      	nop
     f74:	3708      	adds	r7, #8
     f76:	46bd      	mov	sp, r7
     f78:	bd80      	pop	{r7, pc}
	...

00000f7c <GPIO_SetPinDirection>:
     f7c:	b480      	push	{r7}
     f7e:	b083      	sub	sp, #12
     f80:	af00      	add	r7, sp, #0
     f82:	4603      	mov	r3, r0
     f84:	71fb      	strb	r3, [r7, #7]
     f86:	460b      	mov	r3, r1
     f88:	71bb      	strb	r3, [r7, #6]
     f8a:	4613      	mov	r3, r2
     f8c:	717b      	strb	r3, [r7, #5]
     f8e:	797b      	ldrb	r3, [r7, #5]
     f90:	2b00      	cmp	r3, #0
     f92:	d002      	beq.n	f9a <GPIO_SetPinDirection+0x1e>
     f94:	2b01      	cmp	r3, #1
     f96:	d01a      	beq.n	fce <GPIO_SetPinDirection+0x52>
     f98:	e031      	b.n	ffe <GPIO_SetPinDirection+0x82>
     f9a:	79fb      	ldrb	r3, [r7, #7]
     f9c:	4a1a      	ldr	r2, [pc, #104]	; (1008 <GPIO_SetPinDirection+0x8c>)
     f9e:	f852 3023 	ldr.w	r3, [r2, r3, lsl #2]
     fa2:	681b      	ldr	r3, [r3, #0]
     fa4:	b2db      	uxtb	r3, r3
     fa6:	b25a      	sxtb	r2, r3
     fa8:	79bb      	ldrb	r3, [r7, #6]
     faa:	2101      	movs	r1, #1
     fac:	fa01 f303 	lsl.w	r3, r1, r3
     fb0:	b25b      	sxtb	r3, r3
     fb2:	43db      	mvns	r3, r3
     fb4:	b25b      	sxtb	r3, r3
     fb6:	4013      	ands	r3, r2
     fb8:	b259      	sxtb	r1, r3
     fba:	79fb      	ldrb	r3, [r7, #7]
     fbc:	4a12      	ldr	r2, [pc, #72]	; (1008 <GPIO_SetPinDirection+0x8c>)
     fbe:	f852 2023 	ldr.w	r2, [r2, r3, lsl #2]
     fc2:	b2c9      	uxtb	r1, r1
     fc4:	6813      	ldr	r3, [r2, #0]
     fc6:	f361 0307 	bfi	r3, r1, #0, #8
     fca:	6013      	str	r3, [r2, #0]
     fcc:	e017      	b.n	ffe <GPIO_SetPinDirection+0x82>
     fce:	79fb      	ldrb	r3, [r7, #7]
     fd0:	4a0d      	ldr	r2, [pc, #52]	; (1008 <GPIO_SetPinDirection+0x8c>)
     fd2:	f852 3023 	ldr.w	r3, [r2, r3, lsl #2]
     fd6:	681b      	ldr	r3, [r3, #0]
     fd8:	b2db      	uxtb	r3, r3
     fda:	b25a      	sxtb	r2, r3
     fdc:	79bb      	ldrb	r3, [r7, #6]
     fde:	2101      	movs	r1, #1
     fe0:	fa01 f303 	lsl.w	r3, r1, r3
     fe4:	b25b      	sxtb	r3, r3
     fe6:	4313      	orrs	r3, r2
     fe8:	b259      	sxtb	r1, r3
     fea:	79fb      	ldrb	r3, [r7, #7]
     fec:	4a06      	ldr	r2, [pc, #24]	; (1008 <GPIO_SetPinDirection+0x8c>)
     fee:	f852 2023 	ldr.w	r2, [r2, r3, lsl #2]
     ff2:	b2c9      	uxtb	r1, r1
     ff4:	6813      	ldr	r3, [r2, #0]
     ff6:	f361 0307 	bfi	r3, r1, #0, #8
     ffa:	6013      	str	r3, [r2, #0]
     ffc:	bf00      	nop
     ffe:	bf00      	nop
    1000:	370c      	adds	r7, #12
    1002:	46bd      	mov	sp, r7
    1004:	bc80      	pop	{r7}
    1006:	4770      	bx	lr
    1008:	0000031c 	andeq	r0, r0, ip, lsl r3

0000100c <GPIO_SetInputStatus>:
    100c:	b480      	push	{r7}
    100e:	b083      	sub	sp, #12
    1010:	af00      	add	r7, sp, #0
    1012:	4603      	mov	r3, r0
    1014:	460a      	mov	r2, r1
    1016:	71fb      	strb	r3, [r7, #7]
    1018:	4613      	mov	r3, r2
    101a:	71bb      	strb	r3, [r7, #6]
    101c:	79fb      	ldrb	r3, [r7, #7]
    101e:	4a0d      	ldr	r2, [pc, #52]	; (1054 <GPIO_SetInputStatus+0x48>)
    1020:	f852 3023 	ldr.w	r3, [r2, r3, lsl #2]
    1024:	681b      	ldr	r3, [r3, #0]
    1026:	b2db      	uxtb	r3, r3
    1028:	b25a      	sxtb	r2, r3
    102a:	79bb      	ldrb	r3, [r7, #6]
    102c:	2101      	movs	r1, #1
    102e:	fa01 f303 	lsl.w	r3, r1, r3
    1032:	b25b      	sxtb	r3, r3
    1034:	4313      	orrs	r3, r2
    1036:	b259      	sxtb	r1, r3
    1038:	79fb      	ldrb	r3, [r7, #7]
    103a:	4a06      	ldr	r2, [pc, #24]	; (1054 <GPIO_SetInputStatus+0x48>)
    103c:	f852 2023 	ldr.w	r2, [r2, r3, lsl #2]
    1040:	b2c9      	uxtb	r1, r1
    1042:	6813      	ldr	r3, [r2, #0]
    1044:	f361 0307 	bfi	r3, r1, #0, #8
    1048:	6013      	str	r3, [r2, #0]
    104a:	bf00      	nop
    104c:	370c      	adds	r7, #12
    104e:	46bd      	mov	sp, r7
    1050:	bc80      	pop	{r7}
    1052:	4770      	bx	lr
    1054:	00000424 	andeq	r0, r0, r4, lsr #8

00001058 <GPIO_ConfigureInputPin>:
    1058:	b580      	push	{r7, lr}
    105a:	b082      	sub	sp, #8
    105c:	af00      	add	r7, sp, #0
    105e:	6078      	str	r0, [r7, #4]
    1060:	687b      	ldr	r3, [r7, #4]
    1062:	781b      	ldrb	r3, [r3, #0]
    1064:	4618      	mov	r0, r3
    1066:	f7ff fe13 	bl	c90 <GPIO_EnableRunModeClockGateControl>
    106a:	687b      	ldr	r3, [r7, #4]
    106c:	781b      	ldrb	r3, [r3, #0]
    106e:	2b05      	cmp	r3, #5
    1070:	d108      	bne.n	1084 <GPIO_ConfigureInputPin+0x2c>
    1072:	687b      	ldr	r3, [r7, #4]
    1074:	785b      	ldrb	r3, [r3, #1]
    1076:	2b00      	cmp	r3, #0
    1078:	d104      	bne.n	1084 <GPIO_ConfigureInputPin+0x2c>
    107a:	2201      	movs	r2, #1
    107c:	2100      	movs	r1, #0
    107e:	2005      	movs	r0, #5
    1080:	f7ff ff0e 	bl	ea0 <GPIO_ConfigureCommit>
    1084:	687b      	ldr	r3, [r7, #4]
    1086:	7818      	ldrb	r0, [r3, #0]
    1088:	687b      	ldr	r3, [r7, #4]
    108a:	785b      	ldrb	r3, [r3, #1]
    108c:	2200      	movs	r2, #0
    108e:	4619      	mov	r1, r3
    1090:	f7ff ff74 	bl	f7c <GPIO_SetPinDirection>
    1094:	687b      	ldr	r3, [r7, #4]
    1096:	781a      	ldrb	r2, [r3, #0]
    1098:	687b      	ldr	r3, [r7, #4]
    109a:	785b      	ldrb	r3, [r3, #1]
    109c:	4619      	mov	r1, r3
    109e:	4610      	mov	r0, r2
    10a0:	f7ff ffb4 	bl	100c <GPIO_SetInputStatus>
    10a4:	687b      	ldr	r3, [r7, #4]
    10a6:	7818      	ldrb	r0, [r3, #0]
    10a8:	687b      	ldr	r3, [r7, #4]
    10aa:	785b      	ldrb	r3, [r3, #1]
    10ac:	2201      	movs	r2, #1
    10ae:	4619      	mov	r1, r3
    10b0:	f7ff feae 	bl	e10 <GPIO_ConfigureDigitalEnable>
    10b4:	bf00      	nop
    10b6:	3708      	adds	r7, #8
    10b8:	46bd      	mov	sp, r7
    10ba:	bd80      	pop	{r7, pc}

000010bc <GPIO_WriteBitBandBits>:
    10bc:	b490      	push	{r4, r7}
    10be:	b082      	sub	sp, #8
    10c0:	af00      	add	r7, sp, #0
    10c2:	4603      	mov	r3, r0
    10c4:	71fb      	strb	r3, [r7, #7]
    10c6:	460b      	mov	r3, r1
    10c8:	71bb      	strb	r3, [r7, #6]
    10ca:	4613      	mov	r3, r2
    10cc:	717b      	strb	r3, [r7, #5]
    10ce:	797b      	ldrb	r3, [r7, #5]
    10d0:	2b00      	cmp	r3, #0
    10d2:	d012      	beq.n	10fa <GPIO_WriteBitBandBits+0x3e>
    10d4:	2b01      	cmp	r3, #1
    10d6:	d12c      	bne.n	1132 <GPIO_WriteBitBandBits+0x76>
    10d8:	79fb      	ldrb	r3, [r7, #7]
    10da:	2201      	movs	r2, #1
    10dc:	fa02 f003 	lsl.w	r0, r2, r3
    10e0:	79bb      	ldrb	r3, [r7, #6]
    10e2:	4a16      	ldr	r2, [pc, #88]	; (113c <GPIO_WriteBitBandBits+0x80>)
    10e4:	f852 3023 	ldr.w	r3, [r2, r3, lsl #2]
    10e8:	79fa      	ldrb	r2, [r7, #7]
    10ea:	3202      	adds	r2, #2
    10ec:	2101      	movs	r1, #1
    10ee:	fa01 f202 	lsl.w	r2, r1, r2
    10f2:	4413      	add	r3, r2
    10f4:	4602      	mov	r2, r0
    10f6:	601a      	str	r2, [r3, #0]
    10f8:	e01b      	b.n	1132 <GPIO_WriteBitBandBits+0x76>
    10fa:	79bb      	ldrb	r3, [r7, #6]
    10fc:	4a0f      	ldr	r2, [pc, #60]	; (113c <GPIO_WriteBitBandBits+0x80>)
    10fe:	f852 3023 	ldr.w	r3, [r2, r3, lsl #2]
    1102:	79fa      	ldrb	r2, [r7, #7]
    1104:	3202      	adds	r2, #2
    1106:	2101      	movs	r1, #1
    1108:	fa01 f202 	lsl.w	r2, r1, r2
    110c:	441a      	add	r2, r3
    110e:	6812      	ldr	r2, [r2, #0]
    1110:	79f9      	ldrb	r1, [r7, #7]
    1112:	2001      	movs	r0, #1
    1114:	fa00 f101 	lsl.w	r1, r0, r1
    1118:	43c9      	mvns	r1, r1
    111a:	460c      	mov	r4, r1
    111c:	79f9      	ldrb	r1, [r7, #7]
    111e:	3102      	adds	r1, #2
    1120:	2001      	movs	r0, #1
    1122:	fa00 f101 	lsl.w	r1, r0, r1
    1126:	440b      	add	r3, r1
    1128:	4619      	mov	r1, r3
    112a:	ea02 0304 	and.w	r3, r2, r4
    112e:	600b      	str	r3, [r1, #0]
    1130:	bf00      	nop
    1132:	bf00      	nop
    1134:	3708      	adds	r7, #8
    1136:	46bd      	mov	sp, r7
    1138:	bc90      	pop	{r4, r7}
    113a:	4770      	bx	lr
    113c:	20000024 	andcs	r0, r0, r4, lsr #32

00001140 <main>:
    1140:	b580      	push	{r7, lr}
    1142:	b082      	sub	sp, #8
    1144:	af00      	add	r7, sp, #0
    1146:	b662      	cpsie	i
    1148:	2001      	movs	r0, #1
    114a:	f000 f98d 	bl	1468 <SysTickConfigureClockSource>
    114e:	f000 f8ff 	bl	1350 <SC_GetSystemClock>
    1152:	4603      	mov	r3, r0
    1154:	4a1c      	ldr	r2, [pc, #112]	; (11c8 <main+0x88>)
    1156:	6013      	str	r3, [r2, #0]
    1158:	481c      	ldr	r0, [pc, #112]	; (11cc <main+0x8c>)
    115a:	f7ff fee1 	bl	f20 <GPIO_ConfigureOutputPin>
    115e:	481c      	ldr	r0, [pc, #112]	; (11d0 <main+0x90>)
    1160:	f7ff ff7a 	bl	1058 <GPIO_ConfigureInputPin>
    1164:	481b      	ldr	r0, [pc, #108]	; (11d4 <main+0x94>)
    1166:	f7ff ff77 	bl	1058 <GPIO_ConfigureInputPin>
    116a:	f7ff fba3 	bl	8b4 <DMA_PeripheralInitialization>
    116e:	4b1a      	ldr	r3, [pc, #104]	; (11d8 <main+0x98>)
    1170:	681b      	ldr	r3, [r3, #0]
    1172:	4a1a      	ldr	r2, [pc, #104]	; (11dc <main+0x9c>)
    1174:	491a      	ldr	r1, [pc, #104]	; (11e0 <main+0xa0>)
    1176:	4618      	mov	r0, r3
    1178:	f7ff fc14 	bl	9a4 <DMA_ChannelControlStructureSet>
    117c:	4b16      	ldr	r3, [pc, #88]	; (11d8 <main+0x98>)
    117e:	681b      	ldr	r3, [r3, #0]
    1180:	4618      	mov	r0, r3
    1182:	f7ff fbb3 	bl	8ec <DMA_EnableChannelAttributes>
    1186:	2100      	movs	r1, #0
    1188:	201e      	movs	r0, #30
    118a:	f7ff fd55 	bl	c38 <DMA_AssignChannel>
    118e:	201e      	movs	r0, #30
    1190:	f7ff fbf2 	bl	978 <DMA_EnableChannel>
    1194:	2000      	movs	r0, #0
    1196:	f7ff fcdd 	bl	b54 <DMA_ConfigurePeripheralInterrupt>
    119a:	211e      	movs	r1, #30
    119c:	2000      	movs	r0, #0
    119e:	f7ff fcf5 	bl	b8c <DMA_ConfigureChannelInterrupt>
    11a2:	2101      	movs	r1, #1
    11a4:	2001      	movs	r0, #1
    11a6:	f000 f975 	bl	1494 <SysTickGenerateDelay_Interrupt>
    11aa:	211e      	movs	r1, #30
    11ac:	2001      	movs	r0, #1
    11ae:	f7ff fca5 	bl	afc <DMA_ConfigureChannelSoftwareRequest>
    11b2:	2300      	movs	r3, #0
    11b4:	607b      	str	r3, [r7, #4]
    11b6:	687b      	ldr	r3, [r7, #4]
    11b8:	3301      	adds	r3, #1
    11ba:	607b      	str	r3, [r7, #4]
    11bc:	2200      	movs	r2, #0
    11be:	2105      	movs	r1, #5
    11c0:	2001      	movs	r0, #1
    11c2:	f7ff ff7b 	bl	10bc <GPIO_WriteBitBandBits>
    11c6:	e7f6      	b.n	11b6 <main+0x76>
    11c8:	20001544 	andcs	r1, r0, r4, asr #10
    11cc:	20000040 	andcs	r0, r0, r0, asr #32
    11d0:	20000044 	andcs	r0, r0, r4, asr #32
    11d4:	2000003c 	andcs	r0, r0, ip, lsr r0
    11d8:	20000020 	andcs	r0, r0, r0, lsr #32
    11dc:	20001523 	andcs	r1, r0, r3, lsr #10
    11e0:	2000111b 	andcs	r1, r0, fp, lsl r1

000011e4 <NVIC_Enable_Interrupt>:
    11e4:	b480      	push	{r7}
    11e6:	b085      	sub	sp, #20
    11e8:	af00      	add	r7, sp, #0
    11ea:	6078      	str	r0, [r7, #4]
    11ec:	687b      	ldr	r3, [r7, #4]
    11ee:	095b      	lsrs	r3, r3, #5
    11f0:	73fb      	strb	r3, [r7, #15]
    11f2:	687b      	ldr	r3, [r7, #4]
    11f4:	b2da      	uxtb	r2, r3
    11f6:	7bfb      	ldrb	r3, [r7, #15]
    11f8:	015b      	lsls	r3, r3, #5
    11fa:	b2db      	uxtb	r3, r3
    11fc:	1ad3      	subs	r3, r2, r3
    11fe:	73bb      	strb	r3, [r7, #14]
    1200:	7bfb      	ldrb	r3, [r7, #15]
    1202:	4a0a      	ldr	r2, [pc, #40]	; (122c <NVIC_Enable_Interrupt+0x48>)
    1204:	f852 3023 	ldr.w	r3, [r2, r3, lsl #2]
    1208:	681a      	ldr	r2, [r3, #0]
    120a:	7bbb      	ldrb	r3, [r7, #14]
    120c:	2101      	movs	r1, #1
    120e:	fa01 f303 	lsl.w	r3, r1, r3
    1212:	4618      	mov	r0, r3
    1214:	7bfb      	ldrb	r3, [r7, #15]
    1216:	4905      	ldr	r1, [pc, #20]	; (122c <NVIC_Enable_Interrupt+0x48>)
    1218:	f851 3023 	ldr.w	r3, [r1, r3, lsl #2]
    121c:	4302      	orrs	r2, r0
    121e:	601a      	str	r2, [r3, #0]
    1220:	bf00      	nop
    1222:	3714      	adds	r7, #20
    1224:	46bd      	mov	sp, r7
    1226:	bc80      	pop	{r7}
    1228:	4770      	bx	lr
    122a:	bf00      	nop
    122c:	000006bc 			; <UNDEFINED> instruction: 0x000006bc

00001230 <NVIC_Clear_Interrupt>:
    1230:	b480      	push	{r7}
    1232:	b085      	sub	sp, #20
    1234:	af00      	add	r7, sp, #0
    1236:	6078      	str	r0, [r7, #4]
    1238:	687b      	ldr	r3, [r7, #4]
    123a:	095b      	lsrs	r3, r3, #5
    123c:	73fb      	strb	r3, [r7, #15]
    123e:	687b      	ldr	r3, [r7, #4]
    1240:	b2da      	uxtb	r2, r3
    1242:	7bfb      	ldrb	r3, [r7, #15]
    1244:	015b      	lsls	r3, r3, #5
    1246:	b2db      	uxtb	r3, r3
    1248:	1ad3      	subs	r3, r2, r3
    124a:	73bb      	strb	r3, [r7, #14]
    124c:	7bfb      	ldrb	r3, [r7, #15]
    124e:	4a0a      	ldr	r2, [pc, #40]	; (1278 <NVIC_Clear_Interrupt+0x48>)
    1250:	f852 3023 	ldr.w	r3, [r2, r3, lsl #2]
    1254:	681a      	ldr	r2, [r3, #0]
    1256:	7bbb      	ldrb	r3, [r7, #14]
    1258:	2101      	movs	r1, #1
    125a:	fa01 f303 	lsl.w	r3, r1, r3
    125e:	43db      	mvns	r3, r3
    1260:	4618      	mov	r0, r3
    1262:	7bfb      	ldrb	r3, [r7, #15]
    1264:	4904      	ldr	r1, [pc, #16]	; (1278 <NVIC_Clear_Interrupt+0x48>)
    1266:	f851 3023 	ldr.w	r3, [r1, r3, lsl #2]
    126a:	4002      	ands	r2, r0
    126c:	601a      	str	r2, [r3, #0]
    126e:	bf00      	nop
    1270:	3714      	adds	r7, #20
    1272:	46bd      	mov	sp, r7
    1274:	bc80      	pop	{r7}
    1276:	4770      	bx	lr
    1278:	000006cc 	andeq	r0, r0, ip, asr #13

0000127c <Default_Handler>:
    127c:	b580      	push	{r7, lr}
    127e:	af00      	add	r7, sp, #0
    1280:	f000 f802 	bl	1288 <Reset_Handler>
    1284:	bf00      	nop
    1286:	bd80      	pop	{r7, pc}

00001288 <Reset_Handler>:
    1288:	b580      	push	{r7, lr}
    128a:	b086      	sub	sp, #24
    128c:	af00      	add	r7, sp, #0
    128e:	4a19      	ldr	r2, [pc, #100]	; (12f4 <Reset_Handler+0x6c>)
    1290:	4b19      	ldr	r3, [pc, #100]	; (12f8 <Reset_Handler+0x70>)
    1292:	1ad3      	subs	r3, r2, r3
    1294:	60bb      	str	r3, [r7, #8]
    1296:	4a19      	ldr	r2, [pc, #100]	; (12fc <Reset_Handler+0x74>)
    1298:	4b19      	ldr	r3, [pc, #100]	; (1300 <Reset_Handler+0x78>)
    129a:	1ad3      	subs	r3, r2, r3
    129c:	607b      	str	r3, [r7, #4]
    129e:	4b19      	ldr	r3, [pc, #100]	; (1304 <Reset_Handler+0x7c>)
    12a0:	603b      	str	r3, [r7, #0]
    12a2:	4b15      	ldr	r3, [pc, #84]	; (12f8 <Reset_Handler+0x70>)
    12a4:	617b      	str	r3, [r7, #20]
    12a6:	2300      	movs	r3, #0
    12a8:	613b      	str	r3, [r7, #16]
    12aa:	e00a      	b.n	12c2 <Reset_Handler+0x3a>
    12ac:	697a      	ldr	r2, [r7, #20]
    12ae:	1c53      	adds	r3, r2, #1
    12b0:	617b      	str	r3, [r7, #20]
    12b2:	697b      	ldr	r3, [r7, #20]
    12b4:	1c59      	adds	r1, r3, #1
    12b6:	6179      	str	r1, [r7, #20]
    12b8:	7812      	ldrb	r2, [r2, #0]
    12ba:	701a      	strb	r2, [r3, #0]
    12bc:	693b      	ldr	r3, [r7, #16]
    12be:	3301      	adds	r3, #1
    12c0:	613b      	str	r3, [r7, #16]
    12c2:	693b      	ldr	r3, [r7, #16]
    12c4:	68ba      	ldr	r2, [r7, #8]
    12c6:	429a      	cmp	r2, r3
    12c8:	d8f0      	bhi.n	12ac <Reset_Handler+0x24>
    12ca:	2300      	movs	r3, #0
    12cc:	60fb      	str	r3, [r7, #12]
    12ce:	e007      	b.n	12e0 <Reset_Handler+0x58>
    12d0:	697b      	ldr	r3, [r7, #20]
    12d2:	1c5a      	adds	r2, r3, #1
    12d4:	617a      	str	r2, [r7, #20]
    12d6:	2200      	movs	r2, #0
    12d8:	701a      	strb	r2, [r3, #0]
    12da:	68fb      	ldr	r3, [r7, #12]
    12dc:	3301      	adds	r3, #1
    12de:	60fb      	str	r3, [r7, #12]
    12e0:	68fb      	ldr	r3, [r7, #12]
    12e2:	687a      	ldr	r2, [r7, #4]
    12e4:	429a      	cmp	r2, r3
    12e6:	d8f3      	bhi.n	12d0 <Reset_Handler+0x48>
    12e8:	f7ff ff2a 	bl	1140 <main>
    12ec:	bf00      	nop
    12ee:	3718      	adds	r7, #24
    12f0:	46bd      	mov	sp, r7
    12f2:	bd80      	pop	{r7, pc}
    12f4:	20000000 	andcs	r0, r0, r0
    12f8:	20000000 	andcs	r0, r0, r0
    12fc:	20000400 	andcs	r0, r0, r0, lsl #8
    1300:	20001df4 	strdcs	r1, [r0], -r4
    1304:	000014ec 	andeq	r1, r0, ip, ror #9

00001308 <SC_GetOscillatorValue>:
    1308:	b480      	push	{r7}
    130a:	af00      	add	r7, sp, #0
    130c:	4b0c      	ldr	r3, [pc, #48]	; (1340 <SC_GetOscillatorValue+0x38>)
    130e:	681b      	ldr	r3, [r3, #0]
    1310:	f3c3 1301 	ubfx	r3, r3, #4, #2
    1314:	b2db      	uxtb	r3, r3
    1316:	2b03      	cmp	r3, #3
    1318:	d00b      	beq.n	1332 <SC_GetOscillatorValue+0x2a>
    131a:	2b03      	cmp	r3, #3
    131c:	dc03      	bgt.n	1326 <SC_GetOscillatorValue+0x1e>
    131e:	2b01      	cmp	r3, #1
    1320:	d003      	beq.n	132a <SC_GetOscillatorValue+0x22>
    1322:	2b02      	cmp	r3, #2
    1324:	d003      	beq.n	132e <SC_GetOscillatorValue+0x26>
    1326:	4b07      	ldr	r3, [pc, #28]	; (1344 <SC_GetOscillatorValue+0x3c>)
    1328:	e005      	b.n	1336 <SC_GetOscillatorValue+0x2e>
    132a:	4b07      	ldr	r3, [pc, #28]	; (1348 <SC_GetOscillatorValue+0x40>)
    132c:	e003      	b.n	1336 <SC_GetOscillatorValue+0x2e>
    132e:	4b07      	ldr	r3, [pc, #28]	; (134c <SC_GetOscillatorValue+0x44>)
    1330:	e001      	b.n	1336 <SC_GetOscillatorValue+0x2e>
    1332:	f247 5330 	movw	r3, #30000	; 0x7530
    1336:	4618      	mov	r0, r3
    1338:	46bd      	mov	sp, r7
    133a:	bc80      	pop	{r7}
    133c:	4770      	bx	lr
    133e:	bf00      	nop
    1340:	400fe060 	andmi	lr, pc, r0, rrx
    1344:	004c4b40 	subeq	r4, ip, r0, asr #22
    1348:	00f42400 	rscseq	r2, r4, r0, lsl #8
    134c:	003d0900 	eorseq	r0, sp, r0, lsl #18

00001350 <SC_GetSystemClock>:
    1350:	b580      	push	{r7, lr}
    1352:	b082      	sub	sp, #8
    1354:	af00      	add	r7, sp, #0
    1356:	4b22      	ldr	r3, [pc, #136]	; (13e0 <SC_GetSystemClock+0x90>)
    1358:	681b      	ldr	r3, [r3, #0]
    135a:	f3c3 23c0 	ubfx	r3, r3, #11, #1
    135e:	b2db      	uxtb	r3, r3
    1360:	2b00      	cmp	r3, #0
    1362:	d117      	bne.n	1394 <SC_GetSystemClock+0x44>
    1364:	4b1e      	ldr	r3, [pc, #120]	; (13e0 <SC_GetSystemClock+0x90>)
    1366:	681b      	ldr	r3, [r3, #0]
    1368:	f3c3 5380 	ubfx	r3, r3, #22, #1
    136c:	b2db      	uxtb	r3, r3
    136e:	2b01      	cmp	r3, #1
    1370:	d10e      	bne.n	1390 <SC_GetSystemClock+0x40>
    1372:	4b1c      	ldr	r3, [pc, #112]	; (13e4 <SC_GetSystemClock+0x94>)
    1374:	607b      	str	r3, [r7, #4]
    1376:	4b1a      	ldr	r3, [pc, #104]	; (13e0 <SC_GetSystemClock+0x90>)
    1378:	681b      	ldr	r3, [r3, #0]
    137a:	f3c3 53c3 	ubfx	r3, r3, #23, #4
    137e:	b2db      	uxtb	r3, r3
    1380:	461a      	mov	r2, r3
    1382:	4b19      	ldr	r3, [pc, #100]	; (13e8 <SC_GetSystemClock+0x98>)
    1384:	5c9b      	ldrb	r3, [r3, r2]
    1386:	461a      	mov	r2, r3
    1388:	687b      	ldr	r3, [r7, #4]
    138a:	fbb3 f3f2 	udiv	r3, r3, r2
    138e:	607b      	str	r3, [r7, #4]
    1390:	687b      	ldr	r3, [r7, #4]
    1392:	e020      	b.n	13d6 <SC_GetSystemClock+0x86>
    1394:	4b12      	ldr	r3, [pc, #72]	; (13e0 <SC_GetSystemClock+0x90>)
    1396:	681b      	ldr	r3, [r3, #0]
    1398:	f3c3 23c0 	ubfx	r3, r3, #11, #1
    139c:	b2db      	uxtb	r3, r3
    139e:	2b01      	cmp	r3, #1
    13a0:	d118      	bne.n	13d4 <SC_GetSystemClock+0x84>
    13a2:	f7ff ffb1 	bl	1308 <SC_GetOscillatorValue>
    13a6:	6078      	str	r0, [r7, #4]
    13a8:	4b0d      	ldr	r3, [pc, #52]	; (13e0 <SC_GetSystemClock+0x90>)
    13aa:	681b      	ldr	r3, [r3, #0]
    13ac:	f3c3 5380 	ubfx	r3, r3, #22, #1
    13b0:	b2db      	uxtb	r3, r3
    13b2:	2b01      	cmp	r3, #1
    13b4:	d10c      	bne.n	13d0 <SC_GetSystemClock+0x80>
    13b6:	4b0a      	ldr	r3, [pc, #40]	; (13e0 <SC_GetSystemClock+0x90>)
    13b8:	681b      	ldr	r3, [r3, #0]
    13ba:	f3c3 53c3 	ubfx	r3, r3, #23, #4
    13be:	b2db      	uxtb	r3, r3
    13c0:	461a      	mov	r2, r3
    13c2:	4b09      	ldr	r3, [pc, #36]	; (13e8 <SC_GetSystemClock+0x98>)
    13c4:	5c9b      	ldrb	r3, [r3, r2]
    13c6:	461a      	mov	r2, r3
    13c8:	687b      	ldr	r3, [r7, #4]
    13ca:	fbb3 f3f2 	udiv	r3, r3, r2
    13ce:	607b      	str	r3, [r7, #4]
    13d0:	687b      	ldr	r3, [r7, #4]
    13d2:	e000      	b.n	13d6 <SC_GetSystemClock+0x86>
    13d4:	2300      	movs	r3, #0
    13d6:	4618      	mov	r0, r3
    13d8:	3708      	adds	r7, #8
    13da:	46bd      	mov	sp, r7
    13dc:	bd80      	pop	{r7, pc}
    13de:	bf00      	nop
    13e0:	400fe060 	andmi	lr, pc, r0, rrx
    13e4:	0bebc200 	bleq	ffaf1bec <_E_BSS+0xdfaefdf8>
    13e8:	0000071c 	andeq	r0, r0, ip, lsl r7

000013ec <SysTickEnable>:
    13ec:	b480      	push	{r7}
    13ee:	af00      	add	r7, sp, #0
    13f0:	4a04      	ldr	r2, [pc, #16]	; (1404 <SysTickEnable+0x18>)
    13f2:	6813      	ldr	r3, [r2, #0]
    13f4:	f043 0301 	orr.w	r3, r3, #1
    13f8:	6013      	str	r3, [r2, #0]
    13fa:	bf00      	nop
    13fc:	46bd      	mov	sp, r7
    13fe:	bc80      	pop	{r7}
    1400:	4770      	bx	lr
    1402:	bf00      	nop
    1404:	e000e010 	and	lr, r0, r0, lsl r0

00001408 <SysTickDisable>:
    1408:	b480      	push	{r7}
    140a:	af00      	add	r7, sp, #0
    140c:	4a04      	ldr	r2, [pc, #16]	; (1420 <SysTickDisable+0x18>)
    140e:	6813      	ldr	r3, [r2, #0]
    1410:	f36f 0300 	bfc	r3, #0, #1
    1414:	6013      	str	r3, [r2, #0]
    1416:	bf00      	nop
    1418:	46bd      	mov	sp, r7
    141a:	bc80      	pop	{r7}
    141c:	4770      	bx	lr
    141e:	bf00      	nop
    1420:	e000e010 	and	lr, r0, r0, lsl r0

00001424 <SysTickFrequencyGet>:
    1424:	b5b0      	push	{r4, r5, r7, lr}
    1426:	b082      	sub	sp, #8
    1428:	af00      	add	r7, sp, #0
    142a:	4b0d      	ldr	r3, [pc, #52]	; (1460 <SysTickFrequencyGet+0x3c>)
    142c:	681b      	ldr	r3, [r3, #0]
    142e:	f3c3 0380 	ubfx	r3, r3, #2, #1
    1432:	b2db      	uxtb	r3, r3
    1434:	2b00      	cmp	r3, #0
    1436:	d103      	bne.n	1440 <SysTickFrequencyGet+0x1c>
    1438:	4a0a      	ldr	r2, [pc, #40]	; (1464 <SysTickFrequencyGet+0x40>)
    143a:	f04f 0300 	mov.w	r3, #0
    143e:	e009      	b.n	1454 <SysTickFrequencyGet+0x30>
    1440:	f7ff ff86 	bl	1350 <SC_GetSystemClock>
    1444:	4603      	mov	r3, r0
    1446:	2200      	movs	r2, #0
    1448:	461c      	mov	r4, r3
    144a:	4615      	mov	r5, r2
    144c:	e9c7 4500 	strd	r4, r5, [r7]
    1450:	e9d7 2300 	ldrd	r2, r3, [r7]
    1454:	4610      	mov	r0, r2
    1456:	4619      	mov	r1, r3
    1458:	3708      	adds	r7, #8
    145a:	46bd      	mov	sp, r7
    145c:	bdb0      	pop	{r4, r5, r7, pc}
    145e:	bf00      	nop
    1460:	e000e010 	and	lr, r0, r0, lsl r0
    1464:	003d0900 	eorseq	r0, sp, r0, lsl #18

00001468 <SysTickConfigureClockSource>:
    1468:	b480      	push	{r7}
    146a:	b083      	sub	sp, #12
    146c:	af00      	add	r7, sp, #0
    146e:	4603      	mov	r3, r0
    1470:	71fb      	strb	r3, [r7, #7]
    1472:	4a07      	ldr	r2, [pc, #28]	; (1490 <SysTickConfigureClockSource+0x28>)
    1474:	79fb      	ldrb	r3, [r7, #7]
    1476:	f003 0301 	and.w	r3, r3, #1
    147a:	b2d9      	uxtb	r1, r3
    147c:	6813      	ldr	r3, [r2, #0]
    147e:	f361 0382 	bfi	r3, r1, #2, #1
    1482:	6013      	str	r3, [r2, #0]
    1484:	bf00      	nop
    1486:	370c      	adds	r7, #12
    1488:	46bd      	mov	sp, r7
    148a:	bc80      	pop	{r7}
    148c:	4770      	bx	lr
    148e:	bf00      	nop
    1490:	e000e010 	and	lr, r0, r0, lsl r0

00001494 <SysTickGenerateDelay_Interrupt>:
    1494:	b580      	push	{r7, lr}
    1496:	b086      	sub	sp, #24
    1498:	af00      	add	r7, sp, #0
    149a:	6078      	str	r0, [r7, #4]
    149c:	6039      	str	r1, [r7, #0]
    149e:	f7ff ffb3 	bl	1408 <SysTickDisable>
    14a2:	f7ff ffbf 	bl	1424 <SysTickFrequencyGet>
    14a6:	e9c7 0104 	strd	r0, r1, [r7, #16]
    14aa:	f04f 0200 	mov.w	r2, #0
    14ae:	f04f 0300 	mov.w	r3, #0
    14b2:	e9c7 2302 	strd	r2, r3, [r7, #8]
    14b6:	490b      	ldr	r1, [pc, #44]	; (14e4 <SysTickGenerateDelay_Interrupt+0x50>)
    14b8:	68ba      	ldr	r2, [r7, #8]
    14ba:	f022 427f 	bic.w	r2, r2, #4278190080	; 0xff000000
    14be:	680b      	ldr	r3, [r1, #0]
    14c0:	f362 0317 	bfi	r3, r2, #0, #24
    14c4:	600b      	str	r3, [r1, #0]
    14c6:	4a08      	ldr	r2, [pc, #32]	; (14e8 <SysTickGenerateDelay_Interrupt+0x54>)
    14c8:	6813      	ldr	r3, [r2, #0]
    14ca:	f043 0302 	orr.w	r3, r3, #2
    14ce:	6013      	str	r3, [r2, #0]
    14d0:	200f      	movs	r0, #15
    14d2:	f7ff fe87 	bl	11e4 <NVIC_Enable_Interrupt>
    14d6:	f7ff ff89 	bl	13ec <SysTickEnable>
    14da:	bf00      	nop
    14dc:	3718      	adds	r7, #24
    14de:	46bd      	mov	sp, r7
    14e0:	bd80      	pop	{r7, pc}
    14e2:	bf00      	nop
    14e4:	e000e014 	and	lr, r0, r4, lsl r0
    14e8:	e000e010 	and	lr, r0, r0, lsl r0

Disassembly of section .data.DMA_ChannelMapSelectRegisters:

20000000 <DMA_ChannelMapSelectRegisters>:
20000000:	400ff510 	andmi	pc, pc, r0, lsl r5	; <UNPREDICTABLE>
20000004:	400ff514 	andmi	pc, pc, r4, lsl r5	; <UNPREDICTABLE>
20000008:	400ff518 	andmi	pc, pc, r8, lsl r5	; <UNPREDICTABLE>
2000000c:	400ff51c 	andmi	pc, pc, ip, lsl r5	; <UNPREDICTABLE>

Disassembly of section .data.DMAChannel30_MemToMem:

20000010 <DMAChannel30_MemToMem>:
20000010:	0000001e 	andeq	r0, r0, lr, lsl r0
20000014:	00010200 	andeq	r0, r1, r0, lsl #4
20000018:	0000010a 	andeq	r0, r0, sl, lsl #2
2000001c:	000003ff 	strdeq	r0, [r0], -pc	; <UNPREDICTABLE>

Disassembly of section .data.Pt_DMAChannel30_MemToMem:

20000020 <Pt_DMAChannel30_MemToMem>:
20000020:	20000010 	andcs	r0, r0, r0, lsl r0

Disassembly of section .data.GPIO_BIT_BAND_Registers:

20000024 <GPIO_BIT_BAND_Registers>:
20000024:	40004000 	andmi	r4, r0, r0
20000028:	40005000 	andmi	r5, r0, r0
2000002c:	40006000 	andmi	r6, r0, r0
20000030:	40007000 	andmi	r7, r0, r0
20000034:	40024000 	andmi	r4, r2, r0
20000038:	40025000 	andmi	r5, r2, r0

Disassembly of section .data.GPIO_ConfigurePin_PF4:

2000003c <GPIO_ConfigurePin_PF4>:
2000003c:	Address 0x2000003c is out of bounds.


Disassembly of section .data.GPIO_ConfigurePin_PF1:

20000040 <GPIO_ConfigurePin_PF1>:
20000040:	Address 0x20000040 is out of bounds.


Disassembly of section .data.GPIO_ConfigurePin_PF0:

20000044 <GPIO_ConfigurePin_PF0>:
20000044:	Address 0x20000044 is out of bounds.


Disassembly of section .bss:

20000400 <DMA_InterruptFlag>:
	...

20000401 <ScatterGatherFlag>:
	...

20000800 <ui8ControlTable>:
	...

20000c00 <DMA_SoftwareTransfer_Callback>:
	...

20000c80 <DMA_ErrorHandler_Callback>:
	...

20000d00 <handlerCounter>:
20000d00:	00000000 	andeq	r0, r0, r0

20000d04 <EXTI_Callback>:
	...

20000d1c <SourceBuffer_DMA>:
	...

2000111c <DestBufferA>:
2000111c:	00000000 	andeq	r0, r0, r0

20001120 <DestBufferB>:
20001120:	00000000 	andeq	r0, r0, r0

20001124 <DestBuffer_DMA>:
	...

20001524 <ListDest>:
	...

2000153c <IndexCounter>:
2000153c:	00000000 	andeq	r0, r0, r0

20001540 <indexCounter>:
20001540:	00000000 	andeq	r0, r0, r0

20001544 <MySystemClock>:
20001544:	00000000 	andeq	r0, r0, r0

20001548 <SourceArray512>:
	...

20001748 <DestArray512>:
	...

20001948 <IdleLoopCounter>:
20001948:	00000000 	andeq	r0, r0, r0

2000194c <Stack_top>:
	...

20001d4c <Systick_Callback>:
20001d4c:	00000000 	andeq	r0, r0, r0

20001d50 <UARTDMA_TxFlag>:
	...

20001d51 <UARTDMA_RxFlag>:
20001d51:	 	andeq	r0, r0, r0

20001d54 <UART0_Callback>:
	...

20001d68 <UART1_Callback>:
	...

20001d7c <UART2_Callback>:
	...

20001d90 <UART3_Callback>:
	...

20001da4 <UART4_Callback>:
	...

20001db8 <UART5_Callback>:
	...

20001dcc <UART6_Callback>:
	...

20001de0 <UART7_Callback>:
	...

Disassembly of section .debug_info:

00000000 <.debug_info>:
       0:	00000fcd 	andeq	r0, r0, sp, asr #31
       4:	00000002 	andeq	r0, r0, r2
       8:	01040000 	mrseq	r0, (UNDEF: 4)
       c:	000001ac 	andeq	r0, r0, ip, lsr #3
      10:	00093d0c 	andeq	r3, r9, ip, lsl #26
      14:	00002e00 	andeq	r2, r0, r0, lsl #28
	...
      24:	02000000 	andeq	r0, r0, #0
      28:	00000853 	andeq	r0, r0, r3, asr r8
      2c:	381d0602 	ldmdacc	sp, {r1, r9, sl}
      30:	03000000 	movweq	r0, #0
      34:	00000027 	andeq	r0, r0, r7, lsr #32
      38:	14080104 	strne	r0, [r8], #-260	; 0xfffffefc
      3c:	0300000d 	movweq	r0, #13
      40:	00000038 	andeq	r0, r0, r8, lsr r0
      44:	16060104 	strne	r0, [r6], -r4, lsl #2
      48:	0400000d 	streq	r0, [r0], #-13
      4c:	0ee40702 	cdpeq	7, 14, cr0, cr4, cr2, {0}
      50:	02040000 	andeq	r0, r4, #0
      54:	000a6305 	andeq	r6, sl, r5, lsl #6
      58:	0a5d0200 	beq	1740860 <_E_text+0x173f374>
      5c:	0e020000 	cdpeq	0, 0, cr0, cr2, cr0, {0}
      60:	00006a1c 	andeq	r6, r0, ip, lsl sl
      64:	00590300 	subseq	r0, r9, r0, lsl #6
      68:	04040000 	streq	r0, [r4], #-0
      6c:	00052707 	andeq	r2, r5, r7, lsl #14
      70:	05040400 	streq	r0, [r4, #-1024]	; 0xfffffc00
      74:	00000808 	andeq	r0, r0, r8, lsl #16
      78:	0a040404 	beq	101090 <_E_text+0xffba4>
      7c:	04000005 	streq	r0, [r0], #-5
      80:	09b10408 	ldmibeq	r1!, {r3, sl}
      84:	08040000 	stmdaeq	r4, {}	; <UNPREDICTABLE>
      88:	00052207 	andeq	r2, r5, r7, lsl #4
      8c:	09850200 	stmibeq	r5, {r9}
      90:	19020000 	stmdbne	r2, {}	; <UNPREDICTABLE>
      94:	00009e10 	andeq	r9, r0, r0, lsl lr
      98:	008d0300 	addeq	r0, sp, r0, lsl #6
      9c:	04050000 	streq	r0, [r5], #-0
      a0:	000000a4 	andeq	r0, r0, r4, lsr #1
      a4:	38070106 	stmdacc	r7, {r1, r2, r8}
      a8:	b7000000 	strlt	r0, [r0, -r0]
      ac:	08000000 	stmdaeq	r0, {}	; <UNPREDICTABLE>
      b0:	000000b7 	strheq	r0, [r0], -r7
      b4:	040003ff 	streq	r0, [r0], #-1023	; 0xfffffc01
      b8:	052c0704 	streq	r0, [ip, #-1796]!	; 0xfffff8fc
      bc:	ff090000 			; <UNDEFINED> instruction: 0xff090000
      c0:	03000000 	movweq	r0, #0
      c4:	00a6160a 	adceq	r1, r6, sl, lsl #12
      c8:	01010000 	mrseq	r0, (UNDEF: 1)
      cc:	8003040a 	andhi	r0, r3, sl, lsl #8
      d0:	0000e805 	andeq	lr, r0, r5, lsl #16
      d4:	08220b00 	stmdaeq	r2!, {r8, r9, fp}
      d8:	83030000 	movwhi	r0, #12288	; 0x3000
      dc:	0000590f 	andeq	r5, r0, pc, lsl #18
      e0:	00160400 	andseq	r0, r6, r0, lsl #8
      e4:	00002302 	andeq	r2, r0, r2, lsl #6
      e8:	7e03040c 	cdpvc	4, 0, cr0, cr3, cr12, {0}
      ec:	00010a09 	andeq	r0, r1, r9, lsl #20
      f0:	19ca0d00 	stmibne	sl, {r8, sl, fp}^
      f4:	85030000 	strhi	r0, [r3, #-0]
      f8:	0000cc06 	andeq	ip, r0, r6, lsl #24
      fc:	2b4e0d00 	blcs	1383504 <_E_text+0x1382018>
     100:	87030000 	strhi	r0, [r3, -r0]
     104:	00005908 	andeq	r5, r0, r8, lsl #18
     108:	9d020000 	stcls	0, cr0, [r2, #-0]
     10c:	03000009 	movweq	r0, #9
     110:	00e80289 	rsceq	r0, r8, r9, lsl #5
     114:	040a0000 	streq	r0, [sl], #-0
     118:	32058e03 	andcc	r8, r5, #3, 28	; 0x30
     11c:	0b000001 	bleq	128 <DestinationAddressPointerRegisters+0xc>
     120:	00000cb4 			; <UNDEFINED> instruction: 0x00000cb4
     124:	590c9003 	stmdbpl	ip, {r0, r1, ip, pc}
     128:	04000000 	streq	r0, [r0], #-0
     12c:	23021f01 	movwcs	r1, #12033	; 0x2f01
     130:	040c0000 	streq	r0, [ip], #-0
     134:	54098c03 	strpl	r8, [r9], #-3075	; 0xfffff3fd
     138:	0d000001 	stceq	0, cr0, [r0, #-4]
     13c:	000019ca 	andeq	r1, r0, sl, asr #19
     140:	16069203 	strne	r9, [r6], -r3, lsl #4
     144:	0d000001 	stceq	0, cr0, [r0, #-4]
     148:	00002b4e 	andeq	r2, r0, lr, asr #22
     14c:	590b9403 	stmdbpl	fp, {r0, r1, sl, ip, pc}
     150:	00000000 	andeq	r0, r0, r0
     154:	0005bb02 	andeq	fp, r5, r2, lsl #22
     158:	02960300 	addseq	r0, r6, #0, 6
     15c:	00000132 	andeq	r0, r0, r2, lsr r1
     160:	9b03040a 	blls	c1190 <_E_text+0xbfca4>
     164:	0001fa05 	andeq	pc, r1, r5, lsl #20
     168:	0f310b00 	svceq	0x00310b00
     16c:	9c030000 	stcls	0, cr0, [r3], {-0}
     170:	0000590f 	andeq	r5, r0, pc, lsl #18
     174:	1d030400 	cfstrsne	mvf0, [r3, #-0]
     178:	0b002302 	bleq	8d88 <_E_text+0x789c>
     17c:	000005f0 	strdeq	r0, [r0], -r0	; <UNPREDICTABLE>
     180:	590f9d03 	stmdbpl	pc, {r0, r1, r8, sl, fp, ip, pc}	; <UNPREDICTABLE>
     184:	04000000 	streq	r0, [r0], #-0
     188:	23021c01 	movwcs	r1, #11265	; 0x2c01
     18c:	079c0b00 	ldreq	r0, [ip, r0, lsl #22]
     190:	9e030000 	cdpls	0, 0, cr0, cr3, cr0, {0}
     194:	0000590f 	andeq	r5, r0, pc, lsl #18
     198:	120a0400 	andne	r0, sl, #0, 8
     19c:	0b002302 	bleq	8dac <_E_text+0x78c0>
     1a0:	000003c4 	andeq	r0, r0, r4, asr #7
     1a4:	590f9f03 	stmdbpl	pc, {r0, r1, r8, r9, sl, fp, ip, pc}	; <UNPREDICTABLE>
     1a8:	04000000 	streq	r0, [r0], #-0
     1ac:	23020e04 	movwcs	r0, #11780	; 0x2e04
     1b0:	0e230b00 	vmuleq.f64	d0, d3, d0
     1b4:	a1030000 	mrsge	r0, (UNDEF: 3)
     1b8:	0000590f 	andeq	r5, r0, pc, lsl #18
     1bc:	06020400 	streq	r0, [r2], -r0, lsl #8
     1c0:	0b002302 	bleq	8dd0 <_E_text+0x78e4>
     1c4:	00000f54 	andeq	r0, r0, r4, asr pc
     1c8:	590fa203 	stmdbpl	pc, {r0, r1, r9, sp, pc}	; <UNPREDICTABLE>
     1cc:	04000000 	streq	r0, [r0], #-0
     1d0:	23020402 	movwcs	r0, #9218	; 0x2402
     1d4:	00da0b00 	sbcseq	r0, sl, r0, lsl #22
     1d8:	a3030000 	movwge	r0, #12288	; 0x3000
     1dc:	0000590f 	andeq	r5, r0, pc, lsl #18
     1e0:	02020400 	andeq	r0, r2, #0, 8
     1e4:	0b002302 	bleq	8df4 <_E_text+0x7908>
     1e8:	0000069a 	muleq	r0, sl, r6
     1ec:	590fa403 	stmdbpl	pc, {r0, r1, sl, sp, pc}	; <UNPREDICTABLE>
     1f0:	04000000 	streq	r0, [r0], #-0
     1f4:	23020002 	movwcs	r0, #8194	; 0x2002
     1f8:	040c0000 	streq	r0, [ip], #-0
     1fc:	1c099903 			; <UNDEFINED> instruction: 0x1c099903
     200:	0d000002 	stceq	0, cr0, [r0, #-8]
     204:	000019ca 	andeq	r1, r0, sl, asr #19
     208:	6006a603 	andvs	sl, r6, r3, lsl #12
     20c:	0d000001 	stceq	0, cr0, [r0, #-4]
     210:	00002b4e 	andeq	r2, r0, lr, asr #22
     214:	590ba803 	stmdbpl	fp, {r0, r1, fp, sp, pc}
     218:	00000000 	andeq	r0, r0, r0
     21c:	0005fc02 	andeq	pc, r5, r2, lsl #24
     220:	02aa0300 	adceq	r0, sl, #0, 6
     224:	000001fa 	strdeq	r0, [r0], -sl
     228:	00021c03 	andeq	r1, r2, r3, lsl #24
     22c:	03040a00 	movweq	r0, #18944	; 0x4a00
     230:	048705ee 	streq	r0, [r7], #1518	; 0x5ee
     234:	be0b0000 	cdplt	0, 0, cr0, cr11, cr0, {0}
     238:	0300000f 	movweq	r0, #15
     23c:	00590ff0 	ldrsheq	r0, [r9], #-240	; 0xffffff10
     240:	01040000 	mrseq	r0, (UNDEF: 4)
     244:	0023021f 	eoreq	r0, r3, pc, lsl r2
     248:	000fd70b 	andeq	sp, pc, fp, lsl #14
     24c:	0ff10300 	svceq	0x00f10300
     250:	00000059 	andeq	r0, r0, r9, asr r0
     254:	021e0104 	andseq	r0, lr, #4, 2
     258:	000b0023 	andeq	r0, fp, r3, lsr #32
     25c:	03000000 	movweq	r0, #0
     260:	00590ff2 	ldrsheq	r0, [r9], #-242	; 0xffffff0e
     264:	01040000 	mrseq	r0, (UNDEF: 4)
     268:	0023021d 	eoreq	r0, r3, sp, lsl r2
     26c:	0000190b 	andeq	r1, r0, fp, lsl #18
     270:	0ff30300 	svceq	0x00f30300
     274:	00000059 	andeq	r0, r0, r9, asr r0
     278:	021c0104 	andseq	r0, ip, #4, 2
     27c:	320b0023 	andcc	r0, fp, #35	; 0x23
     280:	03000000 	movweq	r0, #0
     284:	00590ff4 	ldrsheq	r0, [r9], #-244	; 0xffffff0c
     288:	01040000 	mrseq	r0, (UNDEF: 4)
     28c:	0023021b 	eoreq	r0, r3, fp, lsl r2
     290:	00004b0b 	andeq	r4, r0, fp, lsl #22
     294:	0ff50300 	svceq	0x00f50300
     298:	00000059 	andeq	r0, r0, r9, asr r0
     29c:	021a0104 	andseq	r0, sl, #4, 2
     2a0:	640b0023 	strvs	r0, [fp], #-35	; 0xffffffdd
     2a4:	03000000 	movweq	r0, #0
     2a8:	00590ff6 	ldrsheq	r0, [r9], #-246	; 0xffffff0a
     2ac:	01040000 	mrseq	r0, (UNDEF: 4)
     2b0:	00230219 	eoreq	r0, r3, r9, lsl r2
     2b4:	00007d0b 	andeq	r7, r0, fp, lsl #26
     2b8:	0ff70300 	svceq	0x00f70300
     2bc:	00000059 	andeq	r0, r0, r9, asr r0
     2c0:	02180104 	andseq	r0, r8, #4, 2
     2c4:	960b0023 	strls	r0, [fp], -r3, lsr #32
     2c8:	03000000 	movweq	r0, #0
     2cc:	00590ff8 	ldrsheq	r0, [r9], #-248	; 0xffffff08
     2d0:	01040000 	mrseq	r0, (UNDEF: 4)
     2d4:	00230217 	eoreq	r0, r3, r7, lsl r2
     2d8:	0000af0b 	andeq	sl, r0, fp, lsl #30
     2dc:	0ff90300 	svceq	0x00f90300
     2e0:	00000059 	andeq	r0, r0, r9, asr r0
     2e4:	02160104 	andseq	r0, r6, #4, 2
     2e8:	4f0b0023 	svcmi	0x000b0023
     2ec:	03000002 	movweq	r0, #2
     2f0:	00590ffa 	ldrsheq	r0, [r9], #-250	; 0xffffff06
     2f4:	01040000 	mrseq	r0, (UNDEF: 4)
     2f8:	00230215 	eoreq	r0, r3, r5, lsl r2
     2fc:	0002690b 	andeq	r6, r2, fp, lsl #18
     300:	0ffb0300 	svceq	0x00fb0300
     304:	00000059 	andeq	r0, r0, r9, asr r0
     308:	02140104 	andseq	r0, r4, #4, 2
     30c:	830b0023 	movwhi	r0, #45091	; 0xb023
     310:	03000002 	movweq	r0, #2
     314:	00590ffc 	ldrsheq	r0, [r9], #-252	; 0xffffff04
     318:	01040000 	mrseq	r0, (UNDEF: 4)
     31c:	00230213 	eoreq	r0, r3, r3, lsl r2
     320:	00029d0b 	andeq	r9, r2, fp, lsl #26
     324:	0ffd0300 	svceq	0x00fd0300
     328:	00000059 	andeq	r0, r0, r9, asr r0
     32c:	02120104 	andseq	r0, r2, #4, 2
     330:	b70b0023 	strlt	r0, [fp, -r3, lsr #32]
     334:	03000002 	movweq	r0, #2
     338:	00590ffe 	ldrsheq	r0, [r9], #-254	; 0xffffff02
     33c:	01040000 	mrseq	r0, (UNDEF: 4)
     340:	00230211 	eoreq	r0, r3, r1, lsl r2
     344:	0002d10b 	andeq	sp, r2, fp, lsl #2
     348:	0fff0300 	svceq	0x00ff0300
     34c:	00000059 	andeq	r0, r0, r9, asr r0
     350:	02100104 	andseq	r0, r0, #4, 2
     354:	eb0e0023 	bl	3803e8 <_E_text+0x37eefc>
     358:	03000002 	movweq	r0, #2
     35c:	590f0100 	stmdbpl	pc, {r8}	; <UNPREDICTABLE>
     360:	04000000 	streq	r0, [r0], #-0
     364:	23020f01 	movwcs	r0, #12033	; 0x2f01
     368:	03050e00 	movweq	r0, #24064	; 0x5e00
     36c:	01030000 	mrseq	r0, (UNDEF: 3)
     370:	00590f01 	subseq	r0, r9, r1, lsl #30
     374:	01040000 	mrseq	r0, (UNDEF: 4)
     378:	0023020e 	eoreq	r0, r3, lr, lsl #4
     37c:	00031f0e 	andeq	r1, r3, lr, lsl #30
     380:	01020300 	mrseq	r0, LR_svc
     384:	0000590f 	andeq	r5, r0, pc, lsl #18
     388:	0d010400 	cfstrseq	mvf0, [r1, #-0]
     38c:	0e002302 	cdpeq	3, 0, cr2, cr0, cr2, {0}
     390:	00000339 	andeq	r0, r0, r9, lsr r3
     394:	0f010303 	svceq	0x00010303
     398:	00000059 	andeq	r0, r0, r9, asr r0
     39c:	020c0104 	andeq	r0, ip, #4, 2
     3a0:	fa0e0023 	blx	380434 <_E_text+0x37ef48>
     3a4:	03000003 	movweq	r0, #3
     3a8:	590f0104 	stmdbpl	pc, {r2, r8}	; <UNPREDICTABLE>
     3ac:	04000000 	streq	r0, [r0], #-0
     3b0:	23020b01 	movwcs	r0, #11009	; 0x2b01
     3b4:	04140e00 	ldreq	r0, [r4], #-3584	; 0xfffff200
     3b8:	05030000 	streq	r0, [r3, #-0]
     3bc:	00590f01 	subseq	r0, r9, r1, lsl #30
     3c0:	01040000 	mrseq	r0, (UNDEF: 4)
     3c4:	0023020a 	eoreq	r0, r3, sl, lsl #4
     3c8:	00042e0e 	andeq	r2, r4, lr, lsl #28
     3cc:	01060300 	mrseq	r0, LR_und
     3d0:	0000590f 	andeq	r5, r0, pc, lsl #18
     3d4:	09010400 	stmdbeq	r1, {sl}
     3d8:	0e002302 	cdpeq	3, 0, cr2, cr0, cr2, {0}
     3dc:	00000448 	andeq	r0, r0, r8, asr #8
     3e0:	0f010703 	svceq	0x00010703
     3e4:	00000059 	andeq	r0, r0, r9, asr r0
     3e8:	02080104 	andeq	r0, r8, #4, 2
     3ec:	620e0023 	andvs	r0, lr, #35	; 0x23
     3f0:	03000004 	movweq	r0, #4
     3f4:	590f0108 	stmdbpl	pc, {r3, r8}	; <UNPREDICTABLE>
     3f8:	04000000 	streq	r0, [r0], #-0
     3fc:	23020701 	movwcs	r0, #9985	; 0x2701
     400:	047c0e00 	ldrbteq	r0, [ip], #-3584	; 0xfffff200
     404:	09030000 	stmdbeq	r3, {}	; <UNPREDICTABLE>
     408:	00590f01 	subseq	r0, r9, r1, lsl #30
     40c:	01040000 	mrseq	r0, (UNDEF: 4)
     410:	00230206 	eoreq	r0, r3, r6, lsl #4
     414:	0004960e 	andeq	r9, r4, lr, lsl #12
     418:	010a0300 	mrseq	r0, (UNDEF: 58)
     41c:	0000590f 	andeq	r5, r0, pc, lsl #18
     420:	05010400 	streq	r0, [r1, #-1024]	; 0xfffffc00
     424:	0e002302 	cdpeq	3, 0, cr2, cr0, cr2, {0}
     428:	000004b0 			; <UNDEFINED> instruction: 0x000004b0
     42c:	0f010b03 	svceq	0x00010b03
     430:	00000059 	andeq	r0, r0, r9, asr r0
     434:	02040104 	andeq	r0, r4, #4, 2
     438:	ca0e0023 	bgt	3804cc <_E_text+0x37efe0>
     43c:	03000004 	movweq	r0, #4
     440:	590f010c 	stmdbpl	pc, {r2, r3, r8}	; <UNPREDICTABLE>
     444:	04000000 	streq	r0, [r0], #-0
     448:	23020301 	movwcs	r0, #8961	; 0x2301
     44c:	04e40e00 	strbteq	r0, [r4], #3584	; 0xe00
     450:	0d030000 	stceq	0, cr0, [r3, #-0]
     454:	00590f01 	subseq	r0, r9, r1, lsl #30
     458:	01040000 	mrseq	r0, (UNDEF: 4)
     45c:	00230202 	eoreq	r0, r3, r2, lsl #4
     460:	00055c0e 	andeq	r5, r5, lr, lsl #24
     464:	010e0300 	mrseq	r0, ELR_hyp
     468:	0000590f 	andeq	r5, r0, pc, lsl #18
     46c:	01010400 	tsteq	r1, r0, lsl #8
     470:	0e002302 	cdpeq	3, 0, cr2, cr0, cr2, {0}
     474:	00000576 	andeq	r0, r0, r6, ror r5
     478:	0f010f03 	svceq	0x00010f03
     47c:	00000059 	andeq	r0, r0, r9, asr r0
     480:	02000104 	andeq	r0, r0, #4, 2
     484:	0c000023 	stceq	0, cr0, [r0], {35}	; 0x23
     488:	09ec0304 	stmibeq	ip!, {r2, r8, r9}^
     48c:	000004ab 	andeq	r0, r0, fp, lsr #9
     490:	0019ca0f 	andseq	ip, r9, pc, lsl #20
     494:	01100300 	tsteq	r0, r0, lsl #6
     498:	00022d06 	andeq	r2, r2, r6, lsl #26
     49c:	2b4e0f00 	blcs	13840a4 <_E_text+0x1382bb8>
     4a0:	11030000 	mrsne	r0, (UNDEF: 3)
     4a4:	00590b01 	subseq	r0, r9, r1, lsl #22
     4a8:	10000000 	andne	r0, r0, r0
     4ac:	00000d08 	andeq	r0, r0, r8, lsl #26
     4b0:	02011203 	andeq	r1, r1, #805306368	; 0x30000000
     4b4:	00000487 	andeq	r0, r0, r7, lsl #9
     4b8:	38010711 	stmdacc	r1, {r0, r4, r8, r9, sl}
     4bc:	04000000 	streq	r0, [r0], #-0
     4c0:	05870d2e 	streq	r0, [r7, #3374]	; 0xd2e
     4c4:	76120000 	ldrvc	r0, [r2], -r0
     4c8:	0000000d 	andeq	r0, r0, sp
     4cc:	000d8312 	andeq	r8, sp, r2, lsl r3
     4d0:	90120100 	andsls	r0, r2, r0, lsl #2
     4d4:	0200000d 	andeq	r0, r0, #13
     4d8:	000d9d12 	andeq	r9, sp, r2, lsl sp
     4dc:	aa120300 	bge	4810e4 <_E_text+0x47fbf8>
     4e0:	0400000d 	streq	r0, [r0], #-13
     4e4:	000db712 	andeq	fp, sp, r2, lsl r7
     4e8:	c4120500 	ldrgt	r0, [r2], #-1280	; 0xfffffb00
     4ec:	0600000d 	streq	r0, [r0], -sp
     4f0:	000dd112 	andeq	sp, sp, r2, lsl r1
     4f4:	de120700 	cdple	7, 1, cr0, cr2, cr0, {0}
     4f8:	0800000d 	stmdaeq	r0, {r0, r2, r3}
     4fc:	000deb12 	andeq	lr, sp, r2, lsl fp
     500:	d3120900 	tstle	r2, #0, 18
     504:	0a00000b 	beq	538 <GPTM_32BitTimerB_IntervalLoad+0x14>
     508:	000be112 	andeq	lr, fp, r2, lsl r1
     50c:	ef120b00 	svc	0x00120b00
     510:	0c00000b 	stceq	0, cr0, [r0], {11}
     514:	000bfd12 	andeq	pc, fp, r2, lsl sp	; <UNPREDICTABLE>
     518:	0b120d00 	bleq	483920 <_E_text+0x482434>
     51c:	0e00000c 	cdpeq	0, 0, cr0, cr0, cr12, {0}
     520:	000c1912 	andeq	r1, ip, r2, lsl r9
     524:	27120f00 	ldrcs	r0, [r2, -r0, lsl #30]
     528:	1000000c 	andne	r0, r0, ip
     52c:	000c3512 	andeq	r3, ip, r2, lsl r5
     530:	43121100 	tstmi	r2, #0, 2
     534:	1200000c 	andne	r0, r0, #12
     538:	000c5112 	andeq	r5, ip, r2, lsl r1
     53c:	ec121300 	ldc	3, cr1, [r2], {-0}
     540:	1400000c 	strne	r0, [r0], #-12
     544:	000cfa12 	andeq	pc, ip, r2, lsl sl	; <UNPREDICTABLE>
     548:	29121500 	ldmdbcs	r2, {r8, sl, ip}
     54c:	1600000b 	strne	r0, [r0], -fp
     550:	000b3712 	andeq	r3, fp, r2, lsl r7
     554:	22121700 	andscs	r1, r2, #0, 14
     558:	1800000d 	stmdane	r0, {r0, r2, r3}
     55c:	000d3012 	andeq	r3, sp, r2, lsl r0
     560:	3e121900 	vnmlscc.f16	s2, s4, s0	; <UNPREDICTABLE>
     564:	1a00000d 	bne	5a0 <GPTM_TimerMode+0x34>
     568:	000d4c12 	andeq	r4, sp, r2, lsl ip
     56c:	5a121b00 	bpl	487174 <_E_text+0x485c88>
     570:	1c00000d 	stcne	0, cr0, [r0], {13}
     574:	000d6812 	andeq	r6, sp, r2, lsl r8
     578:	90121d00 	andsls	r1, r2, r0, lsl #26
     57c:	1e00000e 	cdpne	0, 0, cr0, cr0, cr14, {0}
     580:	000e9e12 	andeq	r9, lr, r2, lsl lr
     584:	02001f00 	andeq	r1, r0, #0, 30
     588:	00000e3b 	andeq	r0, r0, fp, lsr lr
     58c:	b8025004 	stmdalt	r2, {r2, ip, lr}
     590:	11000004 	tstne	r0, r4
     594:	00380107 	eorseq	r0, r8, r7, lsl #2
     598:	52040000 	andpl	r0, r4, #0
     59c:	0005ba0d 	andeq	fp, r5, sp, lsl #20
     5a0:	07b71200 	ldreq	r1, [r7, r0, lsl #4]!
     5a4:	12000000 	andne	r0, r0, #0
     5a8:	00000811 	andeq	r0, r0, r1, lsl r8
     5ac:	08151201 	ldmdaeq	r5, {r0, r9, ip}
     5b0:	12020000 	andne	r0, r2, #0
     5b4:	0000086d 	andeq	r0, r0, sp, ror #16
     5b8:	87020003 	strhi	r0, [r2, -r3]
     5bc:	0400000f 	streq	r0, [r0], #-15
     5c0:	05930257 	ldreq	r0, [r3, #599]	; 0x257
     5c4:	07110000 	ldreq	r0, [r1, -r0]
     5c8:	00003801 	andeq	r3, r0, r1, lsl #16
     5cc:	0d5a0400 	cfldrdeq	mvd0, [sl, #-0]
     5d0:	000005ed 	andeq	r0, r0, sp, ror #11
     5d4:	00062212 	andeq	r2, r6, r2, lsl r2
     5d8:	e2120000 	ands	r0, r2, #0
     5dc:	01000009 	tsteq	r0, r9
     5e0:	0009e612 	andeq	lr, r9, r2, lsl r6
     5e4:	3c120200 	lfmcc	f0, 4, [r2], {-0}
     5e8:	03000002 	movweq	r0, #2
     5ec:	0a000200 	beq	df4 <GPIO_SetData+0x74>
     5f0:	5f040000 	svcpl	0x00040000
     5f4:	0005c602 	andeq	ip, r5, r2, lsl #12
     5f8:	01071100 	mrseq	r1, (UNDEF: 23)
     5fc:	00000038 	andeq	r0, r0, r8, lsr r0
     600:	1a0d6204 	bne	358e18 <_E_text+0x35792c>
     604:	12000006 	andne	r0, r0, #6
     608:	00000c6d 	andeq	r0, r0, sp, ror #24
     60c:	07a51200 	streq	r1, [r5, r0, lsl #4]!
     610:	12010000 	andne	r0, r1, #0
     614:	000007a9 	andeq	r0, r0, r9, lsr #15
     618:	67020002 	strvs	r0, [r2, -r2]
     61c:	0400000f 	streq	r0, [r0], #-15
     620:	05f90266 	ldrbeq	r0, [r9, #614]!	; 0x266
     624:	07110000 	ldreq	r0, [r1, -r0]
     628:	00003801 	andeq	r3, r0, r1, lsl #16
     62c:	0d690400 	cfstrdeq	mvd0, [r9, #-0]
     630:	00000647 	andeq	r0, r0, r7, asr #12
     634:	00084612 	andeq	r4, r8, r2, lsl r6
     638:	a1120000 	tstge	r2, r0
     63c:	01000008 	tsteq	r0, r8
     640:	0008a512 	andeq	sl, r8, r2, lsl r5
     644:	02000200 	andeq	r0, r0, #0, 4
     648:	00000ca2 	andeq	r0, r0, r2, lsr #25
     64c:	26026d04 	strcs	r6, [r2], -r4, lsl #26
     650:	11000006 	tstne	r0, r6
     654:	00380107 	eorseq	r0, r8, r7, lsl #2
     658:	6f040000 	svcvs	0x00040000
     65c:	00066e0d 	andeq	r6, r6, sp, lsl #28
     660:	036d1200 	cmneq	sp, #0, 4
     664:	12000000 	andne	r0, r0, #0
     668:	00000143 	andeq	r0, r0, r3, asr #2
     66c:	fc020001 	stc2	0, cr0, [r2], {1}
     670:	04000006 	streq	r0, [r0], #-6
     674:	06530272 			; <UNDEFINED> instruction: 0x06530272
     678:	07110000 	ldreq	r0, [r1, -r0]
     67c:	00003801 	andeq	r3, r0, r1, lsl #16
     680:	0d740400 	cfldrdeq	mvd0, [r4, #-0]
     684:	00000695 	muleq	r0, r5, r6
     688:	0000ef12 	andeq	lr, r0, r2, lsl pc
     68c:	c9120000 	ldmdbgt	r2, {}	; <UNPREDICTABLE>
     690:	01000012 	tsteq	r0, r2, lsl r0
     694:	05480200 	strbeq	r0, [r8, #-512]	; 0xfffffe00
     698:	78040000 	stmdavc	r4, {}	; <UNPREDICTABLE>
     69c:	00067a02 	andeq	r7, r6, r2, lsl #20
     6a0:	01071100 	mrseq	r1, (UNDEF: 23)
     6a4:	00000038 	andeq	r0, r0, r8, lsr r0
     6a8:	ce0d7a04 	vmlagt.f32	s14, s26, s8
     6ac:	12000006 	andne	r0, r0, #6
     6b0:	000009b8 			; <UNDEFINED> instruction: 0x000009b8
     6b4:	09c61200 	stmibeq	r6, {r9, ip}^
     6b8:	12010000 	andne	r0, r1, #0
     6bc:	000009d4 	ldrdeq	r0, [r0], -r4
     6c0:	076d1202 	strbeq	r1, [sp, -r2, lsl #4]!
     6c4:	12030000 	andne	r0, r3, #0
     6c8:	000009f2 	strdeq	r0, [r0], -r2
     6cc:	67020004 	strvs	r0, [r2, -r4]
     6d0:	04000009 	streq	r0, [r0], #-9
     6d4:	06a10281 	strteq	r0, [r1], r1, lsl #5
     6d8:	07110000 	ldreq	r0, [r1, -r0]
     6dc:	00003801 	andeq	r3, r0, r1, lsl #16
     6e0:	0d830400 	cfstrseq	mvf0, [r3]
     6e4:	000006f5 	strdeq	r0, [r0], -r5
     6e8:	000f3a12 	andeq	r3, pc, r2, lsl sl	; <UNPREDICTABLE>
     6ec:	0f120000 	svceq	0x00120000
     6f0:	01000001 	tsteq	r0, r1
     6f4:	03530200 	cmpeq	r3, #0, 4
     6f8:	86040000 	strhi	r0, [r4], -r0
     6fc:	0006da02 	andeq	sp, r6, r2, lsl #20
     700:	01071100 	mrseq	r1, (UNDEF: 23)
     704:	00000038 	andeq	r0, r0, r8, lsr r0
     708:	400d8804 	andmi	r8, sp, r4, lsl #16
     70c:	12000007 	andne	r0, r0, #7
     710:	00000994 	muleq	r0, r4, r9
     714:	0c7b1200 	lfmeq	f1, 2, [fp], #-0
     718:	12010000 	andne	r0, r1, #0
     71c:	00000a1a 	andeq	r0, r0, sl, lsl sl
     720:	059f1202 	ldreq	r1, [pc, #514]	; 92a <DMA_EnableChannelAttributes+0x3e>
     724:	12030000 	andne	r0, r3, #0
     728:	0000012f 	andeq	r0, r0, pc, lsr #2
     72c:	01261204 			; <UNDEFINED> instruction: 0x01261204
     730:	12050000 	andne	r0, r5, #0
     734:	00000784 	andeq	r0, r0, r4, lsl #15
     738:	077b1206 	ldrbeq	r1, [fp, -r6, lsl #4]!
     73c:	00070000 	andeq	r0, r7, r0
     740:	000e4b02 	andeq	r4, lr, r2, lsl #22
     744:	02910400 	addseq	r0, r1, #0, 8
     748:	00000701 	andeq	r0, r0, r1, lsl #14
     74c:	38010711 	stmdacc	r1, {r0, r4, r8, r9, sl}
     750:	04000000 	streq	r0, [r0], #-0
     754:	079d0d93 			; <UNDEFINED> instruction: 0x079d0d93
     758:	d8120000 	ldmdale	r2, {}	; <UNPREDICTABLE>
     75c:	0000000e 	andeq	r0, r0, lr
     760:	0000e212 	andeq	lr, r0, r2, lsl r2
     764:	38120100 	ldmdacc	r2, {r8}
     768:	0200000a 	andeq	r0, r0, #10
     76c:	000f7a12 	andeq	r7, pc, r2, lsl sl	; <UNPREDICTABLE>
     770:	5f120300 	svcpl	0x00120300
     774:	0400000c 	streq	r0, [r0], #-12
     778:	000b0012 	andeq	r0, fp, r2, lsl r0
     77c:	3c120500 	cfldr32cc	mvfx0, [r2], {-0}
     780:	06000007 	streq	r0, [r0], -r7
     784:	000faf12 	andeq	sl, pc, r2, lsl pc	; <UNPREDICTABLE>
     788:	bd120700 	ldclt	7, cr0, [r2, #-0]
     78c:	0800000e 	stmdaeq	r0, {r1, r2, r3}
     790:	000cd712 	andeq	sp, ip, r2, lsl r7
     794:	2b120900 	blcs	482b9c <_E_text+0x4816b0>
     798:	0a00000e 	beq	7d8 <UART_ClockConfigurationRegisters+0x4>
     79c:	06380200 	ldrteq	r0, [r8], -r0, lsl #4
     7a0:	9f040000 	svcls	0x00040000
     7a4:	00074c02 	andeq	r4, r7, r2, lsl #24
     7a8:	01071100 	mrseq	r1, (UNDEF: 23)
     7ac:	00000038 	andeq	r0, r0, r8, lsr r0
     7b0:	c40da104 	strgt	sl, [sp], #-260	; 0xfffffefc
     7b4:	12000007 	andne	r0, r0, #7
     7b8:	00000f1f 	andeq	r0, r0, pc, lsl pc
     7bc:	0eac1200 	cdpeq	2, 10, cr1, cr12, cr0, {0}
     7c0:	00010000 	andeq	r0, r1, r0
     7c4:	000a4502 	andeq	r4, sl, r2, lsl #10
     7c8:	02a40400 	adceq	r0, r4, #0, 8
     7cc:	000007a9 	andeq	r0, r0, r9, lsr #15
     7d0:	a704100a 	strge	r1, [r4, -sl]
     7d4:	00087f09 	andeq	r7, r8, r9, lsl #30
     7d8:	39c91300 	stmibcc	r9, {r8, r9, ip}^
     7dc:	a8040000 	stmdage	r4, {}	; <UNPREDICTABLE>
     7e0:	00058715 	andeq	r8, r5, r5, lsl r7
     7e4:	00230200 	eoreq	r0, r3, r0, lsl #4
     7e8:	0003cc13 	andeq	ip, r3, r3, lsl ip
     7ec:	20a90400 	adccs	r0, r9, r0, lsl #8
     7f0:	000005ba 			; <UNDEFINED> instruction: 0x000005ba
     7f4:	13012302 	movwne	r2, #4866	; 0x1302
     7f8:	000008f7 	strdeq	r0, [r0], -r7
     7fc:	ed1faa04 	vldr	s20, [pc, #-16]	; 7f4 <UART_ControlRegisters>
     800:	02000005 	andeq	r0, r0, #5
     804:	a2130223 	andsge	r0, r3, #805306370	; 0x30000002
     808:	0400000f 	streq	r0, [r0], #-15
     80c:	061a18ab 	ldreq	r1, [sl], -fp, lsr #17
     810:	23020000 	movwcs	r0, #8192	; 0x2000
     814:	0b1d1303 	bleq	745428 <_E_text+0x743f3c>
     818:	ac040000 	stcge	0, cr0, [r4], {-0}
     81c:	00064717 	andeq	r4, r6, r7, lsl r7
     820:	04230200 	strteq	r0, [r3], #-512	; 0xfffffe00
     824:	00097813 	andeq	r7, r9, r3, lsl r8
     828:	1ead0400 	cdpne	4, 10, cr0, cr13, cr0, {0}
     82c:	00000740 	andeq	r0, r0, r0, asr #14
     830:	13052302 	movwne	r2, #21250	; 0x5302
     834:	00000861 	andeq	r0, r0, r1, ror #16
     838:	f51fae04 			; <UNDEFINED> instruction: 0xf51fae04
     83c:	02000006 	andeq	r0, r0, #6
     840:	5b130623 	blpl	4c20d4 <_E_text+0x4c0be8>
     844:	0400000f 	streq	r0, [r0], #-15
     848:	06ce16af 	strbeq	r1, [lr], pc, lsr #13
     84c:	23020000 	movwcs	r0, #8192	; 0x2000
     850:	083c1307 	ldmdaeq	ip!, {r0, r1, r2, r8, r9, ip}
     854:	b0040000 	andlt	r0, r4, r0
     858:	00079d1b 	andeq	r9, r7, fp, lsl sp
     85c:	08230200 	stmdaeq	r3!, {r9}
     860:	000f0313 	andeq	r0, pc, r3, lsl r3	; <UNPREDICTABLE>
     864:	1db10400 	cfldrsne	mvf0, [r1]
     868:	000007c4 	andeq	r0, r0, r4, asr #15
     86c:	13092302 	movwne	r2, #37634	; 0x9302
     870:	000003ed 	andeq	r0, r0, sp, ror #7
     874:	590bb204 	stmdbpl	fp, {r2, r9, ip, sp, pc}
     878:	02000000 	andeq	r0, r0, #0
     87c:	02000c23 	andeq	r0, r0, #8960	; 0x2300
     880:	0000066c 	andeq	r0, r0, ip, ror #12
     884:	d002b404 	andle	fp, r2, r4, lsl #8
     888:	0a000007 	beq	8ac <UART_InterruptFIFOLevelSelect+0x18>
     88c:	09b70410 	ldmibeq	r7!, {r4, sl}
     890:	000008d1 	ldrdeq	r0, [r0], -r1
     894:	00068713 	andeq	r8, r6, r3, lsl r7
     898:	0db80400 	cfldrseq	mvf0, [r8]
     89c:	000008d1 	ldrdeq	r0, [r0], -r1
     8a0:	13002302 	movwne	r2, #770	; 0x302
     8a4:	000005a8 	andeq	r0, r0, r8, lsr #11
     8a8:	d10db904 	tstle	sp, r4, lsl #18
     8ac:	02000008 	andeq	r0, r0, #8
     8b0:	e1130423 	tst	r3, r3, lsr #8
     8b4:	04000003 	streq	r0, [r0], #-3
     8b8:	00590bba 	ldrheq	r0, [r9], #-186	; 0xffffff46
     8bc:	23020000 	movwcs	r0, #8192	; 0x2000
     8c0:	074a1308 	strbeq	r1, [sl, -r8, lsl #6]
     8c4:	bb040000 	bllt	1008cc <_E_text+0xff3e0>
     8c8:	0000590b 	andeq	r5, r0, fp, lsl #18
     8cc:	0c230200 	sfmeq	f0, 4, [r3], #-0
     8d0:	59040500 	stmdbpl	r4, {r8, sl}
     8d4:	02000000 	andeq	r0, r0, #0
     8d8:	00000f0f 	andeq	r0, r0, pc, lsl #30
     8dc:	8b02bc04 	blhi	af8f4 <_E_text+0xae408>
     8e0:	05000008 	streq	r0, [r0, #-8]
     8e4:	00087f04 	andeq	r7, r8, r4, lsl #30
     8e8:	06090900 	streq	r0, [r9], -r0, lsl #18
     8ec:	c1040000 	mrsgt	r0, (UNDEF: 4)
     8f0:	0008e324 	andeq	lr, r8, r4, lsr #6
     8f4:	07010100 	streq	r0, [r1, -r0, lsl #2]
     8f8:	000008d7 	ldrdeq	r0, [r0], -r7
     8fc:	00000907 	andeq	r0, r0, r7, lsl #18
     900:	0000b714 	andeq	fp, r0, r4, lsl r7
     904:	09000200 	stmdbeq	r0, {r9}
     908:	00000928 	andeq	r0, r0, r8, lsr #18
     90c:	f718ca04 			; <UNDEFINED> instruction: 0xf718ca04
     910:	01000008 	tsteq	r0, r8
     914:	0e640901 	vmuleq.f16	s1, s8, s2	; <UNPREDICTABLE>
     918:	cb040000 	blgt	100920 <_E_text+0xff434>
     91c:	0008f718 	andeq	pc, r8, r8, lsl r7	; <UNPREDICTABLE>
     920:	11010100 	mrsne	r0, (UNDEF: 17)
     924:	00380107 	eorseq	r0, r8, r7, lsl #2
     928:	2a050000 	bcs	140930 <_E_text+0x13f444>
     92c:	0009620e 	andeq	r6, r9, lr, lsl #4
     930:	0d791200 	lfmeq	f1, 2, [r9, #-0]
     934:	12000000 	andne	r0, r0, #0
     938:	00000d86 	andeq	r0, r0, r6, lsl #27
     93c:	0d931201 	lfmeq	f1, 4, [r3, #4]
     940:	12020000 	andne	r0, r2, #0
     944:	00000da0 	andeq	r0, r0, r0, lsr #27
     948:	0dad1203 	sfmeq	f1, 4, [sp, #12]!
     94c:	12040000 	andne	r0, r4, #0
     950:	00000dba 			; <UNDEFINED> instruction: 0x00000dba
     954:	0dc71205 	sfmeq	f1, 2, [r7, #20]
     958:	12060000 	andne	r0, r6, #0
     95c:	00000dd4 	ldrdeq	r0, [r0], -r4
     960:	07110007 	ldreq	r0, [r1, -r7]
     964:	00003801 	andeq	r3, r0, r1, lsl #16
     968:	0d380500 	cfldr32eq	mvfx0, [r8, #-0]
     96c:	0000099b 	muleq	r0, fp, r9
     970:	000ce612 	andeq	lr, ip, r2, lsl r6
     974:	f7120000 			; <UNDEFINED> instruction: 0xf7120000
     978:	0100000e 	tsteq	r0, lr
     97c:	000efd12 	andeq	pc, lr, r2, lsl sp	; <UNPREDICTABLE>
     980:	c8120200 	ldmdagt	r2, {r9}
     984:	03000000 	movweq	r0, #0
     988:	0000ce12 	andeq	ip, r0, r2, lsl lr
     98c:	d4120400 	ldrle	r0, [r2], #-1024	; 0xfffffc00
     990:	05000000 	streq	r0, [r0, #-0]
     994:	000df812 	andeq	pc, sp, r2, lsl r8	; <UNPREDICTABLE>
     998:	11000600 	tstne	r0, r0, lsl #12
     99c:	00380107 	eorseq	r0, r8, r7, lsl #2
     9a0:	4d050000 	stcmi	0, cr0, [r5, #-0]
     9a4:	0009b60e 	andeq	fp, r9, lr, lsl #12
     9a8:	062e1200 	strteq	r1, [lr], -r0, lsl #4
     9ac:	12000000 	andne	r0, r0, #0
     9b0:	0000091d 	andeq	r0, r0, sp, lsl r9
     9b4:	04150001 	ldreq	r0, [r5], #-1
     9b8:	746e6905 	strbtvc	r6, [lr], #-2309	; 0xfffff6fb
     9bc:	05080400 	streq	r0, [r8, #-1024]	; 0xfffffc00
     9c0:	00000803 	andeq	r0, r0, r3, lsl #16
     9c4:	ac040804 	stcge	8, cr0, [r4], {4}
     9c8:	16000009 	strne	r0, [r0], -r9
     9cc:	08010404 	stmdaeq	r1, {r2, sl}
     9d0:	00000d1d 	andeq	r0, r0, sp, lsl sp
     9d4:	00053909 	andeq	r3, r5, r9, lsl #18
     9d8:	1f130100 	svcne	0x00130100
     9dc:	0000003f 	andeq	r0, r0, pc, lsr r0
     9e0:	e8090101 	stmda	r9, {r0, r8}
     9e4:	01000008 	tsteq	r0, r8
     9e8:	003f1f14 	eorseq	r1, pc, r4, lsl pc	; <UNPREDICTABLE>
     9ec:	01010000 	mrseq	r0, (UNDEF: 1)
     9f0:	00051017 	andeq	r1, r5, r7, lsl r0
     9f4:	0d150100 	ldfeqs	f0, [r5, #-0]
     9f8:	00000027 	andeq	r0, r0, r7, lsr #32
     9fc:	04000305 	streq	r0, [r0], #-773	; 0xfffffcfb
     a00:	84182000 	ldrhi	r2, [r8], #-0
     a04:	01000003 	tsteq	r0, r3
     a08:	00330f1a 	eorseq	r0, r3, sl, lsl pc
     a0c:	05010000 	streq	r0, [r1, #-0]
     a10:	00040103 	andeq	r0, r4, r3, lsl #2
     a14:	00be1920 	adcseq	r1, lr, r0, lsr #18
     a18:	49010000 	stmdbmi	r1, {}	; <UNPREDICTABLE>
     a1c:	0003050f 	andeq	r0, r3, pc, lsl #10
     a20:	07200008 	streq	r0, [r0, -r8]!
     a24:	00000099 	muleq	r0, r9, r0
     a28:	00000a33 	andeq	r0, r0, r3, lsr sl
     a2c:	0000b714 	andeq	fp, r0, r4, lsl r7
     a30:	03001f00 	movweq	r1, #3840	; 0xf00
     a34:	00000a23 	andeq	r0, r0, r3, lsr #20
     a38:	000e0517 	andeq	r0, lr, r7, lsl r5
     a3c:	216a0100 	cmncs	sl, r0, lsl #2
     a40:	00000a33 	andeq	r0, r0, r3, lsr sl
     a44:	0c000305 	stceq	3, cr0, [r0], {5}
     a48:	c4172000 	ldrgt	r2, [r7], #-0
     a4c:	01000007 	tsteq	r0, r7
     a50:	0a33218e 	beq	cc9090 <_E_text+0xcc7ba4>
     a54:	03050000 	movweq	r0, #20480	; 0x5000
     a58:	20000c80 	andcs	r0, r0, r0, lsl #25
     a5c:	000a7707 	andeq	r7, sl, r7, lsl #14
     a60:	000a6c00 	andeq	r6, sl, r0, lsl #24
     a64:	00b71400 	adcseq	r1, r7, r0, lsl #8
     a68:	001f0000 	andseq	r0, pc, r0
     a6c:	000a5c1a 	andeq	r5, sl, sl, lsl ip
     a70:	7c040500 	cfstr32vc	mvfx0, [r4], {-0}
     a74:	1a00000a 	bne	aa4 <DMA_ChannelControlStructureSet+0x100>
     a78:	00000a71 	andeq	r0, r0, r1, ror sl
     a7c:	00330405 	eorseq	r0, r3, r5, lsl #8
     a80:	b5180000 	ldrlt	r0, [r8, #-0]
     a84:	0100000b 	tsteq	r0, fp
     a88:	0a6c18e0 	beq	1b06e10 <_E_text+0x1b05924>
     a8c:	05010000 	streq	r0, [r1, #-0]
     a90:	00001c03 	andeq	r1, r0, r3, lsl #24
     a94:	0bac1b00 	bleq	feb0769c <_E_BSS+0xdeb058a8>
     a98:	05010000 	streq	r0, [r1, #-0]
     a9c:	0a6c1801 	beq	1b06aa8 <_E_text+0x1b055bc>
     aa0:	05010000 	streq	r0, [r1, #-0]
     aa4:	00009c03 	andeq	r9, r0, r3, lsl #24
     aa8:	0ab91b00 	beq	fee476b0 <_E_BSS+0xdee458bc>
     aac:	2a010000 	bcs	40ab4 <_E_text+0x3f5c8>
     ab0:	0a6c1901 	beq	1b06ebc <_E_text+0x1b059d0>
     ab4:	05010000 	streq	r0, [r1, #-0]
     ab8:	00011c03 	andeq	r1, r1, r3, lsl #24
     abc:	0ab01b00 	beq	fec076c4 <_E_BSS+0xdec058d0>
     ac0:	4e010000 	cdpmi	0, 0, cr0, cr1, cr0, {0}
     ac4:	0a6c1901 	beq	1b06ed0 <_E_text+0x1b059e4>
     ac8:	05010000 	streq	r0, [r1, #-0]
     acc:	00019c03 	andeq	r9, r1, r3, lsl #24
     ad0:	0aec0700 	beq	ffb026d8 <_E_BSS+0xdfb008e4>
     ad4:	0ae10000 	beq	ff840adc <_E_BSS+0xdf83ece8>
     ad8:	b7140000 	ldrlt	r0, [r4, -r0]
     adc:	1f000000 	svcne	0x00000000
     ae0:	0ad11a00 	beq	ff4472e8 <_E_BSS+0xdf4454f4>
     ae4:	04050000 	streq	r0, [r5], #-0
     ae8:	00000228 	andeq	r0, r0, r8, lsr #4
     aec:	000ae61a 	andeq	lr, sl, sl, lsl r6
     af0:	05c71c00 	strbeq	r1, [r7, #3072]	; 0xc00
     af4:	72010000 	andvc	r0, r1, #0
     af8:	0ae12601 	beq	ff84a304 <_E_BSS+0xdf848510>
     afc:	03050000 	movweq	r0, #20480	; 0x5000
     b00:	0000021c 	andeq	r0, r0, ip, lsl r2
     b04:	0005d01c 	andeq	sp, r5, ip, lsl r0
     b08:	01960100 	orrseq	r0, r6, r0, lsl #2
     b0c:	000ae126 	andeq	lr, sl, r6, lsr #2
     b10:	9c030500 	cfstr32ls	mvfx0, [r3], {-0}
     b14:	07000002 	streq	r0, [r0, -r2]
     b18:	00000b27 	andeq	r0, r0, r7, lsr #22
     b1c:	00000b27 	andeq	r0, r0, r7, lsr #22
     b20:	0000b714 	andeq	fp, r0, r4, lsl r7
     b24:	05000300 	streq	r0, [r0, #-768]	; 0xfffffd00
     b28:	00006504 	andeq	r6, r0, r4, lsl #10
     b2c:	064e1c00 	strbeq	r1, [lr], -r0, lsl #24
     b30:	b9010000 	stmdblt	r1, {}	; <UNPREDICTABLE>
     b34:	0b171801 	bleq	5c6b40 <_E_text+0x5c5654>
     b38:	03050000 	movweq	r0, #20480	; 0x5000
     b3c:	20000000 	andcs	r0, r0, r0
     b40:	000b0e1b 	andeq	r0, fp, fp, lsl lr
     b44:	01c10100 	biceq	r0, r1, r0, lsl #2
     b48:	00005907 	andeq	r5, r0, r7, lsl #18
     b4c:	03050100 	movweq	r0, #20736	; 0x5100
     b50:	20000d00 	andcs	r0, r0, r0, lsl #26
     b54:	08b2011d 	ldmeq	r2!, {r0, r2, r3, r4, r8}
     b58:	1c010000 	stcne	0, cr0, [r1], {-0}
     b5c:	00010703 	andeq	r0, r1, r3, lsl #14
	...
     b68:	01000000 	mrseq	r0, (UNDEF: 0)
     b6c:	00000b91 	muleq	r0, r1, fp
     b70:	0039c91e 	eorseq	ip, r9, lr, lsl r9
     b74:	031c0100 	tsteq	ip, #0, 2
     b78:	00058741 	andeq	r8, r5, r1, asr #14
     b7c:	77910200 	ldrvc	r0, [r1, r0, lsl #4]
     b80:	0008811e 	andeq	r8, r8, lr, lsl r1
     b84:	031c0100 	tsteq	ip, #0, 2
     b88:	00008d5c 	andeq	r8, r0, ip, asr sp
     b8c:	70910200 	addsvc	r0, r1, r0, lsl #4
     b90:	96011d00 	strls	r1, [r1], -r0, lsl #26
     b94:	01000003 	tsteq	r0, r3
     b98:	01070316 	tsteq	r7, r6, lsl r3
	...
     ba4:	0000005c 	andeq	r0, r0, ip, asr r0
     ba8:	000bce01 	andeq	ip, fp, r1, lsl #28
     bac:	39c91e00 	stmibcc	r9, {r9, sl, fp, ip}^
     bb0:	16010000 	strne	r0, [r1], -r0
     bb4:	05874503 	streq	r4, [r7, #1283]	; 0x503
     bb8:	91020000 	mrsls	r0, (UNDEF: 2)
     bbc:	08811e77 	stmeq	r1, {r0, r1, r2, r4, r5, r6, r9, sl, fp, ip}
     bc0:	16010000 	strne	r0, [r1], -r0
     bc4:	008d6003 	addeq	r6, sp, r3
     bc8:	91020000 	mrsls	r0, (UNDEF: 2)
     bcc:	011f0070 	tsteq	pc, r0, ror r0	; <UNPREDICTABLE>
     bd0:	00000716 	andeq	r0, r0, r6, lsl r7
     bd4:	06030201 	streq	r0, [r3], -r1, lsl #4
     bd8:	00000001 	andeq	r0, r0, r1
     bdc:	00000000 	andeq	r0, r0, r0
     be0:	0000b800 	andeq	fp, r0, r0, lsl #16
     be4:	0bfb0100 	bleq	ffec0fec <_E_BSS+0xdfebf1f8>
     be8:	a61e0000 	ldrge	r0, [lr], -r0
     bec:	0100000a 	tsteq	r0, sl
     bf0:	e3480302 	movt	r0, #33538	; 0x8302
     bf4:	02000008 	andeq	r0, r0, #8
     bf8:	1f007491 	svcne	0x00007491
     bfc:	000a6d01 	andeq	r6, sl, r1, lsl #26
     c00:	02ed0100 	rsceq	r0, sp, #0, 2
     c04:	00000106 	andeq	r0, r0, r6, lsl #2
     c08:	00000000 	andeq	r0, r0, r0
     c0c:	01080000 	mrseq	r0, (UNDEF: 8)
     c10:	28010000 	stmdacs	r1, {}	; <UNPREDICTABLE>
     c14:	1e00000c 	cdpne	0, 0, cr0, cr0, cr12, {0}
     c18:	00000aa6 	andeq	r0, r0, r6, lsr #21
     c1c:	3e02ed01 	cdpcc	13, 0, cr14, cr2, cr1, {0}
     c20:	000008e3 	andeq	r0, r0, r3, ror #17
     c24:	00749102 	rsbseq	r9, r4, r2, lsl #2
     c28:	06c2011f 			; <UNDEFINED> instruction: 0x06c2011f
     c2c:	e1010000 	mrs	r0, (UNDEF: 1)
     c30:	00010602 	andeq	r0, r1, r2, lsl #12
     c34:	00000000 	andeq	r0, r0, r0
     c38:	58000000 	stmdapl	r0, {}	; <UNPREDICTABLE>
     c3c:	01000001 	tsteq	r0, r1
     c40:	00000c65 	andeq	r0, r0, r5, ror #24
     c44:	0009591e 	andeq	r5, r9, lr, lsl r9
     c48:	02e10100 	rsceq	r0, r1, #0, 2
     c4c:	000c6527 	andeq	r6, ip, r7, lsr #10
     c50:	74910200 	ldrvc	r0, [r1], #512	; 0x200
     c54:	0004fe1e 	andeq	pc, r4, lr, lsl lr	; <UNPREDICTABLE>
     c58:	02e10100 	rsceq	r0, r1, #0, 2
     c5c:	000c653c 	andeq	r6, ip, ip, lsr r5
     c60:	70910200 	addsvc	r0, r1, r0, lsl #4
     c64:	27040500 	strcs	r0, [r4, -r0, lsl #10]
     c68:	1d000000 	stcne	0, cr0, [r0, #-0]
     c6c:	00088d01 	andeq	r8, r8, r1, lsl #26
     c70:	02d90100 	sbcseq	r0, r9, #0, 2
     c74:	00000106 	andeq	r0, r0, r6, lsl #2
     c78:	00000000 	andeq	r0, r0, r0
     c7c:	01a80000 			; <UNDEFINED> instruction: 0x01a80000
     c80:	c8010000 	stmdagt	r1, {}	; <UNPREDICTABLE>
     c84:	1e00000c 	cdpne	0, 0, cr0, cr0, cr12, {0}
     c88:	00000590 	muleq	r0, r0, r5
     c8c:	1f02d901 	svcne	0x0002d901
     c90:	00000027 	andeq	r0, r0, r7, lsr #32
     c94:	1e6f9102 	lgnnee	f1, f2
     c98:	00000f5b 	andeq	r0, r0, fp, asr pc
     c9c:	4002d901 	andmi	sp, r2, r1, lsl #18
     ca0:	000006ce 	andeq	r0, r0, lr, asr #13
     ca4:	1c6e9102 	stfnep	f1, [lr], #-8
     ca8:	00000ecc 	andeq	r0, r0, ip, asr #29
     cac:	0a02db01 	beq	b78b8 <_E_text+0xb63cc>
     cb0:	00000027 	andeq	r0, r0, r7, lsr #32
     cb4:	1c779102 	ldfnep	f1, [r7], #-8
     cb8:	00002b07 	andeq	r2, r0, r7, lsl #22
     cbc:	0a02dc01 	beq	b7cc8 <_E_text+0xb67dc>
     cc0:	00000027 	andeq	r0, r0, r7, lsr #32
     cc4:	00769102 	rsbseq	r9, r6, r2, lsl #2
     cc8:	0a26011d 	beq	981144 <_E_text+0x97fc58>
     ccc:	d2010000 	andle	r0, r1, #0
     cd0:	38010602 	stmdacc	r1, {r1, r9, sl}
     cd4:	9000000c 	andls	r0, r0, ip
     cd8:	0400000c 	streq	r0, [r0], #-12
     cdc:	01000002 	tsteq	r0, r2
     ce0:	00000d25 	andeq	r0, r0, r5, lsr #26
     ce4:	0005901e 	andeq	r9, r5, lr, lsl r0
     ce8:	02d20100 	sbcseq	r0, r2, #0, 2
     cec:	0000271d 	andeq	r2, r0, sp, lsl r7
     cf0:	6f910200 	svcvs	0x00910200
     cf4:	000f5b1e 	andeq	r5, pc, lr, lsl fp	; <UNPREDICTABLE>
     cf8:	02d20100 	sbcseq	r0, r2, #0, 2
     cfc:	0006ce3e 	andeq	ip, r6, lr, lsr lr
     d00:	6e910200 	cdpvs	2, 9, cr0, cr1, cr0, {0}
     d04:	000ecc1c 	andeq	ip, lr, ip, lsl ip
     d08:	02d40100 	sbcseq	r0, r4, #0, 2
     d0c:	0000270a 	andeq	r2, r0, sl, lsl #14
     d10:	77910200 	ldrvc	r0, [r1, r0, lsl #4]
     d14:	002b071c 	eoreq	r0, fp, ip, lsl r7
     d18:	02d50100 	sbcseq	r0, r5, #0, 2
     d1c:	0000270a 	andeq	r2, r0, sl, lsl #14
     d20:	76910200 	ldrvc	r0, [r1], r0, lsl #4
     d24:	43011d00 	movwmi	r1, #7424	; 0x1d00
     d28:	01000009 	tsteq	r0, r9
     d2c:	010602c3 	smlabteq	r6, r3, r2, r0
     d30:	00000be0 	andeq	r0, r0, r0, ror #23
     d34:	00000c38 	andeq	r0, r0, r8, lsr ip
     d38:	00000260 	andeq	r0, r0, r0, ror #4
     d3c:	000d6201 	andeq	r6, sp, r1, lsl #4
     d40:	08581e00 	ldmdaeq	r8, {r9, sl, fp, ip}^
     d44:	c3010000 	movwgt	r0, #4096	; 0x1000
     d48:	06f53602 	ldrbteq	r3, [r5], r2, lsl #12
     d4c:	91020000 	mrsls	r0, (UNDEF: 2)
     d50:	39c91e77 	stmibcc	r9, {r0, r1, r2, r4, r5, r6, r9, sl, fp, ip}^
     d54:	c3010000 	movwgt	r0, #4096	; 0x1000
     d58:	05875c02 	streq	r5, [r7, #3074]	; 0xc02
     d5c:	91020000 	mrsls	r0, (UNDEF: 2)
     d60:	011d0076 	tsteq	sp, r6, ror r0
     d64:	00000b8e 	andeq	r0, r0, lr, lsl #23
     d68:	0602b701 	streq	fp, [r2], -r1, lsl #14
     d6c:	000b8c01 	andeq	r8, fp, r1, lsl #24
     d70:	000be000 	andeq	lr, fp, r0
     d74:	0002bc00 	andeq	fp, r2, r0, lsl #24
     d78:	0d9f0100 	ldfeqs	f0, [pc]	; d80 <GPIO_SetData>
     d7c:	111e0000 	tstne	lr, r0
     d80:	0100001a 	tsteq	r0, sl, lsl r0
     d84:	953802b7 	ldrls	r0, [r8, #-695]!	; 0xfffffd49
     d88:	02000006 	andeq	r0, r0, #6
     d8c:	c91e7791 	ldmdbgt	lr, {r0, r4, r7, r8, r9, sl, ip, sp, lr}
     d90:	01000039 	tsteq	r0, r9, lsr r0
     d94:	875002b7 			; <UNDEFINED> instruction: 0x875002b7
     d98:	02000005 	andeq	r0, r0, #5
     d9c:	1f007691 	svcne	0x00007691
     da0:	0006a101 	andeq	sl, r6, r1, lsl #2
     da4:	02a70100 	adceq	r0, r7, #0, 2
     da8:	0b540106 	bleq	15011c8 <_E_text+0x14ffcdc>
     dac:	0b8c0000 	bleq	fe300db4 <_E_BSS+0xde2fefc0>
     db0:	03180000 	tsteq	r8, #0
     db4:	cc010000 	stcgt	0, cr0, [r1], {-0}
     db8:	1e00000d 	cdpne	0, 0, cr0, cr0, cr13, {0}
     dbc:	00001a11 	andeq	r1, r0, r1, lsl sl
     dc0:	3b02a701 	blcc	aa9cc <_E_text+0xa94e0>
     dc4:	00000695 	muleq	r0, r5, r6
     dc8:	00779102 	rsbseq	r9, r7, r2, lsl #2
     dcc:	06de011d 			; <UNDEFINED> instruction: 0x06de011d
     dd0:	a2010000 	andge	r0, r1, #0
     dd4:	00010602 	andeq	r0, r1, r2, lsl #12
     dd8:	00000000 	andeq	r0, r0, r0
     ddc:	68000000 	stmdavs	r0, {}	; <UNPREDICTABLE>
     de0:	01000003 	tsteq	r0, r3
     de4:	00000df9 	strdeq	r0, [r0], -r9
     de8:	0008dc1e 	andeq	sp, r8, lr, lsl ip
     dec:	02a20100 	adceq	r0, r2, #0, 2
     df0:	0000592a 	andeq	r5, r0, sl, lsr #18
     df4:	74910200 	ldrvc	r0, [r1], #512	; 0x200
     df8:	dc011d00 	stcle	13, cr1, [r1], {-0}
     dfc:	0100000a 	tsteq	r0, sl
     e00:	01060292 			; <UNDEFINED> instruction: 0x01060292
     e04:	00000afc 	strdeq	r0, [r0], -ip
     e08:	00000b54 	andeq	r0, r0, r4, asr fp
     e0c:	000003c4 	andeq	r0, r0, r4, asr #7
     e10:	000e3601 	andeq	r3, lr, r1, lsl #12
     e14:	01591e00 	cmpeq	r9, r0, lsl #28
     e18:	92010000 	andls	r0, r1, #0
     e1c:	066e4402 	strbteq	r4, [lr], -r2, lsl #8
     e20:	91020000 	mrsls	r0, (UNDEF: 2)
     e24:	39c91e77 	stmibcc	r9, {r0, r1, r2, r4, r5, r6, r9, sl, fp, ip}^
     e28:	92010000 	andls	r0, r1, #0
     e2c:	05876002 	streq	r6, [r7, #2]
     e30:	91020000 	mrsls	r0, (UNDEF: 2)
     e34:	011d0076 	tsteq	sp, r6, ror r0
     e38:	00000184 	andeq	r0, r0, r4, lsl #3
     e3c:	06027d01 	streq	r7, [r2], -r1, lsl #26
     e40:	00000001 	andeq	r0, r0, r1
     e44:	00000000 	andeq	r0, r0, r0
     e48:	00042000 	andeq	r2, r4, r0
     e4c:	0e830100 	rmfeqs	f0, f3, f0
     e50:	a61e0000 	ldrge	r0, [lr], -r0
     e54:	0100000a 	tsteq	r0, sl
     e58:	e34a027d 	movt	r0, #41597	; 0xa27d
     e5c:	02000008 	andeq	r0, r0, #8
     e60:	591e7491 	ldmdbpl	lr, {r0, r4, r7, sl, ip, sp, lr}
     e64:	01000009 	tsteq	r0, r9
     e68:	655a027d 	ldrbvs	r0, [sl, #-637]	; 0xfffffd83
     e6c:	0200000c 	andeq	r0, r0, #12
     e70:	fe1e7091 	mrc2	0, 0, r7, cr14, cr1, {4}
     e74:	01000004 	tsteq	r0, r4
     e78:	656f027d 	strbvs	r0, [pc, #-637]!	; c03 <DMA_ConfigurePriority+0x23>
     e7c:	0200000c 	andeq	r0, r0, #12
     e80:	1d006c91 	stcne	12, cr6, [r0, #-580]	; 0xfffffdbc
     e84:	00016501 	andeq	r6, r1, r1, lsl #10
     e88:	02690100 	rsbeq	r0, r9, #0, 2
     e8c:	09a40106 	stmibeq	r4!, {r1, r2, r8}
     e90:	0afc0000 	beq	fff00e98 <_E_BSS+0xdfeff0a4>
     e94:	047c0000 	ldrbteq	r0, [ip], #-0
     e98:	d0010000 	andle	r0, r1, r0
     e9c:	1e00000e 	cdpne	0, 0, cr0, cr0, cr14, {0}
     ea0:	00000aa6 	andeq	r0, r0, r6, lsr #21
     ea4:	41026901 	tstmi	r2, r1, lsl #18
     ea8:	000008e3 	andeq	r0, r0, r3, ror #17
     eac:	1e749102 	expnes	f1, f2
     eb0:	00000959 	andeq	r0, r0, r9, asr r9
     eb4:	51026901 	tstpl	r2, r1, lsl #18
     eb8:	00000c65 	andeq	r0, r0, r5, ror #24
     ebc:	1e709102 	expnes	f1, f2
     ec0:	000004fe 	strdeq	r0, [r0], -lr
     ec4:	66026901 	strvs	r6, [r2], -r1, lsl #18
     ec8:	00000c65 	andeq	r0, r0, r5, ror #24
     ecc:	006c9102 	rsbeq	r9, ip, r2, lsl #2
     ed0:	090b011d 	stmdbeq	fp, {r0, r2, r3, r4, r8}
     ed4:	64010000 	strvs	r0, [r1], #-0
     ed8:	78010602 	stmdavc	r1, {r1, r9, sl}
     edc:	a4000009 	strge	r0, [r0], #-9
     ee0:	d8000009 	stmdale	r0, {r0, r3}
     ee4:	01000004 	tsteq	r0, r4
     ee8:	00000efd 	strdeq	r0, [r0], -sp
     eec:	0039c91e 	eorseq	ip, r9, lr, lsl r9
     ef0:	02640100 	rsbeq	r0, r4, #0, 2
     ef4:	00058728 	andeq	r8, r5, r8, lsr #14
     ef8:	77910200 	ldrvc	r0, [r1, r0, lsl #4]
     efc:	de011d00 	cdple	13, 0, cr1, cr1, cr0, {0}
     f00:	01000007 	tsteq	r0, r7
     f04:	0106025f 	tsteq	r6, pc, asr r2
	...
     f10:	00000534 	andeq	r0, r0, r4, lsr r5
     f14:	000f2a01 	andeq	r2, pc, r1, lsl #20
     f18:	0b7f1e00 	bleq	1fc8720 <_E_text+0x1fc7234>
     f1c:	5f010000 	svcpl	0x00010000
     f20:	09cb3102 	stmibeq	fp, {r1, r8, ip, sp}^
     f24:	91020000 	mrsls	r0, (UNDEF: 2)
     f28:	011d0074 	tsteq	sp, r4, ror r0
     f2c:	00000a89 	andeq	r0, r0, r9, lsl #21
     f30:	06024f01 	streq	r4, [r2], -r1, lsl #30
     f34:	00000001 	andeq	r0, r0, r1
     f38:	00000000 	andeq	r0, r0, r0
     f3c:	00059000 	andeq	r9, r5, r0
     f40:	0f570100 	svceq	0x00570100
     f44:	451e0000 	ldrmi	r0, [lr, #-0]
     f48:	0100000b 	tsteq	r0, fp
     f4c:	e33f024f 	teq	pc, #-268435452	; 0xf0000004
     f50:	02000008 	andeq	r0, r0, #8
     f54:	1f007491 	svcne	0x00007491
     f58:	00075101 	andeq	r5, r7, r1, lsl #2
     f5c:	02350100 	eorseq	r0, r5, #0, 2
     f60:	08ec0106 	stmiaeq	ip!, {r1, r2, r8}^
     f64:	09780000 	ldmdbeq	r8!, {}^	; <UNPREDICTABLE>
     f68:	05ec0000 	strbeq	r0, [ip, #0]!
     f6c:	84010000 	strhi	r0, [r1], #-0
     f70:	1e00000f 	cdpne	0, 0, cr0, cr0, cr15, {0}
     f74:	00000b45 	andeq	r0, r0, r5, asr #22
     f78:	3e023501 	cfsh32cc	mvfx3, mvfx2, #1
     f7c:	000008e3 	andeq	r0, r0, r3, ror #17
     f80:	00749102 	rsbseq	r9, r4, r2, lsl #2
     f84:	0c850120 	stfeqs	f0, [r5], {32}
     f88:	22010000 	andcs	r0, r1, #0
     f8c:	08b40602 	ldmeq	r4!, {r1, r9, sl}
     f90:	08ec0000 	stmiaeq	ip!, {}^	; <UNPREDICTABLE>
     f94:	063c0000 	ldrteq	r0, [ip], -r0
     f98:	21010000 	mrscs	r0, (UNDEF: 1)
     f9c:	000b6301 	andeq	r6, fp, r1, lsl #6
     fa0:	01c30100 	biceq	r0, r3, r0, lsl #2
     fa4:	0009b601 	andeq	fp, r9, r1, lsl #12
	...
     fb0:	00068000 	andeq	r8, r6, r0
     fb4:	01220100 			; <UNDEFINED> instruction: 0x01220100
     fb8:	00000b52 	andeq	r0, r0, r2, asr fp
     fbc:	b601cb01 	strlt	ip, [r1], -r1, lsl #22
     fc0:	00000009 	andeq	r0, r0, r9
     fc4:	00000000 	andeq	r0, r0, r0
     fc8:	ac000000 	stcge	0, cr0, [r0], {-0}
     fcc:	01000006 	tsteq	r0, r6
     fd0:	0007aa00 	andeq	sl, r7, r0, lsl #20
     fd4:	20000200 	andcs	r0, r0, r0, lsl #4
     fd8:	04000002 	streq	r0, [r0], #-2
     fdc:	0001ac01 	andeq	sl, r1, r1, lsl #24
     fe0:	100c0c00 	andne	r0, ip, r0, lsl #24
     fe4:	002e0000 	eoreq	r0, lr, r0
     fe8:	00000510 	andeq	r0, r0, r0, lsl r5
     fec:	14080102 	strne	r0, [r8], #-258	; 0xfffffefe
     ff0:	0200000d 	andeq	r0, r0, #13
     ff4:	0d160601 	ldceq	6, cr0, [r6, #-4]
     ff8:	02020000 	andeq	r0, r2, #0
     ffc:	000ee407 	andeq	lr, lr, r7, lsl #8
    1000:	05020200 	streq	r0, [r2, #-512]	; 0xfffffe00
    1004:	00000a63 	andeq	r0, r0, r3, ror #20
    1008:	000a5d03 	andeq	r5, sl, r3, lsl #26
    100c:	1c0e0100 	stfnes	f0, [lr], {-0}
    1010:	00000043 	andeq	r0, r0, r3, asr #32
    1014:	27070402 	strcs	r0, [r7, -r2, lsl #8]
    1018:	02000005 	andeq	r0, r0, #5
    101c:	08080504 	stmdaeq	r8, {r2, r8, sl}
    1020:	04020000 	streq	r0, [r2], #-0
    1024:	00050a04 	andeq	r0, r5, r4, lsl #20
    1028:	04080200 	streq	r0, [r8], #-512	; 0xfffffe00
    102c:	000009b1 			; <UNDEFINED> instruction: 0x000009b1
    1030:	22070802 	andcs	r0, r7, #131072	; 0x20000
    1034:	04000005 	streq	r0, [r0], #-5
    1038:	001b0107 	andseq	r0, fp, r7, lsl #2
    103c:	2e020000 	cdpcs	0, 0, cr0, cr2, cr0, {0}
    1040:	0001350d 	andeq	r3, r1, sp, lsl #10
    1044:	0d760500 	cfldr64eq	mvdx0, [r6, #-0]
    1048:	05000000 	streq	r0, [r0, #-0]
    104c:	00000d83 	andeq	r0, r0, r3, lsl #27
    1050:	0d900501 	cfldr32eq	mvfx0, [r0, #4]
    1054:	05020000 	streq	r0, [r2, #-0]
    1058:	00000d9d 	muleq	r0, sp, sp
    105c:	0daa0503 	cfstr32eq	mvfx0, [sl, #12]!
    1060:	05040000 	streq	r0, [r4, #-0]
    1064:	00000db7 			; <UNDEFINED> instruction: 0x00000db7
    1068:	0dc40505 	cfstr64eq	mvdx0, [r4, #20]
    106c:	05060000 	streq	r0, [r6, #-0]
    1070:	00000dd1 	ldrdeq	r0, [r0], -r1
    1074:	0dde0507 	cfldr64eq	mvdx0, [lr, #28]
    1078:	05080000 	streq	r0, [r8, #-0]
    107c:	00000deb 	andeq	r0, r0, fp, ror #27
    1080:	0bd30509 	bleq	ff4c24ac <_E_BSS+0xdf4c06b8>
    1084:	050a0000 	streq	r0, [sl, #-0]
    1088:	00000be1 	andeq	r0, r0, r1, ror #23
    108c:	0bef050b 	bleq	ffbc24c0 <_E_BSS+0xdfbc06cc>
    1090:	050c0000 	streq	r0, [ip, #-0]
    1094:	00000bfd 	strdeq	r0, [r0], -sp
    1098:	0c0b050d 	cfstr32eq	mvfx0, [fp], {13}
    109c:	050e0000 	streq	r0, [lr, #-0]
    10a0:	00000c19 	andeq	r0, r0, r9, lsl ip
    10a4:	0c27050f 	cfstr32eq	mvfx0, [r7], #-60	; 0xffffffc4
    10a8:	05100000 	ldreq	r0, [r0, #-0]
    10ac:	00000c35 	andeq	r0, r0, r5, lsr ip
    10b0:	0c430511 	cfstr64eq	mvdx0, [r3], {17}
    10b4:	05120000 	ldreq	r0, [r2, #-0]
    10b8:	00000c51 	andeq	r0, r0, r1, asr ip
    10bc:	0cec0513 	cfstr64eq	mvdx0, [ip], #76	; 0x4c
    10c0:	05140000 	ldreq	r0, [r4, #-0]
    10c4:	00000cfa 	strdeq	r0, [r0], -sl
    10c8:	0b290515 	bleq	a42524 <_E_text+0xa41038>
    10cc:	05160000 	ldreq	r0, [r6, #-0]
    10d0:	00000b37 	andeq	r0, r0, r7, lsr fp
    10d4:	0d220517 	cfstr32eq	mvfx0, [r2, #-92]!	; 0xffffffa4
    10d8:	05180000 	ldreq	r0, [r8, #-0]
    10dc:	00000d30 	andeq	r0, r0, r0, lsr sp
    10e0:	0d3e0519 	cfldr32eq	mvfx0, [lr, #-100]!	; 0xffffff9c
    10e4:	051a0000 	ldreq	r0, [sl, #-0]
    10e8:	00000d4c 	andeq	r0, r0, ip, asr #26
    10ec:	0d5a051b 	cfldr64eq	mvdx0, [sl, #-108]	; 0xffffff94
    10f0:	051c0000 	ldreq	r0, [ip, #-0]
    10f4:	00000d68 	andeq	r0, r0, r8, ror #26
    10f8:	0e90051d 	mrceq	5, 4, r0, cr0, cr13, {0}
    10fc:	051e0000 	ldreq	r0, [lr, #-0]
    1100:	00000e9e 	muleq	r0, lr, lr
    1104:	3b03001f 	blcc	c1188 <_E_text+0xbfc9c>
    1108:	0200000e 	andeq	r0, r0, #14
    110c:	00660250 	rsbeq	r0, r6, r0, asr r2
    1110:	07040000 	streq	r0, [r4, -r0]
    1114:	00001b01 	andeq	r1, r0, r1, lsl #22
    1118:	0d520200 	lfmeq	f0, 2, [r2, #-0]
    111c:	00000168 	andeq	r0, r0, r8, ror #2
    1120:	0007b705 	andeq	fp, r7, r5, lsl #14
    1124:	11050000 	mrsne	r0, (UNDEF: 5)
    1128:	01000008 	tsteq	r0, r8
    112c:	00081505 	andeq	r1, r8, r5, lsl #10
    1130:	6d050200 	sfmvs	f0, 4, [r5, #-0]
    1134:	03000008 	movweq	r0, #8
    1138:	0f870300 	svceq	0x00870300
    113c:	57020000 	strpl	r0, [r2, -r0]
    1140:	00014102 	andeq	r4, r1, r2, lsl #2
    1144:	01070400 	tsteq	r7, r0, lsl #8
    1148:	0000001b 	andeq	r0, r0, fp, lsl r0
    114c:	9b0d5a02 	blls	35795c <_E_text+0x356470>
    1150:	05000001 	streq	r0, [r0, #-1]
    1154:	00000622 	andeq	r0, r0, r2, lsr #12
    1158:	09e20500 	stmibeq	r2!, {r8, sl}^
    115c:	05010000 	streq	r0, [r1, #-0]
    1160:	000009e6 	andeq	r0, r0, r6, ror #19
    1164:	023c0502 	eorseq	r0, ip, #8388608	; 0x800000
    1168:	00030000 	andeq	r0, r3, r0
    116c:	000a0003 	andeq	r0, sl, r3
    1170:	025f0200 	subseq	r0, pc, #0, 4
    1174:	00000174 	andeq	r0, r0, r4, ror r1
    1178:	1b010704 	blne	42d90 <_E_text+0x418a4>
    117c:	02000000 	andeq	r0, r0, #0
    1180:	01c80d62 	biceq	r0, r8, r2, ror #26
    1184:	6d050000 	stcvs	0, cr0, [r5, #-0]
    1188:	0000000c 	andeq	r0, r0, ip
    118c:	0007a505 	andeq	sl, r7, r5, lsl #10
    1190:	a9050100 	stmdbge	r5, {r8}
    1194:	02000007 	andeq	r0, r0, #7
    1198:	0f670300 	svceq	0x00670300
    119c:	66020000 	strvs	r0, [r2], -r0
    11a0:	0001a702 	andeq	sl, r1, r2, lsl #14
    11a4:	01070400 	tsteq	r7, r0, lsl #8
    11a8:	0000001b 	andeq	r0, r0, fp, lsl r0
    11ac:	f50d6902 			; <UNDEFINED> instruction: 0xf50d6902
    11b0:	05000001 	streq	r0, [r0, #-1]
    11b4:	00000846 	andeq	r0, r0, r6, asr #16
    11b8:	08a10500 	stmiaeq	r1!, {r8, sl}
    11bc:	05010000 	streq	r0, [r1, #-0]
    11c0:	000008a5 	andeq	r0, r0, r5, lsr #17
    11c4:	a2030002 	andge	r0, r3, #2
    11c8:	0200000c 	andeq	r0, r0, #12
    11cc:	01d4026d 	bicseq	r0, r4, sp, ror #4
    11d0:	07040000 	streq	r0, [r4, -r0]
    11d4:	00001b01 	andeq	r1, r0, r1, lsl #22
    11d8:	0d7a0200 	lfmeq	f0, 2, [sl, #-0]
    11dc:	0000022e 	andeq	r0, r0, lr, lsr #4
    11e0:	0009b805 	andeq	fp, r9, r5, lsl #16
    11e4:	c6050000 	strgt	r0, [r5], -r0
    11e8:	01000009 	tsteq	r0, r9
    11ec:	0009d405 	andeq	sp, r9, r5, lsl #8
    11f0:	6d050200 	sfmvs	f0, 4, [r5, #-0]
    11f4:	03000007 	movweq	r0, #7
    11f8:	0009f205 	andeq	pc, r9, r5, lsl #4
    11fc:	03000400 	movweq	r0, #1024	; 0x400
    1200:	00000967 	andeq	r0, r0, r7, ror #18
    1204:	01028102 	tsteq	r2, r2, lsl #2
    1208:	04000002 	streq	r0, [r0], #-2
    120c:	001b0107 	andseq	r0, fp, r7, lsl #2
    1210:	83020000 	movwhi	r0, #8192	; 0x2000
    1214:	0002550d 	andeq	r5, r2, sp, lsl #10
    1218:	0f3a0500 	svceq	0x003a0500
    121c:	05000000 	streq	r0, [r0, #-0]
    1220:	0000010f 	andeq	r0, r0, pc, lsl #2
    1224:	53030001 	movwpl	r0, #12289	; 0x3001
    1228:	02000003 	andeq	r0, r0, #3
    122c:	023a0286 	eorseq	r0, sl, #1610612744	; 0x60000008
    1230:	07040000 	streq	r0, [r4, -r0]
    1234:	00001b01 	andeq	r1, r0, r1, lsl #22
    1238:	0d880200 	sfmeq	f0, 4, [r8]
    123c:	000002a0 	andeq	r0, r0, r0, lsr #5
    1240:	00099405 	andeq	r9, r9, r5, lsl #8
    1244:	7b050000 	blvc	14124c <_E_text+0x13fd60>
    1248:	0100000c 	tsteq	r0, ip
    124c:	000a1a05 	andeq	r1, sl, r5, lsl #20
    1250:	9f050200 	svcls	0x00050200
    1254:	03000005 	movweq	r0, #5
    1258:	00012f05 	andeq	r2, r1, r5, lsl #30
    125c:	26050400 	strcs	r0, [r5], -r0, lsl #8
    1260:	05000001 	streq	r0, [r0, #-1]
    1264:	00078405 	andeq	r8, r7, r5, lsl #8
    1268:	7b050600 	blvc	142a70 <_E_text+0x141584>
    126c:	07000007 	streq	r0, [r0, -r7]
    1270:	0e4b0300 	cdpeq	3, 4, cr0, cr11, cr0, {0}
    1274:	91020000 	mrsls	r0, (UNDEF: 2)
    1278:	00026102 	andeq	r6, r2, r2, lsl #2
    127c:	01070400 	tsteq	r7, r0, lsl #8
    1280:	0000001b 	andeq	r0, r0, fp, lsl r0
    1284:	fd0d9302 	stc2	3, cr9, [sp, #-8]
    1288:	05000002 	streq	r0, [r0, #-2]
    128c:	00000ed8 	ldrdeq	r0, [r0], -r8
    1290:	00e20500 	rsceq	r0, r2, r0, lsl #10
    1294:	05010000 	streq	r0, [r1, #-0]
    1298:	00000a38 	andeq	r0, r0, r8, lsr sl
    129c:	0f7a0502 	svceq	0x007a0502
    12a0:	05030000 	streq	r0, [r3, #-0]
    12a4:	00000c5f 	andeq	r0, r0, pc, asr ip
    12a8:	0b000504 	bleq	26c0 <_E_text+0x11d4>
    12ac:	05050000 	streq	r0, [r5, #-0]
    12b0:	0000073c 	andeq	r0, r0, ip, lsr r7
    12b4:	0faf0506 	svceq	0x00af0506
    12b8:	05070000 	streq	r0, [r7, #-0]
    12bc:	00000ebd 			; <UNDEFINED> instruction: 0x00000ebd
    12c0:	0cd70508 	cfldr64eq	mvdx0, [r7], {8}
    12c4:	05090000 	streq	r0, [r9, #-0]
    12c8:	00000e2b 	andeq	r0, r0, fp, lsr #28
    12cc:	3803000a 	stmdacc	r3, {r1, r3}
    12d0:	02000006 	andeq	r0, r0, #6
    12d4:	02ac029f 	adceq	r0, ip, #-268435447	; 0xf0000009
    12d8:	07040000 	streq	r0, [r4, -r0]
    12dc:	00001b01 	andeq	r1, r0, r1, lsl #22
    12e0:	0da10200 	sfmeq	f0, 4, [r1]
    12e4:	00000324 	andeq	r0, r0, r4, lsr #6
    12e8:	000f1f05 	andeq	r1, pc, r5, lsl #30
    12ec:	ac050000 	stcge	0, cr0, [r5], {-0}
    12f0:	0100000e 	tsteq	r0, lr
    12f4:	0a450300 	beq	1141efc <_E_text+0x1140a10>
    12f8:	a4020000 	strge	r0, [r2], #-0
    12fc:	00030902 	andeq	r0, r3, r2, lsl #18
    1300:	02100600 	andseq	r0, r0, #0, 12
    1304:	03df09a7 	bicseq	r0, pc, #2736128	; 0x29c000
    1308:	c9070000 	stmdbgt	r7, {}	; <UNPREDICTABLE>
    130c:	02000039 	andeq	r0, r0, #57	; 0x39
    1310:	013515a8 	teqeq	r5, r8, lsr #11
    1314:	23020000 	movwcs	r0, #8192	; 0x2000
    1318:	03cc0700 	biceq	r0, ip, #0, 14
    131c:	a9020000 	stmdbge	r2, {}	; <UNPREDICTABLE>
    1320:	00016820 	andeq	r6, r1, r0, lsr #16
    1324:	01230200 			; <UNDEFINED> instruction: 0x01230200
    1328:	0008f707 	andeq	pc, r8, r7, lsl #14
    132c:	1faa0200 	svcne	0x00aa0200
    1330:	0000019b 	muleq	r0, fp, r1
    1334:	07022302 	streq	r2, [r2, -r2, lsl #6]
    1338:	00000fa2 	andeq	r0, r0, r2, lsr #31
    133c:	c818ab02 	ldmdagt	r8, {r1, r8, r9, fp, sp, pc}
    1340:	02000001 	andeq	r0, r0, #1
    1344:	1d070323 	stcne	3, cr0, [r7, #-140]	; 0xffffff74
    1348:	0200000b 	andeq	r0, r0, #11
    134c:	01f517ac 	mvnseq	r1, ip, lsr #15
    1350:	23020000 	movwcs	r0, #8192	; 0x2000
    1354:	09780704 	ldmdbeq	r8!, {r2, r8, r9, sl}^
    1358:	ad020000 	stcge	0, cr0, [r2, #-0]
    135c:	0002a01e 	andeq	sl, r2, lr, lsl r0
    1360:	05230200 	streq	r0, [r3, #-512]!	; 0xfffffe00
    1364:	00086107 	andeq	r6, r8, r7, lsl #2
    1368:	1fae0200 	svcne	0x00ae0200
    136c:	00000255 	andeq	r0, r0, r5, asr r2
    1370:	07062302 	streq	r2, [r6, -r2, lsl #6]
    1374:	00000f5b 	andeq	r0, r0, fp, asr pc
    1378:	2e16af02 	cdpcs	15, 1, cr10, cr6, cr2, {0}
    137c:	02000002 	andeq	r0, r0, #2
    1380:	3c070723 	stccc	7, cr0, [r7], {35}	; 0x23
    1384:	02000008 	andeq	r0, r0, #8
    1388:	02fd1bb0 	rscseq	r1, sp, #176, 22	; 0x2c000
    138c:	23020000 	movwcs	r0, #8192	; 0x2000
    1390:	0f030708 	svceq	0x00030708
    1394:	b1020000 	mrslt	r0, (UNDEF: 2)
    1398:	0003241d 	andeq	r2, r3, sp, lsl r4
    139c:	09230200 	stmdbeq	r3!, {r9}
    13a0:	0003ed07 	andeq	lr, r3, r7, lsl #26
    13a4:	0bb20200 	bleq	fec81bac <_E_BSS+0xdec7fdb8>
    13a8:	00000037 	andeq	r0, r0, r7, lsr r0
    13ac:	000c2302 	andeq	r2, ip, r2, lsl #6
    13b0:	00066c03 	andeq	r6, r6, r3, lsl #24
    13b4:	02b40200 	adcseq	r0, r4, #0, 4
    13b8:	00000330 	andeq	r0, r0, r0, lsr r3
    13bc:	b7021006 	strlt	r1, [r2, -r6]
    13c0:	00043109 	andeq	r3, r4, r9, lsl #2
    13c4:	06870700 	streq	r0, [r7], r0, lsl #14
    13c8:	b8020000 	stmdalt	r2, {}	; <UNPREDICTABLE>
    13cc:	0004310d 	andeq	r3, r4, sp, lsl #2
    13d0:	00230200 	eoreq	r0, r3, r0, lsl #4
    13d4:	0005a807 	andeq	sl, r5, r7, lsl #16
    13d8:	0db90200 	lfmeq	f0, 4, [r9]
    13dc:	00000431 	andeq	r0, r0, r1, lsr r4
    13e0:	07042302 	streq	r2, [r4, -r2, lsl #6]
    13e4:	000003e1 	andeq	r0, r0, r1, ror #7
    13e8:	370bba02 	strcc	fp, [fp, -r2, lsl #20]
    13ec:	02000000 	andeq	r0, r0, #0
    13f0:	4a070823 	bmi	1c3484 <_E_text+0x1c1f98>
    13f4:	02000007 	andeq	r0, r0, #7
    13f8:	00370bbb 	ldrhteq	r0, [r7], -fp
    13fc:	23020000 	movwcs	r0, #8192	; 0x2000
    1400:	0408000c 	streq	r0, [r8], #-12
    1404:	00000037 	andeq	r0, r0, r7, lsr r0
    1408:	000f0f03 	andeq	r0, pc, r3, lsl #30
    140c:	02bc0200 	adcseq	r0, ip, #0, 4
    1410:	000003eb 	andeq	r0, r0, fp, ror #7
    1414:	00045a09 	andeq	r5, r4, r9, lsl #20
    1418:	00045300 	andeq	r5, r4, r0, lsl #6
    141c:	04530a00 	ldrbeq	r0, [r3], #-2560	; 0xfffff600
    1420:	00070000 	andeq	r0, r7, r0
    1424:	2c070402 	cfstrscs	mvf0, [r7], {2}
    1428:	08000005 	stmdaeq	r0, {r0, r2}
    142c:	0003df04 	andeq	sp, r3, r4, lsl #30
    1430:	10f00b00 	rscsne	r0, r0, r0, lsl #22
    1434:	bf020000 	svclt	0x00020000
    1438:	00044324 	andeq	r4, r4, r4, lsr #6
    143c:	0b010100 	bleq	41844 <_E_text+0x40358>
    1440:	00001053 	andeq	r1, r0, r3, asr r0
    1444:	4324c002 			; <UNDEFINED> instruction: 0x4324c002
    1448:	01000004 	tsteq	r0, r4
    144c:	06090b01 	streq	r0, [r9], -r1, lsl #22
    1450:	c1020000 	mrsgt	r0, (UNDEF: 2)
    1454:	00045a24 	andeq	r5, r4, r4, lsr #20
    1458:	0b010100 	bleq	41860 <_E_text+0x40374>
    145c:	0000121e 	andeq	r1, r0, lr, lsl r2
    1460:	5a24c202 	bpl	931c70 <_E_text+0x930784>
    1464:	01000004 	tsteq	r0, r4
    1468:	12370b01 	eorsne	r0, r7, #1024	; 0x400
    146c:	c3020000 	movwgt	r0, #8192	; 0x2000
    1470:	00045a24 	andeq	r5, r4, r4, lsr #20
    1474:	0b010100 	bleq	4187c <_E_text+0x40390>
    1478:	0000113c 	andeq	r1, r0, ip, lsr r1
    147c:	5a24c402 	bpl	93248c <_E_text+0x930fa0>
    1480:	01000004 	tsteq	r0, r4
    1484:	11540b01 	cmpne	r4, r1, lsl #22
    1488:	c5020000 	strgt	r0, [r2, #-0]
    148c:	00045a24 	andeq	r5, r4, r4, lsr #20
    1490:	09010100 	stmdbeq	r1, {r8}
    1494:	00000437 	andeq	r0, r0, r7, lsr r4
    1498:	000004d2 	ldrdeq	r0, [r0], -r2
    149c:	0004530a 	andeq	r5, r4, sl, lsl #6
    14a0:	0b000200 	bleq	1ca8 <_E_text+0x7bc>
    14a4:	00000928 	andeq	r0, r0, r8, lsr #18
    14a8:	c218ca02 	andsgt	ip, r8, #8192	; 0x2000
    14ac:	01000004 	tsteq	r0, r4
    14b0:	0e640b01 	vmuleq.f64	d16, d4, d1
    14b4:	cb020000 	blgt	814bc <_E_text+0x7ffd0>
    14b8:	0004c218 	andeq	ip, r4, r8, lsl r2
    14bc:	09010100 	stmdbeq	r1, {r8}
    14c0:	00000037 	andeq	r0, r0, r7, lsr r0
    14c4:	000004fe 	strdeq	r0, [r0], -lr
    14c8:	0004530a 	andeq	r5, r4, sl, lsl #6
    14cc:	0b000000 	bleq	14d4 <SysTickGenerateDelay_Interrupt+0x40>
    14d0:	000010bc 	strheq	r1, [r0], -ip
    14d4:	ee0e0f03 	cdp	15, 0, cr0, cr14, cr3, {0}
    14d8:	01000004 	tsteq	r0, r4
    14dc:	11870b01 	orrne	r0, r7, r1, lsl #22
    14e0:	10030000 	andne	r0, r3, r0
    14e4:	0004ee0e 	andeq	lr, r4, lr, lsl #28
    14e8:	09010100 	stmdbeq	r1, {r8}
    14ec:	00000037 	andeq	r0, r0, r7, lsr r0
    14f0:	0000052a 	andeq	r0, r0, sl, lsr #10
    14f4:	0004530a 	andeq	r5, r4, sl, lsl #6
    14f8:	0b000500 	bleq	2900 <_E_text+0x1414>
    14fc:	0000102f 	andeq	r1, r0, pc, lsr #32
    1500:	1a0e1103 	bne	385914 <_E_text+0x384428>
    1504:	01000005 	tsteq	r0, r5
    1508:	10c20b01 	sbcne	r0, r2, r1, lsl #22
    150c:	12030000 	andne	r0, r3, #0
    1510:	0004ee0e 	andeq	lr, r4, lr, lsl #28
    1514:	09010100 	stmdbeq	r1, {r8}
    1518:	00000037 	andeq	r0, r0, r7, lsr r0
    151c:	00000556 	andeq	r0, r0, r6, asr r5
    1520:	0004530a 	andeq	r5, r4, sl, lsl #6
    1524:	0b000100 	bleq	192c <_E_text+0x440>
    1528:	000010c8 	andeq	r1, r0, r8, asr #1
    152c:	460e1803 	strmi	r1, [lr], -r3, lsl #16
    1530:	01000005 	tsteq	r0, r5
    1534:	10ce0b01 	sbcne	r0, lr, r1, lsl #22
    1538:	19030000 	stmdbne	r3, {}	; <UNPREDICTABLE>
    153c:	0005460e 	andeq	r4, r5, lr, lsl #12
    1540:	0b010100 	bleq	41948 <_E_text+0x4045c>
    1544:	0000118d 	andeq	r1, r0, sp, lsl #3
    1548:	460e1a03 	strmi	r1, [lr], -r3, lsl #20
    154c:	01000005 	tsteq	r0, r5
    1550:	10380c01 	eorsne	r0, r8, r1, lsl #24
    1554:	1d030000 	stcne	0, cr0, [r3, #-0]
    1558:	0003df1d 	andeq	sp, r3, sp, lsl pc
    155c:	03050100 	movweq	r0, #20736	; 0x5100
    1560:	00000000 	andeq	r0, r0, r0
    1564:	0011930c 	andseq	r9, r1, ip, lsl #6
    1568:	1c270300 	stcne	3, cr0, [r7], #-0
    156c:	000003df 	ldrdeq	r0, [r0], -pc	; <UNPREDICTABLE>
    1570:	00030501 	andeq	r0, r3, r1, lsl #10
    1574:	0c000000 	stceq	0, cr0, [r0], {-0}
    1578:	00001250 	andeq	r1, r0, r0, asr r2
    157c:	df1d3203 	svcle	0x001d3203
    1580:	01000003 	tsteq	r0, r3
    1584:	00000305 	andeq	r0, r0, r5, lsl #6
    1588:	d40c0000 	strle	r0, [ip], #-0
    158c:	03000010 	movweq	r0, #16
    1590:	03df1d41 	bicseq	r1, pc, #4160	; 0x1040
    1594:	05010000 	streq	r0, [r1, #-0]
    1598:	00000003 	andeq	r0, r0, r3
    159c:	116c0c00 	cmnne	ip, r0, lsl #24
    15a0:	5e030000 	cdppl	0, 0, cr0, cr3, cr0, {0}
    15a4:	0003df1c 	andeq	sp, r3, ip, lsl pc
    15a8:	03050100 	movweq	r0, #20736	; 0x5100
    15ac:	00000000 	andeq	r0, r0, r0
    15b0:	000ff00c 	andeq	pc, pc, ip
    15b4:	1c680300 	stclne	3, cr0, [r8], #-0
    15b8:	000003df 	ldrdeq	r0, [r0], -pc	; <UNPREDICTABLE>
    15bc:	00030501 	andeq	r0, r3, r1, lsl #10
    15c0:	0c000000 	stceq	0, cr0, [r0], {-0}
    15c4:	00001068 	andeq	r1, r0, r8, rrx
    15c8:	df1c7303 	svcle	0x001c7303
    15cc:	01000003 	tsteq	r0, r3
    15d0:	00000305 	andeq	r0, r0, r5, lsl #6
    15d4:	ca0c0000 	bgt	3015dc <_E_text+0x3000f0>
    15d8:	03000011 	movweq	r0, #17
    15dc:	03df1c7d 	bicseq	r1, pc, #32000	; 0x7d00
    15e0:	05010000 	streq	r0, [r1, #-0]
    15e4:	00000003 	andeq	r0, r0, r3
    15e8:	10a00c00 	adcne	r0, r0, r0, lsl #24
    15ec:	87030000 	strhi	r0, [r3, -r0]
    15f0:	0003df1d 	andeq	sp, r3, sp, lsl pc
    15f4:	03050100 	movweq	r0, #20736	; 0x5100
    15f8:	00000000 	andeq	r0, r0, r0
    15fc:	0012020c 	andseq	r0, r2, ip, lsl #4
    1600:	1c910300 	ldcne	3, cr0, [r1], {0}
    1604:	000003df 	ldrdeq	r0, [r0], -pc	; <UNPREDICTABLE>
    1608:	00030501 	andeq	r0, r3, r1, lsl #10
    160c:	0c000000 	stceq	0, cr0, [r0], {-0}
    1610:	00001105 	andeq	r1, r0, r5, lsl #2
    1614:	df1c9d03 	svcle	0x001c9d03
    1618:	01000003 	tsteq	r0, r3
    161c:	00000305 	andeq	r0, r0, r5, lsl #6
    1620:	6c0c0000 	stcvs	0, cr0, [ip], {-0}
    1624:	03000012 	movweq	r0, #18
    1628:	03df1ca7 	bicseq	r1, pc, #42752	; 0xa700
    162c:	05010000 	streq	r0, [r1, #-0]
    1630:	00000003 	andeq	r0, r0, r3
    1634:	11ae0c00 			; <UNDEFINED> instruction: 0x11ae0c00
    1638:	b1030000 	mrslt	r0, (UNDEF: 3)
    163c:	0003df1c 	andeq	sp, r3, ip, lsl pc
    1640:	03050100 	movweq	r0, #20736	; 0x5100
    1644:	00000000 	andeq	r0, r0, r0
    1648:	0011e60c 	andseq	lr, r1, ip, lsl #12
    164c:	1cbb0300 	ldcne	3, cr0, [fp]
    1650:	000003df 	ldrdeq	r0, [r0], -pc	; <UNPREDICTABLE>
    1654:	00030501 	andeq	r0, r3, r1, lsl #10
    1658:	0c000000 	stceq	0, cr0, [r0], {-0}
    165c:	00001120 	andeq	r1, r0, r0, lsr #2
    1660:	df1cc503 	svcle	0x001cc503
    1664:	01000003 	tsteq	r0, r3
    1668:	00000305 	andeq	r0, r0, r5, lsl #6
    166c:	840c0000 	strhi	r0, [ip], #-0
    1670:	03000010 	movweq	r0, #16
    1674:	03df1ccf 	bicseq	r1, pc, #52992	; 0xcf00
    1678:	05010000 	streq	r0, [r1, #-0]
    167c:	00000003 	andeq	r0, r0, r3
    1680:	04600d00 	strbteq	r0, [r0], #-3328	; 0xfffff300
    1684:	da030000 	ble	c168c <_E_text+0xc01a0>
    1688:	00030521 	andeq	r0, r3, r1, lsr #10
    168c:	0d000000 	stceq	0, cr0, [r0, #-0]
    1690:	0000046e 	andeq	r0, r0, lr, ror #8
    1694:	051de603 	ldreq	lr, [sp, #-1539]	; 0xfffff9fd
    1698:	00000003 	andeq	r0, r0, r3
    169c:	113f0e00 	teqne	pc, r0, lsl #28
    16a0:	07030000 	streq	r0, [r3, -r0]
    16a4:	03df1d01 	bicseq	r1, pc, #1, 26	; 0x40
    16a8:	05010000 	streq	r0, [r1, #-0]
    16ac:	00000003 	andeq	r0, r0, r3
    16b0:	11570e00 	cmpne	r7, r0, lsl #28
    16b4:	15030000 	strne	r0, [r3, #-0]
    16b8:	03df1d01 	bicseq	r1, pc, #1, 26	; 0x40
    16bc:	05010000 	streq	r0, [r1, #-0]
    16c0:	00000003 	andeq	r0, r0, r3
    16c4:	060c0e00 	streq	r0, [ip], -r0, lsl #28
    16c8:	24030000 	strcs	r0, [r3], #-0
    16cc:	03df1d01 	bicseq	r1, pc, #1, 26	; 0x40
    16d0:	05010000 	streq	r0, [r1, #-0]
    16d4:	00001003 	andeq	r1, r0, r3
    16d8:	12210e20 	eorne	r0, r1, #32, 28	; 0x200
    16dc:	32030000 	andcc	r0, r3, #0
    16e0:	03df1d01 	bicseq	r1, pc, #1, 26	; 0x40
    16e4:	05010000 	streq	r0, [r1, #-0]
    16e8:	00000003 	andeq	r0, r0, r3
    16ec:	123a0e00 	eorsne	r0, sl, #0, 28
    16f0:	40030000 	andmi	r0, r3, r0
    16f4:	03df1d01 	bicseq	r1, pc, #1, 26	; 0x40
    16f8:	05010000 	streq	r0, [r1, #-0]
    16fc:	00000003 	andeq	r0, r0, r3
    1700:	10190e00 	andsne	r0, r9, r0, lsl #28
    1704:	4e030000 	cdpmi	0, 0, cr0, cr3, cr0, {0}
    1708:	03df1d01 	bicseq	r1, pc, #1, 26	; 0x40
    170c:	05010000 	streq	r0, [r1, #-0]
    1710:	00000003 	andeq	r0, r0, r3
    1714:	047c0f00 	ldrbteq	r0, [ip], #-3840	; 0xfffff100
    1718:	5d030000 	stcpl	0, cr0, [r3, #-0]
    171c:	03051d01 	movweq	r1, #23809	; 0x5d01
    1720:	20000020 	andcs	r0, r0, r0, lsr #32
    1724:	00048a0f 	andeq	r8, r4, pc, lsl #20
    1728:	015e0300 	cmpeq	lr, r0, lsl #6
    172c:	0003051d 	andeq	r0, r3, sp, lsl r5
    1730:	0f000000 	svceq	0x00000000
    1734:	00000498 	muleq	r0, r8, r4
    1738:	1d015f03 	stcne	15, cr5, [r1, #-12]
    173c:	00000305 	andeq	r0, r0, r5, lsl #6
    1740:	a60f0000 	strge	r0, [pc], -r0
    1744:	03000004 	movweq	r0, #4
    1748:	051d0160 	ldreq	r0, [sp, #-352]	; 0xfffffea0
    174c:	00000003 	andeq	r0, r0, r3
    1750:	04b40f00 	ldrteq	r0, [r4], #3840	; 0xf00
    1754:	61030000 	mrsvs	r0, (UNDEF: 3)
    1758:	03051d01 	movweq	r1, #23809	; 0x5d01
    175c:	00000000 	andeq	r0, r0, r0
    1760:	0004d20f 	andeq	sp, r4, pc, lsl #4
    1764:	01700300 	cmneq	r0, r0, lsl #6
    1768:	00030511 	andeq	r0, r3, r1, lsl r5
    176c:	0f000000 	svceq	0x00000000
    1770:	000004e0 	andeq	r0, r0, r0, ror #9
    1774:	11018603 	tstne	r1, r3, lsl #12
    1778:	00000305 	andeq	r0, r0, r5, lsl #6
    177c:	3b000000 	blcc	1784 <_E_text+0x298>
    1780:	02000000 	andeq	r0, r0, #0
    1784:	0002f800 	andeq	pc, r2, r0, lsl #16
    1788:	ac010400 	cfstrsge	mvf0, [r1], {-0}
    178c:	0c000001 	stceq	0, cr0, [r0], {1}
    1790:	00001287 	andeq	r1, r0, r7, lsl #5
    1794:	00b0002e 	adcseq	r0, r0, lr, lsr #32
	...
    17a0:	05570000 	ldrbeq	r0, [r7, #-0]
    17a4:	01020000 	mrseq	r0, (UNDEF: 2)
    17a8:	00001296 	muleq	r0, r6, r2
    17ac:	011c0101 	tsteq	ip, r1, lsl #2
	...
    17b8:	000006f0 	strdeq	r0, [r0], -r0	; <UNPREDICTABLE>
    17bc:	10570001 	subsne	r0, r7, r1
    17c0:	00020000 	andeq	r0, r2, r0
    17c4:	00000328 	andeq	r0, r0, r8, lsr #6
    17c8:	01ac0104 			; <UNDEFINED> instruction: 0x01ac0104
    17cc:	bf0c0000 	svclt	0x000c0000
    17d0:	2e000017 	mcrcs	0, 0, r0, cr0, cr7, {0}
    17d4:	0000c000 	andeq	ip, r0, r0
	...
    17e0:	00059800 	andeq	r9, r5, r0, lsl #16
    17e4:	08530200 	ldmdaeq	r3, {r9}^
    17e8:	06020000 	streq	r0, [r2], -r0
    17ec:	0000331d 	andeq	r3, r0, sp, lsl r3
    17f0:	08010300 	stmdaeq	r1, {r8, r9}
    17f4:	00000d14 	andeq	r0, r0, r4, lsl sp
    17f8:	16060103 	strne	r0, [r6], -r3, lsl #2
    17fc:	0300000d 	movweq	r0, #13
    1800:	0ee40702 	cdpeq	7, 14, cr0, cr4, cr2, {0}
    1804:	02030000 	andeq	r0, r3, #0
    1808:	000a6305 	andeq	r6, sl, r5, lsl #6
    180c:	0a5d0200 	beq	1742014 <_E_text+0x1740b28>
    1810:	0e020000 	cdpeq	0, 0, cr0, cr2, cr0, {0}
    1814:	0000601c 	andeq	r6, r0, ip, lsl r0
    1818:	004f0400 	subeq	r0, pc, r0, lsl #8
    181c:	04030000 	streq	r0, [r3], #-0
    1820:	00052707 	andeq	r2, r5, r7, lsl #14
    1824:	00600400 	rsbeq	r0, r0, r0, lsl #8
    1828:	04030000 	streq	r0, [r3], #-0
    182c:	00080805 	andeq	r0, r8, r5, lsl #16
    1830:	04040300 	streq	r0, [r4], #-768	; 0xfffffd00
    1834:	0000050a 	andeq	r0, r0, sl, lsl #10
    1838:	b1040803 	tstlt	r4, r3, lsl #16
    183c:	03000009 	movweq	r0, #9
    1840:	05220708 	streq	r0, [r2, #-1800]!	; 0xfffff8f8
    1844:	85020000 	strhi	r0, [r2, #-0]
    1848:	02000009 	andeq	r0, r0, #9
    184c:	00991019 	addseq	r1, r9, r9, lsl r0
    1850:	88040000 	stmdahi	r4, {}	; <UNPREDICTABLE>
    1854:	05000000 	streq	r0, [r0, #-0]
    1858:	00009f04 	andeq	r9, r0, r4, lsl #30
    185c:	07010600 	streq	r0, [r1, -r0, lsl #12]
    1860:	05140304 	ldreq	r0, [r4, #-772]	; 0xfffffcfc
    1864:	000000cf 	andeq	r0, r0, pc, asr #1
    1868:	00157108 	andseq	r7, r5, r8, lsl #2
    186c:	0b160300 	bleq	582474 <_E_text+0x580f88>
    1870:	0000004f 	andeq	r0, r0, pc, asr #32
    1874:	02180804 	andseq	r0, r8, #4, 16	; 0x40000
    1878:	31080023 	tstcc	r8, r3, lsr #32
    187c:	03000015 	movweq	r0, #21
    1880:	004f0b17 	subeq	r0, pc, r7, lsl fp	; <UNPREDICTABLE>
    1884:	18040000 	stmdane	r4, {}	; <UNPREDICTABLE>
    1888:	00230200 	eoreq	r0, r3, r0, lsl #4
    188c:	03040900 	movweq	r0, #18688	; 0x4900
    1890:	00f10912 	rscseq	r0, r1, r2, lsl r9
    1894:	ca0a0000 	bgt	28189c <_E_text+0x2803b0>
    1898:	03000019 	movweq	r0, #25
    189c:	00a10219 	adceq	r0, r1, r9, lsl r2
    18a0:	4e0a0000 	cdpmi	0, 0, cr0, cr10, cr0, {0}
    18a4:	0300002b 	movweq	r0, #43	; 0x2b
    18a8:	004f081b 	subeq	r0, pc, fp, lsl r8	; <UNPREDICTABLE>
    18ac:	02000000 	andeq	r0, r0, #0
    18b0:	00001581 	andeq	r1, r0, r1, lsl #11
    18b4:	cf021d03 	svcgt	0x00021d03
    18b8:	04000000 	streq	r0, [r0], #-0
    18bc:	000000f1 	strdeq	r0, [r0], -r1
    18c0:	45030407 	strmi	r0, [r3, #-1031]	; 0xfffffbf9
    18c4:	00013001 	andeq	r3, r1, r1
    18c8:	16010800 	strne	r0, [r1], -r0, lsl #16
    18cc:	47030000 	strmi	r0, [r3, -r0]
    18d0:	00004f08 	andeq	r4, r0, r8, lsl #30
    18d4:	18080400 	stmdane	r8, {sl}
    18d8:	08002302 	stmdaeq	r0, {r1, r8, r9, sp}
    18dc:	00001531 	andeq	r1, r0, r1, lsr r5
    18e0:	4f084803 	svcmi	0x00084803
    18e4:	04000000 	streq	r0, [r0], #-0
    18e8:	23020018 	movwcs	r0, #8216	; 0x2018
    18ec:	04090000 	streq	r0, [r9], #-0
    18f0:	52094403 	andpl	r4, r9, #50331648	; 0x3000000
    18f4:	0a000001 	beq	1900 <_E_text+0x414>
    18f8:	000019ca 	andeq	r1, r0, sl, asr #19
    18fc:	02024a03 	andeq	r4, r2, #12288	; 0x3000
    1900:	0a000001 	beq	190c <_E_text+0x420>
    1904:	00002b4e 	andeq	r2, r0, lr, asr #22
    1908:	4f084c03 	svcmi	0x00084c03
    190c:	00000000 	andeq	r0, r0, r0
    1910:	0014fa02 	andseq	pc, r4, r2, lsl #20
    1914:	024e0300 	subeq	r0, lr, #0, 6
    1918:	00000130 	andeq	r0, r0, r0, lsr r1
    191c:	00015204 	andeq	r5, r1, r4, lsl #4
    1920:	03040700 	movweq	r0, #18176	; 0x4700
    1924:	0191015c 	orrseq	r0, r1, ip, asr r1
    1928:	7c080000 	stcvc	0, cr0, [r8], {-0}
    192c:	03000013 	movweq	r0, #19
    1930:	004f085e 	subeq	r0, pc, lr, asr r8	; <UNPREDICTABLE>
    1934:	08040000 	stmdaeq	r4, {}	; <UNPREDICTABLE>
    1938:	00230218 	eoreq	r0, r3, r8, lsl r2
    193c:	00153108 	andseq	r3, r5, r8, lsl #2
    1940:	085f0300 	ldmdaeq	pc, {r8, r9}^	; <UNPREDICTABLE>
    1944:	0000004f 	andeq	r0, r0, pc, asr #32
    1948:	02001804 	andeq	r1, r0, #4, 16	; 0x40000
    194c:	09000023 	stmdbeq	r0, {r0, r1, r5}
    1950:	095b0304 	ldmdbeq	fp, {r2, r8, r9}^
    1954:	000001b3 			; <UNDEFINED> instruction: 0x000001b3
    1958:	0019ca0a 	andseq	ip, r9, sl, lsl #20
    195c:	02610300 	rsbeq	r0, r1, #0, 6
    1960:	00000163 	andeq	r0, r0, r3, ror #2
    1964:	002b4e0a 	eoreq	r4, fp, sl, lsl #28
    1968:	08630300 	stmdaeq	r3!, {r8, r9}^
    196c:	0000004f 	andeq	r0, r0, pc, asr #32
    1970:	17dd0200 	ldrbne	r0, [sp, r0, lsl #4]
    1974:	65030000 	strvs	r0, [r3, #-0]
    1978:	00019102 	andeq	r9, r1, r2, lsl #2
    197c:	01b30400 			; <UNDEFINED> instruction: 0x01b30400
    1980:	04070000 	streq	r0, [r7], #-0
    1984:	f2057303 	vcgt.s8	d7, d5, d3
    1988:	08000001 	stmdaeq	r0, {r0}
    198c:	000008ad 	andeq	r0, r0, sp, lsr #17
    1990:	4f0f7403 	svcmi	0x000f7403
    1994:	04000000 	streq	r0, [r0], #-0
    1998:	23021808 	movwcs	r1, #10248	; 0x2808
    199c:	15310800 	ldrne	r0, [r1, #-2048]!	; 0xfffff800
    19a0:	75030000 	strvc	r0, [r3, #-0]
    19a4:	00004f0f 	andeq	r4, r0, pc, lsl #30
    19a8:	00180400 	andseq	r0, r8, r0, lsl #8
    19ac:	00002302 	andeq	r2, r0, r2, lsl #6
    19b0:	71030409 	tstvc	r3, r9, lsl #8
    19b4:	00021409 	andeq	r1, r2, r9, lsl #8
    19b8:	27280a00 	strcs	r0, [r8, -r0, lsl #20]!
    19bc:	77030000 	strvc	r0, [r3, -r0]
    19c0:	0001c406 	andeq	ip, r1, r6, lsl #8
    19c4:	2b4e0a00 	blcs	13841cc <_E_text+0x1382ce0>
    19c8:	79030000 	stmdbvc	r3, {}	; <UNPREDICTABLE>
    19cc:	00004f0b 	andeq	r4, r0, fp, lsl #30
    19d0:	74020000 	strvc	r0, [r2], #-0
    19d4:	03000014 	movweq	r0, #20
    19d8:	01f2027b 	mvnseq	r0, fp, ror r2
    19dc:	14040000 	strne	r0, [r4], #-0
    19e0:	07000002 	streq	r0, [r0, -r2]
    19e4:	057f0304 	ldrbeq	r0, [pc, #-772]!	; 16e8 <_E_text+0x1fc>
    19e8:	00000253 	andeq	r0, r0, r3, asr r2
    19ec:	001af808 	andseq	pc, sl, r8, lsl #16
    19f0:	0f800300 	svceq	0x00800300
    19f4:	0000004f 	andeq	r0, r0, pc, asr #32
    19f8:	02180804 	andseq	r0, r8, #4, 16	; 0x40000
    19fc:	31080023 	tstcc	r8, r3, lsr #32
    1a00:	03000015 	movweq	r0, #21
    1a04:	004f0f81 	subeq	r0, pc, r1, lsl #31
    1a08:	18040000 	stmdane	r4, {}	; <UNPREDICTABLE>
    1a0c:	00230200 	eoreq	r0, r3, r0, lsl #4
    1a10:	03040900 	movweq	r0, #18688	; 0x4900
    1a14:	0275097d 	rsbseq	r0, r5, #2048000	; 0x1f4000
    1a18:	280a0000 	stmdacs	sl, {}	; <UNPREDICTABLE>
    1a1c:	03000027 	movweq	r0, #39	; 0x27
    1a20:	02250683 	eoreq	r0, r5, #137363456	; 0x8300000
    1a24:	4e0a0000 	cdpmi	0, 0, cr0, cr10, cr0, {0}
    1a28:	0300002b 	movweq	r0, #43	; 0x2b
    1a2c:	004f0b85 	subeq	r0, pc, r5, lsl #23
    1a30:	02000000 	andeq	r0, r0, #0
    1a34:	00001810 	andeq	r1, r0, r0, lsl r8
    1a38:	53028703 	movwpl	r8, #9987	; 0x2703
    1a3c:	04000002 	streq	r0, [r0], #-2
    1a40:	00000275 	andeq	r0, r0, r5, ror r2
    1a44:	8c030407 	cfstrshi	mvf0, [r3], {7}
    1a48:	0002b405 	andeq	fp, r2, r5, lsl #8
    1a4c:	139e0800 	orrsne	r0, lr, #0, 16
    1a50:	8d030000 	stchi	0, cr0, [r3, #-0]
    1a54:	00004f0f 	andeq	r4, r0, pc, lsl #30
    1a58:	18080400 	stmdane	r8, {sl}
    1a5c:	08002302 	stmdaeq	r0, {r1, r8, r9, sp}
    1a60:	00001531 	andeq	r1, r0, r1, lsr r5
    1a64:	4f0f8e03 	svcmi	0x000f8e03
    1a68:	04000000 	streq	r0, [r0], #-0
    1a6c:	23020018 	movwcs	r0, #8216	; 0x2018
    1a70:	04090000 	streq	r0, [r9], #-0
    1a74:	d6098a03 	strle	r8, [r9], -r3, lsl #20
    1a78:	0a000002 	beq	1a88 <_E_text+0x59c>
    1a7c:	00002728 	andeq	r2, r0, r8, lsr #14
    1a80:	86069003 	strhi	r9, [r6], -r3
    1a84:	0a000002 	beq	1a94 <_E_text+0x5a8>
    1a88:	00002b4e 	andeq	r2, r0, lr, asr #22
    1a8c:	4f089203 	svcmi	0x00089203
    1a90:	00000000 	andeq	r0, r0, r0
    1a94:	00132102 	andseq	r2, r3, r2, lsl #2
    1a98:	02940300 	addseq	r0, r4, #0, 6
    1a9c:	000002b4 			; <UNDEFINED> instruction: 0x000002b4
    1aa0:	0002d604 	andeq	sp, r2, r4, lsl #12
    1aa4:	03040700 	movweq	r0, #18176	; 0x4700
    1aa8:	03150598 	tsteq	r5, #152, 10	; 0x26000000
    1aac:	fb080000 	blx	201ab6 <_E_text+0x2005ca>
    1ab0:	03000016 	movweq	r0, #22
    1ab4:	004f0f99 	umaaleq	r0, pc, r9, pc	; <UNPREDICTABLE>
    1ab8:	08040000 	stmdaeq	r4, {}	; <UNPREDICTABLE>
    1abc:	00230218 	eoreq	r0, r3, r8, lsl r2
    1ac0:	00153108 	andseq	r3, r5, r8, lsl #2
    1ac4:	0f9a0300 	svceq	0x009a0300
    1ac8:	0000004f 	andeq	r0, r0, pc, asr #32
    1acc:	02001804 	andeq	r1, r0, #4, 16	; 0x40000
    1ad0:	09000023 	stmdbeq	r0, {r0, r1, r5}
    1ad4:	09960304 	ldmibeq	r6, {r2, r8, r9}
    1ad8:	00000337 	andeq	r0, r0, r7, lsr r3
    1adc:	0027280a 	eoreq	r2, r7, sl, lsl #16
    1ae0:	069c0300 	ldreq	r0, [ip], r0, lsl #6
    1ae4:	000002e7 	andeq	r0, r0, r7, ror #5
    1ae8:	002b4e0a 	eoreq	r4, fp, sl, lsl #28
    1aec:	099e0300 	ldmibeq	lr, {r8, r9}
    1af0:	0000004f 	andeq	r0, r0, pc, asr #32
    1af4:	14b30200 	ldrtne	r0, [r3], #512	; 0x200
    1af8:	a0030000 	andge	r0, r3, r0
    1afc:	00031502 	andeq	r1, r3, r2, lsl #10
    1b00:	03370400 	teqeq	r7, #0, 8
    1b04:	04070000 	streq	r0, [r7], #-0
    1b08:	7605b003 	strvc	fp, [r5], -r3
    1b0c:	08000003 	stmdaeq	r0, {r0, r1}
    1b10:	00001837 	andeq	r1, r0, r7, lsr r8
    1b14:	4f0fb103 	svcmi	0x000fb103
    1b18:	04000000 	streq	r0, [r0], #-0
    1b1c:	23021808 	movwcs	r1, #10248	; 0x2808
    1b20:	15310800 	ldrne	r0, [r1, #-2048]!	; 0xfffff800
    1b24:	b2030000 	andlt	r0, r3, #0
    1b28:	00004f0f 	andeq	r4, r0, pc, lsl #30
    1b2c:	00180400 	andseq	r0, r8, r0, lsl #8
    1b30:	00002302 	andeq	r2, r0, r2, lsl #6
    1b34:	ae030409 	cdpge	4, 0, cr0, cr3, cr9, {0}
    1b38:	00039809 	andeq	r9, r3, r9, lsl #16
    1b3c:	27280a00 	strcs	r0, [r8, -r0, lsl #20]!
    1b40:	b3030000 	movwlt	r0, #12288	; 0x3000
    1b44:	00034806 	andeq	r4, r3, r6, lsl #16
    1b48:	2b4e0a00 	blcs	1384350 <_E_text+0x1382e64>
    1b4c:	b5030000 	strlt	r0, [r3, #-0]
    1b50:	00004f0b 	andeq	r4, r0, fp, lsl #30
    1b54:	4d020000 	stcmi	0, cr0, [r2, #-0]
    1b58:	0300001a 	movweq	r0, #26
    1b5c:	037602b7 	cmneq	r6, #1879048203	; 0x7000000b
    1b60:	98040000 	stmdals	r4, {}	; <UNPREDICTABLE>
    1b64:	07000003 	streq	r0, [r0, -r3]
    1b68:	05bc0304 	ldreq	r0, [ip, #772]!	; 0x304
    1b6c:	000003d7 	ldrdeq	r0, [r0], -r7
    1b70:	0038c408 	eorseq	ip, r8, r8, lsl #8
    1b74:	10be0300 	adcsne	r0, lr, r0, lsl #6
    1b78:	0000004f 	andeq	r0, r0, pc, asr #32
    1b7c:	02180804 	andseq	r0, r8, #4, 16	; 0x40000
    1b80:	31080023 	tstcc	r8, r3, lsr #32
    1b84:	03000015 	movweq	r0, #21
    1b88:	004f0fbf 	strheq	r0, [pc], #-255	; <UNPREDICTABLE>
    1b8c:	18040000 	stmdane	r4, {}	; <UNPREDICTABLE>
    1b90:	00230200 	eoreq	r0, r3, r0, lsl #4
    1b94:	03040900 	movweq	r0, #18688	; 0x4900
    1b98:	03f909ba 	mvnseq	r0, #3047424	; 0x2e8000
    1b9c:	280a0000 	stmdacs	sl, {}	; <UNPREDICTABLE>
    1ba0:	03000027 	movweq	r0, #39	; 0x27
    1ba4:	03a906c1 			; <UNDEFINED> instruction: 0x03a906c1
    1ba8:	4e0a0000 	cdpmi	0, 0, cr0, cr10, cr0, {0}
    1bac:	0300002b 	movweq	r0, #43	; 0x2b
    1bb0:	004f0bc3 	subeq	r0, pc, r3, asr #23
    1bb4:	02000000 	andeq	r0, r0, #0
    1bb8:	00001a66 	andeq	r1, r0, r6, ror #20
    1bbc:	d702c503 	strle	ip, [r2, -r3, lsl #10]
    1bc0:	04000003 	streq	r0, [r0], #-3
    1bc4:	000003f9 	strdeq	r0, [r0], -r9
    1bc8:	c8030407 	stmdagt	r3, {r0, r1, r2, sl}
    1bcc:	00043805 	andeq	r3, r4, r5, lsl #16
    1bd0:	1acb0800 	bne	ff2c3bd8 <_E_BSS+0xdf2c1de4>
    1bd4:	c9030000 	stmdbgt	r3, {}	; <UNPREDICTABLE>
    1bd8:	00004f0e 	andeq	r4, r0, lr, lsl #30
    1bdc:	1a060400 	bne	182be4 <_E_text+0x1816f8>
    1be0:	08002302 	stmdaeq	r0, {r1, r8, r9, sp}
    1be4:	00001531 	andeq	r1, r0, r1, lsr r5
    1be8:	4f0eca03 	svcmi	0x000eca03
    1bec:	04000000 	streq	r0, [r0], #-0
    1bf0:	2302001a 	movwcs	r0, #8218	; 0x201a
    1bf4:	04090000 	streq	r0, [r9], #-0
    1bf8:	5a09c703 	bpl	27380c <_E_text+0x272320>
    1bfc:	0a000004 	beq	1c14 <_E_text+0x728>
    1c00:	000019ca 	andeq	r1, r0, sl, asr #19
    1c04:	0a06cd03 	beq	1b5018 <_E_text+0x1b3b2c>
    1c08:	0a000004 	beq	1c20 <_E_text+0x734>
    1c0c:	00002b4e 	andeq	r2, r0, lr, asr #22
    1c10:	4f0bcf03 	svcmi	0x000bcf03
    1c14:	00000000 	andeq	r0, r0, r0
    1c18:	001a5902 	andseq	r5, sl, r2, lsl #18
    1c1c:	02d10300 	sbcseq	r0, r1, #0, 6
    1c20:	00000438 	andeq	r0, r0, r8, lsr r4
    1c24:	dd030407 	cfstrsle	mvf0, [r3, #-28]	; 0xffffffe4
    1c28:	00048205 	andeq	r8, r4, r5, lsl #4
    1c2c:	190b0800 	stmdbne	fp, {fp}
    1c30:	df030000 	svcle	0x00030000
    1c34:	00004f0f 	andeq	r4, r0, pc, lsl #30
    1c38:	18080400 	stmdane	r8, {sl}
    1c3c:	00002302 	andeq	r2, r0, r2, lsl #6
    1c40:	db030409 	blle	c2c6c <_E_text+0xc1780>
    1c44:	0004a409 	andeq	sl, r4, r9, lsl #8
    1c48:	19ca0a00 	stmibne	sl, {r9, fp}^
    1c4c:	e1030000 	mrs	r0, (UNDEF: 3)
    1c50:	00046606 	andeq	r6, r4, r6, lsl #12
    1c54:	2b4e0a00 	blcs	138445c <_E_text+0x1382f70>
    1c58:	e3030000 	movw	r0, #12288	; 0x3000
    1c5c:	00004f0b 	andeq	r4, r0, fp, lsl #30
    1c60:	c6020000 	strgt	r0, [r2], -r0
    1c64:	03000017 	movweq	r0, #23
    1c68:	048202e4 	streq	r0, [r2], #740	; 0x2e4
    1c6c:	a4040000 	strge	r0, [r4], #-0
    1c70:	0b000004 	bleq	1c88 <_E_text+0x79c>
    1c74:	00330107 	eorseq	r0, r3, r7, lsl #2
    1c78:	2a040000 	bcs	101c80 <_E_text+0x100794>
    1c7c:	0004f40e 	andeq	pc, r4, lr, lsl #8
    1c80:	0d790c00 	ldcleq	12, cr0, [r9, #-0]
    1c84:	0c000000 	stceq	0, cr0, [r0], {-0}
    1c88:	00000d86 	andeq	r0, r0, r6, lsl #27
    1c8c:	0d930c01 	ldceq	12, cr0, [r3, #4]
    1c90:	0c020000 	stceq	0, cr0, [r2], {-0}
    1c94:	00000da0 	andeq	r0, r0, r0, lsr #27
    1c98:	0dad0c03 	stceq	12, cr0, [sp, #12]!
    1c9c:	0c040000 	stceq	0, cr0, [r4], {-0}
    1ca0:	00000dba 			; <UNDEFINED> instruction: 0x00000dba
    1ca4:	0dc70c05 	stcleq	12, cr0, [r7, #20]
    1ca8:	0c060000 	stceq	0, cr0, [r6], {-0}
    1cac:	00000dd4 	ldrdeq	r0, [r0], -r4
    1cb0:	df020007 	svcle	0x00020007
    1cb4:	04000014 	streq	r0, [r0], #-20	; 0xffffffec
    1cb8:	04b50235 	ldrteq	r0, [r5], #565	; 0x235
    1cbc:	070b0000 	streq	r0, [fp, -r0]
    1cc0:	00003301 	andeq	r3, r0, r1, lsl #6
    1cc4:	0d380400 	cfldrseq	mvf0, [r8, #-0]
    1cc8:	00000539 	andeq	r0, r0, r9, lsr r5
    1ccc:	000ce60c 	andeq	lr, ip, ip, lsl #12
    1cd0:	f70c0000 			; <UNDEFINED> instruction: 0xf70c0000
    1cd4:	0100000e 	tsteq	r0, lr
    1cd8:	000efd0c 	andeq	pc, lr, ip, lsl #26
    1cdc:	c80c0200 	stmdagt	ip, {r9}
    1ce0:	03000000 	movweq	r0, #0
    1ce4:	0000ce0c 	andeq	ip, r0, ip, lsl #28
    1ce8:	d40c0400 	strle	r0, [ip], #-1024	; 0xfffffc00
    1cec:	05000000 	streq	r0, [r0, #-0]
    1cf0:	000df80c 	andeq	pc, sp, ip, lsl #16
    1cf4:	02000600 	andeq	r0, r0, #0, 12
    1cf8:	0000177e 	andeq	r1, r0, lr, ror r7
    1cfc:	00024104 	andeq	r4, r2, r4, lsl #2
    1d00:	0b000005 	bleq	1d1c <_E_text+0x830>
    1d04:	00330107 	eorseq	r0, r3, r7, lsl #2
    1d08:	44040000 	strmi	r0, [r4], #-0
    1d0c:	00056c0d 	andeq	r6, r5, sp, lsl #24
    1d10:	13710c00 	cmnne	r1, #0, 24
    1d14:	0c000000 	stceq	0, cr0, [r0], {-0}
    1d18:	00003102 	andeq	r3, r0, r2, lsl #2
    1d1c:	194e0c01 	stmdbne	lr, {r0, sl, fp}^
    1d20:	0c000000 	stceq	0, cr0, [r0], {-0}
    1d24:	000014c2 	andeq	r1, r0, r2, asr #9
    1d28:	11020001 	tstne	r2, r1
    1d2c:	04000013 	streq	r0, [r0], #-19	; 0xffffffed
    1d30:	0545024a 	strbeq	r0, [r5, #-586]	; 0xfffffdb6
    1d34:	070b0000 	streq	r0, [fp, -r0]
    1d38:	00003301 	andeq	r3, r0, r1, lsl #6
    1d3c:	0e4d0400 	cdpeq	4, 4, cr0, cr13, cr0, {0}
    1d40:	00000593 	muleq	r0, r3, r5
    1d44:	00062e0c 	andeq	r2, r6, ip, lsl #28
    1d48:	1d0c0000 	stcne	0, cr0, [ip, #-0]
    1d4c:	01000009 	tsteq	r0, r9
    1d50:	168d0200 	strne	r0, [sp], r0, lsl #4
    1d54:	50040000 	andpl	r0, r4, r0
    1d58:	00057802 	andeq	r7, r5, r2, lsl #16
    1d5c:	01070b00 	tsteq	r7, r0, lsl #22
    1d60:	00000033 	andeq	r0, r0, r3, lsr r0
    1d64:	ba0d5304 	blt	35697c <_E_text+0x355490>
    1d68:	0c000005 	stceq	0, cr0, [r0], {5}
    1d6c:	000018ed 	andeq	r1, r0, sp, ror #17
    1d70:	13f90c00 	mvnsne	r0, #0, 24
    1d74:	00010000 	andeq	r0, r1, r0
    1d78:	0014ce02 	andseq	ip, r4, r2, lsl #28
    1d7c:	02560400 	subseq	r0, r6, #0, 8
    1d80:	0000059f 	muleq	r0, pc, r5	; <UNPREDICTABLE>
    1d84:	3301070b 	movwcc	r0, #5899	; 0x170b
    1d88:	04000000 	streq	r0, [r0], #-0
    1d8c:	05e10d58 	strbeq	r0, [r1, #3416]!	; 0xd58
    1d90:	890c0000 	stmdbhi	ip, {}	; <UNPREDICTABLE>
    1d94:	0000001a 	andeq	r0, r0, sl, lsl r0
    1d98:	0015dd0c 	andseq	sp, r5, ip, lsl #26
    1d9c:	02000100 	andeq	r0, r0, #0, 2
    1da0:	0000153a 	andeq	r1, r0, sl, lsr r5
    1da4:	c6025b04 	strgt	r5, [r2], -r4, lsl #22
    1da8:	0b000005 	bleq	1dc4 <_E_text+0x8d8>
    1dac:	00330107 	eorseq	r0, r3, r7, lsl #2
    1db0:	5e040000 	cdppl	0, 0, cr0, cr4, cr0, {0}
    1db4:	00065c0d 	andeq	r5, r6, sp, lsl #24
    1db8:	185c0c00 	ldmdane	ip, {sl, fp}^
    1dbc:	0c000000 	stceq	0, cr0, [r0], {-0}
    1dc0:	00001867 	andeq	r1, r0, r7, ror #16
    1dc4:	18720c01 	ldmdane	r2!, {r0, sl, fp}^
    1dc8:	0c020000 	stceq	0, cr0, [r2], {-0}
    1dcc:	0000187d 	andeq	r1, r0, sp, ror r8
    1dd0:	18880c03 	stmne	r8, {r0, r1, sl, fp}
    1dd4:	0c040000 	stceq	0, cr0, [r4], {-0}
    1dd8:	00001893 	muleq	r0, r3, r8
    1ddc:	189e0c05 	ldmne	lr, {r0, r2, sl, fp}
    1de0:	0c060000 	stceq	0, cr0, [r6], {-0}
    1de4:	000018a9 	andeq	r1, r0, r9, lsr #17
    1de8:	18b40c07 	ldmne	r4!, {r0, r1, r2, sl, fp}
    1dec:	0c080000 	stceq	0, cr0, [r8], {-0}
    1df0:	000018bf 			; <UNDEFINED> instruction: 0x000018bf
    1df4:	15ad0c09 	strne	r0, [sp, #3081]!	; 0xc09
    1df8:	0c0a0000 	stceq	0, cr0, [sl], {-0}
    1dfc:	00001365 	andeq	r1, r0, r5, ror #6
    1e00:	15b90c0b 	ldrne	r0, [r9, #3083]!	; 0xc0b
    1e04:	0c0c0000 	stceq	0, cr0, [ip], {-0}
    1e08:	000015c5 	andeq	r1, r0, r5, asr #11
    1e0c:	15d10c0d 	ldrbne	r0, [r1, #3085]	; 0xc0d
    1e10:	0c0e0000 	stceq	0, cr0, [lr], {-0}
    1e14:	000019cf 	andeq	r1, r0, pc, asr #19
    1e18:	4c02000f 	stcmi	0, cr0, [r2], {15}
    1e1c:	04000017 	streq	r0, [r0], #-23	; 0xffffffe9
    1e20:	05ed026f 	strbeq	r0, [sp, #623]!	; 0x26f
    1e24:	070b0000 	streq	r0, [fp, -r0]
    1e28:	00003301 	andeq	r3, r0, r1, lsl #6
    1e2c:	0d720400 	cfldrdeq	mvd0, [r2, #-0]
    1e30:	00000683 	andeq	r0, r0, r3, lsl #13
    1e34:	0015ea0c 	andseq	lr, r5, ip, lsl #20
    1e38:	5b0c0000 	blpl	301e40 <_E_text+0x300954>
    1e3c:	01000015 	tsteq	r0, r5, lsl r0
    1e40:	165d0200 	ldrbne	r0, [sp], -r0, lsl #4
    1e44:	75040000 	strvc	r0, [r4, #-0]
    1e48:	00066802 	andeq	r6, r6, r2, lsl #16
    1e4c:	01070b00 	tsteq	r7, r0, lsl #22
    1e50:	00000033 	andeq	r0, r0, r3, lsr r0
    1e54:	aa0d7e04 	bge	36166c <_E_text+0x360180>
    1e58:	0c000006 	stceq	0, cr0, [r0], {6}
    1e5c:	000017d2 	ldrdeq	r1, [r0], -r2
    1e60:	14680c00 	strbtne	r0, [r8], #-3072	; 0xfffff400
    1e64:	00010000 	andeq	r0, r1, r0
    1e68:	00196e02 	andseq	r6, r9, r2, lsl #28
    1e6c:	02810400 	addeq	r0, r1, #0, 8
    1e70:	0000068f 	andeq	r0, r0, pc, lsl #13
    1e74:	3301070b 	movwcc	r0, #5899	; 0x170b
    1e78:	04000000 	streq	r0, [r0], #-0
    1e7c:	06d10d84 	ldrbeq	r0, [r1], r4, lsl #27
    1e80:	7e0c0000 	cdpvc	0, 0, cr0, cr12, cr0, {0}
    1e84:	00000019 	andeq	r0, r0, r9, lsl r0
    1e88:	0017360c 	andseq	r3, r7, ip, lsl #12
    1e8c:	02000100 	andeq	r0, r0, #0, 2
    1e90:	00001a34 	andeq	r1, r0, r4, lsr sl
    1e94:	b6028704 	strlt	r8, [r2], -r4, lsl #14
    1e98:	07000006 	streq	r0, [r0, -r6]
    1e9c:	09a10403 	stmibeq	r1!, {r0, r1, sl}
    1ea0:	00000714 	andeq	r0, r0, r4, lsl r7
    1ea4:	00143d0d 	andseq	r3, r4, sp, lsl #26
    1ea8:	1ca20400 	cfstrsne	mvf0, [r2]
    1eac:	00000539 	andeq	r0, r0, r9, lsr r5
    1eb0:	0d002302 	stceq	3, cr2, [r0, #-8]
    1eb4:	00001599 	muleq	r0, r9, r5
    1eb8:	f420a304 	vld2.8	{d10-d13}, [r0], r4
    1ebc:	02000004 	andeq	r0, r0, #4
    1ec0:	f30d0123 	vrhadd.u8	d0, d13, d19
    1ec4:	04000019 	streq	r0, [r0], #-25	; 0xffffffe7
    1ec8:	00270aa4 	eoreq	r0, r7, r4, lsr #21
    1ecc:	23020000 	movwcs	r0, #8192	; 0x2000
    1ed0:	dd0e0002 	stcle	0, cr0, [lr, #-8]
    1ed4:	02000006 	andeq	r0, r0, #6
    1ed8:	00001ab1 			; <UNDEFINED> instruction: 0x00001ab1
    1edc:	1408a504 	strne	sl, [r8], #-1284	; 0xfffffafc
    1ee0:	07000007 	streq	r0, [r0, -r7]
    1ee4:	09b00403 	ldmibeq	r0!, {r0, r1, sl}
    1ee8:	0000075c 	andeq	r0, r0, ip, asr r7
    1eec:	00143d0d 	andseq	r3, r4, sp, lsl #26
    1ef0:	1cb10400 	cfldrsne	mvf0, [r1]
    1ef4:	00000539 	andeq	r0, r0, r9, lsr r5
    1ef8:	0d002302 	stceq	3, cr2, [r0, #-8]
    1efc:	000016a0 	andeq	r1, r0, r0, lsr #13
    1f00:	f420b204 	vld1.8	{d11-d14}, [r0], r4
    1f04:	02000004 	andeq	r0, r0, #4
    1f08:	180d0123 	stmdane	sp, {r0, r1, r5, r8}
    1f0c:	04000019 	streq	r0, [r0], #-25	; 0xffffffe7
    1f10:	04f420b3 	ldrbteq	r2, [r4], #179	; 0xb3
    1f14:	23020000 	movwcs	r0, #8192	; 0x2000
    1f18:	250e0002 	strcs	r0, [lr, #-2]
    1f1c:	02000007 	andeq	r0, r0, #7
    1f20:	00001925 	andeq	r1, r0, r5, lsr #18
    1f24:	5c08b404 	cfstrspl	mvf11, [r8], {4}
    1f28:	07000007 	streq	r0, [r0, -r7]
    1f2c:	09b80402 	ldmibeq	r8!, {r1, sl}
    1f30:	00000795 	muleq	r0, r5, r7
    1f34:	00143d0d 	andseq	r3, r4, sp, lsl #26
    1f38:	1cba0400 	cfldrsne	mvf0, [sl]
    1f3c:	00000539 	andeq	r0, r0, r9, lsr r5
    1f40:	0d002302 	stceq	3, cr2, [r0, #-8]
    1f44:	00001599 	muleq	r0, r9, r5
    1f48:	f420bb04 			; <UNDEFINED> instruction: 0xf420bb04
    1f4c:	02000004 	andeq	r0, r0, #4
    1f50:	02000123 	andeq	r0, r0, #-1073741816	; 0xc0000008
    1f54:	0000195a 	andeq	r1, r0, sl, asr r9
    1f58:	6d03bc04 	stcvs	12, cr11, [r3, #-16]
    1f5c:	03000007 	movweq	r0, #7
    1f60:	052c0704 	streq	r0, [ip, #-1796]!	; 0xfffff8fc
    1f64:	04050000 	streq	r0, [r5], #-0
    1f68:	00000719 	andeq	r0, r0, r9, lsl r7
    1f6c:	07610405 	strbeq	r0, [r1, -r5, lsl #8]!
    1f70:	040f0000 	streq	r0, [pc], #-0	; 1f78 <_E_text+0xa8c>
    1f74:	746e6905 	strbtvc	r6, [lr], #-2309	; 0xfffff6fb
    1f78:	05080300 	streq	r0, [r8, #-768]	; 0xfffffd00
    1f7c:	00000803 	andeq	r0, r0, r3, lsl #16
    1f80:	ac040803 	stcge	8, cr0, [r4], {3}
    1f84:	03000009 	movweq	r0, #9
    1f88:	0d1d0801 	ldceq	8, cr0, [sp, #-4]
    1f8c:	94100000 	ldrls	r0, [r0], #-0
    1f90:	e0000000 	and	r0, r0, r0
    1f94:	11000007 	tstne	r0, r7
    1f98:	000007a1 	andeq	r0, r0, r1, lsr #15
    1f9c:	d0040005 	andle	r0, r4, r5
    1fa0:	12000007 	andne	r0, r0, #7
    1fa4:	000012d8 	ldrdeq	r1, [r0], -r8
    1fa8:	e0224301 	eor	r4, r2, r1, lsl #6
    1fac:	05000007 	streq	r0, [r0, #-7]
    1fb0:	000d0403 	andeq	r0, sp, r3, lsl #8
    1fb4:	08121020 	ldmdaeq	r2, {r5, ip}
    1fb8:	08070000 	stmdaeq	r7, {}	; <UNPREDICTABLE>
    1fbc:	a1110000 	tstge	r1, r0
    1fc0:	05000007 	streq	r0, [r0, #-7]
    1fc4:	07f70e00 	ldrbeq	r0, [r7, r0, lsl #28]!
    1fc8:	04050000 	streq	r0, [r5], #-0
    1fcc:	00000281 	andeq	r0, r0, r1, lsl #5
    1fd0:	00080c0e 	andeq	r0, r8, lr, lsl #24
    1fd4:	16101300 	ldrne	r1, [r0], -r0, lsl #6
    1fd8:	13010000 	movwne	r0, #4096	; 0x1000
    1fdc:	08072c01 	stmdaeq	r7, {r0, sl, fp, sp}
    1fe0:	03050000 	movweq	r0, #20480	; 0x5000
    1fe4:	0000031c 	andeq	r0, r0, ip, lsl r3
    1fe8:	00084510 	andeq	r4, r8, r0, lsl r5
    1fec:	00083a00 	andeq	r3, r8, r0, lsl #20
    1ff0:	07a11100 	streq	r1, [r1, r0, lsl #2]!
    1ff4:	00050000 	andeq	r0, r5, r0
    1ff8:	00082a0e 	andeq	r2, r8, lr, lsl #20
    1ffc:	43040500 	movwmi	r0, #17664	; 0x4500
    2000:	0e000003 	cdpeq	0, 0, cr0, cr0, cr3, {0}
    2004:	0000083f 	andeq	r0, r0, pc, lsr r8
    2008:	00199313 	andseq	r9, r9, r3, lsl r3
    200c:	012a0100 			; <UNDEFINED> instruction: 0x012a0100
    2010:	00083a27 	andeq	r3, r8, r7, lsr #20
    2014:	34030500 	strcc	r0, [r3], #-1280	; 0xfffffb00
    2018:	10000003 	andne	r0, r0, r3
    201c:	00000878 	andeq	r0, r0, r8, ror r8
    2020:	0000086d 	andeq	r0, r0, sp, ror #16
    2024:	0007a111 	andeq	sl, r7, r1, lsl r1
    2028:	0e000500 	cfsh32eq	mvfx0, mvfx0, #0
    202c:	0000085d 	andeq	r0, r0, sp, asr r8
    2030:	00fd0405 	rscseq	r0, sp, r5, lsl #8
    2034:	720e0000 	andvc	r0, lr, #0
    2038:	13000008 	movwne	r0, #8
    203c:	00001795 	muleq	r0, r5, r7
    2040:	31013f01 	tstcc	r1, r1, lsl #30
    2044:	0000086d 	andeq	r0, r0, sp, ror #16
    2048:	034c0305 	movteq	r0, #49925	; 0xc305
    204c:	ab100000 	blge	402054 <_E_text+0x400b68>
    2050:	a0000008 	andge	r0, r0, r8
    2054:	11000008 	tstne	r0, r8
    2058:	000007a1 	andeq	r0, r0, r1, lsr #15
    205c:	900e0005 	andls	r0, lr, r5
    2060:	05000008 	streq	r0, [r0, #-8]
    2064:	00015e04 	andeq	r5, r1, r4, lsl #28
    2068:	08a50e00 	stmiaeq	r5!, {r9, sl, fp}
    206c:	3e130000 	cdpcc	0, 1, cr0, cr3, cr0, {0}
    2070:	01000018 	tsteq	r0, r8, lsl r0
    2074:	a0310162 	eorsge	r0, r1, r2, ror #2
    2078:	05000008 	streq	r0, [r0, #-8]
    207c:	00036403 	andeq	r6, r3, r3, lsl #8
    2080:	08de1000 	ldmeq	lr, {ip}^
    2084:	08d30000 	ldmeq	r3, {}^	; <UNPREDICTABLE>
    2088:	a1110000 	tstge	r1, r0
    208c:	05000007 	streq	r0, [r0, #-7]
    2090:	08c30e00 	stmiaeq	r3, {r9, sl, fp}^
    2094:	04050000 	streq	r0, [r5], #-0
    2098:	000001bf 			; <UNDEFINED> instruction: 0x000001bf
    209c:	0008d80e 	andeq	sp, r8, lr, lsl #16
    20a0:	16bf1300 	ldrtne	r1, [pc], r0, lsl #6
    20a4:	78010000 	stmdavc	r1, {}	; <UNPREDICTABLE>
    20a8:	08d33001 	ldmeq	r3, {r0, ip, sp}^
    20ac:	03050000 	movweq	r0, #20480	; 0x5000
    20b0:	0000037c 	andeq	r0, r0, ip, ror r3
    20b4:	00091110 	andeq	r1, r9, r0, lsl r1
    20b8:	00090600 	andeq	r0, r9, r0, lsl #12
    20bc:	07a11100 	streq	r1, [r1, r0, lsl #2]!
    20c0:	00050000 	andeq	r0, r5, r0
    20c4:	0008f60e 	andeq	pc, r8, lr, lsl #12
    20c8:	20040500 	andcs	r0, r4, r0, lsl #10
    20cc:	0e000002 	cdpeq	0, 0, cr0, cr0, cr2, {0}
    20d0:	0000090b 	andeq	r0, r0, fp, lsl #18
    20d4:	0013ac13 	andseq	sl, r3, r3, lsl ip
    20d8:	018e0100 	orreq	r0, lr, r0, lsl #2
    20dc:	00090628 	andeq	r0, r9, r8, lsr #12
    20e0:	94030500 	strls	r0, [r3], #-1280	; 0xfffffb00
    20e4:	10000003 	andne	r0, r0, r3
    20e8:	00000944 	andeq	r0, r0, r4, asr #18
    20ec:	00000939 	andeq	r0, r0, r9, lsr r9
    20f0:	0007a111 	andeq	sl, r7, r1, lsl r1
    20f4:	0e000500 	cfsh32eq	mvfx0, mvfx0, #0
    20f8:	00000929 	andeq	r0, r0, r9, lsr #18
    20fc:	02e20405 	rsceq	r0, r2, #83886080	; 0x5000000
    2100:	3e0e0000 	cdpcc	0, 0, cr0, cr14, cr0, {0}
    2104:	13000009 	movwne	r0, #9
    2108:	00001670 	andeq	r1, r0, r0, ror r6
    210c:	3101a501 	tstcc	r1, r1, lsl #10
    2110:	00000939 	andeq	r0, r0, r9, lsr r9
    2114:	03ac0305 			; <UNDEFINED> instruction: 0x03ac0305
    2118:	77100000 	ldrvc	r0, [r0, -r0]
    211c:	6c000009 	stcvs	0, cr0, [r0], {9}
    2120:	11000009 	tstne	r0, r9
    2124:	000007a1 	andeq	r0, r0, r1, lsr #15
    2128:	5c0e0005 	stcpl	0, cr0, [lr], {5}
    212c:	05000009 	streq	r0, [r0, #-9]
    2130:	00005b04 	andeq	r5, r0, r4, lsl #22
    2134:	09710e00 	ldmdbeq	r1!, {r9, sl, fp}^
    2138:	4d130000 	ldcmi	0, cr0, [r3, #-0]
    213c:	01000014 	tsteq	r0, r4, lsl r0
    2140:	6c2001bb 	stfvss	f0, [r0], #-748	; 0xfffffd14
    2144:	05000009 	streq	r0, [r0, #-9]
    2148:	0003c403 	andeq	ip, r3, r3, lsl #8
    214c:	14291300 	strtne	r1, [r9], #-768	; 0xfffffd00
    2150:	d1010000 	mrsle	r0, (UNDEF: 1)
    2154:	096c1f01 	stmdbeq	ip!, {r0, r8, r9, sl, fp, ip}^
    2158:	03050000 	movweq	r0, #20480	; 0x5000
    215c:	000003dc 	ldrdeq	r0, [r0], -ip
    2160:	0009bd10 	andeq	fp, r9, r0, lsl sp
    2164:	0009b200 	andeq	fp, r9, r0, lsl #4
    2168:	07a11100 	streq	r1, [r1, r0, lsl #2]!
    216c:	00050000 	andeq	r0, r5, r0
    2170:	0009a20e 	andeq	sl, r9, lr, lsl #4
    2174:	a4040500 	strge	r0, [r4], #-1280	; 0xfffffb00
    2178:	0e000003 	cdpeq	0, 0, cr0, cr0, cr3, {0}
    217c:	000009b7 			; <UNDEFINED> instruction: 0x000009b7
    2180:	0016dc13 	andseq	sp, r6, r3, lsl ip
    2184:	01e70100 	mvneq	r0, r0, lsl #2
    2188:	0009b224 	andeq	fp, r9, r4, lsr #4
    218c:	f4030500 	vst3.8	{d0,d2,d4}, [r3], r0
    2190:	10000003 	andne	r0, r0, r3
    2194:	000009f0 	strdeq	r0, [r0], -r0	; <UNPREDICTABLE>
    2198:	000009e5 	andeq	r0, r0, r5, ror #19
    219c:	0007a111 	andeq	sl, r7, r1, lsl r1
    21a0:	0e000500 	cfsh32eq	mvfx0, mvfx0, #0
    21a4:	000009d5 	ldrdeq	r0, [r0], -r5
    21a8:	04050405 	streq	r0, [r5], #-1029	; 0xfffffbfb
    21ac:	ea0e0000 	b	3821b4 <_E_text+0x380cc8>
    21b0:	13000009 	movwne	r0, #9
    21b4:	0000163f 	andeq	r1, r0, pc, lsr r6
    21b8:	2601fd01 	strcs	pc, [r1], -r1, lsl #26
    21bc:	000009e5 	andeq	r0, r0, r5, ror #19
    21c0:	040c0305 	streq	r0, [ip], #-773	; 0xfffffcfb
    21c4:	23100000 	tstcs	r0, #0
    21c8:	1800000a 	stmdane	r0, {r1, r3}
    21cc:	1100000a 	tstne	r0, sl
    21d0:	000007a1 	andeq	r0, r0, r1, lsr #15
    21d4:	080e0005 	stmdaeq	lr, {r0, r2}
    21d8:	0500000a 	streq	r0, [r0, #-10]
    21dc:	0004b004 	andeq	fp, r4, r4
    21e0:	0a1d0e00 	beq	7459e8 <_E_text+0x7444fc>
    21e4:	73130000 	tstvc	r3, #0
    21e8:	0100001a 	tsteq	r0, sl, lsl r0
    21ec:	1824020a 	stmdane	r4!, {r1, r3, r9}
    21f0:	0500000a 	streq	r0, [r0, #-10]
    21f4:	00042403 	andeq	r2, r4, r3, lsl #8
    21f8:	00671000 	rsbeq	r1, r7, r0
    21fc:	0a4b0000 	beq	12c2204 <_E_text+0x12c0d18>
    2200:	a1110000 	tstge	r1, r0
    2204:	05000007 	streq	r0, [r0, #-7]
    2208:	0a3b0400 	beq	ec3210 <_E_text+0xec1d24>
    220c:	db140000 	blle	502214 <_E_text+0x500d28>
    2210:	01000019 	tsteq	r0, r9, lsl r0
    2214:	4b180214 	blmi	602a6c <_E_text+0x601580>
    2218:	0100000a 	tsteq	r0, sl
    221c:	00240305 	eoreq	r0, r4, r5, lsl #6
    2220:	01152000 	tsteq	r5, r0
    2224:	000038fb 	strdeq	r3, [r0], -fp
    2228:	06037e01 	streq	r7, [r3], -r1, lsl #28
    222c:	00000001 	andeq	r0, r0, r1
    2230:	00000000 	andeq	r0, r0, r0
    2234:	00073400 	andeq	r3, r7, r0, lsl #8
    2238:	0aa10100 	beq	fe842640 <_E_BSS+0xde84084c>
    223c:	3d160000 	ldccc	0, cr0, [r6, #-0]
    2240:	01000014 	tsteq	r0, r4, lsl r0
    2244:	3936037e 	ldmdbcc	r6!, {r1, r2, r3, r4, r5, r6, r8, r9}
    2248:	02000005 	andeq	r0, r0, #5
    224c:	81167791 			; <UNDEFINED> instruction: 0x81167791
    2250:	01000008 	tsteq	r0, r8
    2254:	8855037e 	ldmdahi	r5, {r1, r2, r3, r4, r5, r6, r8, r9}^
    2258:	02000000 	andeq	r0, r0, #0
    225c:	17007091 			; <UNDEFINED> instruction: 0x17007091
    2260:	00134f01 	andseq	r4, r3, r1, lsl #30
    2264:	036e0100 	cmneq	lr, #0, 2
    2268:	00000106 	andeq	r0, r0, r6, lsl #2
    226c:	00000000 	andeq	r0, r0, r0
    2270:	07900000 	ldreq	r0, [r0, r0]
    2274:	ce010000 	cdpgt	0, 0, cr0, cr1, cr0, {0}
    2278:	1600000a 	strne	r0, [r0], -sl
    227c:	000013d4 	ldrdeq	r1, [r0], -r4
    2280:	36036e01 	strcc	r6, [r3], -r1, lsl #28
    2284:	000007ae 	andeq	r0, r0, lr, lsr #15
    2288:	00749102 	rsbseq	r9, r4, r2, lsl #2
    228c:	14130117 	ldrne	r0, [r3], #-279	; 0xfffffee9
    2290:	46010000 	strmi	r0, [r1], -r0
    2294:	00010603 	andeq	r0, r1, r3, lsl #12
    2298:	00000000 	andeq	r0, r0, r0
    229c:	e0000000 	and	r0, r0, r0
    22a0:	01000007 	tsteq	r0, r7
    22a4:	00000afb 	strdeq	r0, [r0], -fp
    22a8:	0012fb16 	andseq	pc, r2, r6, lsl fp	; <UNPREDICTABLE>
    22ac:	03460100 	movteq	r0, #24832	; 0x6100
    22b0:	0007a838 	andeq	sl, r7, r8, lsr r8
    22b4:	74910200 	ldrvc	r0, [r1], #512	; 0x200
    22b8:	29011500 	stmdbcs	r1, {r8, sl, ip}
    22bc:	01000016 	tsteq	r0, r6, lsl r0
    22c0:	01060334 	tsteq	r6, r4, lsr r3
    22c4:	000010bc 	strheq	r1, [r0], -ip
    22c8:	00001140 	andeq	r1, r0, r0, asr #2
    22cc:	00000830 	andeq	r0, r0, r0, lsr r8
    22d0:	000b4801 	andeq	r4, fp, r1, lsl #16
    22d4:	39c91600 	stmibcc	r9, {r9, sl, ip}^
    22d8:	34010000 	strcc	r0, [r1], #-0
    22dc:	04f43703 	ldrbteq	r3, [r4], #1795	; 0x703
    22e0:	91020000 	mrsls	r0, (UNDEF: 2)
    22e4:	143d1677 	ldrtne	r1, [sp], #-1655	; 0xfffff989
    22e8:	34010000 	strcc	r0, [r1], #-0
    22ec:	05395a03 	ldreq	r5, [r9, #-2563]!	; 0xfffff5fd
    22f0:	91020000 	mrsls	r0, (UNDEF: 2)
    22f4:	17b31676 			; <UNDEFINED> instruction: 0x17b31676
    22f8:	34010000 	strcc	r0, [r1], #-0
    22fc:	05937f03 	ldreq	r7, [r3, #3843]	; 0xf03
    2300:	91020000 	mrsls	r0, (UNDEF: 2)
    2304:	01180075 	tsteq	r8, r5, ror r0
    2308:	000019ba 			; <UNDEFINED> instruction: 0x000019ba
    230c:	07032e01 	streq	r2, [r3, -r1, lsl #28]
    2310:	00004f01 	andeq	r4, r0, r1, lsl #30
	...
    231c:	00088c00 	andeq	r8, r8, r0, lsl #24
    2320:	0b890100 	bleq	fe242728 <_E_BSS+0xde240934>
    2324:	c9160000 	ldmdbgt	r6, {}	; <UNPREDICTABLE>
    2328:	01000039 	tsteq	r0, r9, lsr r0
    232c:	f437032e 			; <UNDEFINED> instruction: 0xf437032e
    2330:	02000004 	andeq	r0, r0, #4
    2334:	3d167791 	ldccc	7, cr7, [r6, #-580]	; 0xfffffdbc
    2338:	01000014 	tsteq	r0, r4, lsl r0
    233c:	395a032e 	ldmdbcc	sl, {r1, r2, r3, r5, r8, r9}^
    2340:	02000005 	andeq	r0, r0, #5
    2344:	15007691 	strne	r7, [r0, #-1681]	; 0xfffff96f
    2348:	00133801 	andseq	r3, r3, r1, lsl #16
    234c:	03270100 			; <UNDEFINED> instruction: 0x03270100
    2350:	00000106 	andeq	r0, r0, r6, lsl #2
    2354:	00000000 	andeq	r0, r0, r0
    2358:	08e80000 	stmiaeq	r8!, {}^	; <UNPREDICTABLE>
    235c:	c6010000 	strgt	r0, [r1], -r0
    2360:	1600000b 	strne	r0, [r0], -fp
    2364:	000039c9 	andeq	r3, r0, r9, asr #19
    2368:	38032701 	stmdacc	r3, {r0, r8, r9, sl, sp}
    236c:	000004f4 	strdeq	r0, [r0], -r4
    2370:	16779102 	ldrbtne	r9, [r7], -r2, lsl #2
    2374:	0000143d 	andeq	r1, r0, sp, lsr r4
    2378:	5b032701 	blpl	cbf84 <_E_text+0xcaa98>
    237c:	00000539 	andeq	r0, r0, r9, lsr r5
    2380:	00769102 	rsbseq	r9, r6, r2, lsl #2
    2384:	18ca0117 	stmiane	sl, {r0, r1, r2, r4, r8}^
    2388:	14010000 	strne	r0, [r1], #-0
    238c:	58010603 	stmdapl	r1, {r0, r1, r9, sl}
    2390:	bc000010 	stclt	0, cr0, [r0], {16}
    2394:	44000010 	strmi	r0, [r0], #-16
    2398:	01000009 	tsteq	r0, r9
    239c:	00000bf3 	strdeq	r0, [r0], -r3
    23a0:	0018fb16 	andseq	pc, r8, r6, lsl fp	; <UNPREDICTABLE>
    23a4:	03140100 	tsteq	r4, #0, 2
    23a8:	000bf332 	andeq	pc, fp, r2, lsr r3	; <UNPREDICTABLE>
    23ac:	74910200 	ldrvc	r0, [r1], #512	; 0x200
    23b0:	95040500 	strls	r0, [r4, #-1280]	; 0xfffffb00
    23b4:	15000007 	strne	r0, [r0, #-7]
    23b8:	00182301 	andseq	r2, r8, r1, lsl #6
    23bc:	030e0100 	movweq	r0, #57600	; 0xe100
    23c0:	100c0106 	andne	r0, ip, r6, lsl #2
    23c4:	10580000 	subsne	r0, r8, r0
    23c8:	09940000 	ldmibeq	r4, {}	; <UNPREDICTABLE>
    23cc:	36010000 	strcc	r0, [r1], -r0
    23d0:	1600000c 	strne	r0, [r0], -ip
    23d4:	0000143d 	andeq	r1, r0, sp, lsr r4
    23d8:	31030e01 	tstcc	r3, r1, lsl #28
    23dc:	00000539 	andeq	r0, r0, r9, lsr r5
    23e0:	16779102 	ldrbtne	r9, [r7], -r2, lsl #2
    23e4:	00001599 	muleq	r0, r9, r5
    23e8:	5d030e01 	stcpl	14, cr0, [r3, #-4]
    23ec:	000004f4 	strdeq	r0, [r0], -r4
    23f0:	00769102 	rsbseq	r9, r6, r2, lsl #2
    23f4:	1aed0115 	bne	ffb42850 <_E_BSS+0xdfb40a5c>
    23f8:	fa010000 	blx	42400 <_E_text+0x40f14>
    23fc:	7c010602 	stcvc	6, cr0, [r1], {2}
    2400:	0c00000f 	stceq	0, cr0, [r0], {15}
    2404:	f0000010 			; <UNDEFINED> instruction: 0xf0000010
    2408:	01000009 	tsteq	r0, r9
    240c:	00000c83 	andeq	r0, r0, r3, lsl #25
    2410:	00143d16 	andseq	r3, r4, r6, lsl sp
    2414:	02fa0100 	rscseq	r0, sl, #0, 2
    2418:	00053932 	andeq	r3, r5, r2, lsr r9
    241c:	77910200 	ldrvc	r0, [r1, r0, lsl #4]
    2420:	00159916 	andseq	r9, r5, r6, lsl r9
    2424:	02fa0100 	rscseq	r0, sl, #0, 2
    2428:	0004f45e 	andeq	pc, r4, lr, asr r4	; <UNPREDICTABLE>
    242c:	76910200 	ldrvc	r0, [r1], r0, lsl #4
    2430:	00149216 	andseq	r9, r4, r6, lsl r2
    2434:	02fa0100 	rscseq	r0, sl, #0, 2
    2438:	00056c83 	andeq	r6, r5, r3, lsl #25
    243c:	75910200 	ldrvc	r0, [r1, #512]	; 0x200
    2440:	9b011700 	blls	48048 <_E_text+0x46b5c>
    2444:	01000014 	tsteq	r0, r4, lsl r0
    2448:	010602ec 	smlatteq	r6, ip, r2, r0
    244c:	00000f20 	andeq	r0, r0, r0, lsr #30
    2450:	00000f7a 	andeq	r0, r0, sl, ror pc
    2454:	00000a4c 	andeq	r0, r0, ip, asr #20
    2458:	000cb001 	andeq	fp, ip, r1
    245c:	18fb1600 	ldmne	fp!, {r9, sl, ip}^
    2460:	ec010000 	stc	0, cr0, [r1], {-0}
    2464:	0bf33302 	bleq	ffccf074 <_E_BSS+0xdfccd280>
    2468:	91020000 	mrsls	r0, (UNDEF: 2)
    246c:	01150074 	tsteq	r5, r4, ror r0
    2470:	000017f4 	strdeq	r1, [r0], -r4
    2474:	0602d801 	streq	sp, [r2], -r1, lsl #16
    2478:	00000001 	andeq	r0, r0, r1
    247c:	00000000 	andeq	r0, r0, r0
    2480:	000a9c00 	andeq	r9, sl, r0, lsl #24
    2484:	0cfd0100 	ldfeqe	f0, [sp]
    2488:	3d160000 	ldccc	0, cr0, [r6, #-0]
    248c:	01000014 	tsteq	r0, r4, lsl r0
    2490:	393902d8 	ldmdbcc	r9!, {r3, r4, r6, r7, r9}
    2494:	02000005 	andeq	r0, r0, #5
    2498:	99167791 	ldmdbls	r6, {r0, r4, r7, r8, r9, sl, ip, sp, lr}
    249c:	01000015 	tsteq	r0, r5, lsl r0
    24a0:	f46502d8 	vld1.64	{d16-d19}, [r5 :64], r8
    24a4:	02000004 	andeq	r0, r0, #4
    24a8:	18167691 	ldmdane	r6, {r0, r4, r7, r9, sl, ip, sp, lr}
    24ac:	0100001a 	tsteq	r0, sl, lsl r0
    24b0:	d19302d8 			; <UNDEFINED> instruction: 0xd19302d8
    24b4:	02000006 	andeq	r0, r0, #6
    24b8:	15007591 	strne	r7, [r0, #-1425]	; 0xfffffa6f
    24bc:	0012c001 	andseq	ip, r2, r1
    24c0:	02d20100 	sbcseq	r0, r2, #0, 2
    24c4:	00000106 	andeq	r0, r0, r6, lsl #2
    24c8:	00000000 	andeq	r0, r0, r0
    24cc:	0af80000 	beq	ffe024d4 <_E_BSS+0xdfe006e0>
    24d0:	3a010000 	bcc	424d8 <_E_text+0x40fec>
    24d4:	1600000d 	strne	r0, [r0], -sp
    24d8:	0000143d 	andeq	r1, r0, sp, lsr r4
    24dc:	3502d201 	strcc	sp, [r2, #-513]	; 0xfffffdff
    24e0:	00000539 	andeq	r0, r0, r9, lsr r5
    24e4:	16779102 	ldrbtne	r9, [r7], -r2, lsl #2
    24e8:	00001599 	muleq	r0, r9, r5
    24ec:	6102d201 	tstvs	r2, r1, lsl #4
    24f0:	000004f4 	strdeq	r0, [r0], -r4
    24f4:	00769102 	rsbseq	r9, r6, r2, lsl #2
    24f8:	12e60115 	rscne	r0, r6, #1073741829	; 0x40000005
    24fc:	c1010000 	mrsgt	r0, (UNDEF: 1)
    2500:	a0010602 	andge	r0, r1, r2, lsl #12
    2504:	2000000e 	andcs	r0, r0, lr
    2508:	5400000f 	strpl	r0, [r0], #-15
    250c:	0100000b 	tsteq	r0, fp
    2510:	00000d87 	andeq	r0, r0, r7, lsl #27
    2514:	00143d16 	andseq	r3, r4, r6, lsl sp
    2518:	02c10100 	sbceq	r0, r1, #0, 2
    251c:	00053932 	andeq	r3, r5, r2, lsr r9
    2520:	77910200 	ldrvc	r0, [r1, r0, lsl #4]
    2524:	00159916 	andseq	r9, r5, r6, lsl r9
    2528:	02c10100 	sbceq	r0, r1, #0, 2
    252c:	0004f45e 	andeq	pc, r4, lr, asr r4	; <UNPREDICTABLE>
    2530:	76910200 	ldrvc	r0, [r1], r0, lsl #4
    2534:	00176516 	andseq	r6, r7, r6, lsl r5
    2538:	02c10100 	sbceq	r0, r1, #0, 2
    253c:	0006aa83 	andeq	sl, r6, r3, lsl #21
    2540:	75910200 	ldrvc	r0, [r1, #512]	; 0x200
    2544:	90011500 	andls	r1, r1, r0, lsl #10
    2548:	01000013 	tsteq	r0, r3, lsl r0
    254c:	010602b0 			; <UNDEFINED> instruction: 0x010602b0
    2550:	00000e10 	andeq	r0, r0, r0, lsl lr
    2554:	00000ea0 	andeq	r0, r0, r0, lsr #29
    2558:	00000bb0 			; <UNDEFINED> instruction: 0x00000bb0
    255c:	000dd401 	andeq	sp, sp, r1, lsl #8
    2560:	143d1600 	ldrtne	r1, [sp], #-1536	; 0xfffffa00
    2564:	b0010000 	andlt	r0, r1, r0
    2568:	05393902 	ldreq	r3, [r9, #-2306]!	; 0xfffff6fe
    256c:	91020000 	mrsls	r0, (UNDEF: 2)
    2570:	15991677 	ldrne	r1, [r9, #1655]	; 0x677
    2574:	b0010000 	andlt	r0, r1, r0
    2578:	04f46502 	ldrbteq	r6, [r4], #1282	; 0x502
    257c:	91020000 	mrsls	r0, (UNDEF: 2)
    2580:	18e11676 	stmiane	r1!, {r1, r2, r4, r5, r6, r9, sl, ip}^
    2584:	b0010000 	andlt	r0, r1, r0
    2588:	06838d02 	streq	r8, [r3], r2, lsl #26
    258c:	91020000 	mrsls	r0, (UNDEF: 2)
    2590:	01150075 	tsteq	r5, r5, ror r0
    2594:	00001a97 	muleq	r0, r7, sl
    2598:	06029801 	streq	r9, [r2], -r1, lsl #16
    259c:	00000001 	andeq	r0, r0, r1
    25a0:	00000000 	andeq	r0, r0, r0
    25a4:	000c0c00 	andeq	r0, ip, r0, lsl #24
    25a8:	0e210100 	sufeqs	f0, f1, f0
    25ac:	3d160000 	ldccc	0, cr0, [r6, #-0]
    25b0:	01000014 	tsteq	r0, r4, lsl r0
    25b4:	39370298 	ldmdbcc	r7!, {r3, r4, r7, r9}
    25b8:	02000005 	andeq	r0, r0, #5
    25bc:	99167791 	ldmdbls	r6, {r0, r4, r7, r8, r9, sl, ip, sp, lr}
    25c0:	01000015 	tsteq	r0, r5, lsl r0
    25c4:	f4630298 	vld1.32	{d16-d19}, [r3 :64], r8
    25c8:	02000004 	andeq	r0, r0, #4
    25cc:	ad167691 	ldcge	6, cr7, [r6, #-580]	; 0xfffffdbc
    25d0:	01000016 	tsteq	r0, r6, lsl r0
    25d4:	5c910298 	lfmpl	f0, 4, [r1], {152}	; 0x98
    25d8:	02000006 	andeq	r0, r0, #6
    25dc:	15007591 	strne	r7, [r0, #-1425]	; 0xfffffa6f
    25e0:	00151201 	andseq	r1, r5, r1, lsl #4
    25e4:	02890100 	addeq	r0, r9, #0, 2
    25e8:	00000106 	andeq	r0, r0, r6, lsl #2
    25ec:	00000000 	andeq	r0, r0, r0
    25f0:	0c680000 	stcleq	0, cr0, [r8], #-0
    25f4:	6e010000 	cdpvs	0, 0, cr0, cr1, cr0, {0}
    25f8:	1600000e 	strne	r0, [r0], -lr
    25fc:	0000143d 	andeq	r1, r0, sp, lsr r4
    2600:	3c028901 			; <UNDEFINED> instruction: 0x3c028901
    2604:	00000539 	andeq	r0, r0, r9, lsr r5
    2608:	16779102 	ldrbtne	r9, [r7], -r2, lsl #2
    260c:	00001599 	muleq	r0, r9, r5
    2610:	68028901 	stmdavs	r2, {r0, r8, fp, pc}
    2614:	000004f4 	strdeq	r0, [r0], -r4
    2618:	16769102 	ldrbtne	r9, [r6], -r2, lsl #2
    261c:	00001a2a 	andeq	r1, r0, sl, lsr #20
    2620:	8e028901 	vmlahi.f16	s16, s4, s2	; <UNPREDICTABLE>
    2624:	000005e1 	andeq	r0, r0, r1, ror #11
    2628:	00759102 	rsbseq	r9, r5, r2, lsl #2
    262c:	16ed0115 	usatne	r0, #13, r5, lsl #2
    2630:	79010000 	stmdbvc	r1, {}	; <UNPREDICTABLE>
    2634:	00010602 	andeq	r0, r1, r2, lsl #12
    2638:	00000000 	andeq	r0, r0, r0
    263c:	c4000000 	strgt	r0, [r0], #-0
    2640:	0100000c 	tsteq	r0, ip
    2644:	00000ebb 			; <UNDEFINED> instruction: 0x00000ebb
    2648:	00143d16 	andseq	r3, r4, r6, lsl sp
    264c:	02790100 	rsbseq	r0, r9, #0, 2
    2650:	00053943 	andeq	r3, r5, r3, asr #18
    2654:	77910200 	ldrvc	r0, [r1, r0, lsl #4]
    2658:	00159916 	andseq	r9, r5, r6, lsl r9
    265c:	02790100 	rsbseq	r0, r9, #0, 2
    2660:	0004f46f 	andeq	pc, r4, pc, ror #8
    2664:	76910200 	ldrvc	r0, [r1], r0, lsl #4
    2668:	0012a616 	andseq	sl, r2, r6, lsl r6
    266c:	02790100 	rsbseq	r0, r9, #0, 2
    2670:	0005ba96 	muleq	r5, r6, sl
    2674:	75910200 	ldrvc	r0, [r1, #512]	; 0x200
    2678:	c0011500 	andgt	r1, r1, r0, lsl #10
    267c:	01000013 	tsteq	r0, r3, lsl r0
    2680:	0106026e 	tsteq	r6, lr, ror #4
	...
    268c:	00000d20 	andeq	r0, r0, r0, lsr #26
    2690:	000ef801 	andeq	pc, lr, r1, lsl #16
    2694:	143d1600 	ldrtne	r1, [sp], #-1536	; 0xfffffa00
    2698:	6e010000 	cdpvs	0, 0, cr0, cr1, cr0, {0}
    269c:	05393102 	ldreq	r3, [r9, #-258]!	; 0xfffffefe
    26a0:	91020000 	mrsls	r0, (UNDEF: 2)
    26a4:	15991677 	ldrne	r1, [r9, #1655]	; 0x677
    26a8:	6e010000 	cdpvs	0, 0, cr0, cr1, cr0, {0}
    26ac:	04f45d02 	ldrbteq	r5, [r4], #3330	; 0xd02
    26b0:	91020000 	mrsls	r0, (UNDEF: 2)
    26b4:	01150076 	tsteq	r5, r6, ror r0
    26b8:	00001406 	andeq	r1, r0, r6, lsl #8
    26bc:	06025801 	streq	r5, [r2], -r1, lsl #16
    26c0:	000d8001 	andeq	r8, sp, r1
    26c4:	000e1000 	andeq	r1, lr, r0
    26c8:	000d7c00 	andeq	r7, sp, r0, lsl #24
    26cc:	0f450100 	svceq	0x00450100
    26d0:	3d160000 	ldccc	0, cr0, [r6, #-0]
    26d4:	01000014 	tsteq	r0, r4, lsl r0
    26d8:	392a0258 	stmdbcc	sl!, {r3, r4, r6, r9}
    26dc:	02000005 	andeq	r0, r0, #5
    26e0:	99167791 	ldmdbls	r6, {r0, r4, r7, r8, r9, sl, ip, sp, lr}
    26e4:	01000015 	tsteq	r0, r5, lsl r0
    26e8:	f4570258 			; <UNDEFINED> instruction: 0xf4570258
    26ec:	02000004 	andeq	r0, r0, #4
    26f0:	b3167691 	tstlt	r6, #152043520	; 0x9100000
    26f4:	01000017 	tsteq	r0, r7, lsl r0
    26f8:	937f0258 	cmnls	pc, #88, 4	; 0x80000005
    26fc:	02000005 	andeq	r0, r0, #5
    2700:	15007591 	strne	r7, [r0, #-1425]	; 0xfffffa6f
    2704:	001a0601 	andseq	r0, sl, r1, lsl #12
    2708:	02420100 	subeq	r0, r2, #0, 2
    270c:	0cf00106 	ldfeqe	f0, [r0], #24
    2710:	0d800000 	stceq	0, cr0, [r0]
    2714:	0dd80000 	ldcleq	0, cr0, [r8]
    2718:	92010000 	andls	r0, r1, #0
    271c:	1600000f 	strne	r0, [r0], -pc
    2720:	0000143d 	andeq	r1, r0, sp, lsr r4
    2724:	2f024201 	svccs	0x00024201
    2728:	00000539 	andeq	r0, r0, r9, lsr r5
    272c:	16779102 	ldrbtne	r9, [r7], -r2, lsl #2
    2730:	00001599 	muleq	r0, r9, r5
    2734:	5b024201 	blpl	92f40 <_E_text+0x91a54>
    2738:	000004f4 	strdeq	r0, [r0], -r4
    273c:	16769102 	ldrbtne	r9, [r6], -r2, lsl #2
    2740:	00001492 	muleq	r0, r2, r4
    2744:	80024201 	andhi	r4, r2, r1, lsl #4
    2748:	0000056c 	andeq	r0, r0, ip, ror #10
    274c:	00759102 	rsbseq	r9, r5, r2, lsl #2
    2750:	00171319 	andseq	r1, r7, r9, lsl r3
    2754:	02200100 	eoreq	r0, r0, #0, 2
    2758:	0c900114 	ldfeqs	f0, [r0], {20}
    275c:	0cf00000 	ldcleq	0, cr0, [r0]
    2760:	0e340000 	cdpeq	0, 3, cr0, cr4, cr0, {0}
    2764:	be010000 	cdplt	0, 0, cr0, cr1, cr0, {0}
    2768:	1600000f 	strne	r0, [r0], -pc
    276c:	0000143d 	andeq	r1, r0, sp, lsr r4
    2770:	4e022001 	cdpmi	0, 0, cr2, cr2, cr1, {0}
    2774:	00000539 	andeq	r0, r0, r9, lsr r5
    2778:	00779102 	rsbseq	r9, r7, r2, lsl #2
    277c:	1482011a 	strne	r0, [r2], #282	; 0x11a
    2780:	fd010000 	stc2	0, cr0, [r1, #-0]
    2784:	0007b401 	andeq	fp, r7, r1, lsl #8
	...
    2790:	000e9000 	andeq	r9, lr, r0
    2794:	011a0100 	tsteq	sl, r0, lsl #2
    2798:	0000193e 	andeq	r1, r0, lr, lsr r9
    279c:	b401dc01 	strlt	sp, [r1], #-3073	; 0xfffff3ff
    27a0:	00000007 	andeq	r0, r0, r7
    27a4:	00000000 	andeq	r0, r0, r0
    27a8:	bc000000 	stclt	0, cr0, [r0], {-0}
    27ac:	0100000e 	tsteq	r0, lr
    27b0:	12b0011a 	adcsne	r0, r0, #-2147483642	; 0x80000006
    27b4:	bd010000 	stclt	0, cr0, [r1, #-0]
    27b8:	0007b401 	andeq	fp, r7, r1, lsl #8
	...
    27c4:	000ee800 	andeq	lr, lr, r0, lsl #16
    27c8:	011a0100 	tsteq	sl, r0, lsl #2
    27cc:	0000176e 	andeq	r1, r0, lr, ror #14
    27d0:	b4019e01 	strlt	r9, [r1], #-3585	; 0xfffff1ff
    27d4:	00000007 	andeq	r0, r0, r7
    27d8:	00000000 	andeq	r0, r0, r0
    27dc:	14000000 	strne	r0, [r0], #-0
    27e0:	0100000f 	tsteq	r0, pc
    27e4:	13e9011a 	mvnne	r0, #-2147483642	; 0x80000006
    27e8:	7d010000 	stcvc	0, cr0, [r1, #-0]
    27ec:	0007b402 	andeq	fp, r7, r2, lsl #8
	...
    27f8:	000f4000 	andeq	r4, pc, r0
    27fc:	011a0100 	tsteq	sl, r0, lsl #2
    2800:	0000154b 	andeq	r1, r0, fp, asr #10
    2804:	b4025d01 	strlt	r5, [r2], #-3329	; 0xfffff2ff
    2808:	00000007 	andeq	r0, r0, r7
    280c:	00000000 	andeq	r0, r0, r0
    2810:	6c000000 	stcvs	0, cr0, [r0], {-0}
    2814:	0100000f 	tsteq	r0, pc
    2818:	00043d00 	andeq	r3, r4, r0, lsl #26
    281c:	d4000200 	strle	r0, [r0], #-512	; 0xfffffe00
    2820:	04000004 	streq	r0, [r0], #-4
    2824:	0001ac01 	andeq	sl, r1, r1, lsl #24
    2828:	1c2a0c00 	stcne	12, cr0, [sl], #-0
    282c:	002e0000 	eoreq	r0, lr, r0
    2830:	00000ada 	ldrdeq	r0, [r0], -sl
    2834:	00085302 	andeq	r5, r8, r2, lsl #6
    2838:	1d060100 	stfnes	f0, [r6, #-0]
    283c:	00000027 	andeq	r0, r0, r7, lsr #32
    2840:	14080103 	strne	r0, [r8], #-259	; 0xfffffefd
    2844:	0300000d 	movweq	r0, #13
    2848:	0d160601 	ldceq	6, cr0, [r6, #-4]
    284c:	02030000 	andeq	r0, r3, #0
    2850:	000ee407 	andeq	lr, lr, r7, lsl #8
    2854:	05020300 	streq	r0, [r2, #-768]	; 0xfffffd00
    2858:	00000a63 	andeq	r0, r0, r3, ror #20
    285c:	27070403 	strcs	r0, [r7, -r3, lsl #8]
    2860:	03000005 	movweq	r0, #5
    2864:	08080504 	stmdaeq	r8, {r2, r8, sl}
    2868:	04030000 	streq	r0, [r3], #-0
    286c:	00050a04 	andeq	r0, r5, r4, lsl #20
    2870:	04080300 	streq	r0, [r8], #-768	; 0xfffffd00
    2874:	000009b1 			; <UNDEFINED> instruction: 0x000009b1
    2878:	22070803 	andcs	r0, r7, #196608	; 0x30000
    287c:	04000005 	streq	r0, [r0], #-5
    2880:	00270107 	eoreq	r0, r7, r7, lsl #2
    2884:	2a020000 	bcs	8288c <_E_text+0x813a0>
    2888:	0000a50e 	andeq	sl, r0, lr, lsl #10
    288c:	0d790500 	cfldr64eq	mvdx0, [r9, #-0]
    2890:	05000000 	streq	r0, [r0, #-0]
    2894:	00000d86 	andeq	r0, r0, r6, lsl #27
    2898:	0d930501 	cfldr32eq	mvfx0, [r3, #4]
    289c:	05020000 	streq	r0, [r2, #-0]
    28a0:	00000da0 	andeq	r0, r0, r0, lsr #27
    28a4:	0dad0503 	cfstr32eq	mvfx0, [sp, #12]!
    28a8:	05040000 	streq	r0, [r4, #-0]
    28ac:	00000dba 			; <UNDEFINED> instruction: 0x00000dba
    28b0:	0dc70505 	cfstr64eq	mvdx0, [r7, #20]
    28b4:	05060000 	streq	r0, [r6, #-0]
    28b8:	00000dd4 	ldrdeq	r0, [r0], -r4
    28bc:	df020007 	svcle	0x00020007
    28c0:	02000014 	andeq	r0, r0, #20
    28c4:	00660235 	rsbeq	r0, r6, r5, lsr r2
    28c8:	07040000 	streq	r0, [r4, -r0]
    28cc:	00002701 	andeq	r2, r0, r1, lsl #14
    28d0:	0d380200 	lfmeq	f0, 4, [r8, #-0]
    28d4:	000000ea 	andeq	r0, r0, sl, ror #1
    28d8:	000ce605 	andeq	lr, ip, r5, lsl #12
    28dc:	f7050000 			; <UNDEFINED> instruction: 0xf7050000
    28e0:	0100000e 	tsteq	r0, lr
    28e4:	000efd05 	andeq	pc, lr, r5, lsl #26
    28e8:	c8050200 	stmdagt	r5, {r9}
    28ec:	03000000 	movweq	r0, #0
    28f0:	0000ce05 	andeq	ip, r0, r5, lsl #28
    28f4:	d4050400 	strle	r0, [r5], #-1024	; 0xfffffc00
    28f8:	05000000 	streq	r0, [r0, #-0]
    28fc:	000df805 	andeq	pc, sp, r5, lsl #16
    2900:	02000600 	andeq	r0, r0, #0, 12
    2904:	0000177e 	andeq	r1, r0, lr, ror r7
    2908:	b1024102 	tstlt	r2, r2, lsl #2
    290c:	06000000 	streq	r0, [r0], -r0
    2910:	09a10203 	stmibeq	r1!, {r0, r1, r9}
    2914:	0000012d 	andeq	r0, r0, sp, lsr #2
    2918:	00143d07 	andseq	r3, r4, r7, lsl #26
    291c:	1ca20200 	sfmne	f0, 4, [r2]
    2920:	000000ea 	andeq	r0, r0, sl, ror #1
    2924:	07002302 	streq	r2, [r0, -r2, lsl #6]
    2928:	00001599 	muleq	r0, r9, r5
    292c:	a520a302 	strge	sl, [r0, #-770]!	; 0xfffffcfe
    2930:	02000000 	andeq	r0, r0, #0
    2934:	f3070123 	vrhadd.u8	d0, d7, d19
    2938:	02000019 	andeq	r0, r0, #25
    293c:	001b0aa4 	andseq	r0, fp, r4, lsr #21
    2940:	23020000 	movwcs	r0, #8192	; 0x2000
    2944:	f6080002 			; <UNDEFINED> instruction: 0xf6080002
    2948:	02000000 	andeq	r0, r0, #0
    294c:	00001ab1 			; <UNDEFINED> instruction: 0x00001ab1
    2950:	2d08a502 	cfstr32cs	mvfx10, [r8, #-8]
    2954:	06000001 	streq	r0, [r0], -r1
    2958:	09b00203 	ldmibeq	r0!, {r0, r1, r9}
    295c:	00000175 	andeq	r0, r0, r5, ror r1
    2960:	00143d07 	andseq	r3, r4, r7, lsl #26
    2964:	1cb10200 	lfmne	f0, 4, [r1]
    2968:	000000ea 	andeq	r0, r0, sl, ror #1
    296c:	07002302 	streq	r2, [r0, -r2, lsl #6]
    2970:	000016a0 	andeq	r1, r0, r0, lsr #13
    2974:	a520b202 	strge	fp, [r0, #-514]!	; 0xfffffdfe
    2978:	02000000 	andeq	r0, r0, #0
    297c:	18070123 	stmdane	r7, {r0, r1, r5, r8}
    2980:	02000019 	andeq	r0, r0, #25
    2984:	00a520b3 	strhteq	r2, [r5], r3
    2988:	23020000 	movwcs	r0, #8192	; 0x2000
    298c:	3e080002 	cdpcc	0, 0, cr0, cr8, cr2, {0}
    2990:	02000001 	andeq	r0, r0, #1
    2994:	00001925 	andeq	r1, r0, r5, lsr #18
    2998:	7508b402 	strvc	fp, [r8, #-1026]	; 0xfffffbfe
    299c:	06000001 	streq	r0, [r0], -r1
    29a0:	09b80202 	ldmibeq	r8!, {r1, r9}
    29a4:	000001ae 	andeq	r0, r0, lr, lsr #3
    29a8:	00143d07 	andseq	r3, r4, r7, lsl #26
    29ac:	1cba0200 	lfmne	f0, 4, [sl]
    29b0:	000000ea 	andeq	r0, r0, sl, ror #1
    29b4:	07002302 	streq	r2, [r0, -r2, lsl #6]
    29b8:	00001599 	muleq	r0, r9, r5
    29bc:	a520bb02 	strge	fp, [r0, #-2818]!	; 0xfffff4fe
    29c0:	02000000 	andeq	r0, r0, #0
    29c4:	02000123 	andeq	r0, r0, #-1073741816	; 0xc0000008
    29c8:	0000195a 	andeq	r1, r0, sl, asr r9
    29cc:	8603bc02 	strhi	fp, [r3], -r2, lsl #24
    29d0:	09000001 	stmdbeq	r0, {r0}
    29d4:	000001dc 	ldrdeq	r0, [r0], -ip
    29d8:	000001ca 	andeq	r0, r0, sl, asr #3
    29dc:	0001cf0a 	andeq	ip, r1, sl, lsl #30
    29e0:	08000b00 	stmdaeq	r0, {r8, r9, fp}
    29e4:	000001ba 			; <UNDEFINED> instruction: 0x000001ba
    29e8:	2c070403 	cfstrscs	mvf0, [r7], {3}
    29ec:	0b000005 	bleq	2a08 <_E_text+0x151c>
    29f0:	00013204 	andeq	r3, r1, r4, lsl #4
    29f4:	01d60800 	bicseq	r0, r6, r0, lsl #16
    29f8:	490c0000 	stmdbmi	ip, {}	; <UNPREDICTABLE>
    29fc:	0200001c 	andeq	r0, r0, #28
    2a00:	01ca2abf 	strheq	r2, [sl, #175]	; 0xaf
    2a04:	01010000 	mrseq	r0, (UNDEF: 1)
    2a08:	00020a09 	andeq	r0, r2, r9, lsl #20
    2a0c:	0001ff00 	andeq	pc, r1, r0, lsl #30
    2a10:	01cf0a00 	biceq	r0, pc, r0, lsl #20
    2a14:	00070000 	andeq	r0, r7, r0
    2a18:	0001ef08 	andeq	lr, r1, r8, lsl #30
    2a1c:	7a040b00 	bvc	105624 <_E_text+0x104138>
    2a20:	08000001 	stmdaeq	r0, {r0}
    2a24:	00000204 	andeq	r0, r0, r4, lsl #4
    2a28:	001c7d0c 	andseq	r7, ip, ip, lsl #26
    2a2c:	29c00200 	stmibcs	r0, {r9}^
    2a30:	000001ff 	strdeq	r0, [r0], -pc	; <UNPREDICTABLE>
    2a34:	f70c0101 			; <UNDEFINED> instruction: 0xf70c0101
    2a38:	0200001c 	andeq	r0, r0, #28
    2a3c:	01ae1cc2 			; <UNDEFINED> instruction: 0x01ae1cc2
    2a40:	01010000 	mrseq	r0, (UNDEF: 1)
    2a44:	001ccb0c 	andseq	ip, ip, ip, lsl #22
    2a48:	1cc30200 	sfmne	f0, 2, [r3], {0}
    2a4c:	000001ae 	andeq	r0, r0, lr, lsr #3
    2a50:	b50c0101 	strlt	r0, [ip, #-257]	; 0xfffffeff
    2a54:	0200001c 	andeq	r0, r0, #28
    2a58:	01ae1cc4 			; <UNDEFINED> instruction: 0x01ae1cc4
    2a5c:	01010000 	mrseq	r0, (UNDEF: 1)
    2a60:	001ce10c 	andseq	lr, ip, ip, lsl #2
    2a64:	1cc50200 	sfmne	f0, 2, [r5], {0}
    2a68:	000001ae 	andeq	r0, r0, lr, lsr #3
    2a6c:	9f0c0101 	svcls	0x000c0101
    2a70:	0200001c 	andeq	r0, r0, #28
    2a74:	01ae1cc6 			; <UNDEFINED> instruction: 0x01ae1cc6
    2a78:	01010000 	mrseq	r0, (UNDEF: 1)
    2a7c:	001b130d 	andseq	r1, fp, sp, lsl #6
    2a80:	1b0e0300 	blne	383688 <_E_text+0x38219c>
    2a84:	00000132 	andeq	r0, r0, r2, lsr r1
    2a88:	3c030501 	cfstr32cc	mvfx0, [r3], {1}
    2a8c:	0d000004 	stceq	0, cr0, [r0, #-16]
    2a90:	00001bb1 			; <UNDEFINED> instruction: 0x00001bb1
    2a94:	321b1403 	andscc	r1, fp, #50331648	; 0x3000000
    2a98:	01000001 	tsteq	r0, r1
    2a9c:	04400305 	strbeq	r0, [r0], #-773	; 0xfffffcfb
    2aa0:	020d0000 	andeq	r0, sp, #0
    2aa4:	0300001b 	movweq	r0, #27
    2aa8:	01321b1a 	teqeq	r2, sl, lsl fp
    2aac:	05010000 	streq	r0, [r1, #-0]
    2ab0:	00044403 	andeq	r4, r4, r3, lsl #8
    2ab4:	1b7c0d00 	blne	1f05ebc <_E_text+0x1f049d0>
    2ab8:	20030000 	andcs	r0, r3, r0
    2abc:	0001321b 	andeq	r3, r1, fp, lsl r2
    2ac0:	03050100 	movweq	r0, #20736	; 0x5100
    2ac4:	00000448 	andeq	r0, r0, r8, asr #8
    2ac8:	001bc20d 	andseq	ip, fp, sp, lsl #4
    2acc:	1b260300 	blne	9836d4 <_E_text+0x9821e8>
    2ad0:	00000132 	andeq	r0, r0, r2, lsr r1
    2ad4:	4c030501 	cfstr32mi	mvfx0, [r3], {1}
    2ad8:	0d000004 	stceq	0, cr0, [r0, #-16]
    2adc:	00001c6c 	andeq	r1, r0, ip, ror #24
    2ae0:	321b2c03 	andscc	r2, fp, #768	; 0x300
    2ae4:	01000001 	tsteq	r0, r1
    2ae8:	04500305 	ldrbeq	r0, [r0], #-773	; 0xfffffcfb
    2aec:	470d0000 	strmi	r0, [sp, -r0]
    2af0:	0300001b 	movweq	r0, #27
    2af4:	01321b32 	teqeq	r2, r2, lsr fp
    2af8:	05010000 	streq	r0, [r1, #-0]
    2afc:	00045403 	andeq	r5, r4, r3, lsl #8
    2b00:	1c380d00 	ldcne	13, cr0, [r8], #-0
    2b04:	38030000 	stmdacc	r3, {}	; <UNPREDICTABLE>
    2b08:	0001321b 	andeq	r3, r1, fp, lsl r2
    2b0c:	03050100 	movweq	r0, #20736	; 0x5100
    2b10:	00000458 	andeq	r0, r0, r8, asr r4
    2b14:	001b240d 	andseq	r2, fp, sp, lsl #8
    2b18:	1b3e0300 	blne	f83720 <_E_text+0xf82234>
    2b1c:	00000132 	andeq	r0, r0, r2, lsr r1
    2b20:	5c030501 	cfstr32pl	mvfx0, [r3], {1}
    2b24:	0d000004 	stceq	0, cr0, [r0, #-16]
    2b28:	00001be4 	andeq	r1, r0, r4, ror #23
    2b2c:	321b4403 	andscc	r4, fp, #50331648	; 0x3000000
    2b30:	01000001 	tsteq	r0, r1
    2b34:	04600305 	strbteq	r0, [r0], #-773	; 0xfffffcfb
    2b38:	f50d0000 			; <UNDEFINED> instruction: 0xf50d0000
    2b3c:	0300001b 	movweq	r0, #27
    2b40:	01321b4a 	teqeq	r2, sl, asr #22
    2b44:	05010000 	streq	r0, [r1, #-0]
    2b48:	00046403 	andeq	r6, r4, r3, lsl #8
    2b4c:	1bd30d00 	blne	ff4c5f54 <_E_BSS+0xdf4c4160>
    2b50:	50030000 	andpl	r0, r3, r0
    2b54:	0001321b 	andeq	r3, r1, fp, lsl r2
    2b58:	03050100 	movweq	r0, #20736	; 0x5100
    2b5c:	00000468 	andeq	r0, r0, r8, ror #8
    2b60:	001b580d 	andseq	r5, fp, sp, lsl #16
    2b64:	1a5a0300 	bne	168376c <_E_text+0x1682280>
    2b68:	0000017a 	andeq	r0, r0, sl, ror r1
    2b6c:	6c030501 	cfstr32vs	mvfx0, [r3], {1}
    2b70:	0d000004 	stceq	0, cr0, [r0, #-16]
    2b74:	00001c06 	andeq	r1, r0, r6, lsl #24
    2b78:	7a1a6003 	bvc	69ab8c <_E_text+0x6996a0>
    2b7c:	01000001 	tsteq	r0, r1
    2b80:	04700305 	ldrbteq	r0, [r0], #-773	; 0xfffffcfb
    2b84:	0d0d0000 	stceq	0, cr0, [sp, #-0]
    2b88:	0300001d 	movweq	r0, #29
    2b8c:	017a1a67 	cmneq	sl, r7, ror #20
    2b90:	05010000 	streq	r0, [r1, #-0]
    2b94:	00047403 	andeq	r7, r4, r3, lsl #8
    2b98:	1c180d00 	ldcne	13, cr0, [r8], {-0}
    2b9c:	6e030000 	cdpvs	0, 0, cr0, cr3, cr0, {0}
    2ba0:	00017a1a 	andeq	r7, r1, sl, lsl sl
    2ba4:	03050100 	movweq	r0, #20736	; 0x5100
    2ba8:	00000478 	andeq	r0, r0, r8, ror r4
    2bac:	001b8d0d 	andseq	r8, fp, sp, lsl #26
    2bb0:	1a750300 	bne	1d437b8 <_E_text+0x1d422cc>
    2bb4:	0000017a 	andeq	r0, r0, sl, ror r1
    2bb8:	7c030501 	cfstr32vc	mvfx0, [r3], {1}
    2bbc:	0d000004 	stceq	0, cr0, [r0, #-16]
    2bc0:	00001b6a 	andeq	r1, r0, sl, ror #22
    2bc4:	7a1a7c03 	bvc	6a1bd8 <_E_text+0x6a06ec>
    2bc8:	01000001 	tsteq	r0, r1
    2bcc:	04800305 	streq	r0, [r0], #773	; 0x305
    2bd0:	9f0d0000 	svcls	0x000d0000
    2bd4:	0300001b 	movweq	r0, #27
    2bd8:	017a1a83 	cmneq	sl, r3, lsl #21
    2bdc:	05010000 	streq	r0, [r1, #-0]
    2be0:	00048403 	andeq	r8, r4, r3, lsl #8
    2be4:	1b350d00 	blne	d45fec <_E_text+0xd44b00>
    2be8:	8a030000 	bhi	c2bf0 <_E_text+0xc1704>
    2bec:	00017a1a 	andeq	r7, r1, sl, lsl sl
    2bf0:	03050100 	movweq	r0, #20736	; 0x5100
    2bf4:	00000488 	andeq	r0, r0, r8, lsl #9
    2bf8:	00021d0e 	andeq	r1, r2, lr, lsl #26
    2bfc:	15920300 	ldrne	r0, [r2, #768]	; 0x300
    2c00:	003c0305 	eorseq	r0, ip, r5, lsl #6
    2c04:	2b0e2000 	blcs	38ac0c <_E_text+0x389720>
    2c08:	03000002 	movweq	r0, #2
    2c0c:	03051697 	movweq	r1, #22167	; 0x5697
    2c10:	00000000 	andeq	r0, r0, r0
    2c14:	0002390e 	andeq	r3, r2, lr, lsl #18
    2c18:	169d0300 	ldrne	r0, [sp], r0, lsl #6
    2c1c:	00400305 	subeq	r0, r0, r5, lsl #6
    2c20:	550e2000 	strpl	r2, [lr, #-0]
    2c24:	03000002 	movweq	r0, #2
    2c28:	030516a3 	movweq	r1, #22179	; 0x56a3
    2c2c:	20000044 	andcs	r0, r0, r4, asr #32
    2c30:	0002470e 	andeq	r4, r2, lr, lsl #14
    2c34:	16a80300 	strtne	r0, [r8], r0, lsl #6
    2c38:	00000305 	andeq	r0, r0, r5, lsl #6
    2c3c:	e10e0000 	mrs	r0, (UNDEF: 14)
    2c40:	03000001 	movweq	r0, #1
    2c44:	030523b1 	movweq	r2, #21425	; 0x53b1
    2c48:	0000048c 	andeq	r0, r0, ip, lsl #9
    2c4c:	00020f0f 	andeq	r0, r2, pc, lsl #30
    2c50:	05220300 	streq	r0, [r2, #-768]!	; 0xfffffd00
    2c54:	0004bc03 	andeq	fp, r4, r3, lsl #24
    2c58:	0bb70000 	bleq	fedc2c60 <_E_BSS+0xdedc0e6c>
    2c5c:	00020000 	andeq	r0, r2, r0
    2c60:	0000059e 	muleq	r0, lr, r5
    2c64:	01ac0104 			; <UNDEFINED> instruction: 0x01ac0104
    2c68:	a20c0000 	andge	r0, ip, #0
    2c6c:	2e000022 	cdpcs	0, 0, cr0, cr0, cr2, {1}
    2c70:	0001a000 	andeq	sl, r1, r0
	...
    2c7c:	000b2300 	andeq	r2, fp, r0, lsl #6
    2c80:	08530200 	ldmdaeq	r3, {r9}^
    2c84:	06020000 	streq	r0, [r2], -r0
    2c88:	0000331d 	andeq	r3, r0, sp, lsl r3
    2c8c:	08010300 	stmdaeq	r1, {r8, r9}
    2c90:	00000d14 	andeq	r0, r0, r4, lsl sp
    2c94:	16060103 	strne	r0, [r6], -r3, lsl #2
    2c98:	0200000d 	andeq	r0, r0, #13
    2c9c:	00002355 	andeq	r2, r0, r5, asr r3
    2ca0:	521c0a02 	andspl	r0, ip, #8192	; 0x2000
    2ca4:	04000000 	streq	r0, [r0], #-0
    2ca8:	00000041 	andeq	r0, r0, r1, asr #32
    2cac:	e4070203 	str	r0, [r7], #-515	; 0xfffffdfd
    2cb0:	0300000e 	movweq	r0, #14
    2cb4:	0a630502 	beq	18c40c4 <_E_text+0x18c2bd8>
    2cb8:	5d020000 	stcpl	0, cr0, [r2, #-0]
    2cbc:	0200000a 	andeq	r0, r0, #10
    2cc0:	00711c0e 	rsbseq	r1, r1, lr, lsl #24
    2cc4:	60040000 	andvs	r0, r4, r0
    2cc8:	03000000 	movweq	r0, #0
    2ccc:	05270704 	streq	r0, [r7, #-1796]!	; 0xfffff8fc
    2cd0:	04030000 	streq	r0, [r3], #-0
    2cd4:	00080805 	andeq	r0, r8, r5, lsl #16
    2cd8:	04040300 	streq	r0, [r4], #-768	; 0xfffffd00
    2cdc:	0000050a 	andeq	r0, r0, sl, lsl #10
    2ce0:	b1040803 	tstlt	r4, r3, lsl #16
    2ce4:	02000009 	andeq	r0, r0, #9
    2ce8:	000021d6 	ldrdeq	r2, [r0], -r6
    2cec:	991d1702 	ldmdbls	sp, {r1, r8, r9, sl, ip}
    2cf0:	03000000 	movweq	r0, #0
    2cf4:	05220708 	streq	r0, [r2, #-1800]!	; 0xfffff8f8
    2cf8:	04050000 	streq	r0, [r5], #-0
    2cfc:	70052103 	andvc	r2, r5, r3, lsl #2
    2d00:	06000001 	streq	r0, [r0], -r1
    2d04:	000023c4 	andeq	r2, r0, r4, asr #7
    2d08:	600d2303 	andvs	r2, sp, r3, lsl #6
    2d0c:	04000000 	streq	r0, [r0], #-0
    2d10:	23021f01 	movwcs	r1, #12033	; 0x2f01
    2d14:	20ec0600 	rsccs	r0, ip, r0, lsl #12
    2d18:	24030000 	strcs	r0, [r3], #-0
    2d1c:	0000600d 	andeq	r6, r0, sp
    2d20:	1e010400 	cfcpysne	mvf0, mvf1
    2d24:	06002302 	streq	r2, [r0], -r2, lsl #6
    2d28:	00001da6 	andeq	r1, r0, r6, lsr #27
    2d2c:	600d2503 	andvs	r2, sp, r3, lsl #10
    2d30:	04000000 	streq	r0, [r0], #-0
    2d34:	23021d01 	movwcs	r1, #11521	; 0x2d01
    2d38:	1fc50600 	svcne	0x00c50600
    2d3c:	26030000 	strcs	r0, [r3], -r0
    2d40:	0000600d 	andeq	r6, r0, sp
    2d44:	1c010400 	cfstrsne	mvf0, [r1], {-0}
    2d48:	06002302 	streq	r2, [r0], -r2, lsl #6
    2d4c:	000023d2 	ldrdeq	r2, [r0], -r2	; <UNPREDICTABLE>
    2d50:	600d2703 	andvs	r2, sp, r3, lsl #14
    2d54:	04000000 	streq	r0, [r0], #-0
    2d58:	23021b01 	movwcs	r1, #11009	; 0x2b01
    2d5c:	1e9d0600 	cdpne	6, 9, cr0, cr13, cr0, {0}
    2d60:	28030000 	stmdacs	r3, {}	; <UNPREDICTABLE>
    2d64:	0000600d 	andeq	r6, r0, sp
    2d68:	1a010400 	bne	43d70 <_E_text+0x42884>
    2d6c:	06002302 	streq	r2, [r0], -r2, lsl #6
    2d70:	00002178 	andeq	r2, r0, r8, ror r1
    2d74:	600d2903 	andvs	r2, sp, r3, lsl #18
    2d78:	04000000 	streq	r0, [r0], #-0
    2d7c:	23021901 	movwcs	r1, #10497	; 0x2901
    2d80:	23240600 			; <UNDEFINED> instruction: 0x23240600
    2d84:	2a030000 	bcs	c2d8c <_E_text+0xc18a0>
    2d88:	0000600d 	andeq	r6, r0, sp
    2d8c:	18010400 	stmdane	r1, {sl}
    2d90:	06002302 	streq	r2, [r0], -r2, lsl #6
    2d94:	00002043 	andeq	r2, r0, r3, asr #32
    2d98:	600d2b03 	andvs	r2, sp, r3, lsl #22
    2d9c:	04000000 	streq	r0, [r0], #-0
    2da0:	23021701 	movwcs	r1, #9985	; 0x2701
    2da4:	1f5c0600 	svcne	0x005c0600
    2da8:	2c030000 	stccs	0, cr0, [r3], {-0}
    2dac:	0000600d 	andeq	r6, r0, sp
    2db0:	16010400 	strne	r0, [r1], -r0, lsl #8
    2db4:	06002302 	streq	r2, [r0], -r2, lsl #6
    2db8:	0000243d 	andeq	r2, r0, sp, lsr r4
    2dbc:	600d2d03 	andvs	r2, sp, r3, lsl #26
    2dc0:	04000000 	streq	r0, [r0], #-0
    2dc4:	23021501 	movwcs	r1, #9473	; 0x2501
    2dc8:	04070000 	streq	r0, [r7], #-0
    2dcc:	92091f03 	andls	r1, r9, #3, 30
    2dd0:	08000001 	stmdaeq	r0, {r0}
    2dd4:	00002728 	andeq	r2, r0, r8, lsr #14
    2dd8:	a0062f03 	andge	r2, r6, r3, lsl #30
    2ddc:	08000000 	stmdaeq	r0, {}	; <UNPREDICTABLE>
    2de0:	00002b4e 	andeq	r2, r0, lr, asr #22
    2de4:	600b3103 	andvs	r3, fp, r3, lsl #2
    2de8:	00000000 	andeq	r0, r0, r0
    2dec:	001e6e02 	andseq	r6, lr, r2, lsl #28
    2df0:	02320300 	eorseq	r0, r2, #0, 6
    2df4:	00000170 	andeq	r0, r0, r0, ror r1
    2df8:	00019204 	andeq	r9, r1, r4, lsl #4
    2dfc:	03040500 	movweq	r0, #17664	; 0x4500
    2e00:	01bf0537 			; <UNDEFINED> instruction: 0x01bf0537
    2e04:	77060000 	strvc	r0, [r6, -r0]
    2e08:	0300002d 	movweq	r0, #45	; 0x2d
    2e0c:	00600f39 	rsbeq	r0, r0, r9, lsr pc
    2e10:	03040000 	movweq	r0, #16384	; 0x4000
    2e14:	0023021d 	eoreq	r0, r3, sp, lsl r2
    2e18:	03040700 	movweq	r0, #18176	; 0x4700
    2e1c:	01e10935 	mvneq	r0, r5, lsr r9
    2e20:	28080000 	stmdacs	r8, {}	; <UNPREDICTABLE>
    2e24:	03000027 	movweq	r0, #39	; 0x27
    2e28:	01a3063c 			; <UNDEFINED> instruction: 0x01a3063c
    2e2c:	4e080000 	cdpmi	0, 0, cr0, cr8, cr0, {0}
    2e30:	0300002b 	movweq	r0, #43	; 0x2b
    2e34:	00600b3e 	rsbeq	r0, r0, lr, lsr fp
    2e38:	02000000 	andeq	r0, r0, #0
    2e3c:	0000214a 	andeq	r2, r0, sl, asr #2
    2e40:	bf023f03 	svclt	0x00023f03
    2e44:	04000001 	streq	r0, [r0], #-1
    2e48:	000001e1 	andeq	r0, r0, r1, ror #3
    2e4c:	44030405 	strmi	r0, [r3], #-1029	; 0xfffffbfb
    2e50:	0002c205 	andeq	ip, r2, r5, lsl #4
    2e54:	216e0600 	cmncs	lr, r0, lsl #12
    2e58:	46030000 	strmi	r0, [r3], -r0
    2e5c:	0000600f 	andeq	r6, r0, pc
    2e60:	1e020400 	cfcpysne	mvf0, mvf2
    2e64:	06002302 	streq	r2, [r0], -r2, lsl #6
    2e68:	00002386 	andeq	r2, r0, r6, lsl #7
    2e6c:	600f4703 	andvs	r4, pc, r3, lsl #14
    2e70:	04000000 	streq	r0, [r0], #-0
    2e74:	23021d01 	movwcs	r1, #11521	; 0x2d01
    2e78:	22a90600 	adccs	r0, r9, #0, 12
    2e7c:	48030000 	stmdami	r3, {}	; <UNPREDICTABLE>
    2e80:	0000600f 	andeq	r6, r0, pc
    2e84:	1c010400 	cfstrsne	mvf0, [r1], {-0}
    2e88:	06002302 	streq	r2, [r0], -r2, lsl #6
    2e8c:	000021c2 	andeq	r2, r0, r2, asr #3
    2e90:	600f4903 	andvs	r4, pc, r3, lsl #18
    2e94:	04000000 	streq	r0, [r0], #-0
    2e98:	23021b01 	movwcs	r1, #11009	; 0x2b01
    2e9c:	21300600 	teqcs	r0, r0, lsl #12
    2ea0:	4a030000 	bmi	c2ea8 <_E_text+0xc19bc>
    2ea4:	0000600f 	andeq	r6, r0, pc
    2ea8:	1a010400 	bne	43eb0 <_E_text+0x429c4>
    2eac:	06002302 	streq	r2, [r0], -r2, lsl #6
    2eb0:	00001d1f 	andeq	r1, r0, pc, lsl sp
    2eb4:	600f4b03 	andvs	r4, pc, r3, lsl #22
    2eb8:	04000000 	streq	r0, [r0], #-0
    2ebc:	23021901 	movwcs	r1, #10497	; 0x2901
    2ec0:	1f770600 	svcne	0x00770600
    2ec4:	4c030000 	stcmi	0, cr0, [r3], {-0}
    2ec8:	0000600f 	andeq	r6, r0, pc
    2ecc:	18010400 	stmdane	r1, {sl}
    2ed0:	06002302 	streq	r2, [r0], -r2, lsl #6
    2ed4:	00002246 	andeq	r2, r0, r6, asr #4
    2ed8:	600f4d03 	andvs	r4, pc, r3, lsl #26
    2edc:	04000000 	streq	r0, [r0], #-0
    2ee0:	23021701 	movwcs	r1, #9985	; 0x2701
    2ee4:	1eb30600 	cdpne	6, 11, cr0, cr3, cr0, {0}
    2ee8:	4e030000 	cdpmi	0, 0, cr0, cr3, cr0, {0}
    2eec:	0000600f 	andeq	r6, r0, pc
    2ef0:	16010400 	strne	r0, [r1], -r0, lsl #8
    2ef4:	06002302 	streq	r2, [r0], -r2, lsl #6
    2ef8:	00001dcd 	andeq	r1, r0, sp, asr #27
    2efc:	600f4f03 	andvs	r4, pc, r3, lsl #30
    2f00:	04000000 	streq	r0, [r0], #-0
    2f04:	23021501 	movwcs	r1, #9473	; 0x2501
    2f08:	22f10600 	rscscs	r0, r1, #0, 12
    2f0c:	50030000 	andpl	r0, r3, r0
    2f10:	0000600f 	andeq	r6, r0, pc
    2f14:	14010400 	strne	r0, [r1], #-1024	; 0xfffffc00
    2f18:	00002302 	andeq	r2, r0, r2, lsl #6
    2f1c:	42030407 	andmi	r0, r3, #117440512	; 0x7000000
    2f20:	0002e409 	andeq	lr, r2, r9, lsl #8
    2f24:	27280800 	strcs	r0, [r8, -r0, lsl #16]!
    2f28:	53030000 	movwpl	r0, #12288	; 0x3000
    2f2c:	0001f206 	andeq	pc, r1, r6, lsl #4
    2f30:	2b4e0800 	blcs	1384f38 <_E_text+0x1383a4c>
    2f34:	55030000 	strpl	r0, [r3, #-0]
    2f38:	0000600b 	andeq	r6, r0, fp
    2f3c:	2c020000 	stccs	0, cr0, [r2], {-0}
    2f40:	0300001f 	movweq	r0, #31
    2f44:	02c20257 	sbceq	r0, r2, #1879048197	; 0x70000005
    2f48:	e4040000 	str	r0, [r4], #-0
    2f4c:	05000002 	streq	r0, [r0, #-2]
    2f50:	05710304 	ldrbeq	r0, [r1, #-772]!	; 0xfffffcfc
    2f54:	000003b3 			; <UNDEFINED> instruction: 0x000003b3
    2f58:	0023ed06 	eoreq	lr, r3, r6, lsl #26
    2f5c:	0f720300 	svceq	0x00720300
    2f60:	00000060 	andeq	r0, r0, r0, rrx
    2f64:	021f0104 	andseq	r0, pc, #4, 2
    2f68:	5d060023 	stcpl	0, cr0, [r6, #-140]	; 0xffffff74
    2f6c:	03000022 	movweq	r0, #34	; 0x22
    2f70:	00600f73 	rsbeq	r0, r0, r3, ror pc
    2f74:	01040000 	mrseq	r0, (UNDEF: 4)
    2f78:	0023021e 	eoreq	r0, r3, lr, lsl r2
    2f7c:	00220b06 	eoreq	r0, r2, r6, lsl #22
    2f80:	0f740300 	svceq	0x00740300
    2f84:	00000060 	andeq	r0, r0, r0, rrx
    2f88:	021d0104 	andseq	r0, sp, #4, 2
    2f8c:	0c060023 	stceq	0, cr0, [r6], {35}	; 0x23
    2f90:	03000021 	movweq	r0, #33	; 0x21
    2f94:	00600f75 	rsbeq	r0, r0, r5, ror pc
    2f98:	01040000 	mrseq	r0, (UNDEF: 4)
    2f9c:	0023021c 	eoreq	r0, r3, ip, lsl r2
    2fa0:	0022c206 	eoreq	ip, r2, r6, lsl #4
    2fa4:	0f760300 	svceq	0x00760300
    2fa8:	00000060 	andeq	r0, r0, r0, rrx
    2fac:	021b0104 	andseq	r0, fp, #4, 2
    2fb0:	16060023 	strne	r0, [r6], -r3, lsr #32
    2fb4:	03000020 	movweq	r0, #32
    2fb8:	00600f78 	rsbeq	r0, r0, r8, ror pc
    2fbc:	01040000 	mrseq	r0, (UNDEF: 4)
    2fc0:	00230217 	eoreq	r0, r3, r7, lsl r2
    2fc4:	00231c06 	eoreq	r1, r3, r6, lsl #24
    2fc8:	0f790300 	svceq	0x00790300
    2fcc:	00000060 	andeq	r0, r0, r0, rrx
    2fd0:	02160104 	andseq	r0, r6, #4, 2
    2fd4:	43060023 	movwmi	r0, #24611	; 0x6023
    2fd8:	0300001e 	movweq	r0, #30
    2fdc:	00600f7a 	rsbeq	r0, r0, sl, ror pc
    2fe0:	01040000 	mrseq	r0, (UNDEF: 4)
    2fe4:	00230215 	eoreq	r0, r3, r5, lsl r2
    2fe8:	001e7a06 	andseq	r7, lr, r6, lsl #20
    2fec:	0f7b0300 	svceq	0x007b0300
    2ff0:	00000060 	andeq	r0, r0, r0, rrx
    2ff4:	02140104 	andseq	r0, r4, #4, 2
    2ff8:	4d060023 	stcmi	0, cr0, [r6, #-140]	; 0xffffff74
    2ffc:	03000023 	movweq	r0, #35	; 0x23
    3000:	00600f7d 	rsbeq	r0, r0, sp, ror pc
    3004:	01040000 	mrseq	r0, (UNDEF: 4)
    3008:	0023020f 	eoreq	r0, r3, pc, lsl #4
    300c:	03040700 	movweq	r0, #18176	; 0x4700
    3010:	03d50970 	bicseq	r0, r5, #112, 18	; 0x1c0000
    3014:	28080000 	stmdacs	r8, {}	; <UNPREDICTABLE>
    3018:	03000027 	movweq	r0, #39	; 0x27
    301c:	02f50680 	rscseq	r0, r5, #128, 12	; 0x8000000
    3020:	4e080000 	cdpmi	0, 0, cr0, cr8, cr0, {0}
    3024:	0300002b 	movweq	r0, #43	; 0x2b
    3028:	00600881 	rsbeq	r0, r0, r1, lsl #17
    302c:	02000000 	andeq	r0, r0, #0
    3030:	00001edb 	ldrdeq	r1, [r0], -fp
    3034:	b3028203 	movwlt	r8, #8707	; 0x2203
    3038:	04000003 	streq	r0, [r0], #-3
    303c:	000003d5 	ldrdeq	r0, [r0], -r5
    3040:	85030405 	strhi	r0, [r3, #-1029]	; 0xfffffbfb
    3044:	0004a405 	andeq	sl, r4, r5, lsl #8
    3048:	20c60600 	sbccs	r0, r6, r0, lsl #12
    304c:	87030000 	strhi	r0, [r3, -r0]
    3050:	0000600f 	andeq	r6, r0, pc
    3054:	1f010400 	svcne	0x00010400
    3058:	06002302 	streq	r2, [r0], -r2, lsl #6
    305c:	000023bd 			; <UNDEFINED> instruction: 0x000023bd
    3060:	600f8803 	andvs	r8, pc, r3, lsl #16
    3064:	04000000 	streq	r0, [r0], #-0
    3068:	23021e01 	movwcs	r1, #11777	; 0x2e01
    306c:	22ea0600 	rsccs	r0, sl, #0, 12
    3070:	89030000 	stmdbhi	r3, {}	; <UNPREDICTABLE>
    3074:	0000600f 	andeq	r6, r0, pc
    3078:	1d010400 	cfstrsne	mvf0, [r1, #-0]
    307c:	06002302 	streq	r2, [r0], -r2, lsl #6
    3080:	00001efe 	strdeq	r1, [r0], -lr
    3084:	600f8a03 	andvs	r8, pc, r3, lsl #20
    3088:	04000000 	streq	r0, [r0], #-0
    308c:	23021c01 	movwcs	r1, #11265	; 0x2c01
    3090:	20540600 	subscs	r0, r4, r0, lsl #12
    3094:	8b030000 	blhi	c309c <_E_text+0xc1bb0>
    3098:	0000600f 	andeq	r6, r0, pc
    309c:	1b010400 	blne	440a4 <_E_text+0x42bb8>
    30a0:	06002302 	streq	r2, [r0], -r2, lsl #6
    30a4:	00002453 	andeq	r2, r0, r3, asr r4
    30a8:	600f8d03 	andvs	r8, pc, r3, lsl #26
    30ac:	04000000 	streq	r0, [r0], #-0
    30b0:	23021701 	movwcs	r1, #9985	; 0x2701
    30b4:	20af0600 	adccs	r0, pc, r0, lsl #12
    30b8:	8e030000 	cdphi	0, 0, cr0, cr3, cr0, {0}
    30bc:	0000600f 	andeq	r6, r0, pc
    30c0:	16010400 	strne	r0, [r1], -r0, lsl #8
    30c4:	06002302 	streq	r2, [r0], -r2, lsl #6
    30c8:	00001fd5 	ldrdeq	r1, [r0], -r5
    30cc:	600f8f03 	andvs	r8, pc, r3, lsl #30
    30d0:	04000000 	streq	r0, [r0], #-0
    30d4:	23021501 	movwcs	r1, #9473	; 0x2501
    30d8:	1e4b0600 	cdpne	6, 4, cr0, cr11, cr0, {0}
    30dc:	90030000 	andls	r0, r3, r0
    30e0:	0000600f 	andeq	r6, r0, pc
    30e4:	14010400 	strne	r0, [r1], #-1024	; 0xfffffc00
    30e8:	06002302 	streq	r2, [r0], -r2, lsl #6
    30ec:	00002162 	andeq	r2, r0, r2, ror #2
    30f0:	600f9203 	andvs	r9, pc, r3, lsl #4
    30f4:	04000000 	streq	r0, [r0], #-0
    30f8:	23020f01 	movwcs	r0, #12033	; 0x2f01
    30fc:	04070000 	streq	r0, [r7], #-0
    3100:	c6098403 	strgt	r8, [r9], -r3, lsl #8
    3104:	08000004 	stmdaeq	r0, {r2}
    3108:	00002728 	andeq	r2, r0, r8, lsr #14
    310c:	e6069403 	str	r9, [r6], -r3, lsl #8
    3110:	08000003 	stmdaeq	r0, {r0, r1}
    3114:	00002b4e 	andeq	r2, r0, lr, asr #22
    3118:	600b9503 	andvs	r9, fp, r3, lsl #10
    311c:	00000000 	andeq	r0, r0, r0
    3120:	00234102 	eoreq	r4, r3, r2, lsl #2
    3124:	02960300 	addseq	r0, r6, #0, 6
    3128:	000004a4 	andeq	r0, r0, r4, lsr #9
    312c:	0004c604 	andeq	ip, r4, r4, lsl #12
    3130:	01070900 	tsteq	r7, r0, lsl #18
    3134:	00000033 	andeq	r0, r0, r3, lsr r0
    3138:	160e2a04 	strne	r2, [lr], -r4, lsl #20
    313c:	0a000005 	beq	3158 <_E_text+0x1c6c>
    3140:	00000d79 	andeq	r0, r0, r9, ror sp
    3144:	0d860a00 	vstreq	s0, [r6]
    3148:	0a010000 	beq	43150 <_E_text+0x41c64>
    314c:	00000d93 	muleq	r0, r3, sp
    3150:	0da00a02 			; <UNDEFINED> instruction: 0x0da00a02
    3154:	0a030000 	beq	c315c <_E_text+0xc1c70>
    3158:	00000dad 	andeq	r0, r0, sp, lsr #27
    315c:	0dba0a04 			; <UNDEFINED> instruction: 0x0dba0a04
    3160:	0a050000 	beq	143168 <_E_text+0x141c7c>
    3164:	00000dc7 	andeq	r0, r0, r7, asr #27
    3168:	0dd40a06 	vldreq	s1, [r4, #24]
    316c:	00070000 	andeq	r0, r7, r0
    3170:	0014df02 	andseq	sp, r4, r2, lsl #30
    3174:	02350400 	eorseq	r0, r5, #0, 8
    3178:	000004d7 	ldrdeq	r0, [r0], -r7
    317c:	33010709 	movwcc	r0, #5897	; 0x1709
    3180:	04000000 	streq	r0, [r0], #-0
    3184:	055b0d38 	ldrbeq	r0, [fp, #-3384]	; 0xfffff2c8
    3188:	e60a0000 	str	r0, [sl], -r0
    318c:	0000000c 	andeq	r0, r0, ip
    3190:	000ef70a 	andeq	pc, lr, sl, lsl #14
    3194:	fd0a0100 	stc2	1, cr0, [sl, #-0]
    3198:	0200000e 	andeq	r0, r0, #14
    319c:	0000c80a 	andeq	ip, r0, sl, lsl #16
    31a0:	ce0a0300 	cdpgt	3, 0, cr0, cr10, cr0, {0}
    31a4:	04000000 	streq	r0, [r0], #-0
    31a8:	0000d40a 	andeq	sp, r0, sl, lsl #8
    31ac:	f80a0500 			; <UNDEFINED> instruction: 0xf80a0500
    31b0:	0600000d 	streq	r0, [r0], -sp
    31b4:	177e0200 	ldrbne	r0, [lr, -r0, lsl #4]!
    31b8:	41040000 	mrsmi	r0, (UNDEF: 4)
    31bc:	00052202 	andeq	r2, r5, r2, lsl #4
    31c0:	04030500 	streq	r0, [r3], #-1280	; 0xfffffb00
    31c4:	059e09a1 	ldreq	r0, [lr, #2465]	; 0x9a1
    31c8:	3d0b0000 	stccc	0, cr0, [fp, #-0]
    31cc:	04000014 	streq	r0, [r0], #-20	; 0xffffffec
    31d0:	055b1ca2 	ldrbeq	r1, [fp, #-3234]	; 0xfffff35e
    31d4:	23020000 	movwcs	r0, #8192	; 0x2000
    31d8:	15990b00 	ldrne	r0, [r9, #2816]	; 0xb00
    31dc:	a3040000 	movwge	r0, #16384	; 0x4000
    31e0:	00051620 	andeq	r1, r5, r0, lsr #12
    31e4:	01230200 			; <UNDEFINED> instruction: 0x01230200
    31e8:	0019f30b 	andseq	pc, r9, fp, lsl #6
    31ec:	0aa40400 	beq	fe9041f4 <_E_BSS+0xde902400>
    31f0:	00000027 	andeq	r0, r0, r7, lsr #32
    31f4:	00022302 	andeq	r2, r2, r2, lsl #6
    31f8:	0005670c 	andeq	r6, r5, ip, lsl #14
    31fc:	1ab10200 	bne	fec43a04 <_E_BSS+0xdec41c10>
    3200:	a5040000 	strge	r0, [r4, #-0]
    3204:	00059e08 	andeq	r9, r5, r8, lsl #28
    3208:	07040300 	streq	r0, [r4, -r0, lsl #6]
    320c:	0000052c 	andeq	r0, r0, ip, lsr #10
    3210:	05a3040d 	streq	r0, [r3, #1037]!	; 0x40d
    3214:	07090000 	streq	r0, [r9, -r0]
    3218:	00003301 	andeq	r3, r0, r1, lsl #6
    321c:	0d2a0500 	cfstr32eq	mvfx0, [sl, #-0]
    3220:	000005f5 	strdeq	r0, [r0], -r5
    3224:	001d320a 	andseq	r3, sp, sl, lsl #4
    3228:	390a0000 	stmdbcc	sl, {}	; <UNPREDICTABLE>
    322c:	0100001d 	tsteq	r0, sp, lsl r0
    3230:	001d400a 	andseq	r4, sp, sl
    3234:	470a0200 	strmi	r0, [sl, -r0, lsl #4]
    3238:	0300001d 	movweq	r0, #29
    323c:	001d4e0a 	andseq	r4, sp, sl, lsl #28
    3240:	550a0400 	strpl	r0, [sl, #-1024]	; 0xfffffc00
    3244:	0500001d 	streq	r0, [r0, #-29]	; 0xffffffe3
    3248:	001d780a 	andseq	r7, sp, sl, lsl #16
    324c:	02000600 	andeq	r0, r0, #0, 12
    3250:	00001ee7 	andeq	r1, r0, r7, ror #29
    3254:	bc023205 	sfmlt	f3, 4, [r2], {5}
    3258:	09000005 	stmdbeq	r0, {r0, r2}
    325c:	00330107 	eorseq	r0, r3, r7, lsl #2
    3260:	35050000 	strcc	r0, [r5, #-0]
    3264:	0006220d 	andeq	r2, r6, sp, lsl #4
    3268:	1d5c0a00 	vldrne	s1, [ip, #-0]
    326c:	0a000000 	beq	3274 <_E_text+0x1d88>
    3270:	00001e00 	andeq	r1, r0, r0, lsl #28
    3274:	20930a01 	addscs	r0, r3, r1, lsl #20
    3278:	00020000 	andeq	r0, r2, r0
    327c:	00219702 	eoreq	r9, r1, r2, lsl #14
    3280:	02390500 	eorseq	r0, r9, #0, 10
    3284:	00000601 	andeq	r0, r0, r1, lsl #12
    3288:	33010709 	movwcc	r0, #5897	; 0x1709
    328c:	05000000 	streq	r0, [r0, #-0]
    3290:	06490d3c 			; <UNDEFINED> instruction: 0x06490d3c
    3294:	d30a0000 	movwle	r0, #40960	; 0xa000
    3298:	00000022 	andeq	r0, r0, r2, lsr #32
    329c:	0022e30a 	eoreq	lr, r2, sl, lsl #6
    32a0:	02000800 	andeq	r0, r0, #0, 16
    32a4:	00001fab 	andeq	r1, r0, fp, lsr #31
    32a8:	2e023f05 	cdpcs	15, 0, cr3, cr2, cr5, {0}
    32ac:	09000006 	stmdbeq	r0, {r1, r2}
    32b0:	00330107 	eorseq	r0, r3, r7, lsl #2
    32b4:	42050000 	andmi	r0, r5, #0
    32b8:	0006820d 	andeq	r8, r6, sp, lsl #4
    32bc:	22ca0a00 	sbccs	r0, sl, #0, 20
    32c0:	0a000000 	beq	32c8 <_E_text+0x1ddc>
    32c4:	00002272 	andeq	r2, r0, r2, ror r2
    32c8:	22da0a01 	sbcscs	r0, sl, #4096	; 0x1000
    32cc:	0a020000 	beq	832d4 <_E_text+0x81de8>
    32d0:	000020b6 	strheq	r2, [r0], -r6
    32d4:	1fdc0a03 	svcne	0x00dc0a03
    32d8:	00040000 	andeq	r0, r4, r0
    32dc:	00235b02 	eoreq	r5, r3, r2, lsl #22
    32e0:	02480500 	subeq	r0, r8, #0, 10
    32e4:	00000655 	andeq	r0, r0, r5, asr r6
    32e8:	33010709 	movwcc	r0, #5897	; 0x1709
    32ec:	05000000 	streq	r0, [r0, #-0]
    32f0:	06af0d4b 	strteq	r0, [pc], fp, asr #26
    32f4:	1f0a0000 	svcne	0x000a0000
    32f8:	00000020 	andeq	r0, r0, r0, lsr #32
    32fc:	0023b00a 	eoreq	fp, r3, sl
    3300:	890a0100 	stmdbhi	sl, {r8}
    3304:	0400001f 	streq	r0, [r0], #-31	; 0xffffffe1
    3308:	01070900 	tsteq	r7, r0, lsl #18
    330c:	00000033 	andeq	r0, r0, r3, lsr r0
    3310:	d00e5805 	andle	r5, lr, r5, lsl #16
    3314:	0a000006 	beq	3334 <_E_text+0x1e48>
    3318:	00002156 	andeq	r2, r0, r6, asr r1
    331c:	1e1c0a01 	vnmlsne.f32	s0, s24, s2
    3320:	0a020000 	beq	83328 <_E_text+0x81e3c>
    3324:	0000238b 	andeq	r2, r0, fp, lsl #7
    3328:	07090003 	streq	r0, [r9, -r3]
    332c:	00003301 	andeq	r3, r0, r1, lsl #6
    3330:	0e650500 	cdpeq	5, 6, cr0, cr5, cr0, {0}
    3334:	000006eb 	andeq	r0, r0, fp, ror #13
    3338:	001e290a 	andseq	r2, lr, sl, lsl #18
    333c:	970a0000 	strls	r0, [sl, -r0]
    3340:	01000023 	tsteq	r0, r3, lsr #32
    3344:	01070900 	tsteq	r7, r0, lsl #18
    3348:	00000033 	andeq	r0, r0, r3, lsr r0
    334c:	060e6b05 	streq	r6, [lr], -r5, lsl #22
    3350:	0a000007 	beq	3374 <_E_text+0x1e88>
    3354:	00001db7 			; <UNDEFINED> instruction: 0x00001db7
    3358:	1f980a00 	svcne	0x00980a00
    335c:	00010000 	andeq	r0, r1, r0
    3360:	af040709 	svcge	0x00040709
    3364:	05000005 	streq	r0, [r0, #-5]
    3368:	072b0f71 			; <UNDEFINED> instruction: 0x072b0f71
    336c:	370e0000 	strcc	r0, [lr, -r0]
    3370:	e8000023 	stmda	r0, {r0, r1, r5}
    3374:	21dc0f03 	bicscs	r0, ip, r3, lsl #30
    3378:	42400000 	submi	r0, r0, #0
    337c:	5310000f 	tstpl	r0, #15
    3380:	01006365 	tsteq	r0, r5, ror #6
    3384:	21860200 	orrcs	r0, r6, r0, lsl #4
    3388:	75050000 	strvc	r0, [r5, #-0]
    338c:	00070603 	andeq	r0, r7, r3, lsl #12
    3390:	05040500 	streq	r0, [r4, #-1280]	; 0xfffffb00
    3394:	077d0a7a 			; <UNDEFINED> instruction: 0x077d0a7a
    3398:	180b0000 	stmdane	fp, {}	; <UNPREDICTABLE>
    339c:	05000024 	streq	r0, [r0, #-36]	; 0xffffffdc
    33a0:	06221e7b 			; <UNDEFINED> instruction: 0x06221e7b
    33a4:	23020000 	movwcs	r0, #8192	; 0x2000
    33a8:	242a0b00 	strtcs	r0, [sl], #-2816	; 0xfffff500
    33ac:	7c050000 	stcvc	0, cr0, [r5], {-0}
    33b0:	0006491f 	andeq	r4, r6, pc, lsl r9
    33b4:	01230200 			; <UNDEFINED> instruction: 0x01230200
    33b8:	00205b0b 	eoreq	r5, r0, fp, lsl #22
    33bc:	227d0500 	rsbscs	r0, sp, #0, 10
    33c0:	00000682 	andeq	r0, r0, r2, lsl #13
    33c4:	0b022302 	bleq	8bfd4 <_E_text+0x8aae8>
    33c8:	00001ecb 	andeq	r1, r0, fp, asr #29
    33cc:	f51c7e05 			; <UNDEFINED> instruction: 0xf51c7e05
    33d0:	02000005 	andeq	r0, r0, #5
    33d4:	0c000323 	stceq	3, cr0, [r0], {35}	; 0x23
    33d8:	00000737 	andeq	r0, r0, r7, lsr r7
    33dc:	00211402 	eoreq	r1, r1, r2, lsl #8
    33e0:	09800500 	stmibeq	r0, {r8, sl}
    33e4:	0000077d 	andeq	r0, r0, sp, ror r7
    33e8:	0782040d 	streq	r0, [r2, sp, lsl #8]
    33ec:	af110000 	svcge	0x00110000
    33f0:	a4000007 	strge	r0, [r0], #-7
    33f4:	12000007 	andne	r0, r0, #7
    33f8:	000005af 	andeq	r0, r0, pc, lsr #11
    33fc:	940c0005 	strls	r0, [ip], #-5
    3400:	0d000007 	stceq	0, cr0, [r0, #-28]	; 0xffffffe4
    3404:	0007b404 	andeq	fp, r7, r4, lsl #8
    3408:	07a90c00 	streq	r0, [r9, r0, lsl #24]!
    340c:	14130000 	ldrne	r0, [r3], #-0
    3410:	00002071 	andeq	r2, r0, r1, ror r0
    3414:	a41d2001 	ldrge	r2, [sp], #-1
    3418:	05000007 	streq	r0, [r0, #-7]
    341c:	0004dc03 	andeq	sp, r4, r3, lsl #24
    3420:	23f61400 	mvnscs	r1, #0, 8
    3424:	30010000 	andcc	r0, r1, r0
    3428:	0007a41d 	andeq	sl, r7, sp, lsl r4
    342c:	f4030500 	vst3.8	{d0,d2,d4}, [r3], r0
    3430:	11000004 	tstne	r0, r4
    3434:	000007f4 	strdeq	r0, [r0], -r4
    3438:	000007e9 	andeq	r0, r0, r9, ror #15
    343c:	0005af12 	andeq	sl, r5, r2, lsl pc
    3440:	0c000500 	cfstr32eq	mvfx0, [r0], {-0}
    3444:	000007d9 	ldrdeq	r0, [r0], -r9
    3448:	004d040d 	subeq	r0, sp, sp, lsl #8
    344c:	ee0c0000 	cdp	0, 0, cr0, cr12, cr0, {0}
    3450:	14000007 	strne	r0, [r0], #-7
    3454:	00002213 	andeq	r2, r0, r3, lsl r2
    3458:	e91e3a01 	ldmdb	lr, {r0, r9, fp, ip, sp}
    345c:	05000007 	streq	r0, [r0, #-7]
    3460:	00050c03 	andeq	r0, r5, r3, lsl #24
    3464:	08261100 	stmdaeq	r6!, {r8, ip}
    3468:	081b0000 	ldmdaeq	fp, {}	; <UNPREDICTABLE>
    346c:	af120000 	svcge	0x00120000
    3470:	05000005 	streq	r0, [r0, #-5]
    3474:	080b0c00 	stmdaeq	fp, {sl, fp}
    3478:	040d0000 	streq	r0, [sp], #-0
    347c:	0000006c 	andeq	r0, r0, ip, rrx
    3480:	0008200c 	andeq	r2, r8, ip
    3484:	20ce1400 	sbccs	r1, lr, r0, lsl #8
    3488:	43010000 	movwmi	r0, #4096	; 0x1000
    348c:	00081b1e 	andeq	r1, r8, lr, lsl fp
    3490:	24030500 	strcs	r0, [r3], #-1280	; 0xfffffb00
    3494:	14000005 	strne	r0, [r0], #-5
    3498:	00001e82 	andeq	r1, r0, r2, lsl #29
    349c:	a41d5501 	ldrge	r5, [sp], #-1281	; 0xfffffaff
    34a0:	05000007 	streq	r0, [r0, #-7]
    34a4:	00053c03 	andeq	r3, r5, r3, lsl #24
    34a8:	1ff21400 	svcne	0x00f21400
    34ac:	5e010000 	cdppl	0, 0, cr0, cr1, cr0, {0}
    34b0:	00081b1e 	andeq	r1, r8, lr, lsl fp
    34b4:	54030500 	strpl	r0, [r3], #-1280	; 0xfffffb00
    34b8:	11000005 	tstne	r0, r5
    34bc:	00000882 	andeq	r0, r0, r2, lsl #17
    34c0:	00000877 	andeq	r0, r0, r7, ror r8
    34c4:	0005af12 	andeq	sl, r5, r2, lsl pc
    34c8:	af120300 	svcge	0x00120300
    34cc:	05000005 	streq	r0, [r0, #-5]
    34d0:	08610c00 	stmdaeq	r1!, {sl, fp}^
    34d4:	040d0000 	streq	r0, [sp], #-0
    34d8:	000002f0 	strdeq	r0, [r0], -r0	; <UNPREDICTABLE>
    34dc:	00087c0c 	andeq	r7, r8, ip, lsl #24
    34e0:	21691400 	cmncs	r9, r0, lsl #8
    34e4:	6a010000 	bvs	434ec <_E_text+0x42000>
    34e8:	00087724 	andeq	r7, r8, r4, lsr #14
    34ec:	6c030500 	cfstr32vs	mvfx0, [r3], {-0}
    34f0:	11000005 	tstne	r0, r5
    34f4:	000008ba 			; <UNDEFINED> instruction: 0x000008ba
    34f8:	000008af 	andeq	r0, r0, pc, lsr #17
    34fc:	0005af12 	andeq	sl, r5, r2, lsl pc
    3500:	af120100 	svcge	0x00120100
    3504:	05000005 	streq	r0, [r0, #-5]
    3508:	08990c00 	ldmeq	r9, {sl, fp}
    350c:	040d0000 	streq	r0, [sp], #-0
    3510:	0000019e 	muleq	r0, lr, r1
    3514:	0008b40c 	andeq	fp, r8, ip, lsl #8
    3518:	22651400 	rsbcs	r1, r5, #0, 8
    351c:	8f010000 	svchi	0x00010000
    3520:	0008af24 	andeq	sl, r8, r4, lsr #30
    3524:	cc030500 	cfstr32gt	mvfx0, [r3], {-0}
    3528:	11000005 	tstne	r0, r5
    352c:	000008f2 	strdeq	r0, [r0], -r2
    3530:	000008e7 	andeq	r0, r0, r7, ror #17
    3534:	0005af12 	andeq	sl, r5, r2, lsl pc
    3538:	af120100 	svcge	0x00120100
    353c:	05000005 	streq	r0, [r0, #-5]
    3540:	08d10c00 	ldmeq	r1, {sl, fp}^
    3544:	040d0000 	streq	r0, [sp], #-0
    3548:	000001ed 	andeq	r0, r0, sp, ror #3
    354c:	0008ec0c 	andeq	lr, r8, ip, lsl #24
    3550:	1e521400 	cdpne	4, 5, cr1, cr2, cr0, {0}
    3554:	a7010000 	strge	r0, [r1, -r0]
    3558:	0008e724 	andeq	lr, r8, r4, lsr #14
    355c:	fc030500 	stc2	5, cr0, [r3], {-0}
    3560:	11000005 	tstne	r0, r5
    3564:	0000092a 	andeq	r0, r0, sl, lsr #18
    3568:	0000091f 	andeq	r0, r0, pc, lsl r9
    356c:	0005af12 	andeq	sl, r5, r2, lsl pc
    3570:	af120100 	svcge	0x00120100
    3574:	05000005 	streq	r0, [r0, #-5]
    3578:	09090c00 	stmdbeq	r9, {sl, fp}
    357c:	040d0000 	streq	r0, [sp], #-0
    3580:	000003e1 	andeq	r0, r0, r1, ror #7
    3584:	0009240c 	andeq	r2, r9, ip, lsl #8
    3588:	1f4a1400 	svcne	0x004a1400
    358c:	bd010000 	stclt	0, cr0, [r1, #-0]
    3590:	00091f24 	andeq	r1, r9, r4, lsr #30
    3594:	2c030500 	cfstr32cs	mvfx0, [r3], {-0}
    3598:	11000006 	tstne	r0, r6
    359c:	00000962 	andeq	r0, r0, r2, ror #18
    35a0:	00000957 	andeq	r0, r0, r7, asr r9
    35a4:	0005af12 	andeq	sl, r5, r2, lsl pc
    35a8:	af120100 	svcge	0x00120100
    35ac:	05000005 	streq	r0, [r0, #-5]
    35b0:	09410c00 	stmdbeq	r1, {sl, fp}^
    35b4:	040d0000 	streq	r0, [sp], #-0
    35b8:	000004d2 	ldrdeq	r0, [r0], -r2
    35bc:	00095c0c 	andeq	r5, r9, ip, lsl #24
    35c0:	1f051400 	svcne	0x00051400
    35c4:	d5010000 	strle	r0, [r1, #-0]
    35c8:	00095724 	andeq	r5, r9, r4, lsr #14
    35cc:	5c030500 	cfstr32pl	mvfx0, [r3], {-0}
    35d0:	15000006 	strne	r0, [r0, #-6]
    35d4:	00203001 	eoreq	r3, r0, r1
    35d8:	01610100 	cmneq	r1, r0, lsl #2
    35dc:	00000106 	andeq	r0, r0, r6, lsl #2
    35e0:	00000000 	andeq	r0, r0, r0
    35e4:	0f980000 	svceq	0x00980000
    35e8:	f6010000 			; <UNDEFINED> instruction: 0xf6010000
    35ec:	16000009 	strne	r0, [r0], -r9
    35f0:	000012fb 	strdeq	r1, [r0], -fp
    35f4:	36016101 	strcc	r6, [r1], -r1, lsl #2
    35f8:	0000078e 	andeq	r0, r0, lr, lsl #15
    35fc:	165c9102 	ldrbne	r9, [ip], -r2, lsl #2
    3600:	000020ff 	strdeq	r2, [r0], -pc	; <UNPREDICTABLE>
    3604:	53016101 	movwpl	r6, #4353	; 0x1101
    3608:	00000060 	andeq	r0, r0, r0, rrx
    360c:	16589102 	ldrbne	r9, [r8], -r2, lsl #2
    3610:	00002102 	andeq	r2, r0, r2, lsl #2
    3614:	72016101 	andvc	r6, r1, #1073741824	; 0x40000000
    3618:	0000072b 	andeq	r0, r0, fp, lsr #14
    361c:	17549102 	ldrbne	r9, [r4, -r2, lsl #2]
    3620:	00002378 	andeq	r2, r0, r8, ror r3
    3624:	0d016301 	stceq	3, cr6, [r1, #-4]
    3628:	0000008d 	andeq	r0, r0, sp, lsl #1
    362c:	17689102 	strbne	r9, [r8, -r2, lsl #2]!
    3630:	00002293 	muleq	r0, r3, r2
    3634:	0d016401 	cfstrseq	mvf6, [r1, #-4]
    3638:	00000060 	andeq	r0, r0, r0, rrx
    363c:	17649102 	strbne	r9, [r4, -r2, lsl #2]!
    3640:	00002231 	andeq	r2, r0, r1, lsr r2
    3644:	0b017101 	bleq	5fa50 <_E_text+0x5e564>
    3648:	00000060 	andeq	r0, r0, r0, rrx
    364c:	00749102 	rsbseq	r9, r4, r2, lsl #2
    3650:	1d8d0115 	stfnes	f0, [sp, #84]	; 0x54
    3654:	50010000 	andpl	r0, r1, r0
    3658:	00010601 	andeq	r0, r1, r1, lsl #12
    365c:	00000000 	andeq	r0, r0, r0
    3660:	e8000000 	stmda	r0, {}	; <UNPREDICTABLE>
    3664:	0100000f 	tsteq	r0, pc
    3668:	00000a33 	andeq	r0, r0, r3, lsr sl
    366c:	001de616 	andseq	lr, sp, r6, lsl r6
    3670:	01500100 	cmpeq	r0, r0, lsl #2
    3674:	0005b63b 	andeq	fp, r5, fp, lsr r6
    3678:	74910200 	ldrvc	r0, [r1], #512	; 0x200
    367c:	0012fb16 	andseq	pc, r2, r6, lsl fp	; <UNPREDICTABLE>
    3680:	01500100 	cmpeq	r0, r0, lsl #2
    3684:	00078e73 	andeq	r8, r7, r3, ror lr
    3688:	70910200 	addsvc	r0, r1, r0, lsl #4
    368c:	e6011500 	str	r1, [r1], -r0, lsl #10
    3690:	01000021 	tsteq	r0, r1, lsr #32
    3694:	0106012a 	tsteq	r6, sl, lsr #2
	...
    36a0:	00001038 	andeq	r1, r0, r8, lsr r0
    36a4:	000ab001 	andeq	fp, sl, r1
    36a8:	1f171600 	svcne	0x00171600
    36ac:	2a010000 	bcs	436b4 <_E_text+0x421c8>
    36b0:	078e3401 	streq	r3, [lr, r1, lsl #8]
    36b4:	91020000 	mrsls	r0, (UNDEF: 2)
    36b8:	30b91664 	adcscc	r1, r9, r4, ror #12
    36bc:	2a010000 	bcs	436c4 <_E_text+0x421d8>
    36c0:	00605001 	rsbeq	r5, r0, r1
    36c4:	91020000 	mrsls	r0, (UNDEF: 2)
    36c8:	20a51660 	adccs	r1, r5, r0, ror #12
    36cc:	2a010000 	bcs	436d4 <_E_text+0x421e8>
    36d0:	00276201 	eoreq	r6, r7, r1, lsl #4
    36d4:	91020000 	mrsls	r0, (UNDEF: 2)
    36d8:	2378175f 	cmncs	r8, #24903680	; 0x17c0000
    36dc:	2e010000 	cdpcs	0, 0, cr0, cr1, cr0, {0}
    36e0:	008d0801 	addeq	r0, sp, r1, lsl #16
    36e4:	91020000 	mrsls	r0, (UNDEF: 2)
    36e8:	20091770 	andcs	r1, r9, r0, ror r7
    36ec:	2f010000 	svccs	0x00010000
    36f0:	00600801 	rsbeq	r0, r0, r1, lsl #16
    36f4:	91020000 	mrsls	r0, (UNDEF: 2)
    36f8:	2293176c 	addscs	r1, r3, #108, 14	; 0x1b00000
    36fc:	30010000 	andcc	r0, r1, r0
    3700:	00600801 	rsbeq	r0, r0, r1, lsl #16
    3704:	91020000 	mrsls	r0, (UNDEF: 2)
    3708:	01150068 	tsteq	r5, r8, rrx
    370c:	00002309 	andeq	r2, r0, r9, lsl #6
    3710:	06011201 	streq	r1, [r1], -r1, lsl #4
    3714:	00000001 	andeq	r0, r0, r1
    3718:	00000000 	andeq	r0, r0, r0
    371c:	00108800 	andseq	r8, r0, r0, lsl #16
    3720:	0aed0100 	beq	ffb43b28 <_E_BSS+0xdfb41d34>
    3724:	17160000 	ldrne	r0, [r6, -r0]
    3728:	0100001f 	tsteq	r0, pc, lsl r0
    372c:	8e360112 	mrchi	1, 1, r0, cr6, cr2, {0}
    3730:	02000007 	andeq	r0, r0, #7
    3734:	b0167491 	mulslt	r6, r1, r4
    3738:	01000021 	tsteq	r0, r1, lsr #32
    373c:	b6670112 			; <UNDEFINED> instruction: 0xb6670112
    3740:	02000005 	andeq	r0, r0, #5
    3744:	18007091 	stmdane	r0, {r0, r4, r7, ip, sp, lr}
    3748:	00001f38 	andeq	r1, r0, r8, lsr pc
    374c:	14010501 	strne	r0, [r1], #-1281	; 0xfffffaff
    3750:	00000001 	andeq	r0, r0, r1
    3754:	00000000 	andeq	r0, r0, r0
    3758:	0010d800 	andseq	sp, r0, r0, lsl #16
    375c:	0b390100 	bleq	e43b64 <_E_text+0xe42678>
    3760:	2a160000 	bcs	583768 <_E_text+0x58227c>
    3764:	01000024 	tsteq	r0, r4, lsr #32
    3768:	49400105 	stmdbmi	r0, {r0, r2, r8}^
    376c:	02000006 	andeq	r0, r0, #6
    3770:	e7166f91 			; <UNDEFINED> instruction: 0xe7166f91
    3774:	0100001e 	tsteq	r0, lr, lsl r0
    3778:	f56b0105 			; <UNDEFINED> instruction: 0xf56b0105
    377c:	02000005 	andeq	r0, r0, #5
    3780:	18166e91 	ldmdane	r6, {r0, r4, r7, r9, sl, fp, sp, lr}
    3784:	01000024 	tsteq	r0, r4, lsr #32
    3788:	229d0105 	addscs	r0, sp, #1073741825	; 0x40000001
    378c:	02000006 	andeq	r0, r0, #6
    3790:	18006d91 	stmdane	r0, {r0, r4, r7, r8, sl, fp, sp, lr}
    3794:	00002282 	andeq	r2, r0, r2, lsl #5
    3798:	14010001 	strne	r0, [r1], #-1
    379c:	00000001 	andeq	r0, r0, r1
    37a0:	00000000 	andeq	r0, r0, r0
    37a4:	00113400 	andseq	r3, r1, r0, lsl #8
    37a8:	0b850100 	bleq	fe143bb0 <_E_BSS+0xde141dbc>
    37ac:	2a160000 	bcs	5837b4 <_E_text+0x5822c8>
    37b0:	01000024 	tsteq	r0, r4, lsr #32
    37b4:	493f0100 	ldmdbmi	pc!, {r8}	; <UNPREDICTABLE>
    37b8:	02000006 	andeq	r0, r0, #6
    37bc:	e7166f91 			; <UNDEFINED> instruction: 0xe7166f91
    37c0:	0100001e 	tsteq	r0, lr, lsl r0
    37c4:	f56a0100 			; <UNDEFINED> instruction: 0xf56a0100
    37c8:	02000005 	andeq	r0, r0, #5
    37cc:	18166e91 	ldmdane	r6, {r0, r4, r7, r9, sl, fp, sp, lr}
    37d0:	01000024 	tsteq	r0, r4, lsr #32
    37d4:	229c0100 	addscs	r0, ip, #0, 2
    37d8:	02000006 	andeq	r0, r0, #6
    37dc:	19006d91 	stmdbne	r0, {r0, r4, r7, r8, sl, fp, sp, lr}
    37e0:	000021f7 	strdeq	r2, [r0], -r7
    37e4:	0114f301 	tsteq	r4, r1, lsl #6	; <UNPREDICTABLE>
	...
    37f0:	00001190 	muleq	r0, r0, r1
    37f4:	1ee71a01 	vfmane.f32	s3, s14, s2
    37f8:	f3010000 	vhadd.u8	d0, d1, d0
    37fc:	0005f53f 	andeq	pc, r5, pc, lsr r5	; <UNPREDICTABLE>
    3800:	77910200 	ldrvc	r0, [r1, r0, lsl #4]
    3804:	0024181a 	eoreq	r1, r4, sl, lsl r8
    3808:	70f30100 	rscsvc	r0, r3, r0, lsl #2
    380c:	00000622 	andeq	r0, r0, r2, lsr #12
    3810:	00769102 	rsbseq	r9, r6, r2, lsl #2
    3814:	00029d00 	andeq	r9, r2, r0, lsl #26
    3818:	1a000200 	bne	4020 <_E_text+0x2b34>
    381c:	04000007 	streq	r0, [r0], #-7
    3820:	0001ac01 	andeq	sl, r1, r1, lsl #24
    3824:	253c0c00 	ldrcs	r0, [ip, #-3072]!	; 0xfffff400
    3828:	002e0000 	eoreq	r0, lr, r0
    382c:	00000dc0 	andeq	r0, r0, r0, asr #27
    3830:	14080102 	strne	r0, [r8], #-258	; 0xfffffefe
    3834:	0200000d 	andeq	r0, r0, #13
    3838:	0d160601 	ldceq	6, cr0, [r6, #-4]
    383c:	02020000 	andeq	r0, r2, #0
    3840:	000ee407 	andeq	lr, lr, r7, lsl #8
    3844:	05020200 	streq	r0, [r2, #-512]	; 0xfffffe00
    3848:	00000a63 	andeq	r0, r0, r3, ror #20
    384c:	27070402 	strcs	r0, [r7, -r2, lsl #8]
    3850:	02000005 	andeq	r0, r0, #5
    3854:	08080504 	stmdaeq	r8, {r2, r8, sl}
    3858:	04020000 	streq	r0, [r2], #-0
    385c:	00050a04 	andeq	r0, r5, r4, lsl #20
    3860:	04080200 	streq	r0, [r8], #-512	; 0xfffffe00
    3864:	000009b1 			; <UNDEFINED> instruction: 0x000009b1
    3868:	22070802 	andcs	r0, r7, #131072	; 0x20000
    386c:	02000005 	andeq	r0, r0, #5
    3870:	052c0704 	streq	r0, [ip, #-1796]!	; 0xfffff8fc
    3874:	07030000 	streq	r0, [r3, -r0]
    3878:	00001b01 	andeq	r1, r0, r1, lsl #22
    387c:	0d2a0100 	stfeqs	f0, [sl, #-0]
    3880:	0000009a 	muleq	r0, sl, r0
    3884:	001d3204 	andseq	r3, sp, r4, lsl #4
    3888:	39040000 	stmdbcc	r4, {}	; <UNPREDICTABLE>
    388c:	0100001d 	tsteq	r0, sp, lsl r0
    3890:	001d4004 	andseq	r4, sp, r4
    3894:	47040200 	strmi	r0, [r4, -r0, lsl #4]
    3898:	0300001d 	movweq	r0, #29
    389c:	001d4e04 	andseq	r4, sp, r4, lsl #28
    38a0:	55040400 	strpl	r0, [r4, #-1024]	; 0xfffffc00
    38a4:	0500001d 	streq	r0, [r0, #-29]	; 0xffffffe3
    38a8:	001d7804 	andseq	r7, sp, r4, lsl #16
    38ac:	05000600 	streq	r0, [r0, #-1536]	; 0xfffffa00
    38b0:	00001ee7 	andeq	r1, r0, r7, ror #29
    38b4:	61023201 	tstvs	r2, r1, lsl #4
    38b8:	03000000 	movweq	r0, #0
    38bc:	001b0107 	andseq	r0, fp, r7, lsl #2
    38c0:	35010000 	strcc	r0, [r1, #-0]
    38c4:	0000c70d 	andeq	ip, r0, sp, lsl #14
    38c8:	1d5c0400 	cfldrdne	mvd0, [ip, #-0]
    38cc:	04000000 	streq	r0, [r0], #-0
    38d0:	00001e00 	andeq	r1, r0, r0, lsl #28
    38d4:	20930401 	addscs	r0, r3, r1, lsl #8
    38d8:	00020000 	andeq	r0, r2, r0
    38dc:	00219705 	eoreq	r9, r1, r5, lsl #14
    38e0:	02390100 	eorseq	r0, r9, #0, 2
    38e4:	000000a6 	andeq	r0, r0, r6, lsr #1
    38e8:	1b010703 	blne	454fc <_E_text+0x44010>
    38ec:	01000000 	mrseq	r0, (UNDEF: 0)
    38f0:	00ee0d3c 	rsceq	r0, lr, ip, lsr sp
    38f4:	d3040000 	movwle	r0, #16384	; 0x4000
    38f8:	00000022 	andeq	r0, r0, r2, lsr #32
    38fc:	0022e304 	eoreq	lr, r2, r4, lsl #6
    3900:	05000800 	streq	r0, [r0, #-2048]	; 0xfffff800
    3904:	00001fab 	andeq	r1, r0, fp, lsr #31
    3908:	d3023f01 	movwle	r3, #12033	; 0x2f01
    390c:	03000000 	movweq	r0, #0
    3910:	001b0107 	andseq	r0, fp, r7, lsl #2
    3914:	42010000 	andmi	r0, r1, #0
    3918:	0001270d 	andeq	r2, r1, sp, lsl #14
    391c:	22ca0400 	sbccs	r0, sl, #0, 8
    3920:	04000000 	streq	r0, [r0], #-0
    3924:	00002272 	andeq	r2, r0, r2, ror r2
    3928:	22da0401 	sbcscs	r0, sl, #16777216	; 0x1000000
    392c:	04020000 	streq	r0, [r2], #-0
    3930:	000020b6 	strheq	r2, [r0], -r6
    3934:	1fdc0403 	svcne	0x00dc0403
    3938:	00040000 	andeq	r0, r4, r0
    393c:	00235b05 	eoreq	r5, r3, r5, lsl #22
    3940:	02480100 	subeq	r0, r8, #0, 2
    3944:	000000fa 	strdeq	r0, [r0], -sl
    3948:	7a010406 	bvc	44968 <_E_text+0x4347c>
    394c:	0001790a 	andeq	r7, r1, sl, lsl #18
    3950:	24180700 	ldrcs	r0, [r8], #-1792	; 0xfffff900
    3954:	7b010000 	blvc	4395c <_E_text+0x42470>
    3958:	0000c71e 	andeq	ip, r0, lr, lsl r7
    395c:	00230200 	eoreq	r0, r3, r0, lsl #4
    3960:	00242a07 	eoreq	r2, r4, r7, lsl #20
    3964:	1f7c0100 	svcne	0x007c0100
    3968:	000000ee 	andeq	r0, r0, lr, ror #1
    396c:	07012302 	streq	r2, [r1, -r2, lsl #6]
    3970:	0000205b 	andeq	r2, r0, fp, asr r0
    3974:	27227d01 	strcs	r7, [r2, -r1, lsl #26]!
    3978:	02000001 	andeq	r0, r0, #1
    397c:	cb070223 	blgt	1c4210 <_E_text+0x1c2d24>
    3980:	0100001e 	tsteq	r0, lr, lsl r0
    3984:	009a1c7e 	addseq	r1, sl, lr, ror ip
    3988:	23020000 	movwcs	r0, #8192	; 0x2000
    398c:	33080003 	movwcc	r0, #32771	; 0x8003
    3990:	05000001 	streq	r0, [r0, #-1]
    3994:	00002114 	andeq	r2, r0, r4, lsl r1
    3998:	79098001 	stmdbvc	r9, {r0, pc}
    399c:	09000001 	stmdbeq	r0, {r0}
    39a0:	0000019a 	muleq	r0, sl, r1
    39a4:	0000019a 	muleq	r0, sl, r1
    39a8:	00005a0a 	andeq	r5, r0, sl, lsl #20
    39ac:	0b000b00 	bleq	65b4 <_E_text+0x50c8>
    39b0:	00017e04 	andeq	r7, r1, r4, lsl #28
    39b4:	24f10c00 	ldrbtcs	r0, [r1], #3072	; 0xc00
    39b8:	82010000 	andhi	r0, r1, #0
    39bc:	00018a27 	andeq	r8, r1, r7, lsr #20
    39c0:	0d010100 	stfeqs	f0, [r1, #-0]
    39c4:	0000254a 	andeq	r2, r0, sl, asr #10
    39c8:	7e1d0802 	cdpvc	8, 1, cr0, cr13, cr2, {0}
    39cc:	01000001 	tsteq	r0, r1
    39d0:	068c0305 	streq	r0, [ip], r5, lsl #6
    39d4:	630d0000 	movwvs	r0, #53248	; 0xd000
    39d8:	02000025 	andeq	r0, r0, #37	; 0x25
    39dc:	017e1d0f 	cmneq	lr, pc, lsl #26
    39e0:	05010000 	streq	r0, [r1, #-0]
    39e4:	00069003 	andeq	r9, r6, r3
    39e8:	245b0d00 	ldrbcs	r0, [fp], #-3328	; 0xfffff300
    39ec:	17020000 	strne	r0, [r2, -r0]
    39f0:	00017e1d 	andeq	r7, r1, sp, lsl lr
    39f4:	03050100 	movweq	r0, #20736	; 0x5100
    39f8:	00000694 	muleq	r0, r4, r6
    39fc:	0024740d 	eoreq	r7, r4, sp, lsl #8
    3a00:	1d1e0200 	lfmne	f0, 4, [lr, #-0]
    3a04:	0000017e 	andeq	r0, r0, lr, ror r1
    3a08:	98030501 	stmdals	r3, {r0, r8, sl}
    3a0c:	0d000006 	stceq	0, cr0, [r0, #-24]	; 0xffffffe8
    3a10:	000024bf 			; <UNDEFINED> instruction: 0x000024bf
    3a14:	7e1d2602 	cfmsub32vc	mvax0, mvfx2, mvfx13, mvfx2
    3a18:	01000001 	tsteq	r0, r1
    3a1c:	069c0305 	ldreq	r0, [ip], r5, lsl #6
    3a20:	d80d0000 	stmdale	sp, {}	; <UNPREDICTABLE>
    3a24:	02000024 	andeq	r0, r0, #36	; 0x24
    3a28:	017e1d2d 	cmneq	lr, sp, lsr #26
    3a2c:	05010000 	streq	r0, [r1, #-0]
    3a30:	0006a003 	andeq	sl, r6, r3
    3a34:	250a0d00 	strcs	r0, [sl, #-3328]	; 0xfffff300
    3a38:	35020000 	strcc	r0, [r2, #-0]
    3a3c:	00017e1d 	andeq	r7, r1, sp, lsl lr
    3a40:	03050100 	movweq	r0, #20736	; 0x5100
    3a44:	000006a4 	andeq	r0, r0, r4, lsr #13
    3a48:	0025230d 	eoreq	r2, r5, sp, lsl #6
    3a4c:	1d3c0200 	lfmne	f0, 4, [ip, #-0]
    3a50:	0000017e 	andeq	r0, r0, lr, ror r1
    3a54:	a8030501 	stmdage	r3, {r0, r8, sl}
    3a58:	0d000006 	stceq	0, cr0, [r0, #-24]	; 0xffffffe8
    3a5c:	0000257c 	andeq	r2, r0, ip, ror r5
    3a60:	7e1d4402 	cfmulsvc	mvf4, mvf13, mvf2
    3a64:	01000001 	tsteq	r0, r1
    3a68:	06ac0305 	strteq	r0, [ip], r5, lsl #6
    3a6c:	950d0000 	strls	r0, [sp, #-0]
    3a70:	02000025 	andeq	r0, r0, #37	; 0x25
    3a74:	017e1d4b 	cmneq	lr, fp, asr #26
    3a78:	05010000 	streq	r0, [r1, #-0]
    3a7c:	0006b003 	andeq	fp, r6, r3
    3a80:	248d0d00 	strcs	r0, [sp], #3328	; 0xd00
    3a84:	53020000 	movwpl	r0, #8192	; 0x2000
    3a88:	00017e1d 	andeq	r7, r1, sp, lsl lr
    3a8c:	03050100 	movweq	r0, #20736	; 0x5100
    3a90:	000006b4 			; <UNDEFINED> instruction: 0x000006b4
    3a94:	0024a60d 	eoreq	sl, r4, sp, lsl #12
    3a98:	1d5a0200 	lfmne	f0, 2, [sl, #-0]
    3a9c:	0000017e 	andeq	r0, r0, lr, ror r1
    3aa0:	b8030501 	stmdalt	r3, {r0, r8, sl}
    3aa4:	0e000006 	cdpeq	0, 0, cr0, cr0, cr6, {0}
    3aa8:	000001a0 	andeq	r0, r0, r0, lsr #3
    3aac:	051f6102 	ldreq	r6, [pc, #-258]	; 39b2 <_E_text+0x24c6>
    3ab0:	00000003 	andeq	r0, r0, r3
    3ab4:	04ac0000 	strteq	r0, [ip], #0
    3ab8:	00020000 	andeq	r0, r2, r0
    3abc:	000007d7 	ldrdeq	r0, [r0], -r7
    3ac0:	01ac0104 			; <UNDEFINED> instruction: 0x01ac0104
    3ac4:	120c0000 	andne	r0, ip, #0
    3ac8:	2e000026 	cdpcs	0, 0, cr0, cr0, cr6, {1}
    3acc:	0001e000 	andeq	lr, r1, r0
	...
    3ad8:	000dff00 	andeq	pc, sp, r0, lsl #30
    3adc:	08530200 	ldmdaeq	r3, {r9}^
    3ae0:	06020000 	streq	r0, [r2], -r0
    3ae4:	0000331d 	andeq	r3, r0, sp, lsl r3
    3ae8:	08010300 	stmdaeq	r1, {r8, r9}
    3aec:	00000d14 	andeq	r0, r0, r4, lsl sp
    3af0:	16060103 	strne	r0, [r6], -r3, lsl #2
    3af4:	0300000d 	movweq	r0, #13
    3af8:	0ee40702 	cdpeq	7, 14, cr0, cr4, cr2, {0}
    3afc:	02030000 	andeq	r0, r3, #0
    3b00:	000a6305 	andeq	r6, sl, r5, lsl #6
    3b04:	0a5d0200 	beq	174430c <_E_text+0x1742e20>
    3b08:	0e020000 	cdpeq	0, 0, cr0, cr2, cr0, {0}
    3b0c:	00005b1c 	andeq	r5, r0, ip, lsl fp
    3b10:	07040300 	streq	r0, [r4, -r0, lsl #6]
    3b14:	00000527 	andeq	r0, r0, r7, lsr #10
    3b18:	08050403 	stmdaeq	r5, {r0, r1, sl}
    3b1c:	03000008 	movweq	r0, #8
    3b20:	050a0404 	streq	r0, [sl, #-1028]	; 0xfffffbfc
    3b24:	08030000 	stmdaeq	r3, {}	; <UNPREDICTABLE>
    3b28:	0009b104 	andeq	fp, r9, r4, lsl #2
    3b2c:	07080300 	streq	r0, [r8, -r0, lsl #6]
    3b30:	00000522 	andeq	r0, r0, r2, lsr #10
    3b34:	33010704 	movwcc	r0, #5892	; 0x1704
    3b38:	03000000 	movweq	r0, #0
    3b3c:	00bd0d07 	adcseq	r0, sp, r7, lsl #26
    3b40:	1a050000 	bne	143b48 <_E_text+0x14265c>
    3b44:	00000026 	andeq	r0, r0, r6, lsr #32
    3b48:	00262805 	eoreq	r2, r6, r5, lsl #16
    3b4c:	36050100 	strcc	r0, [r5], -r0, lsl #2
    3b50:	02000026 	andeq	r0, r0, #38	; 0x26
    3b54:	00264405 	eoreq	r4, r6, r5, lsl #8
    3b58:	52050300 	andpl	r0, r5, #0, 6
    3b5c:	04000026 	streq	r0, [r0], #-38	; 0xffffffda
    3b60:	00266005 	eoreq	r6, r6, r5
    3b64:	6e050500 	cfsh32vs	mvfx0, mvfx5, #0
    3b68:	06000026 	streq	r0, [r0], -r6, lsr #32
    3b6c:	00267c05 	eoreq	r7, r6, r5, lsl #24
    3b70:	02000700 	andeq	r0, r0, #0, 14
    3b74:	00002691 	muleq	r0, r1, r6
    3b78:	7e021103 	adfvcs	f1, f2, f3
    3b7c:	04000000 	streq	r0, [r0], #-0
    3b80:	00330107 	eorseq	r0, r3, r7, lsl #2
    3b84:	13030000 	movwne	r0, #12288	; 0x3000
    3b88:	0000e40d 	andeq	lr, r0, sp, lsl #8
    3b8c:	2d9c0500 	cfldr32cs	mvfx0, [ip]
    3b90:	05000000 	streq	r0, [r0, #-0]
    3b94:	00002760 	andeq	r2, r0, r0, ror #14
    3b98:	ff020005 			; <UNDEFINED> instruction: 0xff020005
    3b9c:	03000025 	movweq	r0, #37	; 0x25
    3ba0:	00c90119 	sbceq	r0, r9, r9, lsl r1
    3ba4:	07040000 	streq	r0, [r4, -r0]
    3ba8:	00003301 	andeq	r3, r0, r1, lsl #6
    3bac:	0d1c0300 	ldceq	3, cr0, [ip, #-0]
    3bb0:	00000117 	andeq	r0, r0, r7, lsl r1
    3bb4:	00272605 	eoreq	r2, r7, r5, lsl #12
    3bb8:	8a050000 	bhi	143bc0 <_E_text+0x1426d4>
    3bbc:	01000026 	tsteq	r0, r6, lsr #32
    3bc0:	0025c505 	eoreq	ip, r5, r5, lsl #10
    3bc4:	ef050200 	svc	0x00050200
    3bc8:	03000026 	movweq	r0, #38	; 0x26
    3bcc:	270f0200 	strcs	r0, [pc, -r0, lsl #4]
    3bd0:	22030000 	andcs	r0, r3, #0
    3bd4:	0000f002 	andeq	pc, r0, r2
    3bd8:	030c0600 	movweq	r0, #50688	; 0xc600
    3bdc:	01780932 	cmneq	r8, r2, lsr r9
    3be0:	15070000 	strne	r0, [r7, #-0]
    3be4:	03000009 	movweq	r0, #9
    3be8:	00bd1434 	adcseq	r1, sp, r4, lsr r4
    3bec:	23020000 	movwcs	r0, #8192	; 0x2000
    3bf0:	25f40700 	ldrbcs	r0, [r4, #1792]!	; 0x700
    3bf4:	35030000 	strcc	r0, [r3, #-0]
    3bf8:	00011718 	andeq	r1, r1, r8, lsl r7
    3bfc:	01230200 			; <UNDEFINED> instruction: 0x01230200
    3c00:	00275407 	eoreq	r5, r7, r7, lsl #8
    3c04:	18360300 	ldmdane	r6!, {r8, r9}
    3c08:	000000e4 	andeq	r0, r0, r4, ror #1
    3c0c:	07022302 	streq	r2, [r2, -r2, lsl #6]
    3c10:	00002721 	andeq	r2, r0, r1, lsr #14
    3c14:	4f0b3703 	svcmi	0x000b3703
    3c18:	02000000 	andeq	r0, r0, #0
    3c1c:	0a070423 	beq	1c4cb0 <_E_text+0x1c37c4>
    3c20:	03000027 	movweq	r0, #39	; 0x27
    3c24:	004f0b38 	subeq	r0, pc, r8, lsr fp	; <UNPREDICTABLE>
    3c28:	23020000 	movwcs	r0, #8192	; 0x2000
    3c2c:	b1020008 	tstlt	r2, r8
    3c30:	03000026 	movweq	r0, #38	; 0x26
    3c34:	0123023a 			; <UNDEFINED> instruction: 0x0123023a
    3c38:	cc080000 	stcgt	0, cr0, [r8], {-0}
    3c3c:	03000025 	movweq	r0, #37	; 0x25
    3c40:	01781651 	cmneq	r8, r1, asr r6
    3c44:	01010000 	mrseq	r0, (UNDEF: 1)
    3c48:	33010704 	movwcc	r0, #5892	; 0x1704
    3c4c:	04000000 	streq	r0, [r0], #-0
    3c50:	01d10e2a 	bicseq	r0, r1, sl, lsr #28
    3c54:	79050000 	stmdbvc	r5, {}	; <UNPREDICTABLE>
    3c58:	0000000d 	andeq	r0, r0, sp
    3c5c:	000d8605 	andeq	r8, sp, r5, lsl #12
    3c60:	93050100 	movwls	r0, #20736	; 0x5100
    3c64:	0200000d 	andeq	r0, r0, #13
    3c68:	000da005 	andeq	sl, sp, r5
    3c6c:	ad050300 	stcge	3, cr0, [r5, #-0]
    3c70:	0400000d 	streq	r0, [r0], #-13
    3c74:	000dba05 	andeq	fp, sp, r5, lsl #20
    3c78:	c7050500 	strgt	r0, [r5, -r0, lsl #10]
    3c7c:	0600000d 	streq	r0, [r0], -sp
    3c80:	000dd405 	andeq	sp, sp, r5, lsl #8
    3c84:	02000700 	andeq	r0, r0, #0, 14
    3c88:	000014df 	ldrdeq	r1, [r0], -pc	; <UNPREDICTABLE>
    3c8c:	92023504 	andls	r3, r2, #4, 10	; 0x1000000
    3c90:	04000001 	streq	r0, [r0], #-1
    3c94:	00330107 	eorseq	r0, r3, r7, lsl #2
    3c98:	38040000 	stmdacc	r4, {}	; <UNPREDICTABLE>
    3c9c:	0002160d 	andeq	r1, r2, sp, lsl #12
    3ca0:	0ce60500 	cfstr64eq	mvdx0, [r6]
    3ca4:	05000000 	streq	r0, [r0, #-0]
    3ca8:	00000ef7 	strdeq	r0, [r0], -r7
    3cac:	0efd0501 	cdpeq	5, 15, cr0, cr13, cr1, {0}
    3cb0:	05020000 	streq	r0, [r2, #-0]
    3cb4:	000000c8 	andeq	r0, r0, r8, asr #1
    3cb8:	00ce0503 	sbceq	r0, lr, r3, lsl #10
    3cbc:	05040000 	streq	r0, [r4, #-0]
    3cc0:	000000d4 	ldrdeq	r0, [r0], -r4
    3cc4:	0df80505 	cfldr64eq	mvdx0, [r8, #20]!
    3cc8:	00060000 	andeq	r0, r6, r0
    3ccc:	00177e02 	andseq	r7, r7, r2, lsl #28
    3cd0:	02410400 	subeq	r0, r1, #0, 8
    3cd4:	000001dd 	ldrdeq	r0, [r0], -sp
    3cd8:	b0040306 	andlt	r0, r4, r6, lsl #6
    3cdc:	00025909 	andeq	r5, r2, r9, lsl #18
    3ce0:	143d0700 	ldrtne	r0, [sp], #-1792	; 0xfffff900
    3ce4:	b1040000 	mrslt	r0, (UNDEF: 4)
    3ce8:	0002161c 	andeq	r1, r2, ip, lsl r6
    3cec:	00230200 	eoreq	r0, r3, r0, lsl #4
    3cf0:	0016a007 	andseq	sl, r6, r7
    3cf4:	20b20400 	adcscs	r0, r2, r0, lsl #8
    3cf8:	000001d1 	ldrdeq	r0, [r0], -r1
    3cfc:	07012302 	streq	r2, [r1, -r2, lsl #6]
    3d00:	00001918 	andeq	r1, r0, r8, lsl r9
    3d04:	d120b304 			; <UNDEFINED> instruction: 0xd120b304
    3d08:	02000001 	andeq	r0, r0, #1
    3d0c:	09000223 	stmdbeq	r0, {r0, r1, r5, r9}
    3d10:	00000222 	andeq	r0, r0, r2, lsr #4
    3d14:	00192502 	andseq	r2, r9, r2, lsl #10
    3d18:	08b40400 	ldmeq	r4!, {sl}
    3d1c:	00000259 	andeq	r0, r0, r9, asr r2
    3d20:	2c070403 	cfstrscs	mvf0, [r7], {3}
    3d24:	0a000005 	beq	3d40 <_E_text+0x2854>
    3d28:	0000028c 	andeq	r0, r0, ip, lsl #5
    3d2c:	00000281 	andeq	r0, r0, r1, lsl #5
    3d30:	00026a0b 	andeq	r6, r2, fp, lsl #20
    3d34:	09000700 	stmdbeq	r0, {r8, r9, sl}
    3d38:	00000271 	andeq	r0, r0, r1, ror r2
    3d3c:	025e040c 	subseq	r0, lr, #12, 8	; 0xc000000
    3d40:	86090000 	strhi	r0, [r9], -r0
    3d44:	08000002 	stmdaeq	r0, {r1}
    3d48:	00001c7d 	andeq	r1, r0, sp, ror ip
    3d4c:	8129c004 			; <UNDEFINED> instruction: 0x8129c004
    3d50:	01000002 	tsteq	r0, r2
    3d54:	01070401 	tsteq	r7, r1, lsl #8
    3d58:	00000033 	andeq	r0, r0, r3, lsr r0
    3d5c:	6e0d2e05 	cdpvs	14, 0, cr2, cr13, cr5, {0}
    3d60:	05000003 	streq	r0, [r0, #-3]
    3d64:	00000d76 	andeq	r0, r0, r6, ror sp
    3d68:	0d830500 	cfstr32eq	mvfx0, [r3]
    3d6c:	05010000 	streq	r0, [r1, #-0]
    3d70:	00000d90 	muleq	r0, r0, sp
    3d74:	0d9d0502 	cfldr32eq	mvfx0, [sp, #8]
    3d78:	05030000 	streq	r0, [r3, #-0]
    3d7c:	00000daa 	andeq	r0, r0, sl, lsr #27
    3d80:	0db70504 	cfldr32eq	mvfx0, [r7, #16]!
    3d84:	05050000 	streq	r0, [r5, #-0]
    3d88:	00000dc4 	andeq	r0, r0, r4, asr #27
    3d8c:	0dd10506 	cfldr64eq	mvdx0, [r1, #24]
    3d90:	05070000 	streq	r0, [r7, #-0]
    3d94:	00000dde 	ldrdeq	r0, [r0], -lr
    3d98:	0deb0508 	cfstr64eq	mvdx0, [fp, #32]!
    3d9c:	05090000 	streq	r0, [r9, #-0]
    3da0:	00000bd3 	ldrdeq	r0, [r0], -r3
    3da4:	0be1050a 	bleq	ff8451d4 <_E_BSS+0xdf8433e0>
    3da8:	050b0000 	streq	r0, [fp, #-0]
    3dac:	00000bef 	andeq	r0, r0, pc, ror #23
    3db0:	0bfd050c 	bleq	fff451e8 <_E_BSS+0xdff433f4>
    3db4:	050d0000 	streq	r0, [sp, #-0]
    3db8:	00000c0b 	andeq	r0, r0, fp, lsl #24
    3dbc:	0c19050e 	cfldr32eq	mvfx0, [r9], {14}
    3dc0:	050f0000 	streq	r0, [pc, #-0]	; 3dc8 <_E_text+0x28dc>
    3dc4:	00000c27 	andeq	r0, r0, r7, lsr #24
    3dc8:	0c350510 	cfldr32eq	mvfx0, [r5], #-64	; 0xffffffc0
    3dcc:	05110000 	ldreq	r0, [r1, #-0]
    3dd0:	00000c43 	andeq	r0, r0, r3, asr #24
    3dd4:	0c510512 	cfldr64eq	mvdx0, [r1], {18}
    3dd8:	05130000 	ldreq	r0, [r3, #-0]
    3ddc:	00000cec 	andeq	r0, r0, ip, ror #25
    3de0:	0cfa0514 	cfldr64eq	mvdx0, [sl], #80	; 0x50
    3de4:	05150000 	ldreq	r0, [r5, #-0]
    3de8:	00000b29 	andeq	r0, r0, r9, lsr #22
    3dec:	0b370516 	bleq	dc524c <_E_text+0xdc3d60>
    3df0:	05170000 	ldreq	r0, [r7, #-0]
    3df4:	00000d22 	andeq	r0, r0, r2, lsr #26
    3df8:	0d300518 	cfldr32eq	mvfx0, [r0, #-96]!	; 0xffffffa0
    3dfc:	05190000 	ldreq	r0, [r9, #-0]
    3e00:	00000d3e 	andeq	r0, r0, lr, lsr sp
    3e04:	0d4c051a 	cfstr64eq	mvdx0, [ip, #-104]	; 0xffffff98
    3e08:	051b0000 	ldreq	r0, [fp, #-0]
    3e0c:	00000d5a 	andeq	r0, r0, sl, asr sp
    3e10:	0d68051c 	cfstr64eq	mvdx0, [r8, #-112]!	; 0xffffff90
    3e14:	051d0000 	ldreq	r0, [sp, #-0]
    3e18:	00000e90 	muleq	r0, r0, lr
    3e1c:	0e9e051e 	mrceq	5, 4, r0, cr14, cr14, {0}
    3e20:	001f0000 	andseq	r0, pc, r0
    3e24:	33010704 	movwcc	r0, #5892	; 0x1704
    3e28:	05000000 	streq	r0, [r0, #-0]
    3e2c:	03890d6f 	orreq	r0, r9, #7104	; 0x1bc0
    3e30:	6d050000 	stcvs	0, cr0, [r5, #-0]
    3e34:	00000003 	andeq	r0, r0, r3
    3e38:	00014305 	andeq	r4, r1, r5, lsl #6
    3e3c:	04000100 	streq	r0, [r0], #-256	; 0xffffff00
    3e40:	00330107 	eorseq	r0, r3, r7, lsl #2
    3e44:	83050000 	movwhi	r0, #20480	; 0x5000
    3e48:	0003a40d 	andeq	sl, r3, sp, lsl #8
    3e4c:	0f3a0500 	svceq	0x003a0500
    3e50:	05000000 	streq	r0, [r0, #-0]
    3e54:	0000010f 	andeq	r0, r0, pc, lsl #2
    3e58:	010d0001 	tsteq	sp, r1
    3e5c:	000026a0 	andeq	r2, r0, r0, lsr #13
    3e60:	01063701 	tsteq	r6, r1, lsl #14
	...
    3e6c:	000011ec 	andeq	r1, r0, ip, ror #3
    3e70:	0003cf01 	andeq	ip, r3, r1, lsl #30
    3e74:	26aa0e00 	strtcs	r0, [sl], r0, lsl #28
    3e78:	37010000 	strcc	r0, [r1, -r0]
    3e7c:	0003cf1d 	andeq	ip, r3, sp, lsl pc
    3e80:	74910200 	ldrvc	r0, [r1], #512	; 0x200
    3e84:	27040c00 	strcs	r0, [r4, -r0, lsl #24]
    3e88:	0d000000 	stceq	0, cr0, [r0, #-0]
    3e8c:	00274501 	eoreq	r4, r7, r1, lsl #10
    3e90:	06320100 	ldrteq	r0, [r2], -r0, lsl #2
    3e94:	00000001 	andeq	r0, r0, r1
    3e98:	00000000 	andeq	r0, r0, r0
    3e9c:	00123c00 	andseq	r3, r2, r0, lsl #24
    3ea0:	04000100 	streq	r0, [r0], #-256	; 0xffffff00
    3ea4:	ea0e0000 	b	383eac <_E_text+0x3829c0>
    3ea8:	01000025 	tsteq	r0, r5, lsr #32
    3eac:	03cf1b32 	biceq	r1, pc, #51200	; 0xc800
    3eb0:	91020000 	mrsls	r0, (UNDEF: 2)
    3eb4:	010d0074 	tsteq	sp, r4, ror r0
    3eb8:	000026bf 			; <UNDEFINED> instruction: 0x000026bf
    3ebc:	01062b01 	tsteq	r6, r1, lsl #22
	...
    3ec8:	0000128c 	andeq	r1, r0, ip, lsl #5
    3ecc:	00042b01 	andeq	r2, r4, r1, lsl #22
    3ed0:	26cd0e00 	strbcs	r0, [sp], r0, lsl #28
    3ed4:	2b010000 	blcs	43edc <_E_text+0x429f0>
    3ed8:	0003cf1a 	andeq	ip, r3, sl, lsl pc
    3edc:	74910200 	ldrvc	r0, [r1], #512	; 0x200
    3ee0:	ae010d00 	cdpge	13, 0, cr0, cr1, cr0, {0}
    3ee4:	01000025 	tsteq	r0, r5, lsr #32
    3ee8:	00010621 	andeq	r0, r1, r1, lsr #12
    3eec:	00000000 	andeq	r0, r0, r0
    3ef0:	dc000000 	stcle	0, cr0, [r0], {-0}
    3ef4:	01000012 	tsteq	r0, r2, lsl r0
    3ef8:	00000456 	andeq	r0, r0, r6, asr r4
    3efc:	0025e00e 	eoreq	lr, r5, lr
    3f00:	23210100 			; <UNDEFINED> instruction: 0x23210100
    3f04:	000003cf 	andeq	r0, r0, pc, asr #7
    3f08:	00749102 	rsbseq	r9, r4, r2, lsl #2
    3f0c:	26db010d 	ldrbcs	r0, [fp], sp, lsl #2
    3f10:	16010000 	strne	r0, [r1], -r0
    3f14:	00000106 	andeq	r0, r0, r6, lsl #2
    3f18:	00000000 	andeq	r0, r0, r0
    3f1c:	132c0000 			; <UNDEFINED> instruction: 0x132c0000
    3f20:	81010000 	mrshi	r0, (UNDEF: 1)
    3f24:	0e000004 	cdpeq	0, 0, cr0, cr0, cr4, {0}
    3f28:	000025ea 	andeq	r2, r0, sl, ror #11
    3f2c:	cf201601 	svcgt	0x00201601
    3f30:	02000003 	andeq	r0, r0, #3
    3f34:	0f007491 	svceq	0x00007491
    3f38:	00272d01 	eoreq	r2, r7, r1, lsl #26
    3f3c:	060d0100 	streq	r0, [sp], -r0, lsl #2
    3f40:	00000001 	andeq	r0, r0, r1
    3f44:	00000000 	andeq	r0, r0, r0
    3f48:	00137c00 	andseq	r7, r3, r0, lsl #24
    3f4c:	010f0100 	mrseq	r0, (UNDEF: 31)
    3f50:	000026f6 	strdeq	r2, [r0], -r6
    3f54:	01060801 	tsteq	r6, r1, lsl #16
	...
    3f60:	000013a8 	andeq	r1, r0, r8, lsr #7
    3f64:	089d0001 	ldmeq	sp, {r0}
    3f68:	00020000 	andeq	r0, r2, r0
    3f6c:	000008bf 			; <UNDEFINED> instruction: 0x000008bf
    3f70:	01ac0104 			; <UNDEFINED> instruction: 0x01ac0104
    3f74:	650c0000 	strvs	r0, [ip, #-0]
    3f78:	2e000027 	cdpcs	0, 0, cr0, cr0, cr7, {1}
    3f7c:	00022000 	andeq	r2, r2, r0
	...
    3f88:	000f1000 	andeq	r1, pc, r0
    3f8c:	08530200 	ldmdaeq	r3, {r9}^
    3f90:	06020000 	streq	r0, [r2], -r0
    3f94:	0000331d 	andeq	r3, r0, sp, lsl r3
    3f98:	08010300 	stmdaeq	r1, {r8, r9}
    3f9c:	00000d14 	andeq	r0, r0, r4, lsl sp
    3fa0:	16060103 	strne	r0, [r6], -r3, lsl #2
    3fa4:	0300000d 	movweq	r0, #13
    3fa8:	0ee40702 	cdpeq	7, 14, cr0, cr4, cr2, {0}
    3fac:	02030000 	andeq	r0, r3, #0
    3fb0:	000a6305 	andeq	r6, sl, r5, lsl #6
    3fb4:	0a5d0200 	beq	17447bc <_E_text+0x17432d0>
    3fb8:	0e020000 	cdpeq	0, 0, cr0, cr2, cr0, {0}
    3fbc:	0000601c 	andeq	r6, r0, ip, lsl r0
    3fc0:	004f0400 	subeq	r0, pc, r0, lsl #8
    3fc4:	04030000 	streq	r0, [r3], #-0
    3fc8:	00052707 	andeq	r2, r5, r7, lsl #14
    3fcc:	27db0200 	ldrbcs	r0, [fp, r0, lsl #4]
    3fd0:	0f020000 	svceq	0x00020000
    3fd4:	0000731c 	andeq	r7, r0, ip, lsl r3
    3fd8:	05040300 	streq	r0, [r4, #-768]	; 0xfffffd00
    3fdc:	00000808 	andeq	r0, r0, r8, lsl #16
    3fe0:	0a040403 	beq	104ff4 <_E_text+0x103b08>
    3fe4:	03000005 	movweq	r0, #5
    3fe8:	09b10408 	ldmibeq	r1!, {r3, sl}
    3fec:	08030000 	stmdaeq	r3, {}	; <UNPREDICTABLE>
    3ff0:	00052207 	andeq	r2, r5, r7, lsl #4
    3ff4:	01070500 	tsteq	r7, r0, lsl #10
    3ff8:	00000033 	andeq	r0, r0, r3, lsr r0
    3ffc:	ce0e2a03 	vmlagt.f32	s4, s28, s6
    4000:	06000000 	streq	r0, [r0], -r0
    4004:	00000d79 	andeq	r0, r0, r9, ror sp
    4008:	0d860600 	stceq	6, cr0, [r6]
    400c:	06010000 	streq	r0, [r1], -r0
    4010:	00000d93 	muleq	r0, r3, sp
    4014:	0da00602 	stceq	6, cr0, [r0, #8]!
    4018:	06030000 	streq	r0, [r3], -r0
    401c:	00000dad 	andeq	r0, r0, sp, lsr #27
    4020:	0dba0604 	ldceq	6, cr0, [sl, #16]!
    4024:	06050000 	streq	r0, [r5], -r0
    4028:	00000dc7 	andeq	r0, r0, r7, asr #27
    402c:	0dd40606 	ldcleq	6, cr0, [r4, #24]
    4030:	00070000 	andeq	r0, r7, r0
    4034:	0014df02 	andseq	sp, r4, r2, lsl #30
    4038:	02350300 	eorseq	r0, r5, #0, 6
    403c:	0000008f 	andeq	r0, r0, pc, lsl #1
    4040:	33010705 	movwcc	r0, #5893	; 0x1705
    4044:	03000000 	movweq	r0, #0
    4048:	01130d38 	tsteq	r3, r8, lsr sp
    404c:	e6060000 	str	r0, [r6], -r0
    4050:	0000000c 	andeq	r0, r0, ip
    4054:	000ef706 	andeq	pc, lr, r6, lsl #14
    4058:	fd060100 	stc2	1, cr0, [r6, #-0]
    405c:	0200000e 	andeq	r0, r0, #14
    4060:	0000c806 	andeq	ip, r0, r6, lsl #16
    4064:	ce060300 	cdpgt	3, 0, cr0, cr6, cr0, {0}
    4068:	04000000 	streq	r0, [r0], #-0
    406c:	0000d406 	andeq	sp, r0, r6, lsl #8
    4070:	f8060500 			; <UNDEFINED> instruction: 0xf8060500
    4074:	0600000d 	streq	r0, [r0], -sp
    4078:	177e0200 	ldrbne	r0, [lr, -r0, lsl #4]!
    407c:	41030000 	mrsmi	r0, (UNDEF: 3)
    4080:	0000da02 	andeq	sp, r0, r2, lsl #20
    4084:	01070500 	tsteq	r7, r0, lsl #10
    4088:	00000033 	andeq	r0, r0, r3, lsr r0
    408c:	3a0e4d03 	bcc	3974a0 <_E_text+0x395fb4>
    4090:	06000001 	streq	r0, [r0], -r1
    4094:	0000062e 	andeq	r0, r0, lr, lsr #12
    4098:	091d0600 	ldmdbeq	sp, {r9, sl}
    409c:	00010000 	andeq	r0, r1, r0
    40a0:	b8030207 	stmdalt	r3, {r0, r1, r2, r9}
    40a4:	00016209 	andeq	r6, r1, r9, lsl #4
    40a8:	143d0800 	ldrtne	r0, [sp], #-2048	; 0xfffff800
    40ac:	ba030000 	blt	c40b4 <_E_text+0xc2bc8>
    40b0:	0001131c 	andeq	r1, r1, ip, lsl r3
    40b4:	00230200 	eoreq	r0, r3, r0, lsl #4
    40b8:	00159908 	andseq	r9, r5, r8, lsl #18
    40bc:	20bb0300 	adcscs	r0, fp, r0, lsl #6
    40c0:	000000ce 	andeq	r0, r0, lr, asr #1
    40c4:	00012302 	andeq	r2, r1, r2, lsl #6
    40c8:	00195a02 	andseq	r5, r9, r2, lsl #20
    40cc:	03bc0300 			; <UNDEFINED> instruction: 0x03bc0300
    40d0:	0000013a 	andeq	r0, r0, sl, lsr r1
    40d4:	2c070403 	cfstrscs	mvf0, [r7], {3}
    40d8:	09000005 	stmdbeq	r0, {r0, r2}
    40dc:	00001cf7 	strdeq	r1, [r0], -r7
    40e0:	621cc203 	andsvs	ip, ip, #805306368	; 0x30000000
    40e4:	01000001 	tsteq	r0, r1
    40e8:	1cb50901 			; <UNDEFINED> instruction: 0x1cb50901
    40ec:	c4030000 	strgt	r0, [r3], #-0
    40f0:	0001621c 	andeq	r6, r1, ip, lsl r2
    40f4:	09010100 	stmdbeq	r1, {r8}
    40f8:	00001c9f 	muleq	r0, pc, ip	; <UNPREDICTABLE>
    40fc:	621cc603 	andsvs	ip, ip, #3145728	; 0x300000
    4100:	01000001 	tsteq	r0, r1
    4104:	04070501 	streq	r0, [r7], #-1281	; 0xfffffaff
    4108:	0000016e 	andeq	r0, r0, lr, ror #2
    410c:	c40f7104 	strgt	r7, [pc], #-260	; 4114 <_E_text+0x2c28>
    4110:	0a000001 	beq	411c <_E_text+0x2c30>
    4114:	00002337 	andeq	r2, r0, r7, lsr r3
    4118:	dc0b03e8 	stcle	3, cr0, [fp], {232}	; 0xe8
    411c:	40000021 	andmi	r0, r0, r1, lsr #32
    4120:	0c000f42 	stceq	15, cr0, [r0], {66}	; 0x42
    4124:	00636553 	rsbeq	r6, r3, r3, asr r5
    4128:	07050001 	streq	r0, [r5, -r1]
    412c:	00003301 	andeq	r3, r0, r1, lsl #6
    4130:	0d2e0500 	cfstr32eq	mvfx0, [lr, #-0]
    4134:	00000293 	muleq	r0, r3, r2
    4138:	000d7606 	andeq	r7, sp, r6, lsl #12
    413c:	83060000 	movwhi	r0, #24576	; 0x6000
    4140:	0100000d 	tsteq	r0, sp
    4144:	000d9006 	andeq	r9, sp, r6
    4148:	9d060200 	sfmls	f0, 4, [r6, #-0]
    414c:	0300000d 	movweq	r0, #13
    4150:	000daa06 	andeq	sl, sp, r6, lsl #20
    4154:	b7060400 	strlt	r0, [r6, -r0, lsl #8]
    4158:	0500000d 	streq	r0, [r0, #-13]
    415c:	000dc406 	andeq	ip, sp, r6, lsl #8
    4160:	d1060600 	tstle	r6, r0, lsl #12
    4164:	0700000d 	streq	r0, [r0, -sp]
    4168:	000dde06 	andeq	sp, sp, r6, lsl #28
    416c:	eb060800 	bl	186174 <_E_text+0x184c88>
    4170:	0900000d 	stmdbeq	r0, {r0, r2, r3}
    4174:	000bd306 	andeq	sp, fp, r6, lsl #6
    4178:	e1060a00 	tst	r6, r0, lsl #20
    417c:	0b00000b 	bleq	41b0 <_E_text+0x2cc4>
    4180:	000bef06 	andeq	lr, fp, r6, lsl #30
    4184:	fd060c00 	stc2	12, cr0, [r6, #-0]
    4188:	0d00000b 	stceq	0, cr0, [r0, #-44]	; 0xffffffd4
    418c:	000c0b06 	andeq	r0, ip, r6, lsl #22
    4190:	19060e00 	stmdbne	r6, {r9, sl, fp}
    4194:	0f00000c 	svceq	0x0000000c
    4198:	000c2706 	andeq	r2, ip, r6, lsl #14
    419c:	35061000 	strcc	r1, [r6, #-0]
    41a0:	1100000c 	tstne	r0, ip
    41a4:	000c4306 	andeq	r4, ip, r6, lsl #6
    41a8:	51061200 	mrspl	r1, LR_usr
    41ac:	1300000c 	movwne	r0, #12
    41b0:	000cec06 	andeq	lr, ip, r6, lsl #24
    41b4:	fa061400 	blx	1891bc <_E_text+0x187cd0>
    41b8:	1500000c 	strne	r0, [r0, #-12]
    41bc:	000b2906 	andeq	r2, fp, r6, lsl #18
    41c0:	37061600 	strcc	r1, [r6, -r0, lsl #12]
    41c4:	1700000b 	strne	r0, [r0, -fp]
    41c8:	000d2206 	andeq	r2, sp, r6, lsl #4
    41cc:	30061800 	andcc	r1, r6, r0, lsl #16
    41d0:	1900000d 	stmdbne	r0, {r0, r2, r3}
    41d4:	000d3e06 	andeq	r3, sp, r6, lsl #28
    41d8:	4c061a00 			; <UNDEFINED> instruction: 0x4c061a00
    41dc:	1b00000d 	blne	4218 <_E_text+0x2d2c>
    41e0:	000d5a06 	andeq	r5, sp, r6, lsl #20
    41e4:	68061c00 	stmdavs	r6, {sl, fp, ip}
    41e8:	1d00000d 	stcne	0, cr0, [r0, #-52]	; 0xffffffcc
    41ec:	000e9006 	andeq	r9, lr, r6
    41f0:	9e061e00 	cdpls	14, 0, cr1, cr6, cr0, {0}
    41f4:	1f00000e 	svcne	0x0000000e
    41f8:	0e3b0200 	cdpeq	2, 3, cr0, cr11, cr0, {0}
    41fc:	50050000 	andpl	r0, r5, r0
    4200:	0001c402 	andeq	ip, r1, r2, lsl #8
    4204:	01070500 	tsteq	r7, r0, lsl #10
    4208:	00000033 	andeq	r0, r0, r3, lsr r0
    420c:	c60d5205 	strgt	r5, [sp], -r5, lsl #4
    4210:	06000002 	streq	r0, [r0], -r2
    4214:	000007b7 			; <UNDEFINED> instruction: 0x000007b7
    4218:	08110600 	ldmdaeq	r1, {r9, sl}
    421c:	06010000 	streq	r0, [r1], -r0
    4220:	00000815 	andeq	r0, r0, r5, lsl r8
    4224:	086d0602 	stmdaeq	sp!, {r1, r9, sl}^
    4228:	00030000 	andeq	r0, r3, r0
    422c:	000f8702 	andeq	r8, pc, r2, lsl #14
    4230:	02570500 	subseq	r0, r7, #0, 10
    4234:	0000029f 	muleq	r0, pc, r2	; <UNPREDICTABLE>
    4238:	33010705 	movwcc	r0, #5893	; 0x1705
    423c:	05000000 	streq	r0, [r0, #-0]
    4240:	02f90d5a 	rscseq	r0, r9, #5760	; 0x1680
    4244:	22060000 	andcs	r0, r6, #0
    4248:	00000006 	andeq	r0, r0, r6
    424c:	0009e206 	andeq	lr, r9, r6, lsl #4
    4250:	e6060100 	str	r0, [r6], -r0, lsl #2
    4254:	02000009 	andeq	r0, r0, #9
    4258:	00023c06 	andeq	r3, r2, r6, lsl #24
    425c:	02000300 	andeq	r0, r0, #0, 6
    4260:	00000a00 	andeq	r0, r0, r0, lsl #20
    4264:	d2025f05 	andle	r5, r2, #5, 30
    4268:	05000002 	streq	r0, [r0, #-2]
    426c:	00330107 	eorseq	r0, r3, r7, lsl #2
    4270:	62050000 	andvs	r0, r5, #0
    4274:	0003260d 	andeq	r2, r3, sp, lsl #12
    4278:	0c6d0600 	stcleq	6, cr0, [sp], #-0
    427c:	06000000 	streq	r0, [r0], -r0
    4280:	000007a5 	andeq	r0, r0, r5, lsr #15
    4284:	07a90601 	streq	r0, [r9, r1, lsl #12]!
    4288:	00020000 	andeq	r0, r2, r0
    428c:	000f6702 	andeq	r6, pc, r2, lsl #14
    4290:	02660500 	rsbeq	r0, r6, #0, 10
    4294:	00000305 	andeq	r0, r0, r5, lsl #6
    4298:	33010705 	movwcc	r0, #5893	; 0x1705
    429c:	05000000 	streq	r0, [r0, #-0]
    42a0:	03530d69 	cmpeq	r3, #6720	; 0x1a40
    42a4:	46060000 	strmi	r0, [r6], -r0
    42a8:	00000008 	andeq	r0, r0, r8
    42ac:	0008a106 	andeq	sl, r8, r6, lsl #2
    42b0:	a5060100 	strge	r0, [r6, #-256]	; 0xffffff00
    42b4:	02000008 	andeq	r0, r0, #8
    42b8:	0ca20200 	sfmeq	f0, 4, [r2]
    42bc:	6d050000 	stcvs	0, cr0, [r5, #-0]
    42c0:	00033202 	andeq	r3, r3, r2, lsl #4
    42c4:	01070500 	tsteq	r7, r0, lsl #10
    42c8:	00000033 	andeq	r0, r0, r3, lsr r0
    42cc:	7a0d6f05 	bvc	35fee8 <_E_text+0x35e9fc>
    42d0:	06000003 	streq	r0, [r0], -r3
    42d4:	0000036d 	andeq	r0, r0, sp, ror #6
    42d8:	01430600 	cmpeq	r3, r0, lsl #12
    42dc:	00010000 	andeq	r0, r1, r0
    42e0:	33010705 	movwcc	r0, #5893	; 0x1705
    42e4:	05000000 	streq	r0, [r0, #-0]
    42e8:	03950d74 	orrseq	r0, r5, #116, 26	; 0x1d00
    42ec:	ef060000 	svc	0x00060000
    42f0:	00000000 	andeq	r0, r0, r0
    42f4:	0012c906 	andseq	ip, r2, r6, lsl #18
    42f8:	05000100 	streq	r0, [r0, #-256]	; 0xffffff00
    42fc:	00330107 	eorseq	r0, r3, r7, lsl #2
    4300:	7a050000 	bvc	144308 <_E_text+0x142e1c>
    4304:	0003c20d 	andeq	ip, r3, sp, lsl #4
    4308:	09b80600 	ldmibeq	r8!, {r9, sl}
    430c:	06000000 	streq	r0, [r0], -r0
    4310:	000009c6 	andeq	r0, r0, r6, asr #19
    4314:	09d40601 	ldmibeq	r4, {r0, r9, sl}^
    4318:	06020000 	streq	r0, [r2], -r0
    431c:	0000076d 	andeq	r0, r0, sp, ror #14
    4320:	09f20603 	ldmibeq	r2!, {r0, r1, r9, sl}^
    4324:	00040000 	andeq	r0, r4, r0
    4328:	00096702 	andeq	r6, r9, r2, lsl #14
    432c:	02810500 	addeq	r0, r1, #0, 10
    4330:	00000395 	muleq	r0, r5, r3
    4334:	33010705 	movwcc	r0, #5893	; 0x1705
    4338:	05000000 	streq	r0, [r0, #-0]
    433c:	03e90d83 	mvneq	r0, #8384	; 0x20c0
    4340:	3a060000 	bcc	184348 <_E_text+0x182e5c>
    4344:	0000000f 	andeq	r0, r0, pc
    4348:	00010f06 	andeq	r0, r1, r6, lsl #30
    434c:	02000100 	andeq	r0, r0, #0, 2
    4350:	00000353 	andeq	r0, r0, r3, asr r3
    4354:	ce028605 	cfmadd32gt	mvax0, mvfx8, mvfx2, mvfx5
    4358:	05000003 	streq	r0, [r0, #-3]
    435c:	00330107 	eorseq	r0, r3, r7, lsl #2
    4360:	88050000 	stmdahi	r5, {}	; <UNPREDICTABLE>
    4364:	0004340d 	andeq	r3, r4, sp, lsl #8
    4368:	09940600 	ldmibeq	r4, {r9, sl}
    436c:	06000000 	streq	r0, [r0], -r0
    4370:	00000c7b 	andeq	r0, r0, fp, ror ip
    4374:	0a1a0601 	beq	685b80 <_E_text+0x684694>
    4378:	06020000 	streq	r0, [r2], -r0
    437c:	0000059f 	muleq	r0, pc, r5	; <UNPREDICTABLE>
    4380:	012f0603 			; <UNDEFINED> instruction: 0x012f0603
    4384:	06040000 	streq	r0, [r4], -r0
    4388:	00000126 	andeq	r0, r0, r6, lsr #2
    438c:	07840605 	streq	r0, [r4, r5, lsl #12]
    4390:	06060000 	streq	r0, [r6], -r0
    4394:	0000077b 	andeq	r0, r0, fp, ror r7
    4398:	4b020007 	blmi	843bc <_E_text+0x82ed0>
    439c:	0500000e 	streq	r0, [r0, #-14]
    43a0:	03f50291 	mvnseq	r0, #268435465	; 0x10000009
    43a4:	07050000 	streq	r0, [r5, -r0]
    43a8:	00003301 	andeq	r3, r0, r1, lsl #6
    43ac:	0d930500 	cfldr32eq	mvfx0, [r3]
    43b0:	00000491 	muleq	r0, r1, r4
    43b4:	000ed806 	andeq	sp, lr, r6, lsl #16
    43b8:	e2060000 	and	r0, r6, #0
    43bc:	01000000 	mrseq	r0, (UNDEF: 0)
    43c0:	000a3806 	andeq	r3, sl, r6, lsl #16
    43c4:	7a060200 	bvc	184bcc <_E_text+0x1836e0>
    43c8:	0300000f 	movweq	r0, #15
    43cc:	000c5f06 	andeq	r5, ip, r6, lsl #30
    43d0:	00060400 	andeq	r0, r6, r0, lsl #8
    43d4:	0500000b 	streq	r0, [r0, #-11]
    43d8:	00073c06 	andeq	r3, r7, r6, lsl #24
    43dc:	af060600 	svcge	0x00060600
    43e0:	0700000f 	streq	r0, [r0, -pc]
    43e4:	000ebd06 	andeq	fp, lr, r6, lsl #26
    43e8:	d7060800 	strle	r0, [r6, -r0, lsl #16]
    43ec:	0900000c 	stmdbeq	r0, {r2, r3}
    43f0:	000e2b06 	andeq	r2, lr, r6, lsl #22
    43f4:	02000a00 	andeq	r0, r0, #0, 20
    43f8:	00000638 	andeq	r0, r0, r8, lsr r6
    43fc:	40029f05 	andmi	r9, r2, r5, lsl #30
    4400:	05000004 	streq	r0, [r0, #-4]
    4404:	00330107 	eorseq	r0, r3, r7, lsl #2
    4408:	a1050000 	mrsge	r0, (UNDEF: 5)
    440c:	0004b80d 	andeq	fp, r4, sp, lsl #16
    4410:	0f1f0600 	svceq	0x001f0600
    4414:	06000000 	streq	r0, [r0], -r0
    4418:	00000eac 	andeq	r0, r0, ip, lsr #29
    441c:	45020001 	strmi	r0, [r2, #-1]
    4420:	0500000a 	streq	r0, [r0, #-10]
    4424:	049d02a4 	ldreq	r0, [sp], #676	; 0x2a4
    4428:	10070000 	andne	r0, r7, r0
    442c:	7309a705 	movwvc	sl, #38661	; 0x9705
    4430:	08000005 	stmdaeq	r0, {r0, r2}
    4434:	000039c9 	andeq	r3, r0, r9, asr #19
    4438:	9315a805 	tstls	r5, #327680	; 0x50000
    443c:	02000002 	andeq	r0, r0, #2
    4440:	cc080023 	stcgt	0, cr0, [r8], {35}	; 0x23
    4444:	05000003 	streq	r0, [r0, #-3]
    4448:	02c620a9 	sbceq	r2, r6, #169	; 0xa9
    444c:	23020000 	movwcs	r0, #8192	; 0x2000
    4450:	08f70801 	ldmeq	r7!, {r0, fp}^
    4454:	aa050000 	bge	14445c <_E_text+0x142f70>
    4458:	0002f91f 	andeq	pc, r2, pc, lsl r9	; <UNPREDICTABLE>
    445c:	02230200 	eoreq	r0, r3, #0, 4
    4460:	000fa208 	andeq	sl, pc, r8, lsl #4
    4464:	18ab0500 	stmiane	fp!, {r8, sl}
    4468:	00000326 	andeq	r0, r0, r6, lsr #6
    446c:	08032302 	stmdaeq	r3, {r1, r8, r9, sp}
    4470:	00000b1d 	andeq	r0, r0, sp, lsl fp
    4474:	5317ac05 	tstpl	r7, #1280	; 0x500
    4478:	02000003 	andeq	r0, r0, #3
    447c:	78080423 	stmdavc	r8, {r0, r1, r5, sl}
    4480:	05000009 	streq	r0, [r0, #-9]
    4484:	04341ead 	ldrteq	r1, [r4], #-3757	; 0xfffff153
    4488:	23020000 	movwcs	r0, #8192	; 0x2000
    448c:	08610805 	stmdaeq	r1!, {r0, r2, fp}^
    4490:	ae050000 	cdpge	0, 0, cr0, cr5, cr0, {0}
    4494:	0003e91f 	andeq	lr, r3, pc, lsl r9
    4498:	06230200 	strteq	r0, [r3], -r0, lsl #4
    449c:	000f5b08 	andeq	r5, pc, r8, lsl #22
    44a0:	16af0500 	strtne	r0, [pc], r0, lsl #10
    44a4:	000003c2 	andeq	r0, r0, r2, asr #7
    44a8:	08072302 	stmdaeq	r7, {r1, r8, r9, sp}
    44ac:	0000083c 	andeq	r0, r0, ip, lsr r8
    44b0:	911bb005 	tstls	fp, r5
    44b4:	02000004 	andeq	r0, r0, #4
    44b8:	03080823 	movweq	r0, #34851	; 0x8823
    44bc:	0500000f 	streq	r0, [r0, #-15]
    44c0:	04b81db1 	ldrteq	r1, [r8], #3505	; 0xdb1
    44c4:	23020000 	movwcs	r0, #8192	; 0x2000
    44c8:	03ed0809 	mvneq	r0, #589824	; 0x90000
    44cc:	b2050000 	andlt	r0, r5, #0
    44d0:	00004f0b 	andeq	r4, r0, fp, lsl #30
    44d4:	0c230200 	sfmeq	f0, 4, [r3], #-0
    44d8:	066c0200 	strbteq	r0, [ip], -r0, lsl #4
    44dc:	b4050000 	strlt	r0, [r5], #-0
    44e0:	0004c402 	andeq	ip, r4, r2, lsl #8
    44e4:	73040d00 	movwvc	r0, #19712	; 0x4d00
    44e8:	09000005 	stmdbeq	r0, {r0, r2}
    44ec:	00000609 	andeq	r0, r0, r9, lsl #12
    44f0:	7f24c105 	svcvc	0x0024c105
    44f4:	01000005 	tsteq	r0, r5
    44f8:	01070501 	tsteq	r7, r1, lsl #10
    44fc:	00000033 	andeq	r0, r0, r3, lsr r0
    4500:	ae0d1006 	cdpge	0, 0, cr1, cr13, cr6, {0}
    4504:	06000005 	streq	r0, [r0], -r5
    4508:	000027c3 	andeq	r2, r0, r3, asr #15
    450c:	288d0600 	stmcs	sp, {r9, sl}
    4510:	00010000 	andeq	r0, r1, r0
    4514:	03050803 	movweq	r0, #22531	; 0x5803
    4518:	0e000008 	cdpeq	0, 0, cr0, cr0, cr8, {0}
    451c:	6e690504 	cdpvs	5, 6, cr0, cr9, cr4, {0}
    4520:	08030074 	stmdaeq	r3, {r2, r4, r5, r6}
    4524:	0009ac04 	andeq	sl, r9, r4, lsl #24
    4528:	08010300 	stmdaeq	r1, {r8, r9}
    452c:	00000d1d 	andeq	r0, r0, sp, lsl sp
    4530:	0027700f 	eoreq	r7, r7, pc
    4534:	06110100 	ldreq	r0, [r1], -r0, lsl #2
    4538:	00000027 	andeq	r0, r0, r7, lsr #32
    453c:	00030501 	andeq	r0, r3, r1, lsl #10
    4540:	0f000000 	svceq	0x00000000
    4544:	0000276c 	andeq	r2, r0, ip, ror #14
    4548:	f0071201 			; <UNDEFINED> instruction: 0xf0071201
    454c:	01000005 	tsteq	r0, r5
    4550:	00000305 	andeq	r0, r0, r5, lsl #6
    4554:	040d0000 	streq	r0, [sp], #-0
    4558:	00000027 	andeq	r0, r0, r7, lsr #32
    455c:	00002710 	andeq	r2, r0, r0, lsl r7
    4560:	00060700 	andeq	r0, r6, r0, lsl #14
    4564:	016e1100 	cmneq	lr, r0, lsl #2
    4568:	03ff0000 	mvnseq	r0, #0
    456c:	277a0f00 	ldrbcs	r0, [sl, -r0, lsl #30]!
    4570:	14010000 	strne	r0, [r1], #-0
    4574:	0005f606 	andeq	pc, r5, r6, lsl #12
    4578:	03050100 	movweq	r0, #20736	; 0x5100
    457c:	20000d1c 	andcs	r0, r0, ip, lsl sp
    4580:	00002710 	andeq	r2, r0, r0, lsl r7
    4584:	00062a00 	andeq	r2, r6, r0, lsl #20
    4588:	016e1200 	cmneq	lr, r0, lsl #4
    458c:	00000000 	andeq	r0, r0, r0
    4590:	0027fe0f 	eoreq	pc, r7, pc, lsl #28
    4594:	06150100 	ldreq	r0, [r5], -r0, lsl #2
    4598:	0000061a 	andeq	r0, r0, sl, lsl r6
    459c:	1c030501 	cfstr32ne	mvfx0, [r3], {1}
    45a0:	0f200011 	svceq	0x00200011
    45a4:	0000280a 	andeq	r2, r0, sl, lsl #16
    45a8:	1a061601 	bne	189db4 <_E_text+0x1888c8>
    45ac:	01000006 	tsteq	r0, r6
    45b0:	11200305 			; <UNDEFINED> instruction: 0x11200305
    45b4:	2f0f2000 	svccs	0x000f2000
    45b8:	01000028 	tsteq	r0, r8, lsr #32
    45bc:	05f60617 	ldrbeq	r0, [r6, #1559]!	; 0x617
    45c0:	05010000 	streq	r0, [r1, #-0]
    45c4:	00112403 	andseq	r2, r1, r3, lsl #8
    45c8:	004f1020 	subeq	r1, pc, r0, lsr #32
    45cc:	06730000 	ldrbteq	r0, [r3], -r0
    45d0:	6e120000 	cdpvs	0, 1, cr0, cr2, cr0, {0}
    45d4:	00000001 	andeq	r0, r0, r1
    45d8:	10bc0f00 	adcsne	r0, ip, r0, lsl #30
    45dc:	1a010000 	bne	445e4 <_E_text+0x430f8>
    45e0:	00066307 	andeq	r6, r6, r7, lsl #6
    45e4:	03050100 	movweq	r0, #20736	; 0x5100
    45e8:	00000000 	andeq	r0, r0, r0
    45ec:	0011870f 	andseq	r8, r1, pc, lsl #14
    45f0:	071b0100 	ldreq	r0, [fp, -r0, lsl #2]
    45f4:	00000663 	andeq	r0, r0, r3, ror #12
    45f8:	00030501 	andeq	r0, r3, r1, lsl #10
    45fc:	0f000000 	svceq	0x00000000
    4600:	000010c2 	andeq	r1, r0, r2, asr #1
    4604:	63071c01 	movwvs	r1, #31745	; 0x7c01
    4608:	01000006 	tsteq	r0, r6
    460c:	00000305 	andeq	r0, r0, r5, lsl #6
    4610:	4f100000 	svcmi	0x00100000
    4614:	bc000000 	stclt	0, cr0, [r0], {-0}
    4618:	12000006 	andne	r0, r0, #6
    461c:	0000016e 	andeq	r0, r0, lr, ror #2
    4620:	c80f0001 	stmdagt	pc, {r0}	; <UNPREDICTABLE>
    4624:	01000010 	tsteq	r0, r0, lsl r0
    4628:	06ac071f 	ssateq	r0, #13, pc, lsl #14	; <UNPREDICTABLE>
    462c:	05010000 	streq	r0, [r1, #-0]
    4630:	00000003 	andeq	r0, r0, r3
    4634:	10ce0f00 	sbcne	r0, lr, r0, lsl #30
    4638:	20010000 	andcs	r0, r1, r0
    463c:	0006ac07 	andeq	sl, r6, r7, lsl #24
    4640:	03050100 	movweq	r0, #20736	; 0x5100
    4644:	00000000 	andeq	r0, r0, r0
    4648:	00118d0f 	andseq	r8, r1, pc, lsl #26
    464c:	07210100 	streq	r0, [r1, -r0, lsl #2]!
    4650:	000006ac 	andeq	r0, r0, ip, lsr #13
    4654:	00030501 	andeq	r0, r3, r1, lsl #10
    4658:	10000000 	andne	r0, r0, r0
    465c:	0000004f 	andeq	r0, r0, pc, asr #32
    4660:	00000705 	andeq	r0, r0, r5, lsl #14
    4664:	00016e12 	andeq	r6, r1, r2, lsl lr
    4668:	0f000500 	svceq	0x00000500
    466c:	0000102f 	andeq	r1, r0, pc, lsr #32
    4670:	f5072301 			; <UNDEFINED> instruction: 0xf5072301
    4674:	01000006 	tsteq	r0, r6
    4678:	15240305 	strne	r0, [r4, #-773]!	; 0xfffffcfb
    467c:	980f2000 	stmdals	pc, {sp}	; <UNPREDICTABLE>
    4680:	01000027 	tsteq	r0, r7, lsr #32
    4684:	004f0724 	subeq	r0, pc, r4, lsr #14
    4688:	05010000 	streq	r0, [r1, #-0]
    468c:	00153c03 	andseq	r3, r5, r3, lsl #24
    4690:	00271020 	eoreq	r1, r7, r0, lsr #32
    4694:	073b0000 	ldreq	r0, [fp, -r0]!
    4698:	6e120000 	cdpvs	0, 1, cr0, cr2, cr0, {0}
    469c:	07000001 	streq	r0, [r0, -r1]
    46a0:	27ed0f00 	strbcs	r0, [sp, r0, lsl #30]!
    46a4:	26010000 	strcs	r0, [r1], -r0
    46a8:	00072b06 	andeq	r2, r7, r6, lsl #22
    46ac:	03050100 	movweq	r0, #20736	; 0x5100
    46b0:	00000000 	andeq	r0, r0, r0
    46b4:	00278b0f 	eoreq	r8, r7, pc, lsl #22
    46b8:	07270100 	streq	r0, [r7, -r0, lsl #2]!
    46bc:	0000004f 	andeq	r0, r0, pc, asr #32
    46c0:	40030501 	andmi	r0, r3, r1, lsl #10
    46c4:	0f200015 	svceq	0x00200015
    46c8:	00002848 	andeq	r2, r0, r8, asr #16
    46cc:	67072801 	strvs	r2, [r7, -r1, lsl #16]
    46d0:	01000000 	mrseq	r0, (UNDEF: 0)
    46d4:	00000305 	andeq	r0, r0, r5, lsl #6
    46d8:	990f0000 	stmdbls	pc, {}	; <UNPREDICTABLE>
    46dc:	01000028 	tsteq	r0, r8, lsr #32
    46e0:	00670729 	rsbeq	r0, r7, r9, lsr #14
    46e4:	05010000 	streq	r0, [r1, #-0]
    46e8:	00000003 	andeq	r0, r0, r3
    46ec:	27b50f00 	ldrcs	r0, [r5, r0, lsl #30]!
    46f0:	2a010000 	bcs	446f8 <_E_text+0x4320c>
    46f4:	00004f07 	andeq	r4, r0, r7, lsl #30
    46f8:	03050100 	movweq	r0, #20736	; 0x5100
    46fc:	20001544 	andcs	r1, r0, r4, asr #10
    4700:	00285e13 	eoreq	r5, r8, r3, lsl lr
    4704:	172b0100 	strne	r0, [fp, -r0, lsl #2]!
    4708:	0000005b 	andeq	r0, r0, fp, asr r0
    470c:	00000305 	andeq	r0, r0, r5, lsl #6
    4710:	e1130000 	tst	r3, r0
    4714:	01000027 	tsteq	r0, r7, lsr #32
    4718:	005b172c 	subseq	r1, fp, ip, lsr #14
    471c:	03050000 	movweq	r0, #20480	; 0x5000
    4720:	00000000 	andeq	r0, r0, r0
    4724:	00286a13 	eoreq	r6, r8, r3, lsl sl
    4728:	0e2d0100 	sufeqe	f0, f5, f0
    472c:	0000004f 	andeq	r0, r0, pc, asr #32
    4730:	00000305 	andeq	r0, r0, r5, lsl #6
    4734:	76130000 	ldrvc	r0, [r3], -r0
    4738:	01000028 	tsteq	r0, r8, lsr #32
    473c:	004f0e2e 	subeq	r0, pc, lr, lsr #28
    4740:	03050000 	movweq	r0, #20480	; 0x5000
    4744:	00000000 	andeq	r0, r0, r0
    4748:	00002710 	andeq	r2, r0, r0, lsl r7
    474c:	0007f300 	andeq	pc, r7, r0, lsl #6
    4750:	016e1100 	cmneq	lr, r0, lsl #2
    4754:	01ff0000 	mvnseq	r0, r0
    4758:	28b20f00 	ldmcs	r2!, {r8, r9, sl, fp}
    475c:	31010000 	mrscc	r0, (UNDEF: 1)
    4760:	0007e206 	andeq	lr, r7, r6, lsl #4
    4764:	03050100 	movweq	r0, #20736	; 0x5100
    4768:	20001548 	andcs	r1, r0, r8, asr #10
    476c:	0028160f 	eoreq	r1, r8, pc, lsl #12
    4770:	06320100 	ldrteq	r0, [r2], -r0, lsl #2
    4774:	000007e2 	andeq	r0, r0, r2, ror #15
    4778:	48030501 	stmdami	r3, {r0, r8, sl}
    477c:	0f200017 	svceq	0x00200017
    4780:	000027a5 	andeq	r2, r0, r5, lsr #15
    4784:	5b103401 	blpl	411790 <_E_text+0x4102a4>
    4788:	01000000 	mrseq	r0, (UNDEF: 0)
    478c:	19480305 	stmdbne	r8, {r0, r2, r8, r9}^
    4790:	01142000 	tsteq	r4, r0
    4794:	00002894 	muleq	r0, r4, r8
    4798:	01053f01 	tsteq	r5, r1, lsl #30
    479c:	000005b5 			; <UNDEFINED> instruction: 0x000005b5
    47a0:	00001140 	andeq	r1, r0, r0, asr #2
    47a4:	000011e4 	andeq	r1, r0, r4, ror #3
    47a8:	000013d4 	ldrdeq	r1, [r0], -r4
    47ac:	00086a01 	andeq	r6, r8, r1, lsl #20
    47b0:	28821500 	stmcs	r2, {r8, sl, ip}
    47b4:	2f010000 	svccs	0x00010000
    47b8:	05b51001 	ldreq	r1, [r5, #1]!
    47bc:	16050000 	strne	r0, [r5], -r0
    47c0:	0000283e 	andeq	r2, r0, lr, lsr r8
    47c4:	09013001 	stmdbeq	r1, {r0, ip, sp}
    47c8:	000005b5 			; <UNDEFINED> instruction: 0x000005b5
    47cc:	00749102 	rsbseq	r9, r4, r2, lsl #2
    47d0:	28230117 	stmdacs	r3!, {r0, r1, r2, r4, r8}
    47d4:	36010000 	strcc	r0, [r1], -r0
    47d8:	00000106 	andeq	r0, r0, r6, lsl #2
    47dc:	00000000 	andeq	r0, r0, r0
    47e0:	140c0000 	strne	r0, [ip], #-0
    47e4:	13010000 	movwne	r0, #4096	; 0x1000
    47e8:	000027ce 	andeq	r2, r0, lr, asr #15
    47ec:	4f0b3701 	svcmi	0x000b3701
    47f0:	02000000 	andeq	r0, r0, #0
    47f4:	d3137491 	tstle	r3, #-1862270976	; 0x91000000
    47f8:	01000027 	tsteq	r0, r7, lsr #32
    47fc:	004f0b38 	subeq	r0, pc, r8, lsr fp	; <UNPREDICTABLE>
    4800:	91020000 	mrsls	r0, (UNDEF: 2)
    4804:	6b000070 	blvs	49cc <_E_text+0x34e0>
    4808:	02000004 	andeq	r0, r0, #4
    480c:	000a0d00 	andeq	r0, sl, r0, lsl #26
    4810:	ac010400 	cfstrsge	mvf0, [r1], {-0}
    4814:	0c000001 	stceq	0, cr0, [r0], {1}
    4818:	00002a62 	andeq	r2, r0, r2, ror #20
    481c:	0238002e 	eorseq	r0, r8, #46	; 0x2e
	...
    4828:	10010000 	andne	r0, r1, r0
    482c:	53020000 	movwpl	r0, #8192	; 0x2000
    4830:	02000008 	andeq	r0, r0, #8
    4834:	00331d06 	eorseq	r1, r3, r6, lsl #26
    4838:	01030000 	mrseq	r0, (UNDEF: 3)
    483c:	000d1408 	andeq	r1, sp, r8, lsl #8
    4840:	06010300 	streq	r0, [r1], -r0, lsl #6
    4844:	00000d16 	andeq	r0, r0, r6, lsl sp
    4848:	e4070203 	str	r0, [r7], #-515	; 0xfffffdfd
    484c:	0300000e 	movweq	r0, #14
    4850:	0a630502 	beq	18c5c60 <_E_text+0x18c4774>
    4854:	5d020000 	stcpl	0, cr0, [r2, #-0]
    4858:	0200000a 	andeq	r0, r0, #10
    485c:	00601c0e 	rsbeq	r1, r0, lr, lsl #24
    4860:	4f040000 	svcmi	0x00040000
    4864:	03000000 	movweq	r0, #0
    4868:	05270704 	streq	r0, [r7, #-1796]!	; 0xfffff8fc
    486c:	04030000 	streq	r0, [r3], #-0
    4870:	00080805 	andeq	r0, r8, r5, lsl #16
    4874:	04040300 	streq	r0, [r4], #-768	; 0xfffffd00
    4878:	0000050a 	andeq	r0, r0, sl, lsl #10
    487c:	b1040803 	tstlt	r4, r3, lsl #16
    4880:	03000009 	movweq	r0, #9
    4884:	05220708 	streq	r0, [r2, #-1800]!	; 0xfffff8f8
    4888:	04050000 	streq	r0, [r5], #-0
    488c:	c3090b03 	movwgt	r0, #39683	; 0x9b03
    4890:	06000000 	streq	r0, [r0], -r0
    4894:	000029f8 	strdeq	r2, [r0], -r8
    4898:	4f0b0e03 	svcmi	0x000b0e03
    489c:	04000000 	streq	r0, [r0], #-0
    48a0:	23021503 	movwcs	r1, #9475	; 0x2503
    48a4:	28e70600 	stmiacs	r7!, {r9, sl}^
    48a8:	10030000 	andne	r0, r3, r0
    48ac:	00004f0b 	andeq	r4, r0, fp, lsl #30
    48b0:	10010400 	andne	r0, r1, r0, lsl #8
    48b4:	06002302 	streq	r2, [r0], -r2, lsl #6
    48b8:	00002938 	andeq	r2, r0, r8, lsr r9
    48bc:	4f0b1103 	svcmi	0x000b1103
    48c0:	04000000 	streq	r0, [r0], #-0
    48c4:	23020010 	movwcs	r0, #8208	; 0x2010
    48c8:	77020000 	strvc	r0, [r2, -r0]
    48cc:	0300002a 	movweq	r0, #42	; 0x2a
    48d0:	00830214 	addeq	r0, r3, r4, lsl r2
    48d4:	04050000 	streq	r0, [r5], #-0
    48d8:	45091603 	strmi	r1, [r9, #-1539]	; 0xfffff9fd
    48dc:	07000001 	streq	r0, [r0, -r1]
    48e0:	00736552 	rsbseq	r6, r3, r2, asr r5
    48e4:	4f0b1803 	svcmi	0x000b1803
    48e8:	04000000 	streq	r0, [r0], #-0
    48ec:	23021b05 	movwcs	r1, #11013	; 0x2b05
    48f0:	2ade0600 	bcs	ff7860f8 <_E_BSS+0xdf784304>
    48f4:	19030000 	stmdbne	r3, {}	; <UNPREDICTABLE>
    48f8:	00004f0b 	andeq	r4, r0, fp, lsl #30
    48fc:	18030400 	stmdane	r3, {sl}
    4900:	07002302 	streq	r2, [r0, -r2, lsl #6]
    4904:	00736572 	rsbseq	r6, r3, r2, ror r5
    4908:	4f0c1a03 	svcmi	0x000c1a03
    490c:	04000000 	streq	r0, [r0], #-0
    4910:	23021305 	movwcs	r1, #8965	; 0x2305
    4914:	2ae30600 	bcs	ff8c611c <_E_BSS+0xdf8c4328>
    4918:	1b030000 	blne	c4920 <_E_text+0xc3434>
    491c:	00004f0b 	andeq	r4, r0, fp, lsl #30
    4920:	10030400 	andne	r0, r3, r0, lsl #8
    4924:	06002302 	streq	r2, [r0], -r2, lsl #6
    4928:	00002ae8 	andeq	r2, r0, r8, ror #21
    492c:	4f0b1d03 	svcmi	0x000b1d03
    4930:	04000000 	streq	r0, [r0], #-0
    4934:	23020803 	movwcs	r0, #10243	; 0x2803
    4938:	2aed0600 	bcs	ffb46140 <_E_BSS+0xdfb4434c>
    493c:	1f030000 	svcne	0x00030000
    4940:	00004f0b 	andeq	r4, r0, fp, lsl #30
    4944:	00030400 	andeq	r0, r3, r0, lsl #8
    4948:	00002302 	andeq	r2, r0, r2, lsl #6
    494c:	00292f02 	eoreq	r2, r9, r2, lsl #30
    4950:	02200300 	eoreq	r0, r0, #0, 6
    4954:	000000cf 	andeq	r0, r0, pc, asr #1
    4958:	00014504 	andeq	r4, r1, r4, lsl #10
    495c:	01070800 	tsteq	r7, r0, lsl #16
    4960:	00000033 	andeq	r0, r0, r3, lsr r0
    4964:	7d0d1004 	stcvc	0, cr1, [sp, #-16]
    4968:	09000001 	stmdbeq	r0, {r0}
    496c:	00002a1c 	andeq	r2, r0, ip, lsl sl
    4970:	2b720904 	blcs	1c86d88 <_E_text+0x1c8589c>
    4974:	09050000 	stmdbeq	r5, {}	; <UNPREDICTABLE>
    4978:	00002a82 	andeq	r2, r0, r2, lsl #21
    497c:	29760906 	ldmdbcs	r6!, {r1, r2, r8, fp}^
    4980:	00070000 	andeq	r0, r7, r0
    4984:	002b2002 	eoreq	r2, fp, r2
    4988:	03180400 	tsteq	r8, #0, 8
    498c:	00000156 	andeq	r0, r0, r6, asr r1
    4990:	33010708 	movwcc	r0, #5896	; 0x1708
    4994:	04000000 	streq	r0, [r0], #-0
    4998:	01ce0d1a 	biceq	r0, lr, sl, lsl sp
    499c:	ab090000 	blge	2449a4 <_E_text+0x2434b8>
    49a0:	0000002a 	andeq	r0, r0, sl, lsr #32
    49a4:	002abd09 	eoreq	fp, sl, r9, lsl #26
    49a8:	cf090100 	svcgt	0x00090100
    49ac:	0200002a 	andeq	r0, r0, #42	; 0x2a
    49b0:	00295509 	eoreq	r5, r9, r9, lsl #10
    49b4:	11090300 	mrsne	r0, (UNDEF: 57)
    49b8:	0400002b 	streq	r0, [r0], #-43	; 0xffffffd5
    49bc:	00294309 	eoreq	r4, r9, r9, lsl #6
    49c0:	a6090500 	strge	r0, [r9], -r0, lsl #10
    49c4:	06000029 	streq	r0, [r0], -r9, lsr #32
    49c8:	00296709 	eoreq	r6, r9, r9, lsl #14
    49cc:	31090700 	tstcc	r9, r0, lsl #14
    49d0:	0800002b 	stmdaeq	r0, {r0, r1, r3, r5}
    49d4:	28cf0200 	stmiacs	pc, {r9}^	; <UNPREDICTABLE>
    49d8:	26040000 	strcs	r0, [r4], -r0
    49dc:	00018902 	andeq	r8, r1, r2, lsl #18
    49e0:	01070800 	tsteq	r7, r0, lsl #16
    49e4:	00000033 	andeq	r0, r0, r3, lsr r0
    49e8:	1f0d2804 	svcne	0x000d2804
    49ec:	09000002 	stmdbeq	r0, {r1}
    49f0:	00002aa8 	andeq	r2, r0, r8, lsr #21
    49f4:	2aba0900 	bcs	fee86dfc <_E_BSS+0xdee85008>
    49f8:	09010000 	stmdbeq	r1, {}	; <UNPREDICTABLE>
    49fc:	00002acc 	andeq	r2, r0, ip, asr #21
    4a00:	29520902 	ldmdbcs	r2, {r1, r8, fp}^
    4a04:	09030000 	stmdbeq	r3, {}	; <UNPREDICTABLE>
    4a08:	00002b0e 	andeq	r2, r0, lr, lsl #22
    4a0c:	29400904 	stmdbcs	r0, {r2, r8, fp}^
    4a10:	09050000 	stmdbeq	r5, {}	; <UNPREDICTABLE>
    4a14:	000029a3 	andeq	r2, r0, r3, lsr #19
    4a18:	29640906 	stmdbcs	r4!, {r1, r2, r8, fp}^
    4a1c:	09070000 	stmdbeq	r7, {}	; <UNPREDICTABLE>
    4a20:	00002b2e 	andeq	r2, r0, lr, lsr #22
    4a24:	57020008 	strpl	r0, [r2, -r8]
    4a28:	0400002b 	streq	r0, [r0], #-43	; 0xffffffd5
    4a2c:	01da0235 	bicseq	r0, sl, r5, lsr r2
    4a30:	4d0a0000 	stcmi	0, cr0, [sl, #-0]
    4a34:	3b000002 	blcc	4a44 <_E_text+0x3558>
    4a38:	0b000002 	bleq	4a48 <_E_text+0x355c>
    4a3c:	00000240 	andeq	r0, r0, r0, asr #4
    4a40:	2b0c0003 	blcs	304a54 <_E_text+0x303568>
    4a44:	03000002 	movweq	r0, #2
    4a48:	052c0704 	streq	r0, [ip, #-1796]!	; 0xfffff8fc
    4a4c:	040d0000 	streq	r0, [sp], #-0
    4a50:	0000005b 	andeq	r0, r0, fp, asr r0
    4a54:	0002470c 	andeq	r4, r2, ip, lsl #14
    4a58:	2a010e00 	bcs	48260 <_E_text+0x46d74>
    4a5c:	17010000 	strne	r0, [r1, -r0]
    4a60:	00023b1f 	andeq	r3, r2, pc, lsl fp
    4a64:	bc030500 	cfstr32lt	mvfx0, [r3], {-0}
    4a68:	0e000006 	cdpeq	0, 0, cr0, cr0, cr6, {0}
    4a6c:	000029b5 			; <UNDEFINED> instruction: 0x000029b5
    4a70:	3b1f2601 	blcc	7ce27c <_E_text+0x7ccd90>
    4a74:	05000002 	streq	r0, [r0, #-2]
    4a78:	0006cc03 	andeq	ip, r6, r3, lsl #24
    4a7c:	29e30e00 	stmibcs	r3!, {r9, sl, fp}^
    4a80:	36010000 	strcc	r0, [r1], -r0
    4a84:	00023b1f 	andeq	r3, r2, pc, lsl fp
    4a88:	dc030500 	cfstr32le	mvfx0, [r3], {-0}
    4a8c:	0e000006 	cdpeq	0, 0, cr0, cr0, cr6, {0}
    4a90:	00002b40 	andeq	r2, r0, r0, asr #22
    4a94:	3b1f4501 	blcc	7d5ea0 <_E_text+0x7d49b4>
    4a98:	05000002 	streq	r0, [r0, #-2]
    4a9c:	0006ec03 	andeq	lr, r6, r3, lsl #24
    4aa0:	02b50a00 	adcseq	r0, r5, #0, 20
    4aa4:	02aa0000 	adceq	r0, sl, #0
    4aa8:	400b0000 	andmi	r0, fp, r0
    4aac:	07000002 	streq	r0, [r0, -r2]
    4ab0:	029a0c00 	addseq	r0, sl, #0, 24
    4ab4:	040d0000 	streq	r0, [sp], #-0
    4ab8:	00000151 	andeq	r0, r0, r1, asr r1
    4abc:	0002af0c 	andeq	sl, r2, ip, lsl #30
    4ac0:	2a300e00 	bcs	c082c8 <_E_text+0xc06ddc>
    4ac4:	54010000 	strpl	r0, [r1], #-0
    4ac8:	0002aa24 	andeq	sl, r2, r4, lsr #20
    4acc:	fc030500 	stc2	5, cr0, [r3], {-0}
    4ad0:	0f000006 	svceq	0x00000006
    4ad4:	0029cf01 	eoreq	ip, r9, r1, lsl #30
    4ad8:	06a50100 	strteq	r0, [r5], r0, lsl #2
    4adc:	00000001 	andeq	r0, r0, r1
    4ae0:	00000000 	andeq	r0, r0, r0
    4ae4:	00146800 	andseq	r6, r4, r0, lsl #16
    4ae8:	03230100 			; <UNDEFINED> instruction: 0x03230100
    4aec:	c1100000 	tstgt	r0, r0
    4af0:	01000028 	tsteq	r0, r8, lsr #32
    4af4:	01ce32a5 	biceq	r3, lr, r5, lsr #5
    4af8:	91020000 	mrsls	r0, (UNDEF: 2)
    4afc:	2918106f 	ldmdbcs	r8, {r0, r1, r2, r3, r5, r6, ip}
    4b00:	a5010000 	strge	r0, [r1, #-0]
    4b04:	00021f5c 	andeq	r1, r2, ip, asr pc
    4b08:	6e910200 	cdpvs	2, 9, cr0, cr1, cr0, {0}
    4b0c:	00444911 	subeq	r4, r4, r1, lsl r9
    4b10:	276fa501 	strbcs	sl, [pc, -r1, lsl #10]!
    4b14:	02000000 	andeq	r0, r0, #0
    4b18:	280e6d91 	stmdacs	lr, {r0, r4, r7, r8, sl, fp, sp, lr}
    4b1c:	01000029 	tsteq	r0, r9, lsr #32
    4b20:	00270aa7 	eoreq	r0, r7, r7, lsr #21
    4b24:	91020000 	mrsls	r0, (UNDEF: 2)
    4b28:	010f0077 	tsteq	pc, r7, ror r0	; <UNPREDICTABLE>
    4b2c:	0000298a 	andeq	r2, r0, sl, lsl #19
    4b30:	01069c01 	tsteq	r6, r1, lsl #24
	...
    4b3c:	000014c4 	andeq	r1, r0, r4, asr #9
    4b40:	00034e01 	andeq	r4, r3, r1, lsl #28
    4b44:	2a691000 	bcs	1a48b4c <_E_text+0x1a47660>
    4b48:	9c010000 	stcls	0, cr0, [r1], {-0}
    4b4c:	00017d2d 	andeq	r7, r1, sp, lsr #26
    4b50:	77910200 	ldrvc	r0, [r1, r0, lsl #4]
    4b54:	f0010f00 			; <UNDEFINED> instruction: 0xf0010f00
    4b58:	01000028 	tsteq	r0, r8, lsr #32
    4b5c:	0001068d 	andeq	r0, r1, sp, lsl #13
    4b60:	00000000 	andeq	r0, r0, r0
    4b64:	20000000 	andcs	r0, r0, r0
    4b68:	01000015 	tsteq	r0, r5, lsl r0
    4b6c:	00000397 	muleq	r0, r7, r3
    4b70:	002a9610 	eoreq	r9, sl, r0, lsl r6
    4b74:	1f8d0100 	svcne	0x008d0100
    4b78:	0000004f 	andeq	r0, r0, pc, asr #32
    4b7c:	0e6c9102 	lgneqe	f1, f2
    4b80:	00002924 	andeq	r2, r0, r4, lsr #18
    4b84:	270a8f01 	strcs	r8, [sl, -r1, lsl #30]
    4b88:	02000000 	andeq	r0, r0, #0
    4b8c:	030e7791 	movweq	r7, #59281	; 0xe791
    4b90:	0100002b 	tsteq	r0, fp, lsr #32
    4b94:	00270a93 	mlaeq	r7, r3, sl, r0
    4b98:	91020000 	mrsls	r0, (UNDEF: 2)
    4b9c:	010f0076 	tsteq	pc, r6, ror r0	; <UNPREDICTABLE>
    4ba0:	00002af2 	strdeq	r2, [r0], -r2	; <UNPREDICTABLE>
    4ba4:	01067e01 	tsteq	r6, r1, lsl #28
	...
    4bb0:	0000157c 	andeq	r1, r0, ip, ror r5
    4bb4:	0003e001 	andeq	lr, r3, r1
    4bb8:	2a961000 	bcs	fe588bc0 <_E_BSS+0xde586dcc>
    4bbc:	7e010000 	cdpvc	0, 0, cr0, cr1, cr0, {0}
    4bc0:	00004f1d 	andeq	r4, r0, sp, lsl pc
    4bc4:	6c910200 	lfmvs	f0, 4, [r1], {0}
    4bc8:	0029240e 	eoreq	r2, r9, lr, lsl #8
    4bcc:	0a800100 	beq	fe004fd4 <_E_BSS+0xde0031e0>
    4bd0:	00000027 	andeq	r0, r0, r7, lsr #32
    4bd4:	0e779102 	expeqs	f1, f2
    4bd8:	00002b03 	andeq	r2, r0, r3, lsl #22
    4bdc:	270a8401 	strcs	r8, [sl, -r1, lsl #8]
    4be0:	02000000 	andeq	r0, r0, #0
    4be4:	0f007691 	svceq	0x00007691
    4be8:	00290301 	eoreq	r0, r9, r1, lsl #6
    4bec:	066f0100 	strbteq	r0, [pc], -r0, lsl #2
    4bf0:	00123001 	andseq	r3, r2, r1
    4bf4:	00127c00 	andseq	r7, r2, r0, lsl #24
    4bf8:	0015d800 	andseq	sp, r5, r0, lsl #16
    4bfc:	04290100 	strteq	r0, [r9], #-256	; 0xffffff00
    4c00:	96100000 	ldrls	r0, [r0], -r0
    4c04:	0100002a 	tsteq	r0, sl, lsr #32
    4c08:	004f216f 	subeq	r2, pc, pc, ror #2
    4c0c:	91020000 	mrsls	r0, (UNDEF: 2)
    4c10:	29240e6c 	stmdbcs	r4!, {r2, r3, r5, r6, r9, sl, fp}
    4c14:	71010000 	mrsvc	r0, (UNDEF: 1)
    4c18:	0000270a 	andeq	r2, r0, sl, lsl #14
    4c1c:	77910200 	ldrvc	r0, [r1, r0, lsl #4]
    4c20:	002b030e 	eoreq	r0, fp, lr, lsl #6
    4c24:	0a750100 	beq	1d4502c <_E_text+0x1d43b40>
    4c28:	00000027 	andeq	r0, r0, r7, lsr #32
    4c2c:	00769102 	rsbseq	r9, r6, r2, lsl #2
    4c30:	2a4c0112 	bcs	1305080 <_E_text+0x1303b94>
    4c34:	62010000 	andvs	r0, r1, #0
    4c38:	11e40106 	mvnne	r0, r6, lsl #2
    4c3c:	12300000 	eorsne	r0, r0, #0
    4c40:	16340000 	ldrtne	r0, [r4], -r0
    4c44:	10010000 	andne	r0, r1, r0
    4c48:	00002a96 	muleq	r0, r6, sl
    4c4c:	4f226201 	svcmi	0x00226201
    4c50:	02000000 	andeq	r0, r0, #0
    4c54:	240e6c91 	strcs	r6, [lr], #-3217	; 0xfffff36f
    4c58:	01000029 	tsteq	r0, r9, lsr #32
    4c5c:	00270a64 	eoreq	r0, r7, r4, ror #20
    4c60:	91020000 	mrsls	r0, (UNDEF: 2)
    4c64:	2b030e77 	blcs	c8648 <_E_text+0xc715c>
    4c68:	68010000 	stmdavs	r1, {}	; <UNPREDICTABLE>
    4c6c:	0000270a 	andeq	r2, r0, sl, lsl #14
    4c70:	76910200 	ldrvc	r0, [r1], r0, lsl #4
    4c74:	01b10000 			; <UNDEFINED> instruction: 0x01b10000
    4c78:	00020000 	andeq	r0, r2, r0
    4c7c:	00000b28 	andeq	r0, r0, r8, lsr #22
    4c80:	01ac0104 			; <UNDEFINED> instruction: 0x01ac0104
    4c84:	860c0000 	strhi	r0, [ip], -r0
    4c88:	2e00002b 	cdpcs	0, 0, cr0, cr0, cr11, {1}
    4c8c:	00027000 	andeq	r7, r2, r0
	...
    4c98:	0011c200 	andseq	ip, r1, r0, lsl #4
    4c9c:	06010200 	streq	r0, [r1], -r0, lsl #4
    4ca0:	00000d16 	andeq	r0, r0, r6, lsl sp
    4ca4:	14080102 	strne	r0, [r8], #-258	; 0xfffffefe
    4ca8:	0200000d 	andeq	r0, r0, #13
    4cac:	0a630502 	beq	18c60bc <_E_text+0x18c4bd0>
    4cb0:	02020000 	andeq	r0, r2, #0
    4cb4:	000ee407 	andeq	lr, lr, r7, lsl #8
    4cb8:	05040200 	streq	r0, [r4, #-512]	; 0xfffffe00
    4cbc:	00000808 	andeq	r0, r0, r8, lsl #16
    4cc0:	27070402 	strcs	r0, [r7, -r2, lsl #8]
    4cc4:	02000005 	andeq	r0, r0, #5
    4cc8:	08030508 	stmdaeq	r3, {r3, r8, sl}
    4ccc:	08020000 	stmdaeq	r2, {}	; <UNPREDICTABLE>
    4cd0:	00052207 	andeq	r2, r5, r7, lsl #4
    4cd4:	05040300 	streq	r0, [r4, #-768]	; 0xfffffd00
    4cd8:	00746e69 	rsbseq	r6, r4, r9, ror #28
    4cdc:	2c070402 	cfstrscs	mvf0, [r7], {2}
    4ce0:	04000005 	streq	r0, [r0], #-5
    4ce4:	0000004a 	andeq	r0, r0, sl, asr #32
    4ce8:	0000007d 	andeq	r0, r0, sp, ror r0
    4cec:	00006605 	andeq	r6, r0, r5, lsl #12
    4cf0:	0600ff00 	streq	pc, [r0], -r0, lsl #30
    4cf4:	00002b9a 	muleq	r0, sl, fp
    4cf8:	6d161b01 	vldrvs	d1, [r6, #-4]
    4cfc:	05000000 	streq	r0, [r0, #-0]
    4d00:	00194c03 	andseq	r4, r9, r3, lsl #24
    4d04:	00aa0420 	adceq	r0, sl, r0, lsr #8
    4d08:	009f0000 	addseq	r0, pc, r0
    4d0c:	66050000 	strvs	r0, [r5], -r0
    4d10:	06000000 	streq	r0, [r0], -r0
    4d14:	008f0700 	addeq	r0, pc, r0, lsl #14
    4d18:	04080000 	streq	r0, [r8], #-0
    4d1c:	000000af 	andeq	r0, r0, pc, lsr #1
    4d20:	0000a407 	andeq	sl, r0, r7, lsl #8
    4d24:	00b60900 	adcseq	r0, r6, r0, lsl #18
    4d28:	000a0000 	andeq	r0, sl, r0
    4d2c:	002bf60b 	eoreq	pc, fp, fp, lsl #12
    4d30:	0e1e0100 	mufeqe	f0, f6, f0
    4d34:	0000009f 	muleq	r0, pc, r0	; <UNPREDICTABLE>
    4d38:	00030501 	andeq	r0, r3, r1, lsl #10
    4d3c:	0c000000 	stceq	0, cr0, [r0], {-0}
    4d40:	00002bc7 	andeq	r2, r0, r7, asr #23
    4d44:	66152c01 	ldrvs	r2, [r5], -r1, lsl #24
    4d48:	01000000 	mrseq	r0, (UNDEF: 0)
    4d4c:	2bee0c01 	blcs	ffb87d58 <_E_BSS+0xdfb85f64>
    4d50:	2d010000 	stccs	0, cr0, [r1, #-0]
    4d54:	00006615 	andeq	r6, r0, r5, lsl r6
    4d58:	0c010100 	stfeqs	f0, [r1], {-0}
    4d5c:	00002bb8 			; <UNDEFINED> instruction: 0x00002bb8
    4d60:	66152e01 	ldrvs	r2, [r5], -r1, lsl #28
    4d64:	01000000 	mrseq	r0, (UNDEF: 0)
    4d68:	2c040c01 	stccs	12, cr0, [r4], {1}
    4d6c:	2f010000 	svccs	0x00010000
    4d70:	00006615 	andeq	r6, r0, r5, lsl r6
    4d74:	0c010100 	stfeqs	f0, [r1], {-0}
    4d78:	00002bc0 	andeq	r2, r0, r0, asr #23
    4d7c:	66153001 	ldrvs	r3, [r5], -r1
    4d80:	01000000 	mrseq	r0, (UNDEF: 0)
    4d84:	a4010d01 	strge	r0, [r1], #-3329	; 0xfffff2ff
    4d88:	0100002b 	tsteq	r0, fp, lsr #32
    4d8c:	12880633 	addne	r0, r8, #53477376	; 0x3300000
    4d90:	13080000 	movwne	r0, #32768	; 0x8000
    4d94:	16900000 	ldrne	r0, [r0], r0
    4d98:	98010000 	stmdals	r1, {}	; <UNPREDICTABLE>
    4d9c:	06000001 	streq	r0, [r0], -r1
    4da0:	00002b90 	muleq	r0, r0, fp
    4da4:	660e3501 	strvs	r3, [lr], -r1, lsl #10
    4da8:	02000000 	andeq	r0, r0, #0
    4dac:	d5066891 	strle	r6, [r6, #-2193]	; 0xfffff76f
    4db0:	0100002b 	tsteq	r0, fp, lsr #32
    4db4:	00660e36 	rsbeq	r0, r6, r6, lsr lr
    4db8:	91020000 	mrsls	r0, (UNDEF: 2)
    4dbc:	2bb20664 	blcs	fec86754 <_E_BSS+0xdec84960>
    4dc0:	39010000 	stmdbcc	r1, {}	; <UNPREDICTABLE>
    4dc4:	00019810 	andeq	r9, r1, r0, lsl r8
    4dc8:	60910200 	addsvs	r0, r1, r0, lsl #4
    4dcc:	002bcf06 	eoreq	ip, fp, r6, lsl #30
    4dd0:	103a0100 	eorsne	r0, sl, r0, lsl #2
    4dd4:	00000198 	muleq	r0, r8, r1
    4dd8:	0e749102 	expeqs	f1, f2
    4ddc:	000012a6 	andeq	r1, r0, r6, lsr #5
    4de0:	000012ca 	andeq	r1, r0, sl, asr #5
    4de4:	00000180 	andeq	r0, r0, r0, lsl #3
    4de8:	0100690f 	tsteq	r0, pc, lsl #18
    4dec:	005f0a3c 	subseq	r0, pc, ip, lsr sl	; <UNPREDICTABLE>
    4df0:	91020000 	mrsls	r0, (UNDEF: 2)
    4df4:	ca100070 	bgt	404fbc <_E_text+0x403ad0>
    4df8:	e8000012 	stmda	r0, {r1, r4}
    4dfc:	0f000012 	svceq	0x00000012
    4e00:	41010069 	tstmi	r1, r9, rrx
    4e04:	00005f0a 	andeq	r5, r0, sl, lsl #30
    4e08:	6c910200 	lfmvs	f0, 4, [r1], {0}
    4e0c:	04080000 	streq	r0, [r8], #-0
    4e10:	0000002e 	andeq	r0, r0, lr, lsr #32
    4e14:	2bde0111 	blcs	ff785260 <_E_BSS+0xdf78346c>
    4e18:	0c010000 	stceq	0, cr0, [r1], {-0}
    4e1c:	00127c06 	andseq	r7, r2, r6, lsl #24
    4e20:	00128800 	andseq	r8, r2, r0, lsl #16
    4e24:	0016e000 	andseq	lr, r6, r0
    4e28:	75000100 	strvc	r0, [r0, #-256]	; 0xffffff00
    4e2c:	02000007 	andeq	r0, r0, #7
    4e30:	000c1000 	andeq	r1, ip, r0
    4e34:	ac010400 	cfstrsge	mvf0, [r1], {-0}
    4e38:	0c000001 	stceq	0, cr0, [r0], {1}
    4e3c:	00003138 	andeq	r3, r0, r8, lsr r1
    4e40:	0288002e 	addeq	r0, r8, #46	; 0x2e
	...
    4e4c:	12860000 	addne	r0, r6, #0
    4e50:	53020000 	movwpl	r0, #8192	; 0x2000
    4e54:	02000008 	andeq	r0, r0, #8
    4e58:	00381d06 	eorseq	r1, r8, r6, lsl #26
    4e5c:	27030000 	strcs	r0, [r3, -r0]
    4e60:	04000000 	streq	r0, [r0], #-0
    4e64:	0d140801 	ldceq	8, cr0, [r4, #-4]
    4e68:	01040000 	mrseq	r0, (UNDEF: 4)
    4e6c:	000d1606 	andeq	r1, sp, r6, lsl #12
    4e70:	07020400 	streq	r0, [r2, -r0, lsl #8]
    4e74:	00000ee4 	andeq	r0, r0, r4, ror #29
    4e78:	63050204 	movwvs	r0, #20996	; 0x5204
    4e7c:	0200000a 	andeq	r0, r0, #10
    4e80:	00000a5d 	andeq	r0, r0, sp, asr sl
    4e84:	601c0e02 	andsvs	r0, ip, r2, lsl #28
    4e88:	04000000 	streq	r0, [r0], #-0
    4e8c:	05270704 	streq	r0, [r7, #-1796]!	; 0xfffff8fc
    4e90:	04040000 	streq	r0, [r4], #-0
    4e94:	00080805 	andeq	r0, r8, r5, lsl #16
    4e98:	04040400 	streq	r0, [r4], #-1024	; 0xfffffc00
    4e9c:	0000050a 	andeq	r0, r0, sl, lsl #10
    4ea0:	b1040804 	tstlt	r4, r4, lsl #16
    4ea4:	04000009 	streq	r0, [r0], #-9
    4ea8:	05220708 	streq	r0, [r2, #-1800]!	; 0xfffff8f8
    4eac:	04050000 	streq	r0, [r5], #-0
    4eb0:	41070e03 	tstmi	r7, r3, lsl #28
    4eb4:	06000001 	streq	r0, [r0], -r1
    4eb8:	0000315a 	andeq	r3, r0, sl, asr r1
    4ebc:	54101003 	ldrpl	r1, [r0], #-3
    4ec0:	04000000 	streq	r0, [r0], #-0
    4ec4:	23021f01 	movwcs	r1, #12033	; 0x2f01
    4ec8:	2d850600 	stccs	6, cr0, [r5]
    4ecc:	12030000 	andne	r0, r3, #0
    4ed0:	00005410 	andeq	r5, r0, r0, lsl r4
    4ed4:	1a020400 	bne	85edc <_E_text+0x849f0>
    4ed8:	06002302 	streq	r2, [r0], -r2, lsl #6
    4edc:	00002d17 	andeq	r2, r0, r7, lsl sp
    4ee0:	54101303 	ldrpl	r1, [r0], #-771	; 0xfffffcfd
    4ee4:	04000000 	streq	r0, [r0], #-0
    4ee8:	23021505 	movwcs	r1, #9477	; 0x2505
    4eec:	30f40600 	rscscc	r0, r4, r0, lsl #12
    4ef0:	14030000 	strne	r0, [r3], #-0
    4ef4:	00005410 	andeq	r5, r0, r0, lsl r4
    4ef8:	14010400 	strne	r0, [r1], #-1024	; 0xfffffc00
    4efc:	06002302 	streq	r2, [r0], -r2, lsl #6
    4f00:	00002f3a 	andeq	r2, r0, sl, lsr pc
    4f04:	54101603 	ldrpl	r1, [r0], #-1539	; 0xfffff9fd
    4f08:	04000000 	streq	r0, [r0], #-0
    4f0c:	23021201 	movwcs	r1, #8705	; 0x2201
    4f10:	2c410600 	mcrrcs	6, 0, r0, r1, cr0
    4f14:	18030000 	stmdane	r3, {}	; <UNPREDICTABLE>
    4f18:	00005410 	andeq	r5, r0, r0, lsl r4
    4f1c:	0c030400 	cfstrseq	mvf0, [r3], {-0}
    4f20:	06002302 	streq	r2, [r0], -r2, lsl #6
    4f24:	00003059 	andeq	r3, r0, r9, asr r0
    4f28:	54101903 	ldrpl	r1, [r0], #-2307	; 0xfffff6fd
    4f2c:	04000000 	streq	r0, [r0], #-0
    4f30:	23020b01 	movwcs	r0, #11009	; 0x2b01
    4f34:	2c790600 	ldclcs	6, cr0, [r9], #-0
    4f38:	1b030000 	blne	c4f40 <_E_text+0xc3a54>
    4f3c:	00005410 	andeq	r5, r0, r0, lsl r4
    4f40:	09010400 	stmdbeq	r1, {sl}
    4f44:	06002302 	streq	r2, [r0], -r2, lsl #6
    4f48:	00002fa5 	andeq	r2, r0, r5, lsr #31
    4f4c:	54101c03 	ldrpl	r1, [r0], #-3075	; 0xfffff3fd
    4f50:	04000000 	streq	r0, [r0], #-0
    4f54:	23020504 	movwcs	r0, #9476	; 0x2504
    4f58:	2d470600 	stclcs	6, cr0, [r7, #-0]
    4f5c:	1d030000 	stcne	0, cr0, [r3, #-0]
    4f60:	00005410 	andeq	r5, r0, r0, lsl r4
    4f64:	04010400 	streq	r0, [r1], #-1024	; 0xfffffc00
    4f68:	00002302 	andeq	r2, r0, r2, lsl #6
    4f6c:	0d030407 	cfstrseq	mvf0, [r3, #-28]	; 0xffffffe4
    4f70:	00016309 	andeq	r6, r1, r9, lsl #6
    4f74:	27280800 	strcs	r0, [r8, -r0, lsl #16]!
    4f78:	20030000 	andcs	r0, r3, r0
    4f7c:	00008306 	andeq	r8, r0, r6, lsl #6
    4f80:	2b4e0800 	blcs	1386f88 <_E_text+0x1385a9c>
    4f84:	22030000 	andcs	r0, r3, #0
    4f88:	00005408 	andeq	r5, r0, r8, lsl #8
    4f8c:	f9020000 			; <UNDEFINED> instruction: 0xf9020000
    4f90:	0300002e 	movweq	r0, #46	; 0x2e
    4f94:	01410224 	cmpeq	r1, r4, lsr #4
    4f98:	04050000 	streq	r0, [r5], #-0
    4f9c:	09054f03 	stmdbeq	r5, {r0, r1, r8, r9, sl, fp, lr}
    4fa0:	06000002 	streq	r0, [r0], -r2
    4fa4:	00001531 	andeq	r1, r0, r1, lsr r5
    4fa8:	540a5003 	strpl	r5, [sl], #-3
    4fac:	04000000 	streq	r0, [r0], #-0
    4fb0:	23021f01 	movwcs	r1, #12033	; 0x2f01
    4fb4:	2caa0600 	stccs	6, cr0, [sl]
    4fb8:	51030000 	mrspl	r0, (UNDEF: 3)
    4fbc:	0000540a 	andeq	r5, r0, sl, lsl #8
    4fc0:	1e010400 	cfcpysne	mvf0, mvf1
    4fc4:	06002302 	streq	r2, [r0], -r2, lsl #6
    4fc8:	000031af 	andeq	r3, r0, pc, lsr #3
    4fcc:	540a5303 	strpl	r5, [sl], #-771	; 0xfffffcfd
    4fd0:	04000000 	streq	r0, [r0], #-0
    4fd4:	23021c01 	movwcs	r1, #11265	; 0x2c01
    4fd8:	2cce0600 	stclcs	6, cr0, [lr], {0}
    4fdc:	55030000 	strpl	r0, [r3, #-0]
    4fe0:	0000540a 	andeq	r5, r0, sl, lsl #8
    4fe4:	19010400 	stmdbne	r1, {sl}
    4fe8:	06002302 	streq	r2, [r0], -r2, lsl #6
    4fec:	00002ccb 	andeq	r2, r0, fp, asr #25
    4ff0:	540a5603 	strpl	r5, [sl], #-1539	; 0xfffff9fd
    4ff4:	04000000 	streq	r0, [r0], #-0
    4ff8:	23021801 	movwcs	r1, #10241	; 0x2801
    4ffc:	2f1c0600 	svccs	0x001c0600
    5000:	57030000 	strpl	r0, [r3, -r0]
    5004:	0000540a 	andeq	r5, r0, sl, lsl #8
    5008:	17010400 	strne	r0, [r1, -r0, lsl #8]
    500c:	06002302 	streq	r2, [r0], -r2, lsl #6
    5010:	000031a7 	andeq	r3, r0, r7, lsr #3
    5014:	540a5903 	strpl	r5, [sl], #-2307	; 0xfffff6fd
    5018:	04000000 	streq	r0, [r0], #-0
    501c:	23021501 	movwcs	r1, #9473	; 0x2501
    5020:	31260600 			; <UNDEFINED> instruction: 0x31260600
    5024:	5a030000 	bpl	c502c <_E_text+0xc3b40>
    5028:	0000540a 	andeq	r5, r0, sl, lsl #8
    502c:	14010400 	strne	r0, [r1], #-1024	; 0xfffffc00
    5030:	00002302 	andeq	r2, r0, r2, lsl #6
    5034:	4d030407 	cfstrsmi	mvf0, [r3, #-28]	; 0xffffffe4
    5038:	00022b09 	andeq	r2, r2, r9, lsl #22
    503c:	27280800 	strcs	r0, [r8, -r0, lsl #16]!
    5040:	5d030000 	stcpl	0, cr0, [r3, #-0]
    5044:	00016f06 	andeq	r6, r1, r6, lsl #30
    5048:	2b4e0800 	blcs	1387050 <_E_text+0x1385b64>
    504c:	5f030000 	svcpl	0x00030000
    5050:	0000540b 	andeq	r5, r0, fp, lsl #8
    5054:	45020000 	strmi	r0, [r2, #-0]
    5058:	03000023 	movweq	r0, #35	; 0x23
    505c:	02090260 	andeq	r0, r9, #96, 4
    5060:	04050000 	streq	r0, [r5], #-0
    5064:	d1056503 	tstle	r5, r3, lsl #10
    5068:	06000002 	streq	r0, [r0], -r2
    506c:	00003148 	andeq	r3, r0, r8, asr #2
    5070:	54116703 	ldrpl	r6, [r1], #-1795	; 0xfffff8fd
    5074:	04000000 	streq	r0, [r0], #-0
    5078:	23021903 	movwcs	r1, #10499	; 0x2903
    507c:	30850600 	addcc	r0, r5, r0, lsl #12
    5080:	69030000 	stmdbvs	r3, {}	; <UNPREDICTABLE>
    5084:	00005411 	andeq	r5, r0, r1, lsl r4
    5088:	14010400 	strne	r0, [r1], #-1024	; 0xfffffc00
    508c:	06002302 	streq	r2, [r0], -r2, lsl #6
    5090:	00002f61 	andeq	r2, r0, r1, ror #30
    5094:	54116b03 	ldrpl	r6, [r1], #-2819	; 0xfffff4fd
    5098:	04000000 	streq	r0, [r0], #-0
    509c:	23021201 	movwcs	r1, #8705	; 0x2201
    50a0:	2e980600 	cdpcs	6, 9, cr0, cr8, cr0, {0}
    50a4:	6c030000 	stcvs	0, cr0, [r3], {-0}
    50a8:	00005411 	andeq	r5, r0, r1, lsl r4
    50ac:	11010400 	tstne	r1, r0, lsl #8
    50b0:	06002302 	streq	r2, [r0], -r2, lsl #6
    50b4:	00002ea8 	andeq	r2, r0, r8, lsr #29
    50b8:	54116e03 	ldrpl	r6, [r1], #-3587	; 0xfffff1fd
    50bc:	04000000 	streq	r0, [r0], #-0
    50c0:	23020901 	movwcs	r0, #10497	; 0x2901
    50c4:	301b0600 	andscc	r0, fp, r0, lsl #12
    50c8:	6f030000 	svcvs	0x00030000
    50cc:	00005411 	andeq	r5, r0, r1, lsl r4
    50d0:	03060400 	movweq	r0, #25600	; 0x6400
    50d4:	06002302 	streq	r2, [r0], -r2, lsl #6
    50d8:	0000309a 	muleq	r0, sl, r0
    50dc:	54117103 	ldrpl	r7, [r1], #-259	; 0xfffffefd
    50e0:	04000000 	streq	r0, [r0], #-0
    50e4:	23020101 	movwcs	r0, #8449	; 0x2101
    50e8:	2f500600 	svccs	0x00500600
    50ec:	72030000 	andvc	r0, r3, #0
    50f0:	00005411 	andeq	r5, r0, r1, lsl r4
    50f4:	00010400 	andeq	r0, r1, r0, lsl #8
    50f8:	00002302 	andeq	r2, r0, r2, lsl #6
    50fc:	64030407 	strvs	r0, [r3], #-1031	; 0xfffffbf9
    5100:	0002f309 	andeq	pc, r2, r9, lsl #6
    5104:	27280800 	strcs	r0, [r8, -r0, lsl #16]!
    5108:	74030000 	strvc	r0, [r3], #-0
    510c:	00023706 	andeq	r3, r2, r6, lsl #14
    5110:	2b4e0800 	blcs	1387118 <_E_text+0x1385c2c>
    5114:	76030000 	strvc	r0, [r3], -r0
    5118:	0000540b 	andeq	r5, r0, fp, lsl #8
    511c:	b2020000 	andlt	r0, r2, #0
    5120:	0300002d 	movweq	r0, #45	; 0x2d
    5124:	02d10277 	sbcseq	r0, r1, #1879048199	; 0x70000007
    5128:	04050000 	streq	r0, [r5], #-0
    512c:	2d057a03 	vstrcs	s14, [r5, #-12]
    5130:	06000003 	streq	r0, [r0], -r3
    5134:	00002c2b 	andeq	r2, r0, fp, lsr #24
    5138:	540e7c03 	strpl	r7, [lr], #-3075	; 0xfffff3fd
    513c:	04000000 	streq	r0, [r0], #-0
    5140:	23021f01 	movwcs	r1, #12033	; 0x2f01
    5144:	2c360600 	ldccs	6, cr0, [r6], #-0
    5148:	7d030000 	stcvc	0, cr0, [r3, #-0]
    514c:	0000540e 	andeq	r5, r0, lr, lsl #8
    5150:	1e010400 	cfcpysne	mvf0, mvf1
    5154:	00002302 	andeq	r2, r0, r2, lsl #6
    5158:	79030407 	stmdbvc	r3, {r0, r1, r2, sl}
    515c:	00034f09 	andeq	r4, r3, r9, lsl #30
    5160:	27280800 	strcs	r0, [r8, -r0, lsl #16]!
    5164:	80030000 	andhi	r0, r3, r0
    5168:	0002ff06 	andeq	pc, r2, r6, lsl #30
    516c:	2b4e0800 	blcs	1387174 <_E_text+0x1385c88>
    5170:	82030000 	andhi	r0, r3, #0
    5174:	0000540b 	andeq	r5, r0, fp, lsl #8
    5178:	d9020000 	stmdble	r2, {}	; <UNPREDICTABLE>
    517c:	0300002e 	movweq	r0, #46	; 0x2e
    5180:	032d0283 			; <UNDEFINED> instruction: 0x032d0283
    5184:	07090000 	streq	r0, [r9, -r0]
    5188:	00003801 	andeq	r3, r0, r1, lsl #16
    518c:	0d240400 	cfstrseq	mvf0, [r4, #-0]
    5190:	00000382 	andeq	r0, r0, r2, lsl #7
    5194:	002eca0a 	eoreq	ip, lr, sl, lsl #20
    5198:	e80a0000 	stmda	sl, {}	; <UNPREDICTABLE>
    519c:	0100002c 	tsteq	r0, ip, lsr #32
    51a0:	0031090a 	eorseq	r0, r1, sl, lsl #18
    51a4:	6d0a0200 	sfmvs	f0, 4, [sl, #-0]
    51a8:	0300002e 	movweq	r0, #46	; 0x2e
    51ac:	2c920200 	lfmcs	f0, 4, [r2], {0}
    51b0:	2a040000 	bcs	1051b8 <_E_text+0x103ccc>
    51b4:	00035b03 	andeq	r5, r3, r3, lsl #22
    51b8:	01070900 	tsteq	r7, r0, lsl #18
    51bc:	00000038 	andeq	r0, r0, r8, lsr r0
    51c0:	bb0e2d04 	bllt	3905d8 <_E_text+0x38f0ec>
    51c4:	0a000003 	beq	51d8 <_E_text+0x3cec>
    51c8:	00002c0b 	andeq	r2, r0, fp, lsl #24
    51cc:	2e030a09 	vmlacs.f32	s0, s6, s18
    51d0:	0a0b0000 	beq	2c51d8 <_E_text+0x2c3cec>
    51d4:	00002d24 	andeq	r2, r0, r4, lsr #26
    51d8:	312e0a0d 			; <UNDEFINED> instruction: 0x312e0a0d
    51dc:	0a0e0000 	beq	3851e4 <_E_text+0x383cf8>
    51e0:	00003185 	andeq	r3, r0, r5, lsl #3
    51e4:	e8020010 	stmda	r2, {r4}
    51e8:	0400002d 	streq	r0, [r0], #-45	; 0xffffffd3
    51ec:	038e0334 	orreq	r0, lr, #52, 6	; 0xd0000000
    51f0:	07090000 	streq	r0, [r9, -r0]
    51f4:	00003801 	andeq	r3, r0, r1, lsl #16
    51f8:	0e370400 	cfabsseq	mvf0, mvf7
    51fc:	000003e2 	andeq	r0, r0, r2, ror #7
    5200:	0031990a 	eorseq	r9, r1, sl, lsl #18
    5204:	3a0a0000 	bcc	28520c <_E_text+0x283d20>
    5208:	0100002d 	tsteq	r0, sp, lsr #32
    520c:	2e410200 	cdpcs	2, 4, cr0, cr1, cr0, {0}
    5210:	3a040000 	bcc	105218 <_E_text+0x103d2c>
    5214:	0003c702 	andeq	ip, r3, r2, lsl #14
    5218:	01070900 	tsteq	r7, r0, lsl #18
    521c:	00000038 	andeq	r0, r0, r8, lsr r0
    5220:	090d3d04 	stmdbeq	sp, {r2, r8, sl, fp, ip, sp}
    5224:	0a000004 	beq	523c <_E_text+0x3d50>
    5228:	000031da 	ldrdeq	r3, [r0], -sl
    522c:	2c5f0a00 	mrrccs	10, 0, r0, pc, cr0	; <UNPREDICTABLE>
    5230:	00010000 	andeq	r0, r1, r0
    5234:	002f7702 	eoreq	r7, pc, r2, lsl #14
    5238:	03400400 	movteq	r0, #1024	; 0x400
    523c:	000003ee 	andeq	r0, r0, lr, ror #7
    5240:	38010709 	stmdacc	r1, {r0, r3, r8, r9, sl}
    5244:	04000000 	streq	r0, [r0], #-0
    5248:	04300d43 	ldrteq	r0, [r0], #-3395	; 0xfffff2bd
    524c:	ee0a0000 	cdp	0, 0, cr0, cr10, cr0, {0}
    5250:	0000002e 	andeq	r0, r0, lr, lsr #32
    5254:	0030fe0a 	eorseq	pc, r0, sl, lsl #28
    5258:	02000100 	andeq	r0, r0, #0, 2
    525c:	00002dbb 			; <UNDEFINED> instruction: 0x00002dbb
    5260:	15024604 	strne	r4, [r2, #-1540]	; 0xfffff9fc
    5264:	09000004 	stmdbeq	r0, {r2}
    5268:	00380107 	eorseq	r0, r8, r7, lsl #2
    526c:	49040000 	stmdbmi	r4, {}	; <UNPREDICTABLE>
    5270:	0004ab0d 	andeq	sl, r4, sp, lsl #22
    5274:	2f0a0a00 	svccs	0x000a0a00
    5278:	0a000000 	beq	5280 <_E_text+0x3d94>
    527c:	00002f13 	andeq	r2, r0, r3, lsl pc
    5280:	30a10a01 	adccc	r0, r1, r1, lsl #20
    5284:	0a020000 	beq	8528c <_E_text+0x83da0>
    5288:	000030aa 	andeq	r3, r0, sl, lsr #1
    528c:	2f470a03 	svccs	0x00470a03
    5290:	0a040000 	beq	105298 <_E_text+0x103dac>
    5294:	00003190 	muleq	r0, r0, r1
    5298:	2f580a05 	svccs	0x00580a05
    529c:	0a060000 	beq	1852a4 <_E_text+0x183db8>
    52a0:	000030de 	ldrdeq	r3, [r0], -lr
    52a4:	2f6e0a07 	svccs	0x006e0a07
    52a8:	0a080000 	beq	2052b0 <_E_text+0x203dc4>
    52ac:	00002fd5 	ldrdeq	r2, [r0], -r5
    52b0:	2fdf0a09 	svccs	0x00df0a09
    52b4:	0a0a0000 	beq	2852bc <_E_text+0x283dd0>
    52b8:	00002fe9 	andeq	r2, r0, r9, ror #31
    52bc:	2ff30a0b 	svccs	0x00f30a0b
    52c0:	0a0c0000 	beq	3052c8 <_E_text+0x303ddc>
    52c4:	00002ffd 	strdeq	r2, [r0], -sp
    52c8:	30070a0d 	andcc	r0, r7, sp, lsl #20
    52cc:	0a0e0000 	beq	3852d4 <_E_text+0x383de8>
    52d0:	00003011 	andeq	r3, r0, r1, lsl r0
    52d4:	9002000f 	andls	r0, r2, pc
    52d8:	0400002f 	streq	r0, [r0], #-47	; 0xffffffd1
    52dc:	043c025a 	ldrteq	r0, [ip], #-602	; 0xfffffda6
    52e0:	07090000 	streq	r0, [r9, -r0]
    52e4:	00003801 	andeq	r3, r0, r1, lsl #16
    52e8:	0d5d0400 	cfldrdeq	mvd0, [sp, #-0]
    52ec:	000004ea 	andeq	r0, r0, sl, ror #9
    52f0:	002ee50a 	eoreq	lr, lr, sl, lsl #10
    52f4:	010a0000 	mrseq	r0, (UNDEF: 10)
    52f8:	0100002f 	tsteq	r0, pc, lsr #32
    52fc:	002e150a 	eoreq	r1, lr, sl, lsl #10
    5300:	900a0200 	andls	r0, sl, r0, lsl #4
    5304:	03000030 	movweq	r0, #48	; 0x30
    5308:	002d670a 	eoreq	r6, sp, sl, lsl #14
    530c:	6f0a0400 	svcvs	0x000a0400
    5310:	0700002c 	streq	r0, [r0, -ip, lsr #32]
    5314:	31700200 	cmncc	r0, r0, lsl #4
    5318:	64040000 	strvs	r0, [r4], #-0
    531c:	0004b702 	andeq	fp, r4, r2, lsl #14
    5320:	01070900 	tsteq	r7, r0, lsl #18
    5324:	00000038 	andeq	r0, r0, r8, lsr r0
    5328:	110d6704 	tstne	sp, r4, lsl #14
    532c:	0a000005 	beq	5348 <_E_text+0x3e5c>
    5330:	00002e36 	andeq	r2, r0, r6, lsr lr
    5334:	2fca0a00 	svccs	0x00ca0a00
    5338:	00010000 	andeq	r0, r1, r0
    533c:	0030c602 	eorseq	ip, r0, r2, lsl #12
    5340:	026a0400 	rsbeq	r0, sl, #0, 8
    5344:	000004f6 	strdeq	r0, [r0], -r6
    5348:	79040505 	stmdbvc	r4, {r0, r2, r8, sl}
    534c:	00057209 	andeq	r7, r5, r9, lsl #4
    5350:	2d010b00 	vstrcs	d0, [r1, #-0]
    5354:	7a040000 	bvc	10535c <_E_text+0x103e70>
    5358:	0003821d 	andeq	r8, r3, sp, lsl r2
    535c:	00230200 	eoreq	r0, r3, r0, lsl #4
    5360:	0030e70b 	eorseq	lr, r0, fp, lsl #14
    5364:	207b0400 	rsbscs	r0, fp, r0, lsl #8
    5368:	00000430 	andeq	r0, r0, r0, lsr r4
    536c:	0b012302 	bleq	4df7c <_E_text+0x4ca90>
    5370:	00002d57 	andeq	r2, r0, r7, asr sp
    5374:	ab1a7c04 	blge	6a438c <_E_text+0x6a2ea0>
    5378:	02000004 	andeq	r0, r0, #4
    537c:	c60b0223 	strgt	r0, [fp], -r3, lsr #4
    5380:	04000031 	streq	r0, [r0], #-49	; 0xffffffcf
    5384:	03e21e7d 	mvneq	r1, #2000	; 0x7d0
    5388:	23020000 	movwcs	r0, #8192	; 0x2000
    538c:	2d110b03 	vldrcs	d0, [r1, #-12]
    5390:	7e040000 	cdpvc	0, 0, cr0, cr4, cr0, {0}
    5394:	0003bb20 	andeq	fp, r3, r0, lsr #22
    5398:	04230200 	strteq	r0, [r3], #-512	; 0xfffffe00
    539c:	306f0200 	rsbcc	r0, pc, r0, lsl #4
    53a0:	80040000 	andhi	r0, r4, r0
    53a4:	00051d02 	andeq	r1, r5, r2, lsl #26
    53a8:	04030500 	streq	r0, [r3], #-1280	; 0xfffffb00
    53ac:	05b50983 	ldreq	r0, [r5, #2435]!	; 0x983
    53b0:	b60b0000 	strlt	r0, [fp], -r0
    53b4:	04000031 	streq	r0, [r0], #-49	; 0xffffffcf
    53b8:	04ea1a85 	strbteq	r1, [sl], #2693	; 0xa85
    53bc:	23020000 	movwcs	r0, #8192	; 0x2000
    53c0:	2e840b00 	vdivcs.f64	d0, d4, d0
    53c4:	86040000 	strhi	r0, [r4], -r0
    53c8:	0004091e 	andeq	r0, r4, lr, lsl r9
    53cc:	01230200 			; <UNDEFINED> instruction: 0x01230200
    53d0:	00302f0b 	eorseq	r2, r0, fp, lsl #30
    53d4:	1d870400 	cfstrsne	mvf0, [r7]
    53d8:	00000511 	andeq	r0, r0, r1, lsl r5
    53dc:	00022302 	andeq	r2, r2, r2, lsl #6
    53e0:	00304302 	eorseq	r4, r0, r2, lsl #6
    53e4:	02890400 	addeq	r0, r9, #0, 8
    53e8:	0000057e 	andeq	r0, r0, lr, ror r5
    53ec:	0000330c 	andeq	r3, r0, ip, lsl #6
    53f0:	0005d100 	andeq	sp, r5, r0, lsl #2
    53f4:	05d60d00 	ldrbeq	r0, [r6, #3328]	; 0xd00
    53f8:	000f0000 	andeq	r0, pc, r0
    53fc:	0005c103 	andeq	ip, r5, r3, lsl #2
    5400:	07040400 	streq	r0, [r4, -r0, lsl #8]
    5404:	0000052c 	andeq	r0, r0, ip, lsr #10
    5408:	002da80e 	eoreq	sl, sp, lr, lsl #16
    540c:	0c290100 	stfeqs	f0, [r9], #-0
    5410:	000005d1 	ldrdeq	r0, [r0], -r1
    5414:	1c030501 	cfstr32ne	mvfx0, [r3], {1}
    5418:	0c000007 	stceq	0, cr0, [r0], {7}
    541c:	00000033 	andeq	r0, r0, r3, lsr r0
    5420:	00000600 	andeq	r0, r0, r0, lsl #12
    5424:	0005d60d 	andeq	sp, r5, sp, lsl #12
    5428:	03000700 	movweq	r0, #1792	; 0x700
    542c:	000005f0 	strdeq	r0, [r0], -r0	; <UNPREDICTABLE>
    5430:	002c550e 	eoreq	r5, ip, lr, lsl #10
    5434:	0c2a0100 	stfeqs	f0, [sl], #-0
    5438:	00000600 	andeq	r0, r0, r0, lsl #12
    543c:	2c030501 	cfstr32cs	mvfx0, [r3], {1}
    5440:	0f000007 	svceq	0x00000007
    5444:	002e1e01 	eoreq	r1, lr, r1, lsl #28
    5448:	012c0100 			; <UNDEFINED> instruction: 0x012c0100
    544c:	00000106 	andeq	r0, r0, r6, lsl #2
    5450:	00000000 	andeq	r0, r0, r0
    5454:	170c0000 	strne	r0, [ip, -r0]
    5458:	45010000 	strmi	r0, [r1, #-0]
    545c:	10000006 	andne	r0, r0, r6
    5460:	00002e5a 	andeq	r2, r0, sl, asr lr
    5464:	37012c01 	strcc	r2, [r1, -r1, lsl #24]
    5468:	00000511 	andeq	r0, r0, r1, lsl r5
    546c:	00779102 	rsbseq	r9, r7, r2, lsl #2
    5470:	30b30111 	adcscc	r0, r3, r1, lsl r1
    5474:	18010000 	stmdane	r1, {}	; <UNPREDICTABLE>
    5478:	54010701 	strpl	r0, [r1], #-1793	; 0xfffff8ff
	...
    5484:	68000000 	stmdavs	r0, {}	; <UNPREDICTABLE>
    5488:	01000017 	tsteq	r0, r7, lsl r0
    548c:	00000696 	muleq	r0, r6, r6
    5490:	002d7110 	eoreq	r7, sp, r0, lsl r1
    5494:	01180100 	tsteq	r8, r0, lsl #2
    5498:	00069632 	andeq	r9, r6, r2, lsr r6
    549c:	6c910200 	lfmvs	f0, 4, [r1], {0}
    54a0:	002e0d12 	eoreq	r0, lr, r2, lsl sp
    54a4:	011a0100 	tsteq	sl, r0, lsl #2
    54a8:	0000540b 	andeq	r5, r0, fp, lsl #8
    54ac:	70910200 	addsvc	r0, r1, r0, lsl #4
    54b0:	002d2f12 	eoreq	r2, sp, r2, lsl pc
    54b4:	011b0100 	tsteq	fp, r0, lsl #2
    54b8:	0000540b 	andeq	r5, r0, fp, lsl #8
    54bc:	74910200 	ldrvc	r0, [r1], #512	; 0x200
    54c0:	b5041300 	strlt	r1, [r4, #-768]	; 0xfffffd00
    54c4:	14000005 	strne	r0, [r0], #-5
    54c8:	002eb301 	eoreq	fp, lr, r1, lsl #6
    54cc:	01090100 	mrseq	r0, (UNDEF: 25)
    54d0:	00000106 	andeq	r0, r0, r6, lsl #2
    54d4:	00000000 	andeq	r0, r0, r0
    54d8:	17b80000 	ldrne	r0, [r8, r0]!
    54dc:	c9010000 	stmdbgt	r1, {}	; <UNPREDICTABLE>
    54e0:	10000006 	andne	r0, r0, r6
    54e4:	00002d74 	andeq	r2, r0, r4, ror sp
    54e8:	34010901 	strcc	r0, [r1], #-2305	; 0xfffff6ff
    54ec:	00000696 	muleq	r0, r6, r6
    54f0:	00749102 	rsbseq	r9, r4, r2, lsl #2
    54f4:	2d960115 	ldfcss	f0, [r6, #84]	; 0x54
    54f8:	db010000 	blle	45500 <_E_text+0x44014>
    54fc:	00540107 	subseq	r0, r4, r7, lsl #2
    5500:	13500000 	cmpne	r0, #0
    5504:	13ec0000 	mvnne	r0, #0
    5508:	18080000 	stmdane	r8, {}	; <UNPREDICTABLE>
    550c:	f8010000 			; <UNDEFINED> instruction: 0xf8010000
    5510:	16000006 	strne	r0, [r0], -r6
    5514:	00002dd6 	ldrdeq	r2, [r0], -r6
    5518:	540bdd01 	strpl	sp, [fp], #-3329	; 0xfffff2ff
    551c:	02000000 	andeq	r0, r0, #0
    5520:	17007491 			; <UNDEFINED> instruction: 0x17007491
    5524:	00002c15 	andeq	r2, r0, r5, lsl ip
    5528:	010eaf01 	tsteq	lr, r1, lsl #30
    552c:	00000054 	andeq	r0, r0, r4, asr r0
    5530:	00001308 	andeq	r1, r0, r8, lsl #6
    5534:	00001350 	andeq	r1, r0, r0, asr r3
    5538:	00001858 	andeq	r1, r0, r8, asr r8
    553c:	b8011801 	stmdalt	r1, {r0, fp, ip}
    5540:	0100002f 	tsteq	r0, pc, lsr #32
    5544:	00010645 	andeq	r0, r1, r5, asr #12
    5548:	00000000 	andeq	r0, r0, r0
    554c:	9c000000 	stcls	0, cr0, [r0], {-0}
    5550:	01000018 	tsteq	r0, r8, lsl r0
    5554:	0000073d 	andeq	r0, r0, sp, lsr r7
    5558:	002ddf19 	eoreq	sp, sp, r9, lsl pc
    555c:	2f450100 	svccs	0x00450100
    5560:	0000073d 	andeq	r0, r0, sp, lsr r7
    5564:	00749102 	rsbseq	r9, r4, r2, lsl #2
    5568:	05720413 	ldrbeq	r0, [r2, #-1043]!	; 0xfffffbed
    556c:	b21a0000 	andslt	r0, sl, #0
    5570:	0100002c 	tsteq	r0, ip, lsr #32
    5574:	71010f2c 	tstvc	r1, ip, lsr #30
    5578:	00000007 	andeq	r0, r0, r7
    557c:	00000000 	andeq	r0, r0, r0
    5580:	f8000000 			; <UNDEFINED> instruction: 0xf8000000
    5584:	01000018 	tsteq	r0, r8, lsl r0
    5588:	00000771 	andeq	r0, r0, r1, ror r7
    558c:	002d7119 	eoreq	r7, sp, r9, lsl r1
    5590:	3f2c0100 	svccc	0x002c0100
    5594:	00000696 	muleq	r0, r6, r6
    5598:	00749102 	rsbseq	r9, r4, r2, lsl #2
    559c:	6905041b 	stmdbvs	r5, {r0, r1, r3, r4, sl}
    55a0:	0000746e 	andeq	r7, r0, lr, ror #8
    55a4:	000002f5 	strdeq	r0, [r0], -r5
    55a8:	0dfb0002 	ldcleq	0, cr0, [fp, #8]!
    55ac:	01040000 	mrseq	r0, (UNDEF: 4)
    55b0:	000001ac 	andeq	r0, r0, ip, lsr #3
    55b4:	0031eb0c 	eorseq	lr, r1, ip, lsl #22
    55b8:	f3002e00 	vcge.f32	d2, d0, d0
    55bc:	02000014 	andeq	r0, r0, #20
    55c0:	00420107 	subeq	r0, r2, r7, lsl #2
    55c4:	24010000 	strcs	r0, [r1], #-0
    55c8:	0000420d 	andeq	r4, r0, sp, lsl #4
    55cc:	2eca0300 	cdpcs	3, 12, cr0, cr10, cr0, {0}
    55d0:	03000000 	movweq	r0, #0
    55d4:	00002ce8 	andeq	r2, r0, r8, ror #25
    55d8:	31090301 	tstcc	r9, r1, lsl #6
    55dc:	03020000 	movweq	r0, #8192	; 0x2000
    55e0:	00002e6d 	andeq	r2, r0, sp, ror #28
    55e4:	01040003 	tsteq	r4, r3
    55e8:	000d1408 	andeq	r1, sp, r8, lsl #8
    55ec:	2c920500 	cfldr32cs	mvfx0, [r2], {0}
    55f0:	2a010000 	bcs	455f8 <_E_text+0x4410c>
    55f4:	00001b03 	andeq	r1, r0, r3, lsl #22
    55f8:	01070200 	mrseq	r0, (UNDEF: 39)
    55fc:	00000042 	andeq	r0, r0, r2, asr #32
    5600:	820e2d01 	andhi	r2, lr, #1, 26	; 0x40
    5604:	03000000 	movweq	r0, #0
    5608:	00002c0b 	andeq	r2, r0, fp, lsl #24
    560c:	2e030309 	cdpcs	3, 0, cr0, cr3, cr9, {0}
    5610:	030b0000 	movweq	r0, #45056	; 0xb000
    5614:	00002d24 	andeq	r2, r0, r4, lsr #26
    5618:	312e030d 			; <UNDEFINED> instruction: 0x312e030d
    561c:	030e0000 	movweq	r0, #57344	; 0xe000
    5620:	00003185 	andeq	r3, r0, r5, lsl #3
    5624:	e8050010 	stmda	r5, {r4}
    5628:	0100002d 	tsteq	r0, sp, lsr #32
    562c:	00550334 	subseq	r0, r5, r4, lsr r3
    5630:	07020000 	streq	r0, [r2, -r0]
    5634:	00004201 	andeq	r4, r0, r1, lsl #4
    5638:	0e370100 	rsfeqs	f0, f7, f0
    563c:	000000a9 	andeq	r0, r0, r9, lsr #1
    5640:	00319903 	eorseq	r9, r1, r3, lsl #18
    5644:	3a030000 	bcc	c564c <_E_text+0xc4160>
    5648:	0100002d 	tsteq	r0, sp, lsr #32
    564c:	2e410500 	cdpcs	5, 4, cr0, cr1, cr0, {0}
    5650:	3a010000 	bcc	45658 <_E_text+0x4416c>
    5654:	00008e02 	andeq	r8, r0, r2, lsl #28
    5658:	01070200 	mrseq	r0, (UNDEF: 39)
    565c:	00000042 	andeq	r0, r0, r2, asr #32
    5660:	d00d3d01 	andle	r3, sp, r1, lsl #26
    5664:	03000000 	movweq	r0, #0
    5668:	000031da 	ldrdeq	r3, [r0], -sl
    566c:	2c5f0300 	mrrccs	3, 0, r0, pc, cr0	; <UNPREDICTABLE>
    5670:	00010000 	andeq	r0, r1, r0
    5674:	002f7705 	eoreq	r7, pc, r5, lsl #14
    5678:	03400100 	movteq	r0, #256	; 0x100
    567c:	000000b5 	strheq	r0, [r0], -r5
    5680:	42010702 	andmi	r0, r1, #524288	; 0x80000
    5684:	01000000 	mrseq	r0, (UNDEF: 0)
    5688:	00f70d43 	rscseq	r0, r7, r3, asr #26
    568c:	ee030000 	cdp	0, 0, cr0, cr3, cr0, {0}
    5690:	0000002e 	andeq	r0, r0, lr, lsr #32
    5694:	0030fe03 	eorseq	pc, r0, r3, lsl #28
    5698:	05000100 	streq	r0, [r0, #-256]	; 0xffffff00
    569c:	00002dbb 			; <UNDEFINED> instruction: 0x00002dbb
    56a0:	dc024601 	stcle	6, cr4, [r2], {1}
    56a4:	02000000 	andeq	r0, r0, #0
    56a8:	00420107 	subeq	r0, r2, r7, lsl #2
    56ac:	49010000 	stmdbmi	r1, {}	; <UNPREDICTABLE>
    56b0:	0001720d 	andeq	r7, r1, sp, lsl #4
    56b4:	2f0a0300 	svccs	0x000a0300
    56b8:	03000000 	movweq	r0, #0
    56bc:	00002f13 	andeq	r2, r0, r3, lsl pc
    56c0:	30a10301 	adccc	r0, r1, r1, lsl #6
    56c4:	03020000 	movweq	r0, #8192	; 0x2000
    56c8:	000030aa 	andeq	r3, r0, sl, lsr #1
    56cc:	2f470303 	svccs	0x00470303
    56d0:	03040000 	movweq	r0, #16384	; 0x4000
    56d4:	00003190 	muleq	r0, r0, r1
    56d8:	2f580305 	svccs	0x00580305
    56dc:	03060000 	movweq	r0, #24576	; 0x6000
    56e0:	000030de 	ldrdeq	r3, [r0], -lr
    56e4:	2f6e0307 	svccs	0x006e0307
    56e8:	03080000 	movweq	r0, #32768	; 0x8000
    56ec:	00002fd5 	ldrdeq	r2, [r0], -r5
    56f0:	2fdf0309 	svccs	0x00df0309
    56f4:	030a0000 	movweq	r0, #40960	; 0xa000
    56f8:	00002fe9 	andeq	r2, r0, r9, ror #31
    56fc:	2ff3030b 	svccs	0x00f3030b
    5700:	030c0000 	movweq	r0, #49152	; 0xc000
    5704:	00002ffd 	strdeq	r2, [r0], -sp
    5708:	3007030d 	andcc	r0, r7, sp, lsl #6
    570c:	030e0000 	movweq	r0, #57344	; 0xe000
    5710:	00003011 	andeq	r3, r0, r1, lsl r0
    5714:	9005000f 	andls	r0, r5, pc
    5718:	0100002f 	tsteq	r0, pc, lsr #32
    571c:	0103025a 	tsteq	r3, sl, asr r2
    5720:	07020000 	streq	r0, [r2, -r0]
    5724:	00004201 	andeq	r4, r0, r1, lsl #4
    5728:	0d5d0100 	ldfeqe	f0, [sp, #-0]
    572c:	000001b1 			; <UNDEFINED> instruction: 0x000001b1
    5730:	002ee503 	eoreq	lr, lr, r3, lsl #10
    5734:	01030000 	mrseq	r0, (UNDEF: 3)
    5738:	0100002f 	tsteq	r0, pc, lsr #32
    573c:	002e1503 	eoreq	r1, lr, r3, lsl #10
    5740:	90030200 	andls	r0, r3, r0, lsl #4
    5744:	03000030 	movweq	r0, #48	; 0x30
    5748:	002d6703 	eoreq	r6, sp, r3, lsl #14
    574c:	6f030400 	svcvs	0x00030400
    5750:	0700002c 	streq	r0, [r0, -ip, lsr #32]
    5754:	31700500 	cmncc	r0, r0, lsl #10
    5758:	64010000 	strvs	r0, [r1], #-0
    575c:	00017e02 	andeq	r7, r1, r2, lsl #28
    5760:	01070200 	mrseq	r0, (UNDEF: 39)
    5764:	00000042 	andeq	r0, r0, r2, asr #32
    5768:	d80d6701 	stmdale	sp, {r0, r8, r9, sl, sp, lr}
    576c:	03000001 	movweq	r0, #1
    5770:	00002e36 	andeq	r2, r0, r6, lsr lr
    5774:	2fca0300 	svccs	0x00ca0300
    5778:	00010000 	andeq	r0, r1, r0
    577c:	0030c605 	eorseq	ip, r0, r5, lsl #12
    5780:	026a0100 	rsbeq	r0, sl, #0, 2
    5784:	000001bd 			; <UNDEFINED> instruction: 0x000001bd
    5788:	79010506 	stmdbvc	r1, {r1, r2, r8, sl}
    578c:	00023909 	andeq	r3, r2, r9, lsl #18
    5790:	2d010700 	stccs	7, cr0, [r1, #-0]
    5794:	7a010000 	bvc	4579c <_E_text+0x442b0>
    5798:	0000491d 	andeq	r4, r0, sp, lsl r9
    579c:	00230200 	eoreq	r0, r3, r0, lsl #4
    57a0:	0030e707 	eorseq	lr, r0, r7, lsl #14
    57a4:	207b0100 	rsbscs	r0, fp, r0, lsl #2
    57a8:	000000f7 	strdeq	r0, [r0], -r7
    57ac:	07012302 	streq	r2, [r1, -r2, lsl #6]
    57b0:	00002d57 	andeq	r2, r0, r7, asr sp
    57b4:	721a7c01 	andsvc	r7, sl, #256	; 0x100
    57b8:	02000001 	andeq	r0, r0, #1
    57bc:	c6070223 	strgt	r0, [r7], -r3, lsr #4
    57c0:	01000031 	tsteq	r0, r1, lsr r0
    57c4:	00a91e7d 	adceq	r1, r9, sp, ror lr
    57c8:	23020000 	movwcs	r0, #8192	; 0x2000
    57cc:	2d110703 	ldccs	7, cr0, [r1, #-12]
    57d0:	7e010000 	cdpvc	0, 0, cr0, cr1, cr0, {0}
    57d4:	00008220 	andeq	r8, r0, r0, lsr #4
    57d8:	04230200 	strteq	r0, [r3], #-512	; 0xfffffe00
    57dc:	306f0500 	rsbcc	r0, pc, r0, lsl #10
    57e0:	80010000 	andhi	r0, r1, r0
    57e4:	0001e402 	andeq	lr, r1, r2, lsl #8
    57e8:	01030600 	tsteq	r3, r0, lsl #12
    57ec:	027c0983 	rsbseq	r0, ip, #2146304	; 0x20c000
    57f0:	b6070000 	strlt	r0, [r7], -r0
    57f4:	01000031 	tsteq	r0, r1, lsr r0
    57f8:	01b11a85 			; <UNDEFINED> instruction: 0x01b11a85
    57fc:	23020000 	movwcs	r0, #8192	; 0x2000
    5800:	2e840700 	cdpcs	7, 8, cr0, cr4, cr0, {0}
    5804:	86010000 	strhi	r0, [r1], -r0
    5808:	0000d01e 	andeq	sp, r0, lr, lsl r0
    580c:	01230200 			; <UNDEFINED> instruction: 0x01230200
    5810:	00302f07 	eorseq	r2, r0, r7, lsl #30
    5814:	1d870100 	stfnes	f0, [r7]
    5818:	000001d8 	ldrdeq	r0, [r0], -r8
    581c:	00022302 	andeq	r2, r2, r2, lsl #6
    5820:	00304305 	eorseq	r4, r0, r5, lsl #6
    5824:	02890100 	addeq	r0, r9, #0, 2
    5828:	00000245 	andeq	r0, r0, r5, asr #4
    582c:	00325d08 	eorseq	r5, r2, r8, lsl #26
    5830:	1e8d0100 	rmfnee	f0, f5, f0
    5834:	00000239 	andeq	r0, r0, r9, lsr r2
    5838:	2c080101 	stfcss	f0, [r8], {1}
    583c:	01000032 	tsteq	r0, r2, lsr r0
    5840:	02391e8e 	eorseq	r1, r9, #2272	; 0x8e0
    5844:	01010000 	mrseq	r0, (UNDEF: 1)
    5848:	00325108 	eorseq	r5, r2, r8, lsl #2
    584c:	1e8f0100 	rmfnee	f0, f7, f0
    5850:	0000027c 	andeq	r0, r0, ip, ror r2
    5854:	02080101 	andeq	r0, r8, #1073741824	; 0x40000000
    5858:	01000032 	tsteq	r0, r2, lsr r0
    585c:	02391e90 	eorseq	r1, r9, #144, 28	; 0x900
    5860:	01010000 	mrseq	r0, (UNDEF: 1)
    5864:	00028809 	andeq	r8, r2, r9, lsl #16
    5868:	17040200 	strne	r0, [r4, -r0, lsl #4]
    586c:	00000305 	andeq	r0, r0, r5, lsl #6
    5870:	96090000 	strls	r0, [r9], -r0
    5874:	02000002 	andeq	r0, r0, #2
    5878:	0305170c 	movweq	r1, #22284	; 0x570c
    587c:	00000000 	andeq	r0, r0, r0
    5880:	0002b209 	andeq	fp, r2, r9, lsl #4
    5884:	17140200 	ldrne	r0, [r4, -r0, lsl #4]
    5888:	00000305 	andeq	r0, r0, r5, lsl #6
    588c:	a4090000 	strge	r0, [r9], #-0
    5890:	02000002 	andeq	r0, r0, #2
    5894:	0305171f 	movweq	r1, #22303	; 0x571f
    5898:	00000000 	andeq	r0, r0, r0
    589c:	00038a00 	andeq	r8, r3, r0, lsl #20
    58a0:	83000200 	movwhi	r0, #512	; 0x200
    58a4:	0400000e 	streq	r0, [r0], #-14
    58a8:	0001ac01 	andeq	sl, r1, r1, lsl #24
    58ac:	33210c00 			; <UNDEFINED> instruction: 0x33210c00
    58b0:	002e0000 	eoreq	r0, lr, r0
    58b4:	000002c8 	andeq	r0, r0, r8, asr #5
	...
    58c0:	00001544 	andeq	r1, r0, r4, asr #10
    58c4:	14080102 	strne	r0, [r8], #-258	; 0xfffffefe
    58c8:	0200000d 	andeq	r0, r0, #13
    58cc:	0d160601 	ldceq	6, cr0, [r6, #-4]
    58d0:	02020000 	andeq	r0, r2, #0
    58d4:	000ee407 	andeq	lr, lr, r7, lsl #8
    58d8:	05020200 	streq	r0, [r2, #-512]	; 0xfffffe00
    58dc:	00000a63 	andeq	r0, r0, r3, ror #20
    58e0:	000a5d03 	andeq	r5, sl, r3, lsl #26
    58e4:	1c0e0200 	sfmne	f0, 4, [lr], {-0}
    58e8:	0000004f 	andeq	r0, r0, pc, asr #32
    58ec:	27070402 	strcs	r0, [r7, -r2, lsl #8]
    58f0:	02000005 	andeq	r0, r0, #5
    58f4:	08080504 	stmdaeq	r8, {r2, r8, sl}
    58f8:	04020000 	streq	r0, [r2], #-0
    58fc:	00050a04 	andeq	r0, r5, r4, lsl #20
    5900:	04080200 	streq	r0, [r8], #-512	; 0xfffffe00
    5904:	000009b1 			; <UNDEFINED> instruction: 0x000009b1
    5908:	0021d603 	eoreq	sp, r1, r3, lsl #12
    590c:	1d170200 	lfmne	f0, 4, [r7, #-0]
    5910:	00000077 	andeq	r0, r0, r7, ror r0
    5914:	22070802 	andcs	r0, r7, #131072	; 0x20000
    5918:	03000005 	movweq	r0, #5
    591c:	00000985 	andeq	r0, r0, r5, lsl #19
    5920:	8f101902 	svchi	0x00101902
    5924:	04000000 	streq	r0, [r0], #-0
    5928:	0000007e 	andeq	r0, r0, lr, ror r0
    592c:	00950405 	addseq	r0, r5, r5, lsl #8
    5930:	01060000 	mrseq	r0, (UNDEF: 6)
    5934:	0b030407 	bleq	c6958 <_E_text+0xc546c>
    5938:	0000e905 	andeq	lr, r0, r5, lsl #18
    593c:	331a0800 	tstcc	sl, #0, 16
    5940:	0d030000 	stceq	0, cr0, [r3, #-0]
    5944:	0000430f 	andeq	r4, r0, pc, lsl #6
    5948:	1f010400 	svcne	0x00010400
    594c:	08002302 	stmdaeq	r0, {r1, r8, r9, sp}
    5950:	000032a6 	andeq	r3, r0, r6, lsr #5
    5954:	430f0e03 	movwmi	r0, #65027	; 0xfe03
    5958:	04000000 	streq	r0, [r0], #-0
    595c:	23021e01 	movwcs	r1, #11777	; 0x2e01
    5960:	32f00800 	rscscc	r0, r0, #0, 16
    5964:	0f030000 	svceq	0x00030000
    5968:	0000430f 	andeq	r4, r0, pc, lsl #6
    596c:	1d010400 	cfstrsne	mvf0, [r1, #-0]
    5970:	08002302 	stmdaeq	r0, {r1, r8, r9, sp}
    5974:	0000327e 	andeq	r3, r0, lr, ror r2
    5978:	430f1103 	movwmi	r1, #61699	; 0xf103
    597c:	04000000 	streq	r0, [r0], #-0
    5980:	23020f01 	movwcs	r0, #12033	; 0x2f01
    5984:	04090000 	streq	r0, [r9], #-0
    5988:	0b090903 	bleq	247d9c <_E_text+0x2468b0>
    598c:	0a000001 	beq	5998 <_E_text+0x44ac>
    5990:	00002728 	andeq	r2, r0, r8, lsr #14
    5994:	97061303 	strls	r1, [r6, -r3, lsl #6]
    5998:	0a000000 	beq	59a0 <_E_text+0x44b4>
    599c:	00002b4e 	andeq	r2, r0, lr, asr #22
    59a0:	430b1503 	movwmi	r1, #46339	; 0xb503
    59a4:	00000000 	andeq	r0, r0, r0
    59a8:	00338e03 	eorseq	r8, r3, r3, lsl #28
    59ac:	02170300 	andseq	r0, r7, #0, 6
    59b0:	000000e9 	andeq	r0, r0, r9, ror #1
    59b4:	1c030407 	cfstrsne	mvf0, [r3], {7}
    59b8:	00013305 	andeq	r3, r1, r5, lsl #6
    59bc:	32e90800 	rsccc	r0, r9, #0, 16
    59c0:	1d030000 	stcne	0, cr0, [r3, #-0]
    59c4:	0000430f 	andeq	r4, r0, pc, lsl #6
    59c8:	08180400 	ldmdaeq	r8, {sl}
    59cc:	00002302 	andeq	r2, r0, r2, lsl #6
    59d0:	1a030409 	bne	c69fc <_E_text+0xc5510>
    59d4:	00015509 	andeq	r5, r1, r9, lsl #10
    59d8:	27280a00 	strcs	r0, [r8, -r0, lsl #20]!
    59dc:	1f030000 	svcne	0x00030000
    59e0:	00011706 	andeq	r1, r1, r6, lsl #14
    59e4:	2b4e0a00 	blcs	13881ec <_E_text+0x1386d00>
    59e8:	21030000 	mrscs	r0, (UNDEF: 3)
    59ec:	0000430b 	andeq	r4, r0, fp, lsl #6
    59f0:	71030000 	mrsvc	r0, (UNDEF: 3)
    59f4:	03000032 	movweq	r0, #50	; 0x32
    59f8:	01330222 	teqeq	r3, r2, lsr #4
    59fc:	04020000 	streq	r0, [r2], #-0
    5a00:	00052c07 	andeq	r2, r5, r7, lsl #24
    5a04:	04070b00 	streq	r0, [r7], #-2816	; 0xfffff500
    5a08:	00000161 	andeq	r0, r0, r1, ror #2
    5a0c:	8d0f7104 	stfhis	f7, [pc, #-16]	; 5a04 <_E_text+0x4518>
    5a10:	0c000001 	stceq	0, cr0, [r0], {1}
    5a14:	00002337 	andeq	r2, r0, r7, lsr r3
    5a18:	dc0d03e8 	stcle	3, cr0, [sp], {232}	; 0xe8
    5a1c:	40000021 	andmi	r0, r0, r1, lsr #32
    5a20:	0e000f42 	cdpeq	15, 0, cr0, cr0, cr2, {2}
    5a24:	00636553 	rsbeq	r6, r3, r3, asr r5
    5a28:	86030001 	strhi	r0, [r3], -r1
    5a2c:	04000021 	streq	r0, [r0], #-33	; 0xffffffdf
    5a30:	01680375 	smceq	32821	; 0x8035
    5a34:	070b0000 	streq	r0, [fp, -r0]
    5a38:	00002701 	andeq	r2, r0, r1, lsl #14
    5a3c:	0d100500 	cfldr32eq	mvfx0, [r0, #-0]
    5a40:	000001b4 			; <UNDEFINED> instruction: 0x000001b4
    5a44:	0027c30f 	eoreq	ip, r7, pc, lsl #6
    5a48:	8d0f0000 	stchi	0, cr0, [pc, #-0]	; 5a50 <_E_text+0x4564>
    5a4c:	01000028 	tsteq	r0, r8, lsr #32
    5a50:	33990300 	orrscc	r0, r9, #0, 6
    5a54:	14050000 	strne	r0, [r5], #-0
    5a58:	00019902 	andeq	r9, r1, r2, lsl #18
    5a5c:	32d81000 	sbcscc	r1, r8, #0
    5a60:	0a010000 	beq	45a68 <_E_text+0x4457c>
    5a64:	00008a21 	andeq	r8, r0, r1, lsr #20
    5a68:	4c030500 	cfstr32mi	mvfx0, [r3], {-0}
    5a6c:	1120001d 			; <UNDEFINED> instruction: 0x1120001d
    5a70:	00335b01 	eorseq	r5, r3, r1, lsl #22
    5a74:	066e0100 	strbteq	r0, [lr], -r0, lsl #2
    5a78:	00000001 	andeq	r0, r0, r1
    5a7c:	00000000 	andeq	r0, r0, r0
    5a80:	00195400 	andseq	r5, r9, r0, lsl #8
    5a84:	01fd0100 	mvnseq	r0, r0, lsl #2
    5a88:	9d100000 	ldcls	0, cr0, [r0, #-0]
    5a8c:	01000032 	tsteq	r0, r2, lsr r0
    5a90:	00430b70 	subeq	r0, r3, r0, ror fp
    5a94:	91020000 	mrsls	r0, (UNDEF: 2)
    5a98:	01120074 	tsteq	r2, r4, ror r0
    5a9c:	000033ab 	andeq	r3, r0, fp, lsr #7
    5aa0:	01065b01 	tsteq	r6, r1, lsl #22
    5aa4:	00001494 	muleq	r0, r4, r4
    5aa8:	000014ec 	andeq	r1, r0, ip, ror #9
    5aac:	000019b0 			; <UNDEFINED> instruction: 0x000019b0
    5ab0:	00025501 	andeq	r5, r2, r1, lsl #10
    5ab4:	20ff1300 	rscscs	r1, pc, r0, lsl #6
    5ab8:	5b010000 	blpl	45ac0 <_E_text+0x445d4>
    5abc:	0000432b 	andeq	r4, r0, fp, lsr #6
    5ac0:	64910200 	ldrvs	r0, [r1], #512	; 0x200
    5ac4:	00210213 	eoreq	r0, r1, r3, lsl r2
    5ac8:	4a5b0100 	bmi	16c5ed0 <_E_text+0x16c49e4>
    5acc:	0000018d 	andeq	r0, r0, sp, lsl #3
    5ad0:	10609102 	rsbne	r9, r0, r2, lsl #2
    5ad4:	00003284 	andeq	r3, r0, r4, lsl #5
    5ad8:	6b0b5f01 	blvs	2dd6e4 <_E_text+0x2dc1f8>
    5adc:	02000000 	andeq	r0, r0, #0
    5ae0:	93107091 	tstls	r0, #145	; 0x91
    5ae4:	01000022 	tsteq	r0, r2, lsr #32
    5ae8:	006b0b60 	rsbeq	r0, fp, r0, ror #22
    5aec:	91020000 	mrsls	r0, (UNDEF: 2)
    5af0:	01110068 	tsteq	r1, r8, rrx
    5af4:	0000336d 	andeq	r3, r0, sp, ror #6
    5af8:	01065501 	tsteq	r6, r1, lsl #10
	...
    5b04:	00001a00 	andeq	r1, r0, r0, lsl #20
    5b08:	00028001 	andeq	r8, r2, r1
    5b0c:	08811300 	stmeq	r1, {r8, r9, ip}
    5b10:	55010000 	strpl	r0, [r1, #-0]
    5b14:	00007e36 	andeq	r7, r0, r6, lsr lr
    5b18:	74910200 	ldrvc	r0, [r1], #512	; 0x200
    5b1c:	bb011200 	bllt	4a324 <_E_text+0x48e38>
    5b20:	01000032 	tsteq	r0, r2, lsr r0
    5b24:	0001063b 	andeq	r0, r1, fp, lsr r6
    5b28:	00000000 	andeq	r0, r0, r0
    5b2c:	5c000000 	stcpl	0, cr0, [r0], {-0}
    5b30:	0100001a 	tsteq	r0, sl, lsl r0
    5b34:	000002e7 	andeq	r0, r0, r7, ror #5
    5b38:	0020ff13 	eoreq	pc, r0, r3, lsl pc	; <UNPREDICTABLE>
    5b3c:	293b0100 	ldmdbcs	fp!, {r8}
    5b40:	00000043 	andeq	r0, r0, r3, asr #32
    5b44:	135c9102 	cmpne	ip, #-2147483648	; 0x80000000
    5b48:	00002102 	andeq	r2, r0, r2, lsl #2
    5b4c:	8d483b01 	vstrhi	d19, [r8, #-4]
    5b50:	02000001 	andeq	r0, r0, #1
    5b54:	84105891 	ldrhi	r5, [r0], #-2193	; 0xfffff76f
    5b58:	01000032 	tsteq	r0, r2, lsr r0
    5b5c:	006b0b3f 	rsbeq	r0, fp, pc, lsr fp
    5b60:	91020000 	mrsls	r0, (UNDEF: 2)
    5b64:	22931068 	addscs	r1, r3, #104	; 0x68
    5b68:	40010000 	andmi	r0, r1, r0
    5b6c:	00006b0b 	andeq	r6, r0, fp, lsl #22
    5b70:	60910200 	addsvs	r0, r1, r0, lsl #4
    5b74:	00223110 	eoreq	r3, r2, r0, lsl r1
    5b78:	0b4b0100 	bleq	12c5f80 <_E_text+0x12c4a94>
    5b7c:	00000043 	andeq	r0, r0, r3, asr #32
    5b80:	00749102 	rsbseq	r9, r4, r2, lsl #2
    5b84:	33300111 	teqcc	r0, #1073741828	; 0x40000004
    5b88:	36010000 	strcc	r0, [r1], -r0
    5b8c:	14680106 	strbtne	r0, [r8], #-262	; 0xfffffefa
    5b90:	14940000 	ldrne	r0, [r4], #0
    5b94:	1aac0000 	bne	feb05b9c <_E_BSS+0xdeb03da8>
    5b98:	12010000 	andne	r0, r1, #0
    5b9c:	13000003 	movwne	r0, #3
    5ba0:	000033a1 	andeq	r3, r0, r1, lsr #7
    5ba4:	b4343601 	ldrtlt	r3, [r4], #-1537	; 0xfffff9ff
    5ba8:	02000001 	andeq	r0, r0, #1
    5bac:	14007791 	strne	r7, [r0], #-1937	; 0xfffff86f
    5bb0:	000032f8 	strdeq	r3, [r0], -r8
    5bb4:	01152301 	tsteq	r5, r1, lsl #6
    5bb8:	0000006b 	andeq	r0, r0, fp, rrx
    5bbc:	00001424 	andeq	r1, r0, r4, lsr #8
    5bc0:	00001468 	andeq	r1, r0, r8, ror #8
    5bc4:	00001b08 	andeq	r1, r0, r8, lsl #22
    5bc8:	00034001 	andeq	r4, r3, r1
    5bcc:	23781000 	cmncs	r8, #0
    5bd0:	2b010000 	blcs	45bd8 <_E_text+0x446ec>
    5bd4:	00006b09 	andeq	r6, r0, r9, lsl #22
    5bd8:	68910200 	ldmvs	r1, {r9}
    5bdc:	334c1500 	movtcc	r1, #50432	; 0xc500
    5be0:	1d010000 	stcne	0, cr0, [r1, #-0]
    5be4:	14080114 	strne	r0, [r8], #-276	; 0xfffffeec
    5be8:	14240000 	strtne	r0, [r4], #-0
    5bec:	1b580000 	blne	1605bf4 <_E_text+0x1604708>
    5bf0:	15010000 	strne	r0, [r1, #-0]
    5bf4:	0000330c 	andeq	r3, r0, ip, lsl #6
    5bf8:	01141801 	tsteq	r4, r1, lsl #16
    5bfc:	000013ec 	andeq	r1, r0, ip, ror #7
    5c00:	00001408 	andeq	r1, r0, r8, lsl #8
    5c04:	00001b9c 	muleq	r0, ip, fp
    5c08:	ac011601 	stcge	6, cr1, [r1], {1}
    5c0c:	01000032 	tsteq	r0, r2, lsr r0
    5c10:	0386020c 	orreq	r0, r6, #12, 4	; 0xc0000000
	...
    5c1c:	1be00000 	blne	ff805c24 <_E_BSS+0xdf803e30>
    5c20:	17010000 	strne	r0, [r1, -r0]
    5c24:	6e690504 	cdpvs	5, 6, cr0, cr9, cr4, {0}
    5c28:	ef000074 	svc	0x00000074
    5c2c:	02000019 	andeq	r0, r0, #25
    5c30:	000ff800 	andeq	pc, pc, r0, lsl #16
    5c34:	ac010400 	cfstrsge	mvf0, [r1], {-0}
    5c38:	0c000001 	stceq	0, cr0, [r0], {1}
    5c3c:	0000350c 	andeq	r3, r0, ip, lsl #10
    5c40:	0318002e 	tsteq	r8, #46	; 0x2e
	...
    5c4c:	17000000 	strne	r0, [r0, -r0]
    5c50:	53020000 	movwpl	r0, #8192	; 0x2000
    5c54:	02000008 	andeq	r0, r0, #8
    5c58:	00331d06 	eorseq	r1, r3, r6, lsl #26
    5c5c:	01030000 	mrseq	r0, (UNDEF: 3)
    5c60:	000d1408 	andeq	r1, sp, r8, lsl #8
    5c64:	00330400 	eorseq	r0, r3, r0, lsl #8
    5c68:	01030000 	mrseq	r0, (UNDEF: 3)
    5c6c:	000d1606 	andeq	r1, sp, r6, lsl #12
    5c70:	07020300 	streq	r0, [r2, -r0, lsl #6]
    5c74:	00000ee4 	andeq	r0, r0, r4, ror #29
    5c78:	63050203 	movwvs	r0, #20995	; 0x5203
    5c7c:	0200000a 	andeq	r0, r0, #10
    5c80:	00000a5d 	andeq	r0, r0, sp, asr sl
    5c84:	601c0e02 	andsvs	r0, ip, r2, lsl #28
    5c88:	03000000 	movweq	r0, #0
    5c8c:	05270704 	streq	r0, [r7, #-1796]!	; 0xfffff8fc
    5c90:	04030000 	streq	r0, [r3], #-0
    5c94:	00080805 	andeq	r0, r8, r5, lsl #16
    5c98:	04040300 	streq	r0, [r4], #-768	; 0xfffffd00
    5c9c:	0000050a 	andeq	r0, r0, sl, lsl #10
    5ca0:	b1040803 	tstlt	r4, r3, lsl #16
    5ca4:	03000009 	movweq	r0, #9
    5ca8:	05220708 	streq	r0, [r2, #-1800]!	; 0xfffff8f8
    5cac:	85020000 	strhi	r0, [r2, #-0]
    5cb0:	02000009 	andeq	r0, r0, #9
    5cb4:	00941019 	addseq	r1, r4, r9, lsl r0
    5cb8:	83040000 	movwhi	r0, #16384	; 0x4000
    5cbc:	05000000 	streq	r0, [r0, #-0]
    5cc0:	00009a04 	andeq	r9, r0, r4, lsl #20
    5cc4:	07010600 	streq	r0, [r1, -r0, lsl #12]
    5cc8:	00330107 	eorseq	r0, r3, r7, lsl #2
    5ccc:	07030000 	streq	r0, [r3, -r0]
    5cd0:	0000db0d 	andeq	sp, r0, sp, lsl #22
    5cd4:	261a0800 	ldrcs	r0, [sl], -r0, lsl #16
    5cd8:	08000000 	stmdaeq	r0, {}	; <UNPREDICTABLE>
    5cdc:	00002628 	andeq	r2, r0, r8, lsr #12
    5ce0:	26360801 	ldrtcs	r0, [r6], -r1, lsl #16
    5ce4:	08020000 	stmdaeq	r2, {}	; <UNPREDICTABLE>
    5ce8:	00002644 	andeq	r2, r0, r4, asr #12
    5cec:	26520803 	ldrbcs	r0, [r2], -r3, lsl #16
    5cf0:	08040000 	stmdaeq	r4, {}	; <UNPREDICTABLE>
    5cf4:	00002660 	andeq	r2, r0, r0, ror #12
    5cf8:	266e0805 	strbtcs	r0, [lr], -r5, lsl #16
    5cfc:	08060000 	stmdaeq	r6, {}	; <UNPREDICTABLE>
    5d00:	0000267c 	andeq	r2, r0, ip, ror r6
    5d04:	91020007 	tstls	r2, r7
    5d08:	03000026 	movweq	r0, #38	; 0x26
    5d0c:	009c0211 	addseq	r0, ip, r1, lsl r2
    5d10:	07070000 	streq	r0, [r7, -r0]
    5d14:	00003301 	andeq	r3, r0, r1, lsl #6
    5d18:	0d130300 	ldceq	3, cr0, [r3, #-0]
    5d1c:	00000102 	andeq	r0, r0, r2, lsl #2
    5d20:	002d9c08 	eoreq	r9, sp, r8, lsl #24
    5d24:	60080000 	andvs	r0, r8, r0
    5d28:	05000027 	streq	r0, [r0, #-39]	; 0xffffffd9
    5d2c:	25ff0200 	ldrbcs	r0, [pc, #512]!	; 5f34 <_E_text+0x4a48>
    5d30:	19030000 	stmdbne	r3, {}	; <UNPREDICTABLE>
    5d34:	0000e701 	andeq	lr, r0, r1, lsl #14
    5d38:	01070700 	tsteq	r7, r0, lsl #14
    5d3c:	00000033 	andeq	r0, r0, r3, lsr r0
    5d40:	350d1c03 	strcc	r1, [sp, #-3075]	; 0xfffff3fd
    5d44:	08000001 	stmdaeq	r0, {r0}
    5d48:	00002726 	andeq	r2, r0, r6, lsr #14
    5d4c:	268a0800 	strcs	r0, [sl], r0, lsl #16
    5d50:	08010000 	stmdaeq	r1, {}	; <UNPREDICTABLE>
    5d54:	000025c5 	andeq	r2, r0, r5, asr #11
    5d58:	26ef0802 	strbtcs	r0, [pc], r2, lsl #16
    5d5c:	00030000 	andeq	r0, r3, r0
    5d60:	00270f02 	eoreq	r0, r7, r2, lsl #30
    5d64:	02220300 	eoreq	r0, r2, #0, 6
    5d68:	0000010e 	andeq	r0, r0, lr, lsl #2
    5d6c:	003b8b09 	eorseq	r8, fp, r9, lsl #22
    5d70:	33010700 	movwcc	r0, #5888	; 0x1700
    5d74:	03000000 	movweq	r0, #0
    5d78:	01720724 	cmneq	r2, r4, lsr #14
    5d7c:	d7080000 	strle	r0, [r8, -r0]
    5d80:	0000003e 	andeq	r0, r0, lr, lsr r0
    5d84:	003d6a08 	eorseq	r6, sp, r8, lsl #20
    5d88:	6f080100 	svcvs	0x00080100
    5d8c:	0200003b 	andeq	r0, r0, #59	; 0x3b
    5d90:	003dd408 	eorseq	sp, sp, r8, lsl #8
    5d94:	af080300 	svcge	0x00080300
    5d98:	04000036 	streq	r0, [r0], #-54	; 0xffffffca
    5d9c:	01070700 	tsteq	r7, r0, lsl #14
    5da0:	00000033 	andeq	r0, r0, r3, lsr r0
    5da4:	8d0d2d03 	stchi	13, cr2, [sp, #-12]
    5da8:	08000001 	stmdaeq	r0, {r0}
    5dac:	00003de0 	andeq	r3, r0, r0, ror #27
    5db0:	3e810800 	cdpcc	8, 8, cr0, cr1, cr0, {0}
    5db4:	00010000 	andeq	r0, r1, r0
    5db8:	00352402 	eorseq	r2, r5, r2, lsl #8
    5dbc:	02300300 	eorseq	r0, r0, #0, 6
    5dc0:	00000172 	andeq	r0, r0, r2, ror r1
    5dc4:	32030c0a 	andcc	r0, r3, #2560	; 0xa00
    5dc8:	0001ee09 	andeq	lr, r1, r9, lsl #28
    5dcc:	09150b00 	ldmdbeq	r5, {r8, r9, fp}
    5dd0:	34030000 	strcc	r0, [r3], #-0
    5dd4:	0000db14 	andeq	sp, r0, r4, lsl fp
    5dd8:	00230200 	eoreq	r0, r3, r0, lsl #4
    5ddc:	0025f40b 	eoreq	pc, r5, fp, lsl #8
    5de0:	18350300 	ldmdane	r5!, {r8, r9}
    5de4:	00000135 	andeq	r0, r0, r5, lsr r1
    5de8:	0b012302 	bleq	4e9f8 <_E_text+0x4d50c>
    5dec:	00002754 	andeq	r2, r0, r4, asr r7
    5df0:	02183603 	andseq	r3, r8, #3145728	; 0x300000
    5df4:	02000001 	andeq	r0, r0, #1
    5df8:	210b0223 	tstcs	fp, r3, lsr #4
    5dfc:	03000027 	movweq	r0, #39	; 0x27
    5e00:	00540b37 	subseq	r0, r4, r7, lsr fp
    5e04:	23020000 	movwcs	r0, #8192	; 0x2000
    5e08:	270a0b04 	strcs	r0, [sl, -r4, lsl #22]
    5e0c:	38030000 	stmdacc	r3, {}	; <UNPREDICTABLE>
    5e10:	0000540b 	andeq	r5, r0, fp, lsl #8
    5e14:	08230200 	stmdaeq	r3!, {r9}
    5e18:	26b10200 	ldrtcs	r0, [r1], r0, lsl #4
    5e1c:	3a030000 	bcc	c5e24 <_E_text+0xc4938>
    5e20:	00019902 	andeq	r9, r1, r2, lsl #18
    5e24:	01070700 	tsteq	r7, r0, lsl #14
    5e28:	00000033 	andeq	r0, r0, r3, lsr r0
    5e2c:	270d4503 	strcs	r4, [sp, -r3, lsl #10]
    5e30:	08000002 	stmdaeq	r0, {r1}
    5e34:	00003ccb 	andeq	r3, r0, fp, asr #25
    5e38:	3ac00800 	bcc	ff007e40 <_E_BSS+0xdf00604c>
    5e3c:	08010000 	stmdaeq	r1, {}	; <UNPREDICTABLE>
    5e40:	00003842 	andeq	r3, r0, r2, asr #16
    5e44:	39df0802 	ldmibcc	pc, {r1, fp}^	; <UNPREDICTABLE>
    5e48:	08030000 	stmdaeq	r3, {}	; <UNPREDICTABLE>
    5e4c:	00003414 	andeq	r3, r0, r4, lsl r4
    5e50:	07070004 	streq	r0, [r7, -r4]
    5e54:	00003301 	andeq	r3, r0, r1, lsl #6
    5e58:	0e2a0400 	cdpeq	4, 2, cr0, cr10, cr0, {0}
    5e5c:	00000266 	andeq	r0, r0, r6, ror #4
    5e60:	000d7908 	andeq	r7, sp, r8, lsl #18
    5e64:	86080000 	strhi	r0, [r8], -r0
    5e68:	0100000d 	tsteq	r0, sp
    5e6c:	000d9308 	andeq	r9, sp, r8, lsl #6
    5e70:	a0080200 	andge	r0, r8, r0, lsl #4
    5e74:	0300000d 	movweq	r0, #13
    5e78:	000dad08 	andeq	sl, sp, r8, lsl #26
    5e7c:	ba080400 	blt	206e84 <_E_text+0x205998>
    5e80:	0500000d 	streq	r0, [r0, #-13]
    5e84:	000dc708 	andeq	ip, sp, r8, lsl #14
    5e88:	d4080600 	strle	r0, [r8], #-1536	; 0xfffffa00
    5e8c:	0700000d 	streq	r0, [r0, -sp]
    5e90:	14df0200 	ldrbne	r0, [pc], #512	; 5e98 <_E_text+0x49ac>
    5e94:	35040000 	strcc	r0, [r4, #-0]
    5e98:	00022702 	andeq	r2, r2, r2, lsl #14
    5e9c:	01070700 	tsteq	r7, r0, lsl #14
    5ea0:	00000033 	andeq	r0, r0, r3, lsr r0
    5ea4:	ab0d3804 	blge	353ebc <_E_text+0x3529d0>
    5ea8:	08000002 	stmdaeq	r0, {r1}
    5eac:	00000ce6 	andeq	r0, r0, r6, ror #25
    5eb0:	0ef70800 	cdpeq	8, 15, cr0, cr7, cr0, {0}
    5eb4:	08010000 	stmdaeq	r1, {}	; <UNPREDICTABLE>
    5eb8:	00000efd 	strdeq	r0, [r0], -sp
    5ebc:	00c80802 	sbceq	r0, r8, r2, lsl #16
    5ec0:	08030000 	stmdaeq	r3, {}	; <UNPREDICTABLE>
    5ec4:	000000ce 	andeq	r0, r0, lr, asr #1
    5ec8:	00d40804 	sbcseq	r0, r4, r4, lsl #16
    5ecc:	08050000 	stmdaeq	r5, {}	; <UNPREDICTABLE>
    5ed0:	00000df8 	strdeq	r0, [r0], -r8
    5ed4:	7e020006 	cdpvc	0, 0, cr0, cr2, cr6, {0}
    5ed8:	04000017 	streq	r0, [r0], #-23	; 0xffffffe9
    5edc:	02720241 	rsbseq	r0, r2, #268435460	; 0x10000004
    5ee0:	030a0000 	movweq	r0, #40960	; 0xa000
    5ee4:	ee09b004 	cdp	0, 0, cr11, cr9, cr4, {0}
    5ee8:	0b000002 	bleq	5ef8 <_E_text+0x4a0c>
    5eec:	0000143d 	andeq	r1, r0, sp, lsr r4
    5ef0:	ab1cb104 	blge	732308 <_E_text+0x730e1c>
    5ef4:	02000002 	andeq	r0, r0, #2
    5ef8:	a00b0023 	andge	r0, fp, r3, lsr #32
    5efc:	04000016 	streq	r0, [r0], #-22	; 0xffffffea
    5f00:	026620b2 	rsbeq	r2, r6, #178	; 0xb2
    5f04:	23020000 	movwcs	r0, #8192	; 0x2000
    5f08:	19180b01 	ldmdbne	r8, {r0, r8, r9, fp}
    5f0c:	b3040000 	movwlt	r0, #16384	; 0x4000
    5f10:	00026620 	andeq	r6, r2, r0, lsr #12
    5f14:	02230200 	eoreq	r0, r3, #0, 4
    5f18:	02b70c00 	adcseq	r0, r7, #0, 24
    5f1c:	25020000 	strcs	r0, [r2, #-0]
    5f20:	04000019 	streq	r0, [r0], #-25	; 0xffffffe7
    5f24:	02ee08b4 	rsceq	r0, lr, #180, 16	; 0xb40000
    5f28:	04030000 	streq	r0, [r3], #-0
    5f2c:	00052c07 	andeq	r2, r5, r7, lsl #24
    5f30:	f3040500 	vrshl.u8	d0, d0, d4
    5f34:	07000002 	streq	r0, [r0, -r2]
    5f38:	00330107 	eorseq	r0, r3, r7, lsl #2
    5f3c:	2e050000 	cdpcs	0, 0, cr0, cr5, cr0, {0}
    5f40:	0003db0d 	andeq	sp, r3, sp, lsl #22
    5f44:	0d760800 	ldcleq	8, cr0, [r6, #-0]
    5f48:	08000000 	stmdaeq	r0, {}	; <UNPREDICTABLE>
    5f4c:	00000d83 	andeq	r0, r0, r3, lsl #27
    5f50:	0d900801 	ldceq	8, cr0, [r0, #4]
    5f54:	08020000 	stmdaeq	r2, {}	; <UNPREDICTABLE>
    5f58:	00000d9d 	muleq	r0, sp, sp
    5f5c:	0daa0803 	stceq	8, cr0, [sl, #12]!
    5f60:	08040000 	stmdaeq	r4, {}	; <UNPREDICTABLE>
    5f64:	00000db7 			; <UNDEFINED> instruction: 0x00000db7
    5f68:	0dc40805 	stcleq	8, cr0, [r4, #20]
    5f6c:	08060000 	stmdaeq	r6, {}	; <UNPREDICTABLE>
    5f70:	00000dd1 	ldrdeq	r0, [r0], -r1
    5f74:	0dde0807 	ldcleq	8, cr0, [lr, #28]
    5f78:	08080000 	stmdaeq	r8, {}	; <UNPREDICTABLE>
    5f7c:	00000deb 	andeq	r0, r0, fp, ror #27
    5f80:	0bd30809 	bleq	ff4c7fac <_E_BSS+0xdf4c61b8>
    5f84:	080a0000 	stmdaeq	sl, {}	; <UNPREDICTABLE>
    5f88:	00000be1 	andeq	r0, r0, r1, ror #23
    5f8c:	0bef080b 	bleq	ffbc7fc0 <_E_BSS+0xdfbc61cc>
    5f90:	080c0000 	stmdaeq	ip, {}	; <UNPREDICTABLE>
    5f94:	00000bfd 	strdeq	r0, [r0], -sp
    5f98:	0c0b080d 	stceq	8, cr0, [fp], {13}
    5f9c:	080e0000 	stmdaeq	lr, {}	; <UNPREDICTABLE>
    5fa0:	00000c19 	andeq	r0, r0, r9, lsl ip
    5fa4:	0c27080f 	stceq	8, cr0, [r7], #-60	; 0xffffffc4
    5fa8:	08100000 	ldmdaeq	r0, {}	; <UNPREDICTABLE>
    5fac:	00000c35 	andeq	r0, r0, r5, lsr ip
    5fb0:	0c430811 	mcrreq	8, 1, r0, r3, cr1
    5fb4:	08120000 	ldmdaeq	r2, {}	; <UNPREDICTABLE>
    5fb8:	00000c51 	andeq	r0, r0, r1, asr ip
    5fbc:	0cec0813 	stcleq	8, cr0, [ip], #76	; 0x4c
    5fc0:	08140000 	ldmdaeq	r4, {}	; <UNPREDICTABLE>
    5fc4:	00000cfa 	strdeq	r0, [r0], -sl
    5fc8:	0b290815 	bleq	a48024 <_E_text+0xa46b38>
    5fcc:	08160000 	ldmdaeq	r6, {}	; <UNPREDICTABLE>
    5fd0:	00000b37 	andeq	r0, r0, r7, lsr fp
    5fd4:	0d220817 	stceq	8, cr0, [r2, #-92]!	; 0xffffffa4
    5fd8:	08180000 	ldmdaeq	r8, {}	; <UNPREDICTABLE>
    5fdc:	00000d30 	andeq	r0, r0, r0, lsr sp
    5fe0:	0d3e0819 	ldceq	8, cr0, [lr, #-100]!	; 0xffffff9c
    5fe4:	081a0000 	ldmdaeq	sl, {}	; <UNPREDICTABLE>
    5fe8:	00000d4c 	andeq	r0, r0, ip, asr #26
    5fec:	0d5a081b 	ldcleq	8, cr0, [sl, #-108]	; 0xffffff94
    5ff0:	081c0000 	ldmdaeq	ip, {}	; <UNPREDICTABLE>
    5ff4:	00000d68 	andeq	r0, r0, r8, ror #26
    5ff8:	0e90081d 	mrceq	8, 4, r0, cr0, cr13, {0}
    5ffc:	081e0000 	ldmdaeq	lr, {}	; <UNPREDICTABLE>
    6000:	00000e9e 	muleq	r0, lr, lr
    6004:	3b02001f 	blcc	86088 <_E_text+0x84b9c>
    6008:	0500000e 	streq	r0, [r0, #-14]
    600c:	030c0250 	movweq	r0, #49744	; 0xc250
    6010:	07070000 	streq	r0, [r7, -r0]
    6014:	00003301 	andeq	r3, r0, r1, lsl #6
    6018:	0d520500 	cfldr64eq	mvdx0, [r2, #-0]
    601c:	0000040e 	andeq	r0, r0, lr, lsl #8
    6020:	0007b708 	andeq	fp, r7, r8, lsl #14
    6024:	11080000 	mrsne	r0, (UNDEF: 8)
    6028:	01000008 	tsteq	r0, r8
    602c:	00081508 	andeq	r1, r8, r8, lsl #10
    6030:	6d080200 	sfmvs	f0, 4, [r8, #-0]
    6034:	03000008 	movweq	r0, #8
    6038:	0f870200 	svceq	0x00870200
    603c:	57050000 	strpl	r0, [r5, -r0]
    6040:	0003e702 	andeq	lr, r3, r2, lsl #14
    6044:	01070700 	tsteq	r7, r0, lsl #14
    6048:	00000033 	andeq	r0, r0, r3, lsr r0
    604c:	410d5a05 	tstmi	sp, r5, lsl #20
    6050:	08000004 	stmdaeq	r0, {r2}
    6054:	00000622 	andeq	r0, r0, r2, lsr #12
    6058:	09e20800 	stmibeq	r2!, {fp}^
    605c:	08010000 	stmdaeq	r1, {}	; <UNPREDICTABLE>
    6060:	000009e6 	andeq	r0, r0, r6, ror #19
    6064:	023c0802 	eorseq	r0, ip, #131072	; 0x20000
    6068:	00030000 	andeq	r0, r3, r0
    606c:	000a0002 	andeq	r0, sl, r2
    6070:	025f0500 	subseq	r0, pc, #0, 10
    6074:	0000041a 	andeq	r0, r0, sl, lsl r4
    6078:	33010707 	movwcc	r0, #5895	; 0x1707
    607c:	05000000 	streq	r0, [r0, #-0]
    6080:	046e0d62 	strbteq	r0, [lr], #-3426	; 0xfffff29e
    6084:	6d080000 	stcvs	0, cr0, [r8, #-0]
    6088:	0000000c 	andeq	r0, r0, ip
    608c:	0007a508 	andeq	sl, r7, r8, lsl #10
    6090:	a9080100 	stmdbge	r8, {r8}
    6094:	02000007 	andeq	r0, r0, #7
    6098:	0f670200 	svceq	0x00670200
    609c:	66050000 	strvs	r0, [r5], -r0
    60a0:	00044d02 	andeq	r4, r4, r2, lsl #26
    60a4:	01070700 	tsteq	r7, r0, lsl #14
    60a8:	00000033 	andeq	r0, r0, r3, lsr r0
    60ac:	9b0d6905 	blls	3604c8 <_E_text+0x35efdc>
    60b0:	08000004 	stmdaeq	r0, {r2}
    60b4:	00000846 	andeq	r0, r0, r6, asr #16
    60b8:	08a10800 	stmiaeq	r1!, {fp}
    60bc:	08010000 	stmdaeq	r1, {}	; <UNPREDICTABLE>
    60c0:	000008a5 	andeq	r0, r0, r5, lsr #17
    60c4:	a2020002 	andge	r0, r2, #2
    60c8:	0500000c 	streq	r0, [r0, #-12]
    60cc:	047a026d 	ldrbteq	r0, [sl], #-621	; 0xfffffd93
    60d0:	07070000 	streq	r0, [r7, -r0]
    60d4:	00003301 	andeq	r3, r0, r1, lsl #6
    60d8:	0d7a0500 	cfldr64eq	mvdx0, [sl, #-0]
    60dc:	000004d4 	ldrdeq	r0, [r0], -r4
    60e0:	0009b808 	andeq	fp, r9, r8, lsl #16
    60e4:	c6080000 	strgt	r0, [r8], -r0
    60e8:	01000009 	tsteq	r0, r9
    60ec:	0009d408 	andeq	sp, r9, r8, lsl #8
    60f0:	6d080200 	sfmvs	f0, 4, [r8, #-0]
    60f4:	03000007 	movweq	r0, #7
    60f8:	0009f208 	andeq	pc, r9, r8, lsl #4
    60fc:	02000400 	andeq	r0, r0, #0, 8
    6100:	00000967 	andeq	r0, r0, r7, ror #18
    6104:	a7028105 	strge	r8, [r2, -r5, lsl #2]
    6108:	07000004 	streq	r0, [r0, -r4]
    610c:	00330107 	eorseq	r0, r3, r7, lsl #2
    6110:	83050000 	movwhi	r0, #20480	; 0x5000
    6114:	0004fb0d 	andeq	pc, r4, sp, lsl #22
    6118:	0f3a0800 	svceq	0x003a0800
    611c:	08000000 	stmdaeq	r0, {}	; <UNPREDICTABLE>
    6120:	0000010f 	andeq	r0, r0, pc, lsl #2
    6124:	53020001 	movwpl	r0, #8193	; 0x2001
    6128:	05000003 	streq	r0, [r0, #-3]
    612c:	04e00286 	strbteq	r0, [r0], #646	; 0x286
    6130:	07070000 	streq	r0, [r7, -r0]
    6134:	00003301 	andeq	r3, r0, r1, lsl #6
    6138:	0d880500 	cfstr32eq	mvfx0, [r8]
    613c:	00000546 	andeq	r0, r0, r6, asr #10
    6140:	00099408 	andeq	r9, r9, r8, lsl #8
    6144:	7b080000 	blvc	20614c <_E_text+0x204c60>
    6148:	0100000c 	tsteq	r0, ip
    614c:	000a1a08 	andeq	r1, sl, r8, lsl #20
    6150:	9f080200 	svcls	0x00080200
    6154:	03000005 	movweq	r0, #5
    6158:	00012f08 	andeq	r2, r1, r8, lsl #30
    615c:	26080400 	strcs	r0, [r8], -r0, lsl #8
    6160:	05000001 	streq	r0, [r0, #-1]
    6164:	00078408 	andeq	r8, r7, r8, lsl #8
    6168:	7b080600 	blvc	207970 <_E_text+0x206484>
    616c:	07000007 	streq	r0, [r0, -r7]
    6170:	0e4b0200 	cdpeq	2, 4, cr0, cr11, cr0, {0}
    6174:	91050000 	mrsls	r0, (UNDEF: 5)
    6178:	00050702 	andeq	r0, r5, r2, lsl #14
    617c:	01070700 	tsteq	r7, r0, lsl #14
    6180:	00000033 	andeq	r0, r0, r3, lsr r0
    6184:	a30d9305 	movwge	r9, #54021	; 0xd305
    6188:	08000005 	stmdaeq	r0, {r0, r2}
    618c:	00000ed8 	ldrdeq	r0, [r0], -r8
    6190:	00e20800 	rsceq	r0, r2, r0, lsl #16
    6194:	08010000 	stmdaeq	r1, {}	; <UNPREDICTABLE>
    6198:	00000a38 	andeq	r0, r0, r8, lsr sl
    619c:	0f7a0802 	svceq	0x007a0802
    61a0:	08030000 	stmdaeq	r3, {}	; <UNPREDICTABLE>
    61a4:	00000c5f 	andeq	r0, r0, pc, asr ip
    61a8:	0b000804 	bleq	81c0 <_E_text+0x6cd4>
    61ac:	08050000 	stmdaeq	r5, {}	; <UNPREDICTABLE>
    61b0:	0000073c 	andeq	r0, r0, ip, lsr r7
    61b4:	0faf0806 	svceq	0x00af0806
    61b8:	08070000 	stmdaeq	r7, {}	; <UNPREDICTABLE>
    61bc:	00000ebd 			; <UNDEFINED> instruction: 0x00000ebd
    61c0:	0cd70808 	ldcleq	8, cr0, [r7], {8}
    61c4:	08090000 	stmdaeq	r9, {}	; <UNPREDICTABLE>
    61c8:	00000e2b 	andeq	r0, r0, fp, lsr #28
    61cc:	3802000a 	stmdacc	r2, {r1, r3}
    61d0:	05000006 	streq	r0, [r0, #-6]
    61d4:	0552029f 	ldrbeq	r0, [r2, #-671]	; 0xfffffd61
    61d8:	07070000 	streq	r0, [r7, -r0]
    61dc:	00003301 	andeq	r3, r0, r1, lsl #6
    61e0:	0da10500 	cfstr32eq	mvfx0, [r1]
    61e4:	000005ca 	andeq	r0, r0, sl, asr #11
    61e8:	000f1f08 	andeq	r1, pc, r8, lsl #30
    61ec:	ac080000 	stcge	0, cr0, [r8], {-0}
    61f0:	0100000e 	tsteq	r0, lr
    61f4:	0a450200 	beq	11469fc <_E_text+0x1145510>
    61f8:	a4050000 	strge	r0, [r5], #-0
    61fc:	0005af02 	andeq	sl, r5, r2, lsl #30
    6200:	05100a00 	ldreq	r0, [r0, #-2560]	; 0xfffff600
    6204:	068509a7 	streq	r0, [r5], r7, lsr #19
    6208:	c90b0000 	stmdbgt	fp, {}	; <UNPREDICTABLE>
    620c:	05000039 	streq	r0, [r0, #-57]	; 0xffffffc7
    6210:	03db15a8 	bicseq	r1, fp, #168, 10	; 0x2a000000
    6214:	23020000 	movwcs	r0, #8192	; 0x2000
    6218:	03cc0b00 	biceq	r0, ip, #0, 22
    621c:	a9050000 	stmdbge	r5, {}	; <UNPREDICTABLE>
    6220:	00040e20 	andeq	r0, r4, r0, lsr #28
    6224:	01230200 			; <UNDEFINED> instruction: 0x01230200
    6228:	0008f70b 	andeq	pc, r8, fp, lsl #14
    622c:	1faa0500 	svcne	0x00aa0500
    6230:	00000441 	andeq	r0, r0, r1, asr #8
    6234:	0b022302 	bleq	8ee44 <_E_text+0x8d958>
    6238:	00000fa2 	andeq	r0, r0, r2, lsr #31
    623c:	6e18ab05 	vnmlsvs.f64	d10, d8, d5
    6240:	02000004 	andeq	r0, r0, #4
    6244:	1d0b0323 	stcne	3, cr0, [fp, #-140]	; 0xffffff74
    6248:	0500000b 	streq	r0, [r0, #-11]
    624c:	049b17ac 	ldreq	r1, [fp], #1964	; 0x7ac
    6250:	23020000 	movwcs	r0, #8192	; 0x2000
    6254:	09780b04 	ldmdbeq	r8!, {r2, r8, r9, fp}^
    6258:	ad050000 	stcge	0, cr0, [r5, #-0]
    625c:	0005461e 	andeq	r4, r5, lr, lsl r6
    6260:	05230200 	streq	r0, [r3, #-512]!	; 0xfffffe00
    6264:	0008610b 	andeq	r6, r8, fp, lsl #2
    6268:	1fae0500 	svcne	0x00ae0500
    626c:	000004fb 	strdeq	r0, [r0], -fp
    6270:	0b062302 	bleq	18ee80 <_E_text+0x18d994>
    6274:	00000f5b 	andeq	r0, r0, fp, asr pc
    6278:	d416af05 	ldrle	sl, [r6], #-3845	; 0xfffff0fb
    627c:	02000004 	andeq	r0, r0, #4
    6280:	3c0b0723 	stccc	7, cr0, [fp], {35}	; 0x23
    6284:	05000008 	streq	r0, [r0, #-8]
    6288:	05a31bb0 	streq	r1, [r3, #2992]!	; 0xbb0
    628c:	23020000 	movwcs	r0, #8192	; 0x2000
    6290:	0f030b08 	svceq	0x00030b08
    6294:	b1050000 	mrslt	r0, (UNDEF: 5)
    6298:	0005ca1d 	andeq	ip, r5, sp, lsl sl
    629c:	09230200 	stmdbeq	r3!, {r9}
    62a0:	0003ed0b 	andeq	lr, r3, fp, lsl #26
    62a4:	0bb20500 	bleq	fec876ac <_E_BSS+0xdec858b8>
    62a8:	00000054 	andeq	r0, r0, r4, asr r0
    62ac:	000c2302 	andeq	r2, ip, r2, lsl #6
    62b0:	00066c02 	andeq	r6, r6, r2, lsl #24
    62b4:	02b40500 	adcseq	r0, r4, #0, 10
    62b8:	000005d6 	ldrdeq	r0, [r0], -r6
    62bc:	0006a10d 	andeq	sl, r6, sp, lsl #2
    62c0:	0006a100 	andeq	sl, r6, r0, lsl #2
    62c4:	02ff0e00 	rscseq	r0, pc, #0, 28
    62c8:	00070000 	andeq	r0, r7, r0
    62cc:	06850405 	streq	r0, [r5], r5, lsl #8
    62d0:	f00f0000 			; <UNDEFINED> instruction: 0xf00f0000
    62d4:	05000010 	streq	r0, [r0, #-16]
    62d8:	069124bf 			; <UNDEFINED> instruction: 0x069124bf
    62dc:	01010000 	mrseq	r0, (UNDEF: 1)
    62e0:	0010530f 	andseq	r5, r0, pc, lsl #6
    62e4:	24c00500 	strbcs	r0, [r0], #1280	; 0x500
    62e8:	00000691 	muleq	r0, r1, r6
    62ec:	040a0101 	streq	r0, [sl], #-257	; 0xfffffeff
    62f0:	f1063f06 			; <UNDEFINED> instruction: 0xf1063f06
    62f4:	10000006 	andne	r0, r0, r6
    62f8:	00003688 	andeq	r3, r0, r8, lsl #13
    62fc:	54104006 	ldrpl	r4, [r0], #-6
    6300:	04000000 	streq	r0, [r0], #-0
    6304:	23021010 	movwcs	r1, #8208	; 0x2010
    6308:	15311000 	ldrne	r1, [r1, #-0]!
    630c:	41060000 	mrsmi	r0, (UNDEF: 6)
    6310:	00005410 	andeq	r5, r0, r0, lsl r4
    6314:	00100400 	andseq	r0, r0, r0, lsl #8
    6318:	00002302 	andeq	r2, r0, r2, lsl #6
    631c:	3d060411 	cfstrscc	mvf0, [r6, #-68]	; 0xffffffbc
    6320:	00071309 	andeq	r1, r7, r9, lsl #6
    6324:	27281200 	strcs	r1, [r8, -r0, lsl #4]!
    6328:	43060000 	movwmi	r0, #24576	; 0x6000
    632c:	0006c306 	andeq	ip, r6, r6, lsl #6
    6330:	2b4e1200 	blcs	138ab38 <_E_text+0x138964c>
    6334:	45060000 	strmi	r0, [r6, #-0]
    6338:	0000540b 	andeq	r5, r0, fp, lsl #8
    633c:	4e020000 	cdpmi	0, 0, cr0, cr2, cr0, {0}
    6340:	0600003c 			; <UNDEFINED> instruction: 0x0600003c
    6344:	06f10246 	ldrbteq	r0, [r1], r6, asr #4
    6348:	13040000 	movwne	r0, #16384	; 0x4000
    634c:	0a000007 	beq	6370 <_E_text+0x4e84>
    6350:	054a0604 	strbeq	r0, [sl, #-1540]	; 0xfffff9fc
    6354:	00000752 	andeq	r0, r0, r2, asr r7
    6358:	00376310 	eorseq	r6, r7, r0, lsl r3
    635c:	0e4c0600 	cdpeq	6, 4, cr0, cr12, cr0, {0}
    6360:	00000054 	andeq	r0, r0, r4, asr r0
    6364:	021a0604 	andseq	r0, sl, #4, 12	; 0x400000
    6368:	31100023 	tstcc	r0, r3, lsr #32
    636c:	06000015 			; <UNDEFINED> instruction: 0x06000015
    6370:	00540d4d 	subseq	r0, r4, sp, asr #26
    6374:	1a040000 	bne	10637c <_E_text+0x104e90>
    6378:	00230200 	eoreq	r0, r3, r0, lsl #4
    637c:	06041100 	streq	r1, [r4], -r0, lsl #2
    6380:	07740948 	ldrbeq	r0, [r4, -r8, asr #18]!
    6384:	28120000 	ldmdacs	r2, {}	; <UNPREDICTABLE>
    6388:	06000027 	streq	r0, [r0], -r7, lsr #32
    638c:	0724064f 	streq	r0, [r4, -pc, asr #12]!
    6390:	4e120000 	cdpmi	0, 1, cr0, cr2, cr0, {0}
    6394:	0600002b 	streq	r0, [r0], -fp, lsr #32
    6398:	00540b51 	subseq	r0, r4, r1, asr fp
    639c:	02000000 	andeq	r0, r0, #0
    63a0:	00003d3b 	andeq	r3, r0, fp, lsr sp
    63a4:	52025206 	andpl	r5, r2, #1610612736	; 0x60000000
    63a8:	04000007 	streq	r0, [r0], #-7
    63ac:	00000774 	andeq	r0, r0, r4, ror r7
    63b0:	5706040a 	strpl	r0, [r6, -sl, lsl #8]
    63b4:	0007b305 	andeq	fp, r7, r5, lsl #6
    63b8:	39861000 	stmibcc	r6, {ip}
    63bc:	59060000 	stmdbpl	r6, {}	; <UNPREDICTABLE>
    63c0:	0000540f 	andeq	r5, r0, pc, lsl #8
    63c4:	1c040400 	cfstrsne	mvf0, [r4], {-0}
    63c8:	10002302 	andne	r2, r0, r2, lsl #6
    63cc:	00001531 	andeq	r1, r0, r1, lsr r5
    63d0:	540f5a06 	strpl	r5, [pc], #-2566	; 63d8 <_E_text+0x4eec>
    63d4:	04000000 	streq	r0, [r0], #-0
    63d8:	2302001c 	movwcs	r0, #8220	; 0x201c
    63dc:	04110000 	ldreq	r0, [r1], #-0
    63e0:	d5095506 	strle	r5, [r9, #-1286]	; 0xfffffafa
    63e4:	12000007 	andne	r0, r0, #7
    63e8:	00002728 	andeq	r2, r0, r8, lsr #14
    63ec:	85065c06 	strhi	r5, [r6, #-3078]	; 0xfffff3fa
    63f0:	12000007 	andne	r0, r0, #7
    63f4:	00002b4e 	andeq	r2, r0, lr, asr #22
    63f8:	540b5e06 	strpl	r5, [fp], #-3590	; 0xfffff1fa
    63fc:	00000000 	andeq	r0, r0, r0
    6400:	00388e02 	eorseq	r8, r8, r2, lsl #28
    6404:	02600600 	rsbeq	r0, r0, #0, 12
    6408:	000007b3 			; <UNDEFINED> instruction: 0x000007b3
    640c:	0007d504 	andeq	sp, r7, r4, lsl #10
    6410:	06040a00 	streq	r0, [r4], -r0, lsl #20
    6414:	08140565 	ldmdaeq	r4, {r0, r2, r5, r6, r8, sl}
    6418:	96100000 	ldrls	r0, [r0], -r0
    641c:	06000039 			; <UNDEFINED> instruction: 0x06000039
    6420:	00540f66 	subseq	r0, r4, r6, ror #30
    6424:	08040000 	stmdaeq	r4, {}	; <UNPREDICTABLE>
    6428:	00230218 	eoreq	r0, r3, r8, lsl r2
    642c:	00153110 	andseq	r3, r5, r0, lsl r1
    6430:	0f670600 	svceq	0x00670600
    6434:	00000054 	andeq	r0, r0, r4, asr r0
    6438:	02001804 	andeq	r1, r0, #4, 16	; 0x40000
    643c:	11000023 	tstne	r0, r3, lsr #32
    6440:	09630604 	stmdbeq	r3!, {r2, r9, sl}^
    6444:	00000836 	andeq	r0, r0, r6, lsr r8
    6448:	00272812 	eoreq	r2, r7, r2, lsl r8
    644c:	06690600 	strbteq	r0, [r9], -r0, lsl #12
    6450:	000007e6 	andeq	r0, r0, r6, ror #15
    6454:	002b4e12 	eoreq	r4, fp, r2, lsl lr
    6458:	0b6b0600 	bleq	1ac7c60 <_E_text+0x1ac6774>
    645c:	00000054 	andeq	r0, r0, r4, asr r0
    6460:	34070200 	strcc	r0, [r7], #-512	; 0xfffffe00
    6464:	6d060000 	stcvs	0, cr0, [r6, #-0]
    6468:	00081402 	andeq	r1, r8, r2, lsl #8
    646c:	06040a00 	streq	r0, [r4], -r0, lsl #20
    6470:	08a60571 	stmiaeq	r6!, {r0, r4, r5, r6, r8, sl}
    6474:	ad100000 	ldcge	0, cr0, [r0, #-0]
    6478:	06000008 	streq	r0, [r0], -r8
    647c:	00540f72 	subseq	r0, r4, r2, ror pc
    6480:	08040000 	stmdaeq	r4, {}	; <UNPREDICTABLE>
    6484:	00230218 	eoreq	r0, r3, r8, lsl r2
    6488:	003bfd10 	eorseq	pc, fp, r0, lsl sp	; <UNPREDICTABLE>
    648c:	0f730600 	svceq	0x00730600
    6490:	00000054 	andeq	r0, r0, r4, asr r0
    6494:	02170104 	andseq	r0, r7, #4, 2
    6498:	7e100023 	cdpvc	0, 1, cr0, cr0, cr3, {1}
    649c:	06000035 			; <UNDEFINED> instruction: 0x06000035
    64a0:	00540f74 	subseq	r0, r4, r4, ror pc
    64a4:	01040000 	mrseq	r0, (UNDEF: 4)
    64a8:	00230216 	eoreq	r0, r3, r6, lsl r2
    64ac:	0039bb10 	eorseq	fp, r9, r0, lsl fp
    64b0:	0f750600 	svceq	0x00750600
    64b4:	00000054 	andeq	r0, r0, r4, asr r0
    64b8:	02150104 	andseq	r0, r5, #4, 2
    64bc:	1a100023 	bne	406550 <_E_text+0x405064>
    64c0:	0600003c 			; <UNDEFINED> instruction: 0x0600003c
    64c4:	00540f76 	subseq	r0, r4, r6, ror pc
    64c8:	01040000 	mrseq	r0, (UNDEF: 4)
    64cc:	00230214 	eoreq	r0, r3, r4, lsl r2
    64d0:	06041100 	streq	r1, [r4], -r0, lsl #2
    64d4:	08c8096f 	stmiaeq	r8, {r0, r1, r2, r3, r5, r6, r8, fp}^
    64d8:	28120000 	ldmdacs	r2, {}	; <UNPREDICTABLE>
    64dc:	06000027 	streq	r0, [r0], -r7, lsr #32
    64e0:	08420678 	stmdaeq	r2, {r3, r4, r5, r6, r9, sl}^
    64e4:	4e120000 	cdpmi	0, 1, cr0, cr2, cr0, {0}
    64e8:	0600002b 	streq	r0, [r0], -fp, lsr #32
    64ec:	00540b7a 	subseq	r0, r4, sl, ror fp
    64f0:	02000000 	andeq	r0, r0, #0
    64f4:	00003423 	andeq	r3, r0, r3, lsr #8
    64f8:	a6027c06 	strge	r7, [r2], -r6, lsl #24
    64fc:	04000008 	streq	r0, [r0], #-8
    6500:	000008c8 	andeq	r0, r0, r8, asr #17
    6504:	8106040a 	tsthi	r6, sl, lsl #8
    6508:	00094f05 	andeq	r4, r9, r5, lsl #30
    650c:	54431300 	strbpl	r1, [r3], #-768	; 0xfffffd00
    6510:	82060053 	andhi	r0, r6, #83	; 0x53
    6514:	0000540f 	andeq	r5, r0, pc, lsl #8
    6518:	1f010400 	svcne	0x00010400
    651c:	10002302 	andne	r2, r0, r2, lsl #6
    6520:	00003c15 	andeq	r3, r0, r5, lsl ip
    6524:	540f8406 	strpl	r8, [pc], #-1030	; 652c <_E_text+0x5040>
    6528:	04000000 	streq	r0, [r0], #-0
    652c:	23021c01 	movwcs	r1, #11265	; 0x2c01
    6530:	38e41000 	stmiacc	r4!, {ip}^
    6534:	85060000 	strhi	r0, [r6, #-0]
    6538:	0000540f 	andeq	r5, r0, pc, lsl #8
    653c:	1b010400 	blne	47544 <_E_text+0x46058>
    6540:	10002302 	andne	r2, r0, r2, lsl #6
    6544:	000038d3 	ldrdeq	r3, [r0], -r3	; <UNPREDICTABLE>
    6548:	540f8606 	strpl	r8, [pc], #-1542	; 6550 <_E_text+0x5064>
    654c:	04000000 	streq	r0, [r0], #-0
    6550:	23021a01 	movwcs	r1, #10753	; 0x2a01
    6554:	369f1000 	ldrcc	r1, [pc], r0
    6558:	87060000 	strhi	r0, [r6, -r0]
    655c:	0000540f 	andeq	r5, r0, pc, lsl #8
    6560:	19010400 	stmdbne	r1, {sl}
    6564:	10002302 	andne	r2, r0, r2, lsl #6
    6568:	00003456 	andeq	r3, r0, r6, asr r4
    656c:	540f8806 	strpl	r8, [pc], #-2054	; 6574 <_E_text+0x5088>
    6570:	04000000 	streq	r0, [r0], #-0
    6574:	23021801 	movwcs	r1, #10241	; 0x2801
    6578:	04110000 	ldreq	r0, [r1], #-0
    657c:	71097f06 	tstvc	r9, r6, lsl #30
    6580:	12000009 	andne	r0, r0, #9
    6584:	00002728 	andeq	r2, r0, r8, lsr #14
    6588:	d9068a06 	stmdble	r6, {r1, r2, r9, fp, pc}
    658c:	12000008 	andne	r0, r0, #8
    6590:	00002b4e 	andeq	r2, r0, lr, asr #22
    6594:	540b8c06 	strpl	r8, [fp], #-3078	; 0xfffff3fa
    6598:	00000000 	andeq	r0, r0, r0
    659c:	0039d402 	eorseq	sp, r9, r2, lsl #8
    65a0:	028e0600 	addeq	r0, lr, #0, 12
    65a4:	0000094f 	andeq	r0, r0, pc, asr #18
    65a8:	00097104 	andeq	r7, r9, r4, lsl #2
    65ac:	06040a00 	streq	r0, [r4], -r0, lsl #20
    65b0:	0a2e0593 	beq	b87c04 <_E_text+0xb86718>
    65b4:	68100000 	ldmdavs	r0, {}	; <UNPREDICTABLE>
    65b8:	06000034 			; <UNDEFINED> instruction: 0x06000034
    65bc:	00540f95 			; <UNDEFINED> instruction: 0x00540f95
    65c0:	01040000 	mrseq	r0, (UNDEF: 4)
    65c4:	0023021e 	eoreq	r0, r3, lr, lsl r2
    65c8:	0038bd10 	eorseq	fp, r8, r0, lsl sp
    65cc:	0f970600 	svceq	0x00970600
    65d0:	00000054 	andeq	r0, r0, r4, asr r0
    65d4:	021b0104 	andseq	r0, fp, #4, 2
    65d8:	58100023 	ldmdapl	r0, {r0, r1, r5}
    65dc:	0600003b 			; <UNDEFINED> instruction: 0x0600003b
    65e0:	00540f98 			; <UNDEFINED> instruction: 0x00540f98
    65e4:	01040000 	mrseq	r0, (UNDEF: 4)
    65e8:	0023021a 	eoreq	r0, r3, sl, lsl r2
    65ec:	00370a10 	eorseq	r0, r7, r0, lsl sl
    65f0:	0f990600 	svceq	0x00990600
    65f4:	00000054 	andeq	r0, r0, r4, asr r0
    65f8:	02190104 	andseq	r0, r9, #4, 2
    65fc:	72100023 	andsvc	r0, r0, #35	; 0x23
    6600:	0600003a 			; <UNDEFINED> instruction: 0x0600003a
    6604:	00540f9a 			; <UNDEFINED> instruction: 0x00540f9a
    6608:	01040000 	mrseq	r0, (UNDEF: 4)
    660c:	00230218 	eoreq	r0, r3, r8, lsl r2
    6610:	0033ca10 	eorseq	ip, r3, r0, lsl sl
    6614:	0f9b0600 	svceq	0x009b0600
    6618:	00000054 	andeq	r0, r0, r4, asr r0
    661c:	02170104 	andseq	r0, r7, #4, 2
    6620:	eb100023 	bl	4066b4 <_E_text+0x4051c8>
    6624:	0600003a 			; <UNDEFINED> instruction: 0x0600003a
    6628:	00540f9c 			; <UNDEFINED> instruction: 0x00540f9c
    662c:	01040000 	mrseq	r0, (UNDEF: 4)
    6630:	00230216 	eoreq	r0, r3, r6, lsl r2
    6634:	003e6710 	eorseq	r6, lr, r0, lsl r7
    6638:	0f9d0600 	svceq	0x009d0600
    663c:	00000054 	andeq	r0, r0, r4, asr r0
    6640:	02150104 	andseq	r0, r5, #4, 2
    6644:	05100023 	ldreq	r0, [r0, #-35]	; 0xffffffdd
    6648:	06000038 			; <UNDEFINED> instruction: 0x06000038
    664c:	00540f9f 			; <UNDEFINED> instruction: 0x00540f9f
    6650:	01040000 	mrseq	r0, (UNDEF: 4)
    6654:	00230213 	eoreq	r0, r3, r3, lsl r2
    6658:	06041100 	streq	r1, [r4], -r0, lsl #2
    665c:	0a500991 	beq	1408ca8 <_E_text+0x14077bc>
    6660:	28120000 	ldmdacs	r2, {}	; <UNPREDICTABLE>
    6664:	06000027 	streq	r0, [r0], -r7, lsr #32
    6668:	098206a2 	stmibeq	r2, {r1, r5, r7, r9, sl}
    666c:	4e120000 	cdpmi	0, 1, cr0, cr2, cr0, {0}
    6670:	0600002b 	streq	r0, [r0], -fp, lsr #32
    6674:	00540ba4 	subseq	r0, r4, r4, lsr #23
    6678:	02000000 	andeq	r0, r0, #0
    667c:	00003831 	andeq	r3, r0, r1, lsr r8
    6680:	2e02a606 	cfmadd32cs	mvax0, mvfx10, mvfx2, mvfx6
    6684:	0400000a 	streq	r0, [r0], #-10
    6688:	00000a50 	andeq	r0, r0, r0, asr sl
    668c:	b906040a 	stmdblt	r6, {r1, r3, sl}
    6690:	000b4305 	andeq	r4, fp, r5, lsl #6
    6694:	34be1000 	ldrtcc	r1, [lr], #0
    6698:	ba060000 	blt	1866a0 <_E_text+0x1851b4>
    669c:	0000540b 	andeq	r5, r0, fp, lsl #8
    66a0:	1f010400 	svcne	0x00010400
    66a4:	10002302 	andne	r2, r0, r2, lsl #6
    66a8:	00003ab7 			; <UNDEFINED> instruction: 0x00003ab7
    66ac:	540bbb06 	strpl	fp, [fp], #-2822	; 0xfffff4fa
    66b0:	04000000 	streq	r0, [r0], #-0
    66b4:	23021e01 	movwcs	r1, #11777	; 0x2e01
    66b8:	3c5b1000 	mracc	r1, fp, acc0
    66bc:	bc060000 	stclt	0, cr0, [r6], {-0}
    66c0:	0000540b 	andeq	r5, r0, fp, lsl #8
    66c4:	1d010400 	cfstrsne	mvf0, [r1, #-0]
    66c8:	10002302 	andne	r2, r0, r2, lsl #6
    66cc:	00003590 	muleq	r0, r0, r5
    66d0:	540bbd06 	strpl	fp, [fp], #-3334	; 0xfffff2fa
    66d4:	04000000 	streq	r0, [r0], #-0
    66d8:	23021c01 	movwcs	r1, #11265	; 0x2c01
    66dc:	3a041000 	bcc	10a6e4 <_E_text+0x1091f8>
    66e0:	be060000 	cdplt	0, 0, cr0, cr6, cr0, {0}
    66e4:	0000540b 	andeq	r5, r0, fp, lsl #8
    66e8:	1b010400 	blne	476f0 <_E_text+0x46204>
    66ec:	10002302 	andne	r2, r0, r2, lsl #6
    66f0:	000036cc 	andeq	r3, r0, ip, asr #13
    66f4:	540bbf06 	strpl	fp, [fp], #-3846	; 0xfffff0fa
    66f8:	04000000 	streq	r0, [r0], #-0
    66fc:	23021a01 	movwcs	r1, #10753	; 0x2a01
    6700:	364c1000 	strbcc	r1, [ip], -r0
    6704:	c1060000 	mrsgt	r0, (UNDEF: 6)
    6708:	0000540b 	andeq	r5, r0, fp, lsl #8
    670c:	18010400 	stmdane	r1, {sl}
    6710:	10002302 	andne	r2, r0, r2, lsl #6
    6714:	00003b7c 	andeq	r3, r0, ip, ror fp
    6718:	540bc206 	strpl	ip, [fp], #-518	; 0xfffffdfa
    671c:	04000000 	streq	r0, [r0], #-0
    6720:	23021701 	movwcs	r1, #9985	; 0x2701
    6724:	3db11000 	ldccc	0, cr1, [r1]
    6728:	c3060000 	movwgt	r0, #24576	; 0x6000
    672c:	0000540b 	andeq	r5, r0, fp, lsl #8
    6730:	16010400 	strne	r0, [r1], -r0, lsl #8
    6734:	10002302 	andne	r2, r0, r2, lsl #6
    6738:	000034ec 	andeq	r3, r0, ip, ror #9
    673c:	540bc506 	strpl	ip, [fp], #-1286	; 0xfffffafa
    6740:	04000000 	streq	r0, [r0], #-0
    6744:	23021401 	movwcs	r1, #9217	; 0x2401
    6748:	34e61000 	strbtcc	r1, [r6], #0
    674c:	c7060000 	strgt	r0, [r6, -r0]
    6750:	0000540b 	andeq	r5, r0, fp, lsl #8
    6754:	11010400 	tstne	r1, r0, lsl #8
    6758:	10002302 	andne	r2, r0, r2, lsl #6
    675c:	00003cda 	ldrdeq	r3, [r0], -sl
    6760:	540bc806 	strpl	ip, [fp], #-2054	; 0xfffff7fa
    6764:	04000000 	streq	r0, [r0], #-0
    6768:	23021001 	movwcs	r1, #8193	; 0x2001
    676c:	04110000 	ldreq	r0, [r1], #-0
    6770:	6509b706 	strvs	fp, [r9, #-1798]	; 0xfffff8fa
    6774:	1200000b 	andne	r0, r0, #11
    6778:	00002728 	andeq	r2, r0, r8, lsr #14
    677c:	6106cb06 	tstvs	r6, r6, lsl #22
    6780:	1200000a 	andne	r0, r0, #10
    6784:	00002b4e 	andeq	r2, r0, lr, asr #22
    6788:	540bcd06 	strpl	ip, [fp], #-3334	; 0xfffff2fa
    678c:	00000000 	andeq	r0, r0, r0
    6790:	003e4c02 	eorseq	r4, lr, r2, lsl #24
    6794:	02cf0600 	sbceq	r0, pc, #0, 12
    6798:	00000b43 	andeq	r0, r0, r3, asr #22
    679c:	000b6504 	andeq	r6, fp, r4, lsl #10
    67a0:	06040a00 	streq	r0, [r4], -r0, lsl #20
    67a4:	0bfe05d4 	bleq	fff87efc <_E_BSS+0xdff86108>
    67a8:	ba100000 	blt	4067b0 <_E_text+0x4052c4>
    67ac:	0600003b 			; <UNDEFINED> instruction: 0x0600003b
    67b0:	00540dd5 	ldrsbeq	r0, [r4], #-213	; 0xffffff2b
    67b4:	01040000 	mrseq	r0, (UNDEF: 4)
    67b8:	0023021f 	eoreq	r0, r3, pc, lsl r2
    67bc:	00397910 	eorseq	r7, r9, r0, lsl r9
    67c0:	0dd60600 	ldcleq	6, cr0, [r6]
    67c4:	00000054 	andeq	r0, r0, r4, asr r0
    67c8:	021e0104 	andseq	r0, lr, #4, 2
    67cc:	ab100023 	blge	406860 <_E_text+0x405374>
    67d0:	0600003e 			; <UNDEFINED> instruction: 0x0600003e
    67d4:	00540dd7 	ldrsbeq	r0, [r4], #-215	; 0xffffff29
    67d8:	01040000 	mrseq	r0, (UNDEF: 4)
    67dc:	0023021d 	eoreq	r0, r3, sp, lsl r2
    67e0:	0033e410 	eorseq	lr, r3, r0, lsl r4
    67e4:	0dd80600 	ldcleq	6, cr0, [r8]
    67e8:	00000054 	andeq	r0, r0, r4, asr r0
    67ec:	021c0104 	andseq	r0, ip, #4, 2
    67f0:	2b100023 	blcs	406884 <_E_text+0x405398>
    67f4:	0600003a 			; <UNDEFINED> instruction: 0x0600003a
    67f8:	00540dd9 	ldrsbeq	r0, [r4], #-217	; 0xffffff27
    67fc:	01040000 	mrseq	r0, (UNDEF: 4)
    6800:	0023021b 	eoreq	r0, r3, fp, lsl r2
    6804:	0034c910 	eorseq	ip, r4, r0, lsl r9
    6808:	0dda0600 	ldcleq	6, cr0, [sl]
    680c:	00000054 	andeq	r0, r0, r4, asr r0
    6810:	02190204 	andseq	r0, r9, #4, 4	; 0x40000000
    6814:	fa100023 	blx	4068a8 <_E_text+0x4053bc>
    6818:	06000034 			; <UNDEFINED> instruction: 0x06000034
    681c:	00540ddb 	ldrsbeq	r0, [r4], #-219	; 0xffffff25
    6820:	01040000 	mrseq	r0, (UNDEF: 4)
    6824:	00230218 	eoreq	r0, r3, r8, lsl r2
    6828:	06041100 	streq	r1, [r4], -r0, lsl #2
    682c:	0c2009d2 			; <UNDEFINED> instruction: 0x0c2009d2
    6830:	28120000 	ldmdacs	r2, {}	; <UNPREDICTABLE>
    6834:	06000027 	streq	r0, [r0], -r7, lsr #32
    6838:	0b7606de 	bleq	1d883b8 <_E_text+0x1d86ecc>
    683c:	4e120000 	cdpmi	0, 1, cr0, cr2, cr0, {0}
    6840:	0600002b 	streq	r0, [r0], -fp, lsr #32
    6844:	00540be0 	subseq	r0, r4, r0, ror #23
    6848:	02000000 	andeq	r0, r0, #0
    684c:	00003df5 	strdeq	r3, [r0], -r5
    6850:	fe02e206 	cdp2	2, 0, cr14, cr2, cr6, {0}
    6854:	0400000b 	streq	r0, [r0], #-11
    6858:	00000c20 	andeq	r0, r0, r0, lsr #24
    685c:	e706040a 	str	r0, [r6, -sl, lsl #8]
    6860:	000cdd05 	andeq	sp, ip, r5, lsl #26
    6864:	358a1000 	strcc	r1, [sl]
    6868:	e9060000 	stmdb	r6, {}	; <UNPREDICTABLE>
    686c:	0000540f 	andeq	r5, r0, pc, lsl #8
    6870:	1e010400 	cfcpysne	mvf0, mvf1
    6874:	10002302 	andne	r2, r0, r2, lsl #6
    6878:	00003b1e 	andeq	r3, r0, lr, lsl fp
    687c:	540feb06 	strpl	lr, [pc], #-2822	; 6884 <_E_text+0x5398>
    6880:	04000000 	streq	r0, [r0], #-0
    6884:	23021b01 	movwcs	r1, #11009	; 0x2b01
    6888:	39ee1000 	stmibcc	lr!, {ip}^
    688c:	ec060000 	stc	0, cr0, [r6], {-0}
    6890:	0000540f 	andeq	r5, r0, pc, lsl #8
    6894:	1a010400 	bne	4789c <_E_text+0x463b0>
    6898:	10002302 	andne	r2, r0, r2, lsl #6
    689c:	00003e02 	andeq	r3, r0, r2, lsl #28
    68a0:	540fed06 	strpl	lr, [pc], #-3334	; 68a8 <_E_text+0x53bc>
    68a4:	04000000 	streq	r0, [r0], #-0
    68a8:	23021901 	movwcs	r1, #10497	; 0x2901
    68ac:	36321000 	ldrtcc	r1, [r2], -r0
    68b0:	ee060000 	cdp	0, 0, cr0, cr6, cr0, {0}
    68b4:	0000540f 	andeq	r5, r0, pc, lsl #8
    68b8:	18010400 	stmdane	r1, {sl}
    68bc:	10002302 	andne	r2, r0, r2, lsl #6
    68c0:	0000394f 	andeq	r3, r0, pc, asr #18
    68c4:	540fef06 	strpl	lr, [pc], #-3846	; 68cc <_E_text+0x53e0>
    68c8:	04000000 	streq	r0, [r0], #-0
    68cc:	23021701 	movwcs	r1, #9985	; 0x2701
    68d0:	3a481000 	bcc	120a8d8 <_E_text+0x12093ec>
    68d4:	f0060000 			; <UNDEFINED> instruction: 0xf0060000
    68d8:	0000540f 	andeq	r5, r0, pc, lsl #8
    68dc:	16010400 	strne	r0, [r1], -r0, lsl #8
    68e0:	10002302 	andne	r2, r0, r2, lsl #6
    68e4:	000037d5 	ldrdeq	r3, [r0], -r5
    68e8:	540ff106 	strpl	pc, [pc], #-262	; 68f0 <_E_text+0x5404>
    68ec:	04000000 	streq	r0, [r0], #-0
    68f0:	23021501 	movwcs	r1, #9473	; 0x2501
    68f4:	3c3b1000 	ldccc	0, cr1, [fp], #-0
    68f8:	f3060000 	vhadd.u8	d0, d6, d0
    68fc:	0000540f 	andeq	r5, r0, pc, lsl #8
    6900:	13010400 	movwne	r0, #5120	; 0x1400
    6904:	00002302 	andeq	r2, r0, r2, lsl #6
    6908:	e5060411 	str	r0, [r6, #-1041]	; 0xfffffbef
    690c:	000cff09 	andeq	pc, ip, r9, lsl #30
    6910:	27281200 	strcs	r1, [r8, -r0, lsl #4]!
    6914:	f6060000 			; <UNDEFINED> instruction: 0xf6060000
    6918:	000c3106 	andeq	r3, ip, r6, lsl #2
    691c:	2b4e1200 	blcs	138b124 <_E_text+0x1389c38>
    6920:	f8060000 			; <UNDEFINED> instruction: 0xf8060000
    6924:	0000540b 	andeq	r5, r0, fp, lsl #8
    6928:	b3020000 	movwlt	r0, #8192	; 0x2000
    692c:	06000034 			; <UNDEFINED> instruction: 0x06000034
    6930:	0cdd02fa 	lfmeq	f0, 2, [sp], {250}	; 0xfa
    6934:	ff040000 			; <UNDEFINED> instruction: 0xff040000
    6938:	0a00000c 	beq	6970 <_E_text+0x5484>
    693c:	05ff0604 	ldrbeq	r0, [pc, #1540]!	; 6f48 <_E_text+0x5a5c>
    6940:	00000dc5 	andeq	r0, r0, r5, asr #27
    6944:	00349d14 	eorseq	r9, r4, r4, lsl sp
    6948:	01020600 	tsteq	r2, r0, lsl #12
    694c:	0000540b 	andeq	r5, r0, fp, lsl #8
    6950:	1e010400 	cfcpysne	mvf0, mvf1
    6954:	14002302 	strne	r2, [r0], #-770	; 0xfffffcfe
    6958:	00003b3b 	andeq	r3, r0, fp, lsr fp
    695c:	0c010406 	cfstrseq	mvf0, [r1], {6}
    6960:	00000054 	andeq	r0, r0, r4, asr r0
    6964:	021b0104 	andseq	r0, fp, #4, 2
    6968:	ec140023 	ldc	0, cr0, [r4], {35}	; 0x23
    696c:	0600003c 			; <UNDEFINED> instruction: 0x0600003c
    6970:	540b0105 	strpl	r0, [fp], #-261	; 0xfffffefb
    6974:	04000000 	streq	r0, [r0], #-0
    6978:	23021a01 	movwcs	r1, #10753	; 0x2a01
    697c:	34791400 	ldrbtcc	r1, [r9], #-1024	; 0xfffffc00
    6980:	06060000 	streq	r0, [r6], -r0
    6984:	00540b01 	subseq	r0, r4, r1, lsl #22
    6988:	01040000 	mrseq	r0, (UNDEF: 4)
    698c:	00230219 	eoreq	r0, r3, r9, lsl r2
    6990:	00380f14 	eorseq	r0, r8, r4, lsl pc
    6994:	01070600 	tsteq	r7, r0, lsl #12
    6998:	0000540b 	andeq	r5, r0, fp, lsl #8
    699c:	18010400 	stmdane	r1, {sl}
    69a0:	14002302 	strne	r2, [r0], #-770	; 0xfffffcfe
    69a4:	000035b4 			; <UNDEFINED> instruction: 0x000035b4
    69a8:	0b010806 	bleq	489c8 <_E_text+0x474dc>
    69ac:	00000054 	andeq	r0, r0, r4, asr r0
    69b0:	02170104 	andseq	r0, r7, #4, 2
    69b4:	3f140023 	svccc	0x00140023
    69b8:	06000035 			; <UNDEFINED> instruction: 0x06000035
    69bc:	540b0109 	strpl	r0, [fp], #-265	; 0xfffffef7
    69c0:	04000000 	streq	r0, [r0], #-0
    69c4:	23021601 	movwcs	r1, #9729	; 0x2601
    69c8:	37971400 	ldrcc	r1, [r7, r0, lsl #8]
    69cc:	0a060000 	beq	1869d4 <_E_text+0x1854e8>
    69d0:	00540c01 	subseq	r0, r4, r1, lsl #24
    69d4:	01040000 	mrseq	r0, (UNDEF: 4)
    69d8:	00230215 	eoreq	r0, r3, r5, lsl r2
    69dc:	00372714 	eorseq	r2, r7, r4, lsl r7
    69e0:	010b0600 	tsteq	fp, r0, lsl #12
    69e4:	0000540b 	andeq	r5, r0, fp, lsl #8
    69e8:	14010400 	strne	r0, [r1], #-1024	; 0xfffffc00
    69ec:	00002302 	andeq	r2, r0, r2, lsl #6
    69f0:	fd060411 	stc2	4, cr0, [r6, #-68]	; 0xffffffbc
    69f4:	000de909 	andeq	lr, sp, r9, lsl #18
    69f8:	27281500 	strcs	r1, [r8, -r0, lsl #10]!
    69fc:	0d060000 	stceq	0, cr0, [r6, #-0]
    6a00:	0d100601 	ldceq	6, cr0, [r0, #-4]
    6a04:	4e150000 	cdpmi	0, 1, cr0, cr5, cr0, {0}
    6a08:	0600002b 	streq	r0, [r0], -fp, lsr #32
    6a0c:	540b010f 	strpl	r0, [fp], #-271	; 0xfffffef1
    6a10:	00000000 	andeq	r0, r0, r0
    6a14:	003a1f16 	eorseq	r1, sl, r6, lsl pc
    6a18:	01110600 	tsteq	r1, r0, lsl #12
    6a1c:	000dc502 	andeq	ip, sp, r2, lsl #10
    6a20:	0de90400 	cfstrdeq	mvd0, [r9]
    6a24:	04170000 	ldreq	r0, [r7], #-0
    6a28:	05011606 	streq	r1, [r1, #-1542]	; 0xfffff9fa
    6a2c:	00000e3f 	andeq	r0, r0, pc, lsr lr
    6a30:	0035d514 	eorseq	sp, r5, r4, lsl r5
    6a34:	01180600 	tsteq	r8, r0, lsl #12
    6a38:	0000540f 	andeq	r5, r0, pc, lsl #8
    6a3c:	1f010400 	svcne	0x00010400
    6a40:	14002302 	strne	r2, [r0], #-770	; 0xfffffcfe
    6a44:	00003d0a 	andeq	r3, r0, sl, lsl #26
    6a48:	0e011906 	vmlaeq.f16	s2, s2, s12	; <UNPREDICTABLE>
    6a4c:	00000054 	andeq	r0, r0, r4, asr r0
    6a50:	021e0104 	andseq	r0, lr, #4, 2
    6a54:	ef140023 	svc	0x00140023
    6a58:	06000035 			; <UNDEFINED> instruction: 0x06000035
    6a5c:	540e011a 	strpl	r0, [lr], #-282	; 0xfffffee6
    6a60:	04000000 	streq	r0, [r0], #-0
    6a64:	23021d01 	movwcs	r1, #11521	; 0x2d01
    6a68:	04180000 	ldreq	r0, [r8], #-0
    6a6c:	09011406 	stmdbeq	r1, {r1, r2, sl, ip}
    6a70:	00000e64 	andeq	r0, r0, r4, ror #28
    6a74:	00272815 	eoreq	r2, r7, r5, lsl r8
    6a78:	011c0600 	tsteq	ip, r0, lsl #12
    6a7c:	000dfb06 	andeq	pc, sp, r6, lsl #22
    6a80:	2b4e1500 	blcs	138be88 <_E_text+0x138a99c>
    6a84:	1e060000 	cdpne	0, 0, cr0, cr6, cr0, {0}
    6a88:	00540b01 	subseq	r0, r4, r1, lsl #22
    6a8c:	16000000 	strne	r0, [r0], -r0
    6a90:	00003c0a 	andeq	r3, r0, sl, lsl #24
    6a94:	02012006 	andeq	r2, r1, #6
    6a98:	00000e3f 	andeq	r0, r0, pc, lsr lr
    6a9c:	000e6404 	andeq	r6, lr, r4, lsl #8
    6aa0:	06041700 	streq	r1, [r4], -r0, lsl #14
    6aa4:	a7050124 	strge	r0, [r5, -r4, lsr #2]
    6aa8:	1400000e 	strne	r0, [r0], #-14
    6aac:	0000365b 	andeq	r3, r0, fp, asr r6
    6ab0:	0f012506 	svceq	0x00012506
    6ab4:	00000054 	andeq	r0, r0, r4, asr r0
    6ab8:	021d0304 	andseq	r0, sp, #4, 6	; 0x10000000
    6abc:	16140023 	ldrne	r0, [r4], -r3, lsr #32
    6ac0:	0600003a 			; <UNDEFINED> instruction: 0x0600003a
    6ac4:	540f0126 	strpl	r0, [pc], #-294	; 6acc <_E_text+0x55e0>
    6ac8:	04000000 	streq	r0, [r0], #-0
    6acc:	23021a03 	movwcs	r1, #10755	; 0x2a03
    6ad0:	04180000 	ldreq	r0, [r8], #-0
    6ad4:	09012206 	stmdbeq	r1, {r1, r2, r9, sp}
    6ad8:	00000ecc 	andeq	r0, r0, ip, asr #29
    6adc:	00272815 	eoreq	r2, r7, r5, lsl r8
    6ae0:	01280600 			; <UNDEFINED> instruction: 0x01280600
    6ae4:	000e7606 	andeq	r7, lr, r6, lsl #12
    6ae8:	2b4e1500 	blcs	138bef0 <_E_text+0x138aa04>
    6aec:	2a060000 	bcs	186af4 <_E_text+0x185608>
    6af0:	00540b01 	subseq	r0, r4, r1, lsl #22
    6af4:	16000000 	strne	r0, [r0], -r0
    6af8:	000036fd 	strdeq	r3, [r0], -sp
    6afc:	02012c06 	andeq	r2, r1, #1536	; 0x600
    6b00:	00000ea7 	andeq	r0, r0, r7, lsr #29
    6b04:	000ecc04 	andeq	ip, lr, r4, lsl #24
    6b08:	01070700 	tsteq	r7, r0, lsl #14
    6b0c:	00000033 	andeq	r0, r0, r3, lsr r0
    6b10:	170d2a07 	strne	r2, [sp, -r7, lsl #20]
    6b14:	0800000f 	stmdaeq	r0, {r0, r1, r2, r3}
    6b18:	00001d32 	andeq	r1, r0, r2, lsr sp
    6b1c:	1d390800 	ldcne	8, cr0, [r9, #-0]
    6b20:	08010000 	stmdaeq	r1, {}	; <UNPREDICTABLE>
    6b24:	00001d40 	andeq	r1, r0, r0, asr #26
    6b28:	1d470802 	stclne	8, cr0, [r7, #-8]
    6b2c:	08030000 	stmdaeq	r3, {}	; <UNPREDICTABLE>
    6b30:	00001d4e 	andeq	r1, r0, lr, asr #26
    6b34:	1d550804 	ldclne	8, cr0, [r5, #-16]
    6b38:	08050000 	stmdaeq	r5, {}	; <UNPREDICTABLE>
    6b3c:	00001d78 	andeq	r1, r0, r8, ror sp
    6b40:	e7020006 	str	r0, [r2, -r6]
    6b44:	0700001e 	smladeq	r0, lr, r0, r0
    6b48:	0ede0232 	mrceq	2, 6, r0, cr14, cr2, {1}
    6b4c:	07070000 	streq	r0, [r7, -r0]
    6b50:	00003301 	andeq	r3, r0, r1, lsl #6
    6b54:	0d350700 	ldceq	7, cr0, [r5, #-0]
    6b58:	00000f44 	andeq	r0, r0, r4, asr #30
    6b5c:	001d5c08 	andseq	r5, sp, r8, lsl #24
    6b60:	00080000 	andeq	r0, r8, r0
    6b64:	0100001e 	tsteq	r0, lr, lsl r0
    6b68:	00209308 	eoreq	r9, r0, r8, lsl #6
    6b6c:	02000200 	andeq	r0, r0, #0, 4
    6b70:	00002197 	muleq	r0, r7, r1
    6b74:	23023907 	movwcs	r3, #10503	; 0x2907
    6b78:	0700000f 	streq	r0, [r0, -pc]
    6b7c:	00330107 	eorseq	r0, r3, r7, lsl #2
    6b80:	3c070000 	stccc	0, cr0, [r7], {-0}
    6b84:	000f6b0d 	andeq	r6, pc, sp, lsl #22
    6b88:	22d30800 	sbcscs	r0, r3, #0, 16
    6b8c:	08000000 	stmdaeq	r0, {}	; <UNPREDICTABLE>
    6b90:	000022e3 	andeq	r2, r0, r3, ror #5
    6b94:	ab020008 	blge	86bbc <_E_text+0x856d0>
    6b98:	0700001f 	smladeq	r0, pc, r0, r0	; <UNPREDICTABLE>
    6b9c:	0f50023f 	svceq	0x0050023f
    6ba0:	07070000 	streq	r0, [r7, -r0]
    6ba4:	00003301 	andeq	r3, r0, r1, lsl #6
    6ba8:	0d420700 	stcleq	7, cr0, [r2, #-0]
    6bac:	00000fa4 	andeq	r0, r0, r4, lsr #31
    6bb0:	0022ca08 	eoreq	ip, r2, r8, lsl #20
    6bb4:	72080000 	andvc	r0, r8, #0
    6bb8:	01000022 	tsteq	r0, r2, lsr #32
    6bbc:	0022da08 	eoreq	sp, r2, r8, lsl #20
    6bc0:	b6080200 	strlt	r0, [r8], -r0, lsl #4
    6bc4:	03000020 	movweq	r0, #32
    6bc8:	001fdc08 	andseq	sp, pc, r8, lsl #24
    6bcc:	02000400 	andeq	r0, r0, #0, 8
    6bd0:	0000235b 	andeq	r2, r0, fp, asr r3
    6bd4:	77024807 	strvc	r4, [r2, -r7, lsl #16]
    6bd8:	0700000f 	streq	r0, [r0, -pc]
    6bdc:	02ff0407 	rscseq	r0, pc, #117440512	; 0x7000000
    6be0:	71070000 	mrsvc	r0, (UNDEF: 7)
    6be4:	000fd50f 	andeq	sp, pc, pc, lsl #10
    6be8:	23371900 	teqcs	r7, #0, 18
    6bec:	03e80000 	mvneq	r0, #0
    6bf0:	0021dc1a 	eoreq	sp, r1, sl, lsl ip
    6bf4:	0f424000 	svceq	0x00424000
    6bf8:	65531b00 	ldrbvs	r1, [r3, #-2816]	; 0xfffff500
    6bfc:	00010063 	andeq	r0, r1, r3, rrx
    6c00:	7a07040a 	bvc	1c7c30 <_E_text+0x1c6744>
    6c04:	00101b0a 	andseq	r1, r0, sl, lsl #22
    6c08:	24180b00 	ldrcs	r0, [r8], #-2816	; 0xfffff500
    6c0c:	7b070000 	blvc	1c6c14 <_E_text+0x1c5728>
    6c10:	000f441e 	andeq	r4, pc, lr, lsl r4	; <UNPREDICTABLE>
    6c14:	00230200 	eoreq	r0, r3, r0, lsl #4
    6c18:	00242a0b 	eoreq	r2, r4, fp, lsl #20
    6c1c:	1f7c0700 	svcne	0x007c0700
    6c20:	00000f6b 	andeq	r0, r0, fp, ror #30
    6c24:	0b012302 	bleq	4f834 <_E_text+0x4e348>
    6c28:	0000205b 	andeq	r2, r0, fp, asr r0
    6c2c:	a4227d07 	strtge	r7, [r2], #-3335	; 0xfffff2f9
    6c30:	0200000f 	andeq	r0, r0, #15
    6c34:	cb0b0223 	blgt	2c74c8 <_E_text+0x2c5fdc>
    6c38:	0700001e 	smladeq	r0, lr, r0, r0
    6c3c:	0f171c7e 	svceq	0x00171c7e
    6c40:	23020000 	movwcs	r0, #8192	; 0x2000
    6c44:	d50c0003 	strle	r0, [ip, #-3]
    6c48:	0200000f 	andeq	r0, r0, #15
    6c4c:	00002114 	andeq	r2, r0, r4, lsl r1
    6c50:	1b098007 	blne	266c74 <_E_text+0x265788>
    6c54:	0d000010 	stceq	0, cr0, [r0, #-64]	; 0xffffffc0
    6c58:	0000103c 	andeq	r1, r0, ip, lsr r0
    6c5c:	0000103c 	andeq	r1, r0, ip, lsr r0
    6c60:	0002ff0e 	andeq	pc, r2, lr, lsl #30
    6c64:	05000b00 	streq	r0, [r0, #-2816]	; 0xfffff500
    6c68:	00102004 	andseq	r2, r0, r4
    6c6c:	24f10f00 	ldrbtcs	r0, [r1], #3840	; 0xf00
    6c70:	82070000 	andhi	r0, r7, #0
    6c74:	00102c27 	andseq	r2, r0, r7, lsr #24
    6c78:	0d010100 	stfeqs	f0, [r1, #-0]
    6c7c:	00000033 	andeq	r0, r0, r3, lsr r0
    6c80:	00001061 	andeq	r1, r0, r1, rrx
    6c84:	0002ff1c 	andeq	pc, r2, ip, lsl pc	; <UNPREDICTABLE>
    6c88:	0003ff00 	andeq	pc, r3, r0, lsl #30
    6c8c:	0000ff0f 	andeq	pc, r0, pc, lsl #30
    6c90:	160a0800 	strne	r0, [sl], -r0, lsl #16
    6c94:	00001050 	andeq	r1, r0, r0, asr r0
    6c98:	391d0101 	ldmdbcc	sp, {r0, r8}
    6c9c:	01000005 	tsteq	r0, r5
    6ca0:	003a1b20 	eorseq	r1, sl, r0, lsr #22
    6ca4:	05010000 	streq	r0, [r1, #-0]
    6ca8:	001d5003 	andseq	r5, sp, r3
    6cac:	08e81d20 	stmiaeq	r8!, {r5, r8, sl, fp, ip}^
    6cb0:	21010000 	mrscs	r0, (UNDEF: 1)
    6cb4:	00003a1a 	andeq	r3, r0, sl, lsl sl
    6cb8:	03050100 	movweq	r0, #20736	; 0x5100
    6cbc:	20001d51 	andcs	r1, r0, r1, asr sp
    6cc0:	0000270d 	andeq	r2, r0, sp, lsl #14
    6cc4:	0010a500 	andseq	sl, r0, r0, lsl #10
    6cc8:	02ff0e00 	rscseq	r0, pc, #0, 28
    6ccc:	00070000 	andeq	r0, r7, r0
    6cd0:	003e951d 	eorseq	r9, lr, sp, lsl r5
    6cd4:	09540100 	ldmdbeq	r4, {r8}^
    6cd8:	00001095 	muleq	r0, r5, r0
    6cdc:	00030501 	andeq	r0, r3, r1, lsl #10
    6ce0:	0d000000 	stceq	0, cr0, [r0, #-0]
    6ce4:	0000008f 	andeq	r0, r0, pc, lsl #1
    6ce8:	000010c8 	andeq	r1, r0, r8, asr #1
    6cec:	0002ff0e 	andeq	pc, r2, lr, lsl #30
    6cf0:	04000400 	streq	r0, [r0], #-1024	; 0xfffffc00
    6cf4:	000010b8 	strheq	r1, [r0], -r8
    6cf8:	003bee1e 	eorseq	lr, fp, lr, lsl lr
    6cfc:	26750100 	ldrbtcs	r0, [r5], -r0, lsl #2
    6d00:	000010c8 	andeq	r1, r0, r8, asr #1
    6d04:	1d540305 	ldclne	3, cr0, [r4, #-20]	; 0xffffffec
    6d08:	1e1e2000 	cdpne	0, 1, cr2, cr14, cr0, {0}
    6d0c:	0100003e 	tsteq	r0, lr, lsr r0
    6d10:	10c82676 	sbcne	r2, r8, r6, ror r6
    6d14:	03050000 	movweq	r0, #20480	; 0x5000
    6d18:	20001d68 	andcs	r1, r0, r8, ror #26
    6d1c:	0035a51e 	eorseq	sl, r5, lr, lsl r5
    6d20:	26770100 	ldrbtcs	r0, [r7], -r0, lsl #2
    6d24:	000010c8 	andeq	r1, r0, r8, asr #1
    6d28:	1d7c0305 	ldclne	3, cr0, [ip, #-20]!	; 0xffffffec
    6d2c:	961e2000 	ldrls	r2, [lr], -r0
    6d30:	01000035 	tsteq	r0, r5, lsr r0
    6d34:	10c82678 	sbcne	r2, r8, r8, ror r6
    6d38:	03050000 	movweq	r0, #20480	; 0x5000
    6d3c:	20001d90 	mulcs	r0, r0, sp
    6d40:	0034a41e 	eorseq	sl, r4, lr, lsl r4
    6d44:	26790100 	ldrbtcs	r0, [r9], -r0, lsl #2
    6d48:	000010c8 	andeq	r1, r0, r8, asr #1
    6d4c:	1da40305 	stcne	3, cr0, [r4, #20]!
    6d50:	581e2000 	ldmdapl	lr, {sp}
    6d54:	0100003e 	tsteq	r0, lr, lsr r0
    6d58:	10c8267a 	sbcne	r2, r8, sl, ror r6
    6d5c:	03050000 	movweq	r0, #20480	; 0x5000
    6d60:	20001db8 			; <UNDEFINED> instruction: 0x20001db8
    6d64:	0035e01e 	eorseq	lr, r5, lr, lsl r0
    6d68:	267b0100 	ldrbtcs	r0, [fp], -r0, lsl #2
    6d6c:	000010c8 	andeq	r1, r0, r8, asr #1
    6d70:	1dcc0305 	stclne	3, cr0, [ip, #20]
    6d74:	9a1e2000 	bls	78ed7c <_E_text+0x78d890>
    6d78:	0100003b 	tsteq	r0, fp, lsr r0
    6d7c:	10c8267c 	sbcne	r2, r8, ip, ror r6
    6d80:	03050000 	movweq	r0, #20480	; 0x5000
    6d84:	20001de0 	andcs	r1, r0, r0, ror #27
    6d88:	0011780d 	andseq	r7, r1, sp, lsl #16
    6d8c:	00116d00 	andseq	r6, r1, r0, lsl #26
    6d90:	02ff0e00 	rscseq	r0, pc, #0, 28
    6d94:	00070000 	andeq	r0, r7, r0
    6d98:	00115d0c 	andseq	r5, r1, ip, lsl #26
    6d9c:	d4040500 	strle	r0, [r4], #-1280	; 0xfffffb00
    6da0:	0c000008 	stceq	0, cr0, [r0], {8}
    6da4:	00001172 	andeq	r1, r0, r2, ror r1
    6da8:	00393c1e 	eorseq	r3, r9, lr, lsl ip
    6dac:	29940100 	ldmibcs	r4, {r8}
    6db0:	0000116d 	andeq	r1, r0, sp, ror #2
    6db4:	07340305 	ldreq	r0, [r4, -r5, lsl #6]!
    6db8:	aa0d0000 	bge	346dc0 <_E_text+0x3458d4>
    6dbc:	9f000011 	svcls	0x00000011
    6dc0:	0e000011 	mcreq	0, 0, r0, cr0, cr1, {0}
    6dc4:	000002ff 	strdeq	r0, [r0], -pc	; <UNPREDICTABLE>
    6dc8:	8f0c0007 	svchi	0x000c0007
    6dcc:	05000011 	streq	r0, [r0, #-17]	; 0xffffffef
    6dd0:	00097d04 	andeq	r7, r9, r4, lsl #26
    6dd4:	11a40c00 			; <UNDEFINED> instruction: 0x11a40c00
    6dd8:	1f1d0000 	svcne	0x001d0000
    6ddc:	01000036 	tsteq	r0, r6, lsr r0
    6de0:	119f21b7 			; <UNDEFINED> instruction: 0x119f21b7
    6de4:	05010000 	streq	r0, [r1, #-0]
    6de8:	00075403 	andeq	r5, r7, r3, lsl #8
    6dec:	11dd0d00 	bicsne	r0, sp, r0, lsl #26
    6df0:	11d20000 	bicsne	r0, r2, r0
    6df4:	ff0e0000 			; <UNDEFINED> instruction: 0xff0e0000
    6df8:	07000002 	streq	r0, [r0, -r2]
    6dfc:	11c20c00 	bicne	r0, r2, r0, lsl #24
    6e00:	04050000 	streq	r0, [r5], #-0
    6e04:	00000a5c 	andeq	r0, r0, ip, asr sl
    6e08:	0011d70c 	andseq	sp, r1, ip, lsl #14
    6e0c:	37461d00 	strbcc	r1, [r6, -r0, lsl #26]
    6e10:	db010000 	blle	46e18 <_E_text+0x4592c>
    6e14:	0011d222 	andseq	sp, r1, r2, lsr #4
    6e18:	03050100 	movweq	r0, #20736	; 0x5100
    6e1c:	00000774 	andeq	r0, r0, r4, ror r7
    6e20:	0012100d 	andseq	r1, r2, sp
    6e24:	00120500 	andseq	r0, r2, r0, lsl #10
    6e28:	02ff0e00 	rscseq	r0, pc, #0, 28
    6e2c:	00070000 	andeq	r0, r7, r0
    6e30:	0011f50c 	andseq	pc, r1, ip, lsl #10
    6e34:	1f040500 	svcne	0x00040500
    6e38:	0c000007 	stceq	0, cr0, [r0], {7}
    6e3c:	0000120a 	andeq	r1, r0, sl, lsl #4
    6e40:	003d781e 	eorseq	r7, sp, lr, lsl r8
    6e44:	29fe0100 	ldmibcs	lr!, {r8}^
    6e48:	00001205 	andeq	r1, r0, r5, lsl #4
    6e4c:	07940305 	ldreq	r0, [r4, r5, lsl #6]
    6e50:	420d0000 	andmi	r0, sp, #0
    6e54:	37000012 	smladcc	r0, r2, r0, r0
    6e58:	0e000012 	mcreq	0, 0, r0, cr0, cr2, {0}
    6e5c:	000002ff 	strdeq	r0, [r0], -pc	; <UNPREDICTABLE>
    6e60:	270c0007 	strcs	r0, [ip, -r7]
    6e64:	05000012 	streq	r0, [r0, #-18]	; 0xffffffee
    6e68:	00078004 	andeq	r8, r7, r4
    6e6c:	123c0c00 	eorsne	r0, ip, #0, 24
    6e70:	141f0000 	ldrne	r0, [pc], #-0	; 6e78 <_E_text+0x598c>
    6e74:	01000039 	tsteq	r0, r9, lsr r0
    6e78:	37290121 	strcc	r0, [r9, -r1, lsr #2]!
    6e7c:	05000012 	streq	r0, [r0, #-18]	; 0xffffffee
    6e80:	0007b403 	andeq	fp, r7, r3, lsl #8
    6e84:	12750d00 	rsbsne	r0, r5, #0, 26
    6e88:	126a0000 	rsbne	r0, sl, #0
    6e8c:	ff0e0000 			; <UNDEFINED> instruction: 0xff0e0000
    6e90:	07000002 	streq	r0, [r0, -r2]
    6e94:	125a0c00 	subsne	r0, sl, #0, 24
    6e98:	04050000 	streq	r0, [r5], #-0
    6e9c:	000007e1 	andeq	r0, r0, r1, ror #15
    6ea0:	00126f0c 	andseq	r6, r2, ip, lsl #30
    6ea4:	36dc1f00 	ldrbcc	r1, [ip], r0, lsl #30
    6ea8:	44010000 	strmi	r0, [r1], #-0
    6eac:	126a2701 	rsbne	r2, sl, #262144	; 0x40000
    6eb0:	03050000 	movweq	r0, #20480	; 0x5000
    6eb4:	000007d4 	ldrdeq	r0, [r0], -r4
    6eb8:	0012a80d 	andseq	sl, r2, sp, lsl #16
    6ebc:	00129d00 	andseq	r9, r2, r0, lsl #26
    6ec0:	02ff0e00 	rscseq	r0, pc, #0, 28
    6ec4:	00070000 	andeq	r0, r7, r0
    6ec8:	00128d0c 	andseq	r8, r2, ip, lsl #26
    6ecc:	71040500 	tstvc	r4, r0, lsl #10
    6ed0:	0c00000b 	stceq	0, cr0, [r0], {11}
    6ed4:	000012a2 	andeq	r1, r0, r2, lsr #5
    6ed8:	0037ef1f 	eorseq	lr, r7, pc, lsl pc
    6edc:	01640100 	cmneq	r4, r0, lsl #2
    6ee0:	00129d28 	andseq	r9, r2, r8, lsr #26
    6ee4:	f4030500 	vst3.8	{d0,d2,d4}, [r3], r0
    6ee8:	0d000007 	stceq	0, cr0, [r0, #-28]	; 0xffffffe4
    6eec:	000012db 	ldrdeq	r1, [r0], -fp
    6ef0:	000012d0 	ldrdeq	r1, [r0], -r0
    6ef4:	0002ff0e 	andeq	pc, r2, lr, lsl #30
    6ef8:	0c000700 	stceq	7, cr0, [r0], {-0}
    6efc:	000012c0 	andeq	r1, r0, r0, asr #5
    6f00:	0c2c0405 	cfstrseq	mvf0, [ip], #-20	; 0xffffffec
    6f04:	d50c0000 	strle	r0, [ip, #-0]
    6f08:	1f000012 	svcne	0x00000012
    6f0c:	00003b04 	andeq	r3, r0, r4, lsl #22
    6f10:	28018501 	stmdacs	r1, {r0, r8, sl, pc}
    6f14:	000012d0 	ldrdeq	r1, [r0], -r0
    6f18:	08140305 	ldmdaeq	r4, {r0, r2, r8, r9}
    6f1c:	0e0d0000 	cdpeq	0, 0, cr0, cr13, cr0, {0}
    6f20:	03000013 	movweq	r0, #19
    6f24:	0e000013 	mcreq	0, 0, r0, cr0, cr3, {0}
    6f28:	000002ff 	strdeq	r0, [r0], -pc	; <UNPREDICTABLE>
    6f2c:	f30c0007 	vhadd.u8	d0, d12, d7
    6f30:	05000012 	streq	r0, [r0, #-18]	; 0xffffffee
    6f34:	000d0b04 	andeq	r0, sp, r4, lsl #22
    6f38:	13080c00 	movwne	r0, #35840	; 0x8c00
    6f3c:	cf1f0000 	svcgt	0x001f0000
    6f40:	0100003a 	tsteq	r0, sl, lsr r0
    6f44:	032701a7 			; <UNDEFINED> instruction: 0x032701a7
    6f48:	05000013 	streq	r0, [r0, #-19]	; 0xffffffed
    6f4c:	00083403 	andeq	r3, r8, r3, lsl #8
    6f50:	13410d00 	movtne	r0, #7424	; 0x1d00
    6f54:	13360000 	teqne	r6, #0
    6f58:	ff0e0000 			; <UNDEFINED> instruction: 0xff0e0000
    6f5c:	07000002 	streq	r0, [r0, -r2]
    6f60:	13260c00 			; <UNDEFINED> instruction: 0x13260c00
    6f64:	04050000 	streq	r0, [r5], #-0
    6f68:	00000df6 	strdeq	r0, [r0], -r6
    6f6c:	00133b0c 	andseq	r3, r3, ip, lsl #22
    6f70:	36641f00 	strbtcc	r1, [r4], -r0, lsl #30
    6f74:	c8010000 	stmdagt	r1, {}	; <UNPREDICTABLE>
    6f78:	13362701 	teqne	r6, #262144	; 0x40000
    6f7c:	03050000 	movweq	r0, #20480	; 0x5000
    6f80:	00000854 	andeq	r0, r0, r4, asr r8
    6f84:	0013740d 	andseq	r7, r3, sp, lsl #8
    6f88:	00136900 	andseq	r6, r3, r0, lsl #18
    6f8c:	02ff0e00 	rscseq	r0, pc, #0, 28
    6f90:	00070000 	andeq	r0, r7, r0
    6f94:	0013590c 	andseq	r5, r3, ip, lsl #18
    6f98:	71040500 	tstvc	r4, r0, lsl #10
    6f9c:	0c00000e 	stceq	0, cr0, [r0], {14}
    6fa0:	0000136e 	andeq	r1, r0, lr, ror #6
    6fa4:	003a9e1f 	eorseq	r9, sl, pc, lsl lr
    6fa8:	01d30100 	bicseq	r0, r3, r0, lsl #2
    6fac:	00136925 	andseq	r6, r3, r5, lsr #18
    6fb0:	74030500 	strvc	r0, [r3], #-1280	; 0xfffffb00
    6fb4:	0d000008 	stceq	0, cr0, [r0, #-32]	; 0xffffffe0
    6fb8:	000013a7 	andeq	r1, r0, r7, lsr #7
    6fbc:	0000139c 	muleq	r0, ip, r3
    6fc0:	0002ff0e 	andeq	pc, r2, lr, lsl #30
    6fc4:	0c000700 	stceq	7, cr0, [r0], {-0}
    6fc8:	0000138c 	andeq	r1, r0, ip, lsl #7
    6fcc:	0ed90405 	cdpeq	4, 13, cr0, cr9, cr5, {0}
    6fd0:	a10c0000 	mrsge	r0, (UNDEF: 12)
    6fd4:	1f000013 	svcne	0x00000013
    6fd8:	00003870 	andeq	r3, r0, r0, ror r8
    6fdc:	2501df01 	strcs	sp, [r1, #-3841]	; 0xfffff0ff
    6fe0:	0000139c 	muleq	r0, ip, r3
    6fe4:	08940305 	ldmeq	r4, {r0, r2, r8, r9}
    6fe8:	01200000 			; <UNDEFINED> instruction: 0x01200000
    6fec:	00003cac 	andeq	r3, r0, ip, lsr #25
    6ff0:	0a050701 	beq	148bfc <_E_text+0x147710>
    6ff4:	00000001 	andeq	r0, r0, r1
    6ff8:	00000000 	andeq	r0, r0, r0
    6ffc:	001c0c00 	andseq	r0, ip, r0, lsl #24
    7000:	13fc0100 	mvnsne	r0, #0, 2
    7004:	a1210000 			; <UNDEFINED> instruction: 0xa1210000
    7008:	01000032 	tsteq	r0, r2, lsr r0
    700c:	413d0507 	teqmi	sp, r7, lsl #10
    7010:	02000001 	andeq	r0, r0, #1
    7014:	81217791 			; <UNDEFINED> instruction: 0x81217791
    7018:	01000008 	tsteq	r0, r8
    701c:	83520507 	cmphi	r2, #29360128	; 0x1c00000
    7020:	02000000 	andeq	r0, r0, #0
    7024:	20007091 	mulcs	r0, r1, r0
    7028:	003d1c01 	eorseq	r1, sp, r1, lsl #24
    702c:	05020100 	streq	r0, [r2, #-256]	; 0xffffff00
    7030:	0000010a 	andeq	r0, r0, sl, lsl #2
    7034:	00000000 	andeq	r0, r0, r0
    7038:	1c680000 	stclne	0, cr0, [r8], #-0
    703c:	39010000 	stmdbcc	r1, {}	; <UNPREDICTABLE>
    7040:	21000014 	tstcs	r0, r4, lsl r0
    7044:	000032a1 	andeq	r3, r0, r1, lsr #5
    7048:	3d050201 	sfmcc	f0, 4, [r5, #-4]
    704c:	00000141 	andeq	r0, r0, r1, asr #2
    7050:	21779102 	cmncs	r7, r2, lsl #2
    7054:	00000881 	andeq	r0, r0, r1, lsl #17
    7058:	52050201 	andpl	r0, r5, #268435456	; 0x10000000
    705c:	00000083 	andeq	r0, r0, r3, lsl #1
    7060:	00709102 	rsbseq	r9, r0, r2, lsl #2
    7064:	3e2d0120 	sufccep	f0, f5, f0
    7068:	fd010000 	stc2	0, cr0, [r1, #-0]
    706c:	00010a04 	andeq	r0, r1, r4, lsl #20
    7070:	00000000 	andeq	r0, r0, r0
    7074:	c4000000 	strgt	r0, [r0], #-0
    7078:	0100001c 	tsteq	r0, ip, lsl r0
    707c:	00001476 	andeq	r1, r0, r6, ror r4
    7080:	0032a121 	eorseq	sl, r2, r1, lsr #2
    7084:	04fd0100 	ldrbteq	r0, [sp], #256	; 0x100
    7088:	0001413d 	andeq	r4, r1, sp, lsr r1
    708c:	77910200 	ldrvc	r0, [r1, r0, lsl #4]
    7090:	00088121 	andeq	r8, r8, r1, lsr #2
    7094:	04fd0100 	ldrbteq	r0, [sp], #256	; 0x100
    7098:	00008352 	andeq	r8, r0, r2, asr r3
    709c:	70910200 	addsvc	r0, r1, r0, lsl #4
    70a0:	9e012000 	cdpls	0, 0, cr2, cr1, cr0, {0}
    70a4:	01000038 	tsteq	r0, r8, lsr r0
    70a8:	010a04f8 	strdeq	r0, [sl, -r8]
	...
    70b4:	00001d20 	andeq	r1, r0, r0, lsr #26
    70b8:	0014b301 	andseq	fp, r4, r1, lsl #6
    70bc:	32a12100 	adccc	r2, r1, #0, 2
    70c0:	f8010000 			; <UNDEFINED> instruction: 0xf8010000
    70c4:	01413d04 	cmpeq	r1, r4, lsl #26
    70c8:	91020000 	mrsls	r0, (UNDEF: 2)
    70cc:	08812177 	stmeq	r1, {r0, r1, r2, r4, r5, r6, r8, sp}
    70d0:	f8010000 			; <UNDEFINED> instruction: 0xf8010000
    70d4:	00835204 	addeq	r5, r3, r4, lsl #4
    70d8:	91020000 	mrsls	r0, (UNDEF: 2)
    70dc:	01200070 			; <UNDEFINED> instruction: 0x01200070
    70e0:	0000355f 	andeq	r3, r0, pc, asr r5
    70e4:	0a04f301 	beq	143cf0 <_E_text+0x142804>
    70e8:	00000001 	andeq	r0, r0, r1
    70ec:	00000000 	andeq	r0, r0, r0
    70f0:	001d7c00 	andseq	r7, sp, r0, lsl #24
    70f4:	14f00100 	ldrbtne	r0, [r0], #256	; 0x100
    70f8:	a1210000 			; <UNDEFINED> instruction: 0xa1210000
    70fc:	01000032 	tsteq	r0, r2, lsr r0
    7100:	413d04f3 	teqmi	sp, r3	; <illegal shifter operand>
    7104:	02000001 	andeq	r0, r0, #1
    7108:	81217791 			; <UNDEFINED> instruction: 0x81217791
    710c:	01000008 	tsteq	r0, r8
    7110:	835204f3 	cmphi	r2, #-218103808	; 0xf3000000
    7114:	02000000 	andeq	r0, r0, #0
    7118:	20007091 	mulcs	r0, r1, r0
    711c:	00360001 	eorseq	r0, r6, r1
    7120:	04ee0100 	strbteq	r0, [lr], #256	; 0x100
    7124:	0000010a 	andeq	r0, r0, sl, lsl #2
    7128:	00000000 	andeq	r0, r0, r0
    712c:	1dd80000 	ldclne	0, cr0, [r8]
    7130:	2d010000 	stccs	0, cr0, [r1, #-0]
    7134:	21000015 	tstcs	r0, r5, lsl r0
    7138:	000032a1 	andeq	r3, r0, r1, lsr #5
    713c:	3d04ee01 	stccc	14, cr14, [r4, #-4]
    7140:	00000141 	andeq	r0, r0, r1, asr #2
    7144:	21779102 	cmncs	r7, r2, lsl #2
    7148:	00000881 	andeq	r0, r0, r1, lsl #17
    714c:	5204ee01 	andpl	lr, r4, #1, 28
    7150:	00000083 	andeq	r0, r0, r3, lsl #1
    7154:	00709102 	rsbseq	r9, r0, r2, lsl #2
    7158:	38510120 	ldmdacc	r1, {r5, r8}^
    715c:	e9010000 	stmdb	r1, {}	; <UNPREDICTABLE>
    7160:	00010a04 	andeq	r0, r1, r4, lsl #20
    7164:	00000000 	andeq	r0, r0, r0
    7168:	34000000 	strcc	r0, [r0], #-0
    716c:	0100001e 	tsteq	r0, lr, lsl r0
    7170:	0000156a 	andeq	r1, r0, sl, ror #10
    7174:	0032a121 	eorseq	sl, r2, r1, lsr #2
    7178:	04e90100 	strbteq	r0, [r9], #256	; 0x100
    717c:	0001413d 	andeq	r4, r1, sp, lsr r1
    7180:	77910200 	ldrvc	r0, [r1, r0, lsl #4]
    7184:	00088121 	andeq	r8, r8, r1, lsr #2
    7188:	04e90100 	strbteq	r0, [r9], #256	; 0x100
    718c:	00008352 	andeq	r8, r0, r2, asr r3
    7190:	70910200 	addsvc	r0, r1, r0, lsl #4
    7194:	f5012000 			; <UNDEFINED> instruction: 0xf5012000
    7198:	01000038 	tsteq	r0, r8, lsr r0
    719c:	010a04e3 	smlatteq	sl, r3, r4, r0
	...
    71a8:	00001e90 	muleq	r0, r0, lr
    71ac:	0015a701 	andseq	sl, r5, r1, lsl #14
    71b0:	32a12100 	adccc	r2, r1, #0, 2
    71b4:	e3010000 	movw	r0, #4096	; 0x1000
    71b8:	01413d04 	cmpeq	r1, r4, lsl #26
    71bc:	91020000 	mrsls	r0, (UNDEF: 2)
    71c0:	08812177 	stmeq	r1, {r0, r1, r2, r4, r5, r6, r8, sp}
    71c4:	e3010000 	movw	r0, #4096	; 0x1000
    71c8:	00835204 	addeq	r5, r3, r4, lsl #4
    71cc:	91020000 	mrsls	r0, (UNDEF: 2)
    71d0:	01220070 			; <UNDEFINED> instruction: 0x01220070
    71d4:	00003dbf 			; <UNDEFINED> instruction: 0x00003dbf
    71d8:	0a04bd01 	beq	1365e4 <_E_text+0x1350f8>
    71dc:	00000001 	andeq	r0, r0, r1
    71e0:	00000000 	andeq	r0, r0, r0
    71e4:	001eec00 	andseq	lr, lr, r0, lsl #24
    71e8:	15e40100 	strbne	r0, [r4, #256]!	; 0x100
    71ec:	99210000 	stmdbls	r1!, {}	; <UNPREDICTABLE>
    71f0:	01000038 	tsteq	r0, r8, lsr r0
    71f4:	e42604bd 	strt	r0, [r6], #-1213	; 0xfffffb43
    71f8:	02000015 	andeq	r0, r0, #21
    71fc:	33217491 			; <UNDEFINED> instruction: 0x33217491
    7200:	0100003b 	tsteq	r0, fp, lsr r0
    7204:	db3a04bd 	blle	e88500 <_E_text+0xe87014>
    7208:	02000000 	andeq	r0, r0, #0
    720c:	05007391 	streq	r7, [r0, #-913]	; 0xfffffc6f
    7210:	0015ea04 	andseq	lr, r5, r4, lsl #20
    7214:	08010300 	stmdaeq	r1, {r8, r9}
    7218:	00000d1d 	andeq	r0, r0, sp, lsl sp
    721c:	3bc40122 	blcc	ff1076ac <_E_BSS+0xdf1058b8>
    7220:	b2010000 	andlt	r0, r1, #0
    7224:	00010b04 	andeq	r0, r1, r4, lsl #22
    7228:	00000000 	andeq	r0, r0, r0
    722c:	3c000000 	stccc	0, cr0, [r0], {-0}
    7230:	0100001f 	tsteq	r0, pc, lsl r0
    7234:	0000162e 	andeq	r1, r0, lr, lsr #12
    7238:	00091521 	andeq	r1, r9, r1, lsr #10
    723c:	04b20100 	ldrteq	r0, [r2], #256	; 0x100
    7240:	0000db44 	andeq	sp, r0, r4, asr #22
    7244:	77910200 	ldrvc	r0, [r1, r0, lsl #4]
    7248:	0034d421 	eorseq	sp, r4, r1, lsr #8
    724c:	04b20100 	ldrteq	r0, [r2], #256	; 0x100
    7250:	00162e53 	andseq	r2, r6, r3, asr lr
    7254:	70910200 	addsvc	r0, r1, r0, lsl #4
    7258:	27040500 	strcs	r0, [r4, -r0, lsl #10]
    725c:	22000000 	andcs	r0, r0, #0
    7260:	00342e01 	eorseq	r2, r4, r1, lsl #28
    7264:	04a90100 	strteq	r0, [r9], #256	; 0x100
    7268:	0000010b 	andeq	r0, r0, fp, lsl #2
    726c:	00000000 	andeq	r0, r0, r0
    7270:	1f8c0000 	svcne	0x008c0000
    7274:	71010000 	mrsvc	r0, (UNDEF: 1)
    7278:	21000016 	tstcs	r0, r6, lsl r0
    727c:	00000915 	andeq	r0, r0, r5, lsl r9
    7280:	4204a901 	andmi	sl, r4, #16384	; 0x4000
    7284:	000000db 	ldrdeq	r0, [r0], -fp
    7288:	21779102 	cmncs	r7, r2, lsl #2
    728c:	000034d4 	ldrdeq	r3, [r0], -r4
    7290:	5104a901 	tstpl	r4, r1, lsl #18
    7294:	0000162e 	andeq	r1, r0, lr, lsr #12
    7298:	00709102 	rsbseq	r9, r0, r2, lsl #2
    729c:	35130120 	ldrcc	r0, [r3, #-288]	; 0xfffffee0
    72a0:	9a010000 	bls	472a8 <_E_text+0x45dbc>
    72a4:	00010b04 	andeq	r0, r1, r4, lsl #22
    72a8:	00000000 	andeq	r0, r0, r0
    72ac:	dc000000 	stcle	0, cr0, [r0], {-0}
    72b0:	0100001f 	tsteq	r0, pc, lsl r0
    72b4:	0000169e 	muleq	r0, lr, r6
    72b8:	00091521 	andeq	r1, r9, r1, lsr #10
    72bc:	049a0100 	ldreq	r0, [sl], #256	; 0x100
    72c0:	0000db2b 	andeq	sp, r0, fp, lsr #22
    72c4:	77910200 	ldrvc	r0, [r1, r0, lsl #4]
    72c8:	60012200 	andvs	r2, r1, r0, lsl #4
    72cc:	0100003a 	tsteq	r0, sl, lsr r0
    72d0:	010a048c 	smlabbeq	sl, ip, r4, r0
	...
    72dc:	00002038 	andeq	r2, r0, r8, lsr r0
    72e0:	0016eb01 	andseq	lr, r6, r1, lsl #22
    72e4:	09152100 	ldmdbeq	r5, {r8, sp}
    72e8:	8c010000 	stchi	0, cr0, [r1], {-0}
    72ec:	00db2b04 	sbcseq	r2, fp, r4, lsl #22
    72f0:	91020000 	mrsls	r0, (UNDEF: 2)
    72f4:	3c612177 	stfcce	f2, [r1], #-476	; 0xfffffe24
    72f8:	8c010000 	stchi	0, cr0, [r1], {-0}
    72fc:	162e3a04 	strtne	r3, [lr], -r4, lsl #20
    7300:	91020000 	mrsls	r0, (UNDEF: 2)
    7304:	39c62170 	stmibcc	r6, {r4, r5, r6, r8, sp}^
    7308:	8c010000 	stchi	0, cr0, [r1], {-0}
    730c:	03db5f04 	bicseq	r5, fp, #4, 30
    7310:	91020000 	mrsls	r0, (UNDEF: 2)
    7314:	01220076 			; <UNDEFINED> instruction: 0x01220076
    7318:	00003ebc 			; <UNDEFINED> instruction: 0x00003ebc
    731c:	0a048201 	beq	127b28 <_E_text+0x12663c>
    7320:	00000001 	andeq	r0, r0, r1
    7324:	00000000 	andeq	r0, r0, r0
    7328:	00208800 	eoreq	r8, r0, r0, lsl #16
    732c:	17280100 	strne	r0, [r8, -r0, lsl #2]!
    7330:	33210000 			; <UNDEFINED> instruction: 0x33210000
    7334:	0100003b 	tsteq	r0, fp, lsr r0
    7338:	db340482 	blle	d08548 <_E_text+0xd0705c>
    733c:	02000000 	andeq	r0, r0, #0
    7340:	e0217791 	mla	r1, r1, r7, r7
    7344:	01000025 	tsteq	r0, r5, lsr #32
    7348:	2e430482 	cdpcs	4, 4, cr0, cr3, cr2, {4}
    734c:	02000016 	andeq	r0, r0, #22
    7350:	22007091 	andcs	r7, r0, #145	; 0x91
    7354:	0037b901 	eorseq	fp, r7, r1, lsl #18
    7358:	04730100 	ldrbteq	r0, [r3], #-256	; 0xffffff00
    735c:	00000109 	andeq	r0, r0, r9, lsl #2
    7360:	00000000 	andeq	r0, r0, r0
    7364:	20d80000 	sbcscs	r0, r8, r0
    7368:	65010000 	strvs	r0, [r1, #-0]
    736c:	21000017 	tstcs	r0, r7, lsl r0
    7370:	00003b33 	andeq	r3, r0, r3, lsr fp
    7374:	34047301 	strcc	r7, [r4], #-769	; 0xfffffcff
    7378:	000000db 	ldrdeq	r0, [r0], -fp
    737c:	21779102 	cmncs	r7, r2, lsl #2
    7380:	000025e0 	andeq	r2, r0, r0, ror #11
    7384:	43047301 	movwmi	r7, #17153	; 0x4301
    7388:	0000162e 	andeq	r1, r0, lr, lsr #12
    738c:	00709102 	rsbseq	r9, r0, r2, lsl #2
    7390:	3c930120 	ldfccs	f0, [r3], {32}
    7394:	67010000 	strvs	r0, [r1, -r0]
    7398:	00010a04 	andeq	r0, r1, r4, lsl #20
    739c:	00000000 	andeq	r0, r0, r0
    73a0:	28000000 	stmdacs	r0, {}	; <UNPREDICTABLE>
    73a4:	01000021 	tsteq	r0, r1, lsr #32
    73a8:	000017a2 	andeq	r1, r0, r2, lsr #15
    73ac:	003b3321 	eorseq	r3, fp, r1, lsr #6
    73b0:	04670100 	strbteq	r0, [r7], #-256	; 0xffffff00
    73b4:	0000db32 	andeq	sp, r0, r2, lsr fp
    73b8:	77910200 	ldrvc	r0, [r1, r0, lsl #4]
    73bc:	0025e021 	eoreq	lr, r5, r1, lsr #32
    73c0:	04670100 	strbteq	r0, [r7], #-256	; 0xffffff00
    73c4:	00162e41 	andseq	r2, r6, r1, asr #28
    73c8:	70910200 	addsvc	r0, r1, r0, lsl #4
    73cc:	7d012000 	stcvc	0, cr2, [r1, #-0]
    73d0:	01000037 	tsteq	r0, r7, lsr r0
    73d4:	0109045a 	tsteq	r9, sl, asr r4
	...
    73e0:	00002184 	andeq	r2, r0, r4, lsl #3
    73e4:	0017df01 	andseq	sp, r7, r1, lsl #30
    73e8:	3b332100 	blcc	ccf7f0 <_E_text+0xcce304>
    73ec:	5a010000 	bpl	473f4 <_E_text+0x45f08>
    73f0:	00db3204 	sbcseq	r3, fp, r4, lsl #4
    73f4:	91020000 	mrsls	r0, (UNDEF: 2)
    73f8:	25ea2177 	strbcs	r2, [sl, #375]!	; 0x177
    73fc:	5a010000 	bpl	47404 <_E_text+0x45f18>
    7400:	162e4104 	strtne	r4, [lr], -r4, lsl #2
    7404:	91020000 	mrsls	r0, (UNDEF: 2)
    7408:	01200070 			; <UNDEFINED> instruction: 0x01200070
    740c:	00003c75 	andeq	r3, r0, r5, ror ip
    7410:	08043e01 	stmdaeq	r4, {r0, r9, sl, fp, ip, sp}
    7414:	00000001 	andeq	r0, r0, r1
    7418:	00000000 	andeq	r0, r0, r0
    741c:	0021e000 	eoreq	lr, r1, r0
    7420:	182c0100 	stmdane	ip!, {r8}
    7424:	14210000 	strtne	r0, [r1], #-0
    7428:	01000005 	tsteq	r0, r5
    742c:	413a043e 	teqmi	sl, lr, lsr r4
    7430:	02000001 	andeq	r0, r0, #1
    7434:	27217791 			; <UNDEFINED> instruction: 0x27217791
    7438:	0100003c 	tsteq	r0, ip, lsr r0
    743c:	8d64043e 	cfstrdhi	mvd0, [r4, #-248]!	; 0xffffff08
    7440:	02000001 	andeq	r0, r0, #1
    7444:	15217691 	strne	r7, [r1, #-1681]!	; 0xfffff96f
    7448:	01000009 	tsteq	r0, r9
    744c:	db88043e 	blle	fe20854c <_E_BSS+0xde206758>
    7450:	02000000 	andeq	r0, r0, #0
    7454:	22007591 	andcs	r7, r0, #608174080	; 0x24400000
    7458:	003d9d01 	eorseq	r9, sp, r1, lsl #26
    745c:	03e30100 	mvneq	r0, #0, 2
    7460:	00000108 	andeq	r0, r0, r8, lsl #2
    7464:	00000000 	andeq	r0, r0, r0
    7468:	223c0000 	eorscs	r0, ip, #0
    746c:	69010000 	stmdbvs	r1, {}	; <UNPREDICTABLE>
    7470:	21000018 	tstcs	r0, r8, lsl r0
    7474:	0000346f 	andeq	r3, r0, pc, ror #8
    7478:	2b03e301 	blcs	100084 <_E_text+0xfeb98>
    747c:	00001869 	andeq	r1, r0, r9, ror #16
    7480:	21749102 	cmncs	r4, r2, lsl #2
    7484:	000013d4 	ldrdeq	r1, [r0], -r4
    7488:	5003e301 	andpl	lr, r3, r1, lsl #6
    748c:	00000306 	andeq	r0, r0, r6, lsl #6
    7490:	00709102 	rsbseq	r9, r0, r2, lsl #2
    7494:	01ee0405 	mvneq	r0, r5, lsl #8
    7498:	01230000 			; <UNDEFINED> instruction: 0x01230000
    749c:	000033f6 	strdeq	r3, [r0], -r6
    74a0:	0703a601 	streq	sl, [r3, -r1, lsl #12]
    74a4:	0000189f 	muleq	r0, pc, r8	; <UNPREDICTABLE>
	...
    74b0:	0000228c 	andeq	r2, r0, ip, lsl #5
    74b4:	00189f01 	andseq	r9, r8, r1, lsl #30
    74b8:	383d1f00 	ldmdacc	sp!, {r8, r9, sl, fp, ip}
    74bc:	a7010000 	strge	r0, [r1, -r0]
    74c0:	01411f03 	cmpeq	r1, r3, lsl #30
    74c4:	91020000 	mrsls	r0, (UNDEF: 2)
    74c8:	04240077 	strteq	r0, [r4], #-119	; 0xffffff89
    74cc:	746e6905 	strbtvc	r6, [lr], #-2309	; 0xfffff6fb
    74d0:	37012300 	strcc	r2, [r1, -r0, lsl #6]
    74d4:	0100003a 	tsteq	r0, sl, lsr r0
    74d8:	9f05036a 	svcls	0x0005036a
    74dc:	00000018 	andeq	r0, r0, r8, lsl r0
    74e0:	00000000 	andeq	r0, r0, r0
    74e4:	dc000000 	stcle	0, cr0, [r0], {-0}
    74e8:	01000022 	tsteq	r0, r2, lsr #32
    74ec:	000018d6 	ldrdeq	r1, [r0], -r6
    74f0:	00383d1f 	eorseq	r3, r8, pc, lsl sp
    74f4:	036b0100 	cmneq	fp, #0, 2
    74f8:	0001411d 	andeq	r4, r1, sp, lsl r1
    74fc:	77910200 	ldrvc	r0, [r1, r0, lsl #4]
    7500:	bb012300 	bllt	50108 <_E_text+0x4ec1c>
    7504:	01000036 	tsteq	r0, r6, lsr r0
    7508:	9f05032e 	svcls	0x0005032e
    750c:	00000018 	andeq	r0, r0, r8, lsl r0
    7510:	00000000 	andeq	r0, r0, r0
    7514:	2c000000 	stccs	0, cr0, [r0], {-0}
    7518:	01000023 	tsteq	r0, r3, lsr #32
    751c:	00001906 	andeq	r1, r0, r6, lsl #18
    7520:	00383d1f 	eorseq	r3, r8, pc, lsl sp
    7524:	03300100 	teqeq	r0, #0, 2
    7528:	0001411d 	andeq	r4, r1, sp, lsl r1
    752c:	77910200 	ldrvc	r0, [r1, r0, lsl #4]
    7530:	48012300 	stmdami	r1, {r8, r9, sp}
    7534:	0100003d 	tsteq	r0, sp, lsr r0
    7538:	9f0502f1 	svcls	0x000502f1
    753c:	00000018 	andeq	r0, r0, r8, lsl r0
    7540:	00000000 	andeq	r0, r0, r0
    7544:	7c000000 	stcvc	0, cr0, [r0], {-0}
    7548:	01000023 	tsteq	r0, r3, lsr #32
    754c:	00001936 	andeq	r1, r0, r6, lsr r9
    7550:	00383d1f 	eorseq	r3, r8, pc, lsl sp
    7554:	02f30100 	rscseq	r0, r3, #0, 2
    7558:	0001411d 	andeq	r4, r1, sp, lsl r1
    755c:	77910200 	ldrvc	r0, [r1, r0, lsl #4]
    7560:	8d012300 	stchi	3, cr2, [r1, #-0]
    7564:	0100003a 	tsteq	r0, sl, lsr r0
    7568:	9f0502b5 	svcls	0x000502b5
    756c:	00000018 	andeq	r0, r0, r8, lsl r0
    7570:	00000000 	andeq	r0, r0, r0
    7574:	cc000000 	stcgt	0, cr0, [r0], {-0}
    7578:	01000023 	tsteq	r0, r3, lsr #32
    757c:	00001966 	andeq	r1, r0, r6, ror #18
    7580:	00383d1f 	eorseq	r3, r8, pc, lsl sp
    7584:	02b70100 	adcseq	r0, r7, #0, 2
    7588:	0001411d 	andeq	r4, r1, sp, lsl r1
    758c:	77910200 	ldrvc	r0, [r1, r0, lsl #4]
    7590:	a9012300 	stmdbge	r1, {r8, r9, sp}
    7594:	0100003b 	tsteq	r0, fp, lsr r0
    7598:	9f050278 	svcls	0x00050278
    759c:	00000018 	andeq	r0, r0, r8, lsl r0
    75a0:	00000000 	andeq	r0, r0, r0
    75a4:	1c000000 	stcne	0, cr0, [r0], {-0}
    75a8:	01000024 	tsteq	r0, r4, lsr #32
    75ac:	00001996 	muleq	r0, r6, r9
    75b0:	00383d1f 	eorseq	r3, r8, pc, lsl sp
    75b4:	027a0100 	rsbseq	r0, sl, #0, 2
    75b8:	0001411d 	andeq	r4, r1, sp, lsl r1
    75bc:	77910200 	ldrvc	r0, [r1, r0, lsl #4]
    75c0:	59012300 	stmdbpl	r1, {r8, r9, sp}
    75c4:	0100003d 	tsteq	r0, sp, lsr r0
    75c8:	9f05023c 	svcls	0x0005023c
    75cc:	00000018 	andeq	r0, r0, r8, lsl r0
    75d0:	00000000 	andeq	r0, r0, r0
    75d4:	6c000000 	stcvs	0, cr0, [r0], {-0}
    75d8:	01000024 	tsteq	r0, r4, lsr #32
    75dc:	000019c6 	andeq	r1, r0, r6, asr #19
    75e0:	00383d1f 	eorseq	r3, r8, pc, lsl sp
    75e4:	023e0100 	eorseq	r0, lr, #0, 2
    75e8:	0001411d 	andeq	r4, r1, sp, lsl r1
    75ec:	77910200 	ldrvc	r0, [r1, r0, lsl #4]
    75f0:	68012500 	stmdavs	r1, {r8, sl, sp}
    75f4:	01000039 	tsteq	r0, r9, lsr r0
    75f8:	9f050201 	svcls	0x00050201
    75fc:	00000018 	andeq	r0, r0, r8, lsl r0
    7600:	00000000 	andeq	r0, r0, r0
    7604:	bc000000 	stclt	0, cr0, [r0], {-0}
    7608:	01000024 	tsteq	r0, r4, lsr #32
    760c:	00383d1f 	eorseq	r3, r8, pc, lsl sp
    7610:	02030100 	andeq	r0, r3, #0, 2
    7614:	0001411d 	andeq	r4, r1, sp, lsl r1
    7618:	77910200 	ldrvc	r0, [r1, r0, lsl #4]
    761c:	01850000 	orreq	r0, r5, r0
    7620:	00020000 	andeq	r0, r2, r0
    7624:	0000123e 	andeq	r1, r0, lr, lsr r2
    7628:	01ac0104 			; <UNDEFINED> instruction: 0x01ac0104
    762c:	e50c0000 	str	r0, [ip, #-0]
    7630:	2e00003e 	mcrcs	0, 0, r0, cr0, cr14, {1}
    7634:	001dd800 	andseq	sp, sp, r0, lsl #16
    7638:	08010200 	stmdaeq	r1, {r9}
    763c:	00000d14 	andeq	r0, r0, r4, lsl sp
    7640:	16060102 	strne	r0, [r6], -r2, lsl #2
    7644:	0200000d 	andeq	r0, r0, #13
    7648:	0ee40702 	cdpeq	7, 14, cr0, cr4, cr2, {0}
    764c:	02020000 	andeq	r0, r2, #0
    7650:	000a6305 	andeq	r6, sl, r5, lsl #6
    7654:	0a5d0300 	beq	174825c <_E_text+0x1746d70>
    7658:	0e010000 	cdpeq	0, 0, cr0, cr1, cr0, {0}
    765c:	0000431c 	andeq	r4, r0, ip, lsl r3
    7660:	07040200 	streq	r0, [r4, -r0, lsl #4]
    7664:	00000527 	andeq	r0, r0, r7, lsr #10
    7668:	08050402 	stmdaeq	r5, {r1, sl}
    766c:	02000008 	andeq	r0, r0, #8
    7670:	050a0404 	streq	r0, [sl, #-1028]	; 0xfffffbfc
    7674:	08020000 	stmdaeq	r2, {}	; <UNPREDICTABLE>
    7678:	0009b104 	andeq	fp, r9, r4, lsl #2
    767c:	07080200 	streq	r0, [r8, -r0, lsl #4]
    7680:	00000522 	andeq	r0, r0, r2, lsr #10
    7684:	1b010704 	blne	4929c <_E_text+0x47db0>
    7688:	02000000 	andeq	r0, r0, #0
    768c:	00a50d07 	adceq	r0, r5, r7, lsl #26
    7690:	1a050000 	bne	147698 <_E_text+0x1461ac>
    7694:	00000026 	andeq	r0, r0, r6, lsr #32
    7698:	00262805 	eoreq	r2, r6, r5, lsl #16
    769c:	36050100 	strcc	r0, [r5], -r0, lsl #2
    76a0:	02000026 	andeq	r0, r0, #38	; 0x26
    76a4:	00264405 	eoreq	r4, r6, r5, lsl #8
    76a8:	52050300 	andpl	r0, r5, #0, 6
    76ac:	04000026 	streq	r0, [r0], #-38	; 0xffffffda
    76b0:	00266005 	eoreq	r6, r6, r5
    76b4:	6e050500 	cfsh32vs	mvfx0, mvfx5, #0
    76b8:	06000026 	streq	r0, [r0], -r6, lsr #32
    76bc:	00267c05 	eoreq	r7, r6, r5, lsl #24
    76c0:	03000700 	movweq	r0, #1792	; 0x700
    76c4:	00002691 	muleq	r0, r1, r6
    76c8:	66021102 	strvs	r1, [r2], -r2, lsl #2
    76cc:	04000000 	streq	r0, [r0], #-0
    76d0:	001b0107 	andseq	r0, fp, r7, lsl #2
    76d4:	13020000 	movwne	r0, #8192	; 0x2000
    76d8:	0000cc0d 	andeq	ip, r0, sp, lsl #24
    76dc:	2d9c0500 	cfldr32cs	mvfx0, [ip]
    76e0:	05000000 	streq	r0, [r0, #-0]
    76e4:	00002760 	andeq	r2, r0, r0, ror #14
    76e8:	ff030005 			; <UNDEFINED> instruction: 0xff030005
    76ec:	02000025 	andeq	r0, r0, #37	; 0x25
    76f0:	00b10119 	adcseq	r0, r1, r9, lsl r1
    76f4:	07040000 	streq	r0, [r4, -r0]
    76f8:	00001b01 	andeq	r1, r0, r1, lsl #22
    76fc:	0d1c0200 	lfmeq	f0, 4, [ip, #-0]
    7700:	000000ff 	strdeq	r0, [r0], -pc	; <UNPREDICTABLE>
    7704:	00272605 	eoreq	r2, r7, r5, lsl #12
    7708:	8a050000 	bhi	147710 <_E_text+0x146224>
    770c:	01000026 	tsteq	r0, r6, lsr #32
    7710:	0025c505 	eoreq	ip, r5, r5, lsl #10
    7714:	ef050200 	svc	0x00050200
    7718:	03000026 	movweq	r0, #38	; 0x26
    771c:	270f0300 	strcs	r0, [pc, -r0, lsl #6]
    7720:	22020000 	andcs	r0, r2, #0
    7724:	0000d802 	andeq	sp, r0, r2, lsl #16
    7728:	020c0600 	andeq	r0, ip, #0, 12
    772c:	01600932 	cmneq	r0, r2, lsr r9
    7730:	15070000 	strne	r0, [r7, #-0]
    7734:	02000009 	andeq	r0, r0, #9
    7738:	00a51434 	adceq	r1, r5, r4, lsr r4
    773c:	23020000 	movwcs	r0, #8192	; 0x2000
    7740:	25f40700 	ldrbcs	r0, [r4, #1792]!	; 0x700
    7744:	35020000 	strcc	r0, [r2, #-0]
    7748:	0000ff18 	andeq	pc, r0, r8, lsl pc	; <UNPREDICTABLE>
    774c:	01230200 			; <UNDEFINED> instruction: 0x01230200
    7750:	00275407 	eoreq	r5, r7, r7, lsl #8
    7754:	18360200 	ldmdane	r6!, {r9}
    7758:	000000cc 	andeq	r0, r0, ip, asr #1
    775c:	07022302 	streq	r2, [r2, -r2, lsl #6]
    7760:	00002721 	andeq	r2, r0, r1, lsr #14
    7764:	370b3702 	strcc	r3, [fp, -r2, lsl #14]
    7768:	02000000 	andeq	r0, r0, #0
    776c:	0a070423 	beq	1c8800 <_E_text+0x1c7314>
    7770:	02000027 	andeq	r0, r0, #39	; 0x27
    7774:	00370b38 	eorseq	r0, r7, r8, lsr fp
    7778:	23020000 	movwcs	r0, #8192	; 0x2000
    777c:	b1030008 	tstlt	r3, r8
    7780:	02000026 	andeq	r0, r0, #38	; 0x26
    7784:	010b023a 	tsteq	fp, sl, lsr r2
    7788:	cc080000 	stcgt	0, cr0, [r8], {-0}
    778c:	02000025 	andeq	r0, r0, #37	; 0x25
    7790:	01601651 	cmneq	r0, r1, asr r6
    7794:	01010000 	mrseq	r0, (UNDEF: 1)
    7798:	00016c09 	andeq	r6, r1, r9, lsl #24
    779c:	0f070300 	svceq	0x00070300
    77a0:	00000305 	andeq	r0, r0, r5, lsl #6
    77a4:	Address 0x000077a4 is out of bounds.


Disassembly of section .debug_abbrev:

00000000 <.debug_abbrev>:
       0:	25011101 	strcs	r1, [r1, #-257]	; 0xfffffeff
       4:	030b130e 	movweq	r1, #45838	; 0xb30e
       8:	55081b0e 	strpl	r1, [r8, #-2830]	; 0xfffff4f2
       c:	52011106 	andpl	r1, r1, #-2147483647	; 0x80000001
      10:	00061001 	andeq	r1, r6, r1
      14:	00160200 	andseq	r0, r6, r0, lsl #4
      18:	0b3a0e03 	bleq	e8382c <_E_text+0xe82340>
      1c:	0b390b3b 	bleq	e42d10 <_E_text+0xe41824>
      20:	00001349 	andeq	r1, r0, r9, asr #6
      24:	49003503 	stmdbmi	r0, {r0, r1, r8, sl, ip, sp}
      28:	04000013 	streq	r0, [r0], #-19	; 0xffffffed
      2c:	0b0b0024 	bleq	2c00c4 <_E_text+0x2bebd8>
      30:	0e030b3e 	vmoveq.16	d3[0], r0
      34:	0f050000 	svceq	0x00050000
      38:	490b0b00 	stmdbmi	fp, {r8, r9, fp}
      3c:	06000013 			; <UNDEFINED> instruction: 0x06000013
      40:	0c270015 	stceq	0, cr0, [r7], #-84	; 0xffffffac
      44:	01070000 	mrseq	r0, (UNDEF: 7)
      48:	01134901 	tsteq	r3, r1, lsl #18
      4c:	08000013 	stmdaeq	r0, {r0, r1, r4}
      50:	13490021 	movtne	r0, #36897	; 0x9021
      54:	0000052f 	andeq	r0, r0, pc, lsr #10
      58:	03003409 	movweq	r3, #1033	; 0x409
      5c:	3b0b3a0e 	blcc	2ce89c <_E_text+0x2cd3b0>
      60:	490b390b 	stmdbmi	fp, {r0, r1, r3, r8, fp, ip, sp}
      64:	3c0c3f13 	stccc	15, cr3, [ip], {19}
      68:	0a00000c 	beq	a0 <AlternateSourceAddressPointerRegisters+0x4>
      6c:	0b0b0113 	bleq	2c04c0 <_E_text+0x2befd4>
      70:	0b3b0b3a 	bleq	ec2d60 <_E_text+0xec1874>
      74:	13010b39 	movwne	r0, #6969	; 0x1b39
      78:	0d0b0000 	stceq	0, cr0, [fp, #-0]
      7c:	3a0e0300 	bcc	380c84 <_E_text+0x37f798>
      80:	390b3b0b 	stmdbcc	fp, {r0, r1, r3, r8, r9, fp, ip, sp}
      84:	0b13490b 	bleq	4d24b8 <_E_text+0x4d0fcc>
      88:	0c0b0d0b 	stceq	13, cr0, [fp], {11}
      8c:	000a380b 	andeq	r3, sl, fp, lsl #16
      90:	01170c00 	tsteq	r7, r0, lsl #24
      94:	0b3a0b0b 	bleq	e82cc8 <_E_text+0xe817dc>
      98:	0b390b3b 	bleq	e42d8c <_E_text+0xe418a0>
      9c:	00001301 	andeq	r1, r0, r1, lsl #6
      a0:	03000d0d 	movweq	r0, #3341	; 0xd0d
      a4:	3b0b3a0e 	blcc	2ce8e4 <_E_text+0x2cd3f8>
      a8:	490b390b 	stmdbmi	fp, {r0, r1, r3, r8, fp, ip, sp}
      ac:	0e000013 	mcreq	0, 0, r0, cr0, cr3, {0}
      b0:	0e03000d 	cdpeq	0, 0, cr0, cr3, cr13, {0}
      b4:	053b0b3a 	ldreq	r0, [fp, #-2874]!	; 0xfffff4c6
      b8:	13490b39 	movtne	r0, #39737	; 0x9b39
      bc:	0b0d0b0b 	bleq	342cf0 <_E_text+0x341804>
      c0:	0a380b0c 	beq	e02cf8 <_E_text+0xe0180c>
      c4:	0d0f0000 	stceq	0, cr0, [pc, #-0]	; cc <AlternateSourceAddressPointerRegisters+0x30>
      c8:	3a0e0300 	bcc	380cd0 <_E_text+0x37f7e4>
      cc:	39053b0b 	stmdbcc	r5, {r0, r1, r3, r8, r9, fp, ip, sp}
      d0:	0013490b 	andseq	r4, r3, fp, lsl #18
      d4:	00161000 	andseq	r1, r6, r0
      d8:	0b3a0e03 	bleq	e838ec <_E_text+0xe82400>
      dc:	0b39053b 	bleq	e415d0 <_E_text+0xe400e4>
      e0:	00001349 	andeq	r1, r0, r9, asr #6
      e4:	3e010411 	cfmvdlrcc	mvd1, r0
      e8:	490b0b0b 	stmdbmi	fp, {r0, r1, r3, r8, r9, fp}
      ec:	3b0b3a13 	blcc	2ce940 <_E_text+0x2cd454>
      f0:	010b390b 	tsteq	fp, fp, lsl #18
      f4:	12000013 	andne	r0, r0, #19
      f8:	0e030028 	cdpeq	0, 0, cr0, cr3, cr8, {1}
      fc:	00000b1c 	andeq	r0, r0, ip, lsl fp
     100:	03000d13 	movweq	r0, #3347	; 0xd13
     104:	3b0b3a0e 	blcc	2ce944 <_E_text+0x2cd458>
     108:	490b390b 	stmdbmi	fp, {r0, r1, r3, r8, fp, ip, sp}
     10c:	000a3813 	andeq	r3, sl, r3, lsl r8
     110:	00211400 	eoreq	r1, r1, r0, lsl #8
     114:	0b2f1349 	bleq	bc4e40 <_E_text+0xbc3954>
     118:	24150000 	ldrcs	r0, [r5], #-0
     11c:	3e0b0b00 	vmlacc.f64	d0, d11, d0
     120:	0008030b 	andeq	r0, r8, fp, lsl #6
     124:	000f1600 	andeq	r1, pc, r0, lsl #12
     128:	00000b0b 	andeq	r0, r0, fp, lsl #22
     12c:	03003417 	movweq	r3, #1047	; 0x417
     130:	3b0b3a0e 	blcc	2ce970 <_E_text+0x2cd484>
     134:	490b390b 	stmdbmi	fp, {r0, r1, r3, r8, fp, ip, sp}
     138:	000a0213 	andeq	r0, sl, r3, lsl r2
     13c:	00341800 	eorseq	r1, r4, r0, lsl #16
     140:	0b3a0e03 	bleq	e83954 <_E_text+0xe82468>
     144:	0b390b3b 	bleq	e42e38 <_E_text+0xe4194c>
     148:	0c3f1349 	ldceq	3, cr1, [pc], #-292	; 2c <SourceAddressPointerRegisters+0x10>
     14c:	00000a02 	andeq	r0, r0, r2, lsl #20
     150:	47003419 	smladmi	r0, r9, r4, r3
     154:	3b0b3a13 	blcc	2ce9a8 <_E_text+0x2cd4bc>
     158:	020b390b 	andeq	r3, fp, #180224	; 0x2c000
     15c:	1a00000a 	bne	18c <DestinationAddressPointerRegisters+0x70>
     160:	13490026 	movtne	r0, #36902	; 0x9026
     164:	341b0000 	ldrcc	r0, [fp], #-0
     168:	3a0e0300 	bcc	380d70 <_E_text+0x37f884>
     16c:	39053b0b 	stmdbcc	r5, {r0, r1, r3, r8, r9, fp, ip, sp}
     170:	3f13490b 	svccc	0x0013490b
     174:	000a020c 	andeq	r0, sl, ip, lsl #4
     178:	00341c00 	eorseq	r1, r4, r0, lsl #24
     17c:	0b3a0e03 	bleq	e83990 <_E_text+0xe824a4>
     180:	0b39053b 	bleq	e41674 <_E_text+0xe40188>
     184:	0a021349 	beq	84eb0 <_E_text+0x839c4>
     188:	2e1d0000 	cdpcs	0, 1, cr0, cr13, cr0, {0}
     18c:	030c3f01 	movweq	r3, #52993	; 0xcf01
     190:	3b0b3a0e 	blcc	2ce9d0 <_E_text+0x2cd4e4>
     194:	270b3905 	strcs	r3, [fp, -r5, lsl #18]
     198:	1201110c 	andne	r1, r1, #12, 2
     19c:	97064001 	strls	r4, [r6, -r1]
     1a0:	13010c42 	movwne	r0, #7234	; 0x1c42
     1a4:	051e0000 	ldreq	r0, [lr, #-0]
     1a8:	3a0e0300 	bcc	380db0 <_E_text+0x37f8c4>
     1ac:	39053b0b 	stmdbcc	r5, {r0, r1, r3, r8, r9, fp, ip, sp}
     1b0:	0213490b 	andseq	r4, r3, #180224	; 0x2c000
     1b4:	1f00000a 	svcne	0x0000000a
     1b8:	0c3f012e 	ldfeqs	f0, [pc], #-184	; 108 <AlternateSourceAddressPointerRegisters+0x6c>
     1bc:	0b3a0e03 	bleq	e839d0 <_E_text+0xe824e4>
     1c0:	0b39053b 	bleq	e416b4 <_E_text+0xe401c8>
     1c4:	01110c27 	tsteq	r1, r7, lsr #24
     1c8:	06400112 			; <UNDEFINED> instruction: 0x06400112
     1cc:	010c4296 			; <UNDEFINED> instruction: 0x010c4296
     1d0:	20000013 	andcs	r0, r0, r3, lsl r0
     1d4:	0c3f002e 	ldceq	0, cr0, [pc], #-184	; 124 <DestinationAddressPointerRegisters+0x8>
     1d8:	0b3a0e03 	bleq	e839ec <_E_text+0xe82500>
     1dc:	0b39053b 	bleq	e416d0 <_E_text+0xe401e4>
     1e0:	01120111 	tsteq	r2, r1, lsl r1
     1e4:	42970640 	addsmi	r0, r7, #64, 12	; 0x4000000
     1e8:	2100000c 	tstcs	r0, ip
     1ec:	0c3f002e 	ldceq	0, cr0, [pc], #-184	; 13c <DestinationAddressPointerRegisters+0x20>
     1f0:	0b3a0e03 	bleq	e83a04 <_E_text+0xe82518>
     1f4:	0b39053b 	bleq	e416e8 <_E_text+0xe401fc>
     1f8:	01111349 	tsteq	r1, r9, asr #6
     1fc:	06400112 			; <UNDEFINED> instruction: 0x06400112
     200:	000c4296 	muleq	ip, r6, r2
     204:	002e2200 	eoreq	r2, lr, r0, lsl #4
     208:	0e030c3f 	mcreq	12, 0, r0, cr3, cr15, {1}
     20c:	0b3b0b3a 	bleq	ec2efc <_E_text+0xec1a10>
     210:	13490b39 	movtne	r0, #39737	; 0x9b39
     214:	01120111 	tsteq	r2, r1, lsl r1
     218:	42970640 	addsmi	r0, r7, #64, 12	; 0x4000000
     21c:	0000000c 	andeq	r0, r0, ip
     220:	25011101 	strcs	r1, [r1, #-257]	; 0xfffffeff
     224:	030b130e 	movweq	r1, #45838	; 0xb30e
     228:	10081b0e 	andne	r1, r8, lr, lsl #22
     22c:	02000006 	andeq	r0, r0, #6
     230:	0b0b0024 	bleq	2c02c8 <_E_text+0x2beddc>
     234:	0e030b3e 	vmoveq.16	d3[0], r0
     238:	16030000 	strne	r0, [r3], -r0
     23c:	3a0e0300 	bcc	380e44 <_E_text+0x37f958>
     240:	390b3b0b 	stmdbcc	fp, {r0, r1, r3, r8, r9, fp, ip, sp}
     244:	0013490b 	andseq	r4, r3, fp, lsl #18
     248:	01040400 	tsteq	r4, r0, lsl #8
     24c:	0b0b0b3e 	bleq	2c2f4c <_E_text+0x2c1a60>
     250:	0b3a1349 	bleq	e84f7c <_E_text+0xe83a90>
     254:	0b390b3b 	bleq	e42f48 <_E_text+0xe41a5c>
     258:	00001301 	andeq	r1, r0, r1, lsl #6
     25c:	03002805 	movweq	r2, #2053	; 0x805
     260:	000b1c0e 	andeq	r1, fp, lr, lsl #24
     264:	01130600 	tsteq	r3, r0, lsl #12
     268:	0b3a0b0b 	bleq	e82e9c <_E_text+0xe819b0>
     26c:	0b390b3b 	bleq	e42f60 <_E_text+0xe41a74>
     270:	00001301 	andeq	r1, r0, r1, lsl #6
     274:	03000d07 	movweq	r0, #3335	; 0xd07
     278:	3b0b3a0e 	blcc	2ceab8 <_E_text+0x2cd5cc>
     27c:	490b390b 	stmdbmi	fp, {r0, r1, r3, r8, fp, ip, sp}
     280:	000a3813 	andeq	r3, sl, r3, lsl r8
     284:	000f0800 	andeq	r0, pc, r0, lsl #16
     288:	13490b0b 	movtne	r0, #39691	; 0x9b0b
     28c:	01090000 	mrseq	r0, (UNDEF: 9)
     290:	01134901 	tsteq	r3, r1, lsl #18
     294:	0a000013 	beq	2e8 <DMA_ChannelControlWordRegisters+0x4c>
     298:	13490021 	movtne	r0, #36897	; 0x9021
     29c:	00000b2f 	andeq	r0, r0, pc, lsr #22
     2a0:	0300340b 	movweq	r3, #1035	; 0x40b
     2a4:	3b0b3a0e 	blcc	2ceae4 <_E_text+0x2cd5f8>
     2a8:	490b390b 	stmdbmi	fp, {r0, r1, r3, r8, fp, ip, sp}
     2ac:	3c0c3f13 	stccc	15, cr3, [ip], {19}
     2b0:	0c00000c 	stceq	0, cr0, [r0], {12}
     2b4:	0e030034 	mcreq	0, 0, r0, cr3, cr4, {1}
     2b8:	0b3b0b3a 	bleq	ec2fa8 <_E_text+0xec1abc>
     2bc:	13490b39 	movtne	r0, #39737	; 0x9b39
     2c0:	0a020c3f 	beq	833c4 <_E_text+0x81ed8>
     2c4:	340d0000 	strcc	r0, [sp], #-0
     2c8:	3a134700 	bcc	4d1ed0 <_E_text+0x4d09e4>
     2cc:	390b3b0b 	stmdbcc	fp, {r0, r1, r3, r8, r9, fp, ip, sp}
     2d0:	000a020b 	andeq	r0, sl, fp, lsl #4
     2d4:	00340e00 	eorseq	r0, r4, r0, lsl #28
     2d8:	0b3a0e03 	bleq	e83aec <_E_text+0xe82600>
     2dc:	0b39053b 	bleq	e417d0 <_E_text+0xe402e4>
     2e0:	0c3f1349 	ldceq	3, cr1, [pc], #-292	; 1c4 <AlternateDestinationAddressPointerRegisters+0x28>
     2e4:	00000a02 	andeq	r0, r0, r2, lsl #20
     2e8:	4700340f 	strmi	r3, [r0, -pc, lsl #8]
     2ec:	3b0b3a13 	blcc	2ceb40 <_E_text+0x2cd654>
     2f0:	020b3905 	andeq	r3, fp, #81920	; 0x14000
     2f4:	0000000a 	andeq	r0, r0, sl
     2f8:	25011101 	strcs	r1, [r1, #-257]	; 0xfffffeff
     2fc:	030b130e 	movweq	r1, #45838	; 0xb30e
     300:	55081b0e 	strpl	r1, [r8, #-2830]	; 0xfffff4f2
     304:	52011106 	andpl	r1, r1, #-2147483647	; 0x80000001
     308:	00061001 	andeq	r1, r6, r1
     30c:	002e0200 	eoreq	r0, lr, r0, lsl #4
     310:	0e030c3f 	mcreq	12, 0, r0, cr3, cr15, {1}
     314:	0b3b0b3a 	bleq	ec3004 <_E_text+0xec1b18>
     318:	0c270b39 			; <UNDEFINED> instruction: 0x0c270b39
     31c:	01120111 	tsteq	r2, r1, lsl r1
     320:	42970640 	addsmi	r0, r7, #64, 12	; 0x4000000
     324:	0000000c 	andeq	r0, r0, ip
     328:	25011101 	strcs	r1, [r1, #-257]	; 0xfffffeff
     32c:	030b130e 	movweq	r1, #45838	; 0xb30e
     330:	55081b0e 	strpl	r1, [r8, #-2830]	; 0xfffff4f2
     334:	52011106 	andpl	r1, r1, #-2147483647	; 0x80000001
     338:	00061001 	andeq	r1, r6, r1
     33c:	00160200 	andseq	r0, r6, r0, lsl #4
     340:	0b3a0e03 	bleq	e83b54 <_E_text+0xe82668>
     344:	0b390b3b 	bleq	e43038 <_E_text+0xe41b4c>
     348:	00001349 	andeq	r1, r0, r9, asr #6
     34c:	0b002403 	bleq	9360 <_E_text+0x7e74>
     350:	030b3e0b 	movweq	r3, #48651	; 0xbe0b
     354:	0400000e 	streq	r0, [r0], #-14
     358:	13490035 	movtne	r0, #36917	; 0x9035
     35c:	0f050000 	svceq	0x00050000
     360:	490b0b00 	stmdbmi	fp, {r8, r9, fp}
     364:	06000013 			; <UNDEFINED> instruction: 0x06000013
     368:	0c270015 	stceq	0, cr0, [r7], #-84	; 0xffffffac
     36c:	13070000 	movwne	r0, #28672	; 0x7000
     370:	3a0b0b01 	bcc	2c2f7c <_E_text+0x2c1a90>
     374:	390b3b0b 	stmdbcc	fp, {r0, r1, r3, r8, r9, fp, ip, sp}
     378:	0013010b 	andseq	r0, r3, fp, lsl #2
     37c:	000d0800 	andeq	r0, sp, r0, lsl #16
     380:	0b3a0e03 	bleq	e83b94 <_E_text+0xe826a8>
     384:	0b390b3b 	bleq	e43078 <_E_text+0xe41b8c>
     388:	0b0b1349 	bleq	2c50b4 <_E_text+0x2c3bc8>
     38c:	0b0c0b0d 	bleq	302fc8 <_E_text+0x301adc>
     390:	00000a38 	andeq	r0, r0, r8, lsr sl
     394:	0b011709 	bleq	45fc0 <_E_text+0x44ad4>
     398:	3b0b3a0b 	blcc	2cebcc <_E_text+0x2cd6e0>
     39c:	010b390b 	tsteq	fp, fp, lsl #18
     3a0:	0a000013 	beq	3f4 <GPIO_Port_Commit>
     3a4:	0e03000d 	cdpeq	0, 0, cr0, cr3, cr13, {0}
     3a8:	0b3b0b3a 	bleq	ec3098 <_E_text+0xec1bac>
     3ac:	13490b39 	movtne	r0, #39737	; 0x9b39
     3b0:	040b0000 	streq	r0, [fp], #-0
     3b4:	0b0b3e01 	bleq	2cfbc0 <_E_text+0x2ce6d4>
     3b8:	3a13490b 	bcc	4d27ec <_E_text+0x4d1300>
     3bc:	390b3b0b 	stmdbcc	fp, {r0, r1, r3, r8, r9, fp, ip, sp}
     3c0:	0013010b 	andseq	r0, r3, fp, lsl #2
     3c4:	00280c00 	eoreq	r0, r8, r0, lsl #24
     3c8:	0b1c0e03 	bleq	703bdc <_E_text+0x7026f0>
     3cc:	0d0d0000 	stceq	0, cr0, [sp, #-0]
     3d0:	3a0e0300 	bcc	380fd8 <_E_text+0x37faec>
     3d4:	390b3b0b 	stmdbcc	fp, {r0, r1, r3, r8, r9, fp, ip, sp}
     3d8:	3813490b 	ldmdacc	r3, {r0, r1, r3, r8, fp, lr}
     3dc:	0e00000a 	cdpeq	0, 0, cr0, cr0, cr10, {0}
     3e0:	13490026 	movtne	r0, #36902	; 0x9026
     3e4:	240f0000 	strcs	r0, [pc], #-0	; 3ec <GPIO_LOCK_Registers+0x10>
     3e8:	3e0b0b00 	vmlacc.f64	d0, d11, d0
     3ec:	0008030b 	andeq	r0, r8, fp, lsl #6
     3f0:	01011000 	mrseq	r1, (UNDEF: 1)
     3f4:	13011349 	movwne	r1, #4937	; 0x1349
     3f8:	21110000 	tstcs	r1, r0
     3fc:	2f134900 	svccs	0x00134900
     400:	1200000b 	andne	r0, r0, #11
     404:	0e030034 	mcreq	0, 0, r0, cr3, cr4, {1}
     408:	0b3b0b3a 	bleq	ec30f8 <_E_text+0xec1c0c>
     40c:	13490b39 	movtne	r0, #39737	; 0x9b39
     410:	00000a02 	andeq	r0, r0, r2, lsl #20
     414:	03003413 	movweq	r3, #1043	; 0x413
     418:	3b0b3a0e 	blcc	2cec58 <_E_text+0x2cd76c>
     41c:	490b3905 	stmdbmi	fp, {r0, r2, r8, fp, ip, sp}
     420:	000a0213 	andeq	r0, sl, r3, lsl r2
     424:	00341400 	eorseq	r1, r4, r0, lsl #8
     428:	0b3a0e03 	bleq	e83c3c <_E_text+0xe82750>
     42c:	0b39053b 	bleq	e41920 <_E_text+0xe40434>
     430:	0c3f1349 	ldceq	3, cr1, [pc], #-292	; 314 <DMA_ChannelControlWordRegisters+0x78>
     434:	00000a02 	andeq	r0, r0, r2, lsl #20
     438:	3f012e15 	svccc	0x00012e15
     43c:	3a0e030c 	bcc	381074 <_E_text+0x37fb88>
     440:	39053b0b 	stmdbcc	r5, {r0, r1, r3, r8, r9, fp, ip, sp}
     444:	110c270b 	tstne	ip, fp, lsl #14
     448:	40011201 	andmi	r1, r1, r1, lsl #4
     44c:	0c429706 	mcrreq	7, 0, r9, r2, cr6
     450:	00001301 	andeq	r1, r0, r1, lsl #6
     454:	03000516 	movweq	r0, #1302	; 0x516
     458:	3b0b3a0e 	blcc	2cec98 <_E_text+0x2cd7ac>
     45c:	490b3905 	stmdbmi	fp, {r0, r2, r8, fp, ip, sp}
     460:	000a0213 	andeq	r0, sl, r3, lsl r2
     464:	012e1700 			; <UNDEFINED> instruction: 0x012e1700
     468:	0e030c3f 	mcreq	12, 0, r0, cr3, cr15, {1}
     46c:	053b0b3a 	ldreq	r0, [fp, #-2874]!	; 0xfffff4c6
     470:	0c270b39 			; <UNDEFINED> instruction: 0x0c270b39
     474:	01120111 	tsteq	r2, r1, lsl r1
     478:	42960640 	addsmi	r0, r6, #64, 12	; 0x4000000
     47c:	0013010c 	andseq	r0, r3, ip, lsl #2
     480:	012e1800 			; <UNDEFINED> instruction: 0x012e1800
     484:	0e030c3f 	mcreq	12, 0, r0, cr3, cr15, {1}
     488:	053b0b3a 	ldreq	r0, [fp, #-2874]!	; 0xfffff4c6
     48c:	0c270b39 			; <UNDEFINED> instruction: 0x0c270b39
     490:	01111349 	tsteq	r1, r9, asr #6
     494:	06400112 			; <UNDEFINED> instruction: 0x06400112
     498:	010c4297 			; <UNDEFINED> instruction: 0x010c4297
     49c:	19000013 	stmdbne	r0, {r0, r1, r4}
     4a0:	0e03012e 	adfeqsp	f0, f3, #0.5
     4a4:	053b0b3a 	ldreq	r0, [fp, #-2874]!	; 0xfffff4c6
     4a8:	0c270b39 			; <UNDEFINED> instruction: 0x0c270b39
     4ac:	01120111 	tsteq	r2, r1, lsl r1
     4b0:	42970640 	addsmi	r0, r7, #64, 12	; 0x4000000
     4b4:	0013010c 	andseq	r0, r3, ip, lsl #2
     4b8:	002e1a00 	eoreq	r1, lr, r0, lsl #20
     4bc:	0e030c3f 	mcreq	12, 0, r0, cr3, cr15, {1}
     4c0:	0b3b0b3a 	bleq	ec31b0 <_E_text+0xec1cc4>
     4c4:	13490b39 	movtne	r0, #39737	; 0x9b39
     4c8:	01120111 	tsteq	r2, r1, lsl r1
     4cc:	42960640 	addsmi	r0, r6, #64, 12	; 0x4000000
     4d0:	0000000c 	andeq	r0, r0, ip
     4d4:	25011101 	strcs	r1, [r1, #-257]	; 0xfffffeff
     4d8:	030b130e 	movweq	r1, #45838	; 0xb30e
     4dc:	10081b0e 	andne	r1, r8, lr, lsl #22
     4e0:	02000006 	andeq	r0, r0, #6
     4e4:	0e030016 	mcreq	0, 0, r0, cr3, cr6, {0}
     4e8:	0b3b0b3a 	bleq	ec31d8 <_E_text+0xec1cec>
     4ec:	13490b39 	movtne	r0, #39737	; 0x9b39
     4f0:	24030000 	strcs	r0, [r3], #-0
     4f4:	3e0b0b00 	vmlacc.f64	d0, d11, d0
     4f8:	000e030b 	andeq	r0, lr, fp, lsl #6
     4fc:	01040400 	tsteq	r4, r0, lsl #8
     500:	0b0b0b3e 	bleq	2c3200 <_E_text+0x2c1d14>
     504:	0b3a1349 	bleq	e85230 <_E_text+0xe83d44>
     508:	0b390b3b 	bleq	e431fc <_E_text+0xe41d10>
     50c:	00001301 	andeq	r1, r0, r1, lsl #6
     510:	03002805 	movweq	r2, #2053	; 0x805
     514:	000b1c0e 	andeq	r1, fp, lr, lsl #24
     518:	01130600 	tsteq	r3, r0, lsl #12
     51c:	0b3a0b0b 	bleq	e83150 <_E_text+0xe81c64>
     520:	0b390b3b 	bleq	e43214 <_E_text+0xe41d28>
     524:	00001301 	andeq	r1, r0, r1, lsl #6
     528:	03000d07 	movweq	r0, #3335	; 0xd07
     52c:	3b0b3a0e 	blcc	2ced6c <_E_text+0x2cd880>
     530:	490b390b 	stmdbmi	fp, {r0, r1, r3, r8, fp, ip, sp}
     534:	000a3813 	andeq	r3, sl, r3, lsl r8
     538:	00260800 	eoreq	r0, r6, r0, lsl #16
     53c:	00001349 	andeq	r1, r0, r9, asr #6
     540:	49010109 	stmdbmi	r1, {r0, r3, r8}
     544:	00130113 	andseq	r0, r3, r3, lsl r1
     548:	00210a00 	eoreq	r0, r1, r0, lsl #20
     54c:	0b2f1349 	bleq	bc5278 <_E_text+0xbc3d8c>
     550:	0f0b0000 	svceq	0x000b0000
     554:	490b0b00 	stmdbmi	fp, {r8, r9, fp}
     558:	0c000013 	stceq	0, cr0, [r0], {19}
     55c:	0e030034 	mcreq	0, 0, r0, cr3, cr4, {1}
     560:	0b3b0b3a 	bleq	ec3250 <_E_text+0xec1d64>
     564:	13490b39 	movtne	r0, #39737	; 0x9b39
     568:	0c3c0c3f 	ldceq	12, cr0, [ip], #-252	; 0xffffff04
     56c:	340d0000 	strcc	r0, [sp], #-0
     570:	3a0e0300 	bcc	381178 <_E_text+0x37fc8c>
     574:	390b3b0b 	stmdbcc	fp, {r0, r1, r3, r8, r9, fp, ip, sp}
     578:	3f13490b 	svccc	0x0013490b
     57c:	000a020c 	andeq	r0, sl, ip, lsl #4
     580:	00340e00 	eorseq	r0, r4, r0, lsl #28
     584:	0b3a1347 	bleq	e852a8 <_E_text+0xe83dbc>
     588:	0b390b3b 	bleq	e4327c <_E_text+0xe41d90>
     58c:	00000a02 	andeq	r0, r0, r2, lsl #20
     590:	4700340f 	strmi	r3, [r0, -pc, lsl #8]
     594:	390b3a13 	stmdbcc	fp, {r0, r1, r4, r9, fp, ip, sp}
     598:	000a020b 	andeq	r0, sl, fp, lsl #4
     59c:	11010000 	mrsne	r0, (UNDEF: 1)
     5a0:	130e2501 	movwne	r2, #58625	; 0xe501
     5a4:	1b0e030b 	blne	3811d8 <_E_text+0x37fcec>
     5a8:	11065508 	tstne	r6, r8, lsl #10
     5ac:	10015201 	andne	r5, r1, r1, lsl #4
     5b0:	02000006 	andeq	r0, r0, #6
     5b4:	0e030016 	mcreq	0, 0, r0, cr3, cr6, {0}
     5b8:	0b3b0b3a 	bleq	ec32a8 <_E_text+0xec1dbc>
     5bc:	13490b39 	movtne	r0, #39737	; 0x9b39
     5c0:	24030000 	strcs	r0, [r3], #-0
     5c4:	3e0b0b00 	vmlacc.f64	d0, d11, d0
     5c8:	000e030b 	andeq	r0, lr, fp, lsl #6
     5cc:	00350400 	eorseq	r0, r5, r0, lsl #8
     5d0:	00001349 	andeq	r1, r0, r9, asr #6
     5d4:	0b011305 	bleq	451f0 <_E_text+0x43d04>
     5d8:	3b0b3a0b 	blcc	2cee0c <_E_text+0x2cd920>
     5dc:	010b390b 	tsteq	fp, fp, lsl #18
     5e0:	06000013 			; <UNDEFINED> instruction: 0x06000013
     5e4:	0e03000d 	cdpeq	0, 0, cr0, cr3, cr13, {0}
     5e8:	0b3b0b3a 	bleq	ec32d8 <_E_text+0xec1dec>
     5ec:	13490b39 	movtne	r0, #39737	; 0x9b39
     5f0:	0b0d0b0b 	bleq	343224 <_E_text+0x341d38>
     5f4:	0a380b0c 	beq	e0322c <_E_text+0xe01d40>
     5f8:	17070000 	strne	r0, [r7, -r0]
     5fc:	3a0b0b01 	bcc	2c3208 <_E_text+0x2c1d1c>
     600:	390b3b0b 	stmdbcc	fp, {r0, r1, r3, r8, r9, fp, ip, sp}
     604:	0013010b 	andseq	r0, r3, fp, lsl #2
     608:	000d0800 	andeq	r0, sp, r0, lsl #16
     60c:	0b3a0e03 	bleq	e83e20 <_E_text+0xe82934>
     610:	0b390b3b 	bleq	e43304 <_E_text+0xe41e18>
     614:	00001349 	andeq	r1, r0, r9, asr #6
     618:	3e010409 	cdpcc	4, 0, cr0, cr1, cr9, {0}
     61c:	490b0b0b 	stmdbmi	fp, {r0, r1, r3, r8, r9, fp}
     620:	3b0b3a13 	blcc	2cee74 <_E_text+0x2cd988>
     624:	010b390b 	tsteq	fp, fp, lsl #18
     628:	0a000013 	beq	67c <GPTM_RISRegisters+0x20>
     62c:	0e030028 	cdpeq	0, 0, cr0, cr3, cr8, {1}
     630:	00000b1c 	andeq	r0, r0, ip, lsl fp
     634:	03000d0b 	movweq	r0, #3339	; 0xd0b
     638:	3b0b3a0e 	blcc	2cee78 <_E_text+0x2cd98c>
     63c:	490b390b 	stmdbmi	fp, {r0, r1, r3, r8, fp, ip, sp}
     640:	000a3813 	andeq	r3, sl, r3, lsl r8
     644:	00260c00 	eoreq	r0, r6, r0, lsl #24
     648:	00001349 	andeq	r1, r0, r9, asr #6
     64c:	0b000f0d 	bleq	4288 <_E_text+0x2d9c>
     650:	0013490b 	andseq	r4, r3, fp, lsl #18
     654:	00280e00 	eoreq	r0, r8, r0, lsl #28
     658:	051c0e03 	ldreq	r0, [ip, #-3587]	; 0xfffff1fd
     65c:	280f0000 	stmdacs	pc, {}	; <UNPREDICTABLE>
     660:	1c0e0300 	stcne	3, cr0, [lr], {-0}
     664:	10000006 	andne	r0, r0, r6
     668:	08030028 	stmdaeq	r3, {r3, r5}
     66c:	00000b1c 	andeq	r0, r0, ip, lsl fp
     670:	49010111 	stmdbmi	r1, {r0, r4, r8}
     674:	00130113 	andseq	r0, r3, r3, lsl r1
     678:	00211200 	eoreq	r1, r1, r0, lsl #4
     67c:	0b2f1349 	bleq	bc53a8 <_E_text+0xbc3ebc>
     680:	35130000 	ldrcc	r0, [r3, #-0]
     684:	14000000 	strne	r0, [r0], #-0
     688:	0e030034 	mcreq	0, 0, r0, cr3, cr4, {1}
     68c:	0b3b0b3a 	bleq	ec337c <_E_text+0xec1e90>
     690:	13490b39 	movtne	r0, #39737	; 0x9b39
     694:	00000a02 	andeq	r0, r0, r2, lsl #20
     698:	3f012e15 	svccc	0x00012e15
     69c:	3a0e030c 	bcc	3812d4 <_E_text+0x37fde8>
     6a0:	39053b0b 	stmdbcc	r5, {r0, r1, r3, r8, r9, fp, ip, sp}
     6a4:	110c270b 	tstne	ip, fp, lsl #14
     6a8:	40011201 	andmi	r1, r1, r1, lsl #4
     6ac:	0c429606 	mcrreq	6, 0, r9, r2, cr6
     6b0:	00001301 	andeq	r1, r0, r1, lsl #6
     6b4:	03000516 	movweq	r0, #1302	; 0x516
     6b8:	3b0b3a0e 	blcc	2ceef8 <_E_text+0x2cda0c>
     6bc:	490b3905 	stmdbmi	fp, {r0, r2, r8, fp, ip, sp}
     6c0:	000a0213 	andeq	r0, sl, r3, lsl r2
     6c4:	00341700 	eorseq	r1, r4, r0, lsl #14
     6c8:	0b3a0e03 	bleq	e83edc <_E_text+0xe829f0>
     6cc:	0b39053b 	bleq	e41bc0 <_E_text+0xe406d4>
     6d0:	0a021349 	beq	853fc <_E_text+0x83f10>
     6d4:	2e180000 	cdpcs	0, 1, cr0, cr8, cr0, {0}
     6d8:	3a0e0301 	bcc	3812e4 <_E_text+0x37fdf8>
     6dc:	39053b0b 	stmdbcc	r5, {r0, r1, r3, r8, r9, fp, ip, sp}
     6e0:	110c270b 	tstne	ip, fp, lsl #14
     6e4:	40011201 	andmi	r1, r1, r1, lsl #4
     6e8:	0c429706 	mcrreq	7, 0, r9, r2, cr6
     6ec:	00001301 	andeq	r1, r0, r1, lsl #6
     6f0:	03012e19 	movweq	r2, #7705	; 0x1e19
     6f4:	3b0b3a0e 	blcc	2cef34 <_E_text+0x2cda48>
     6f8:	270b390b 	strcs	r3, [fp, -fp, lsl #18]
     6fc:	1201110c 	andne	r1, r1, #12, 2
     700:	97064001 	strls	r4, [r6, -r1]
     704:	00000c42 	andeq	r0, r0, r2, asr #24
     708:	0300051a 	movweq	r0, #1306	; 0x51a
     70c:	3b0b3a0e 	blcc	2cef4c <_E_text+0x2cda60>
     710:	490b390b 	stmdbmi	fp, {r0, r1, r3, r8, fp, ip, sp}
     714:	000a0213 	andeq	r0, sl, r3, lsl r2
     718:	11010000 	mrsne	r0, (UNDEF: 1)
     71c:	130e2501 	movwne	r2, #58625	; 0xe501
     720:	1b0e030b 	blne	381354 <_E_text+0x37fe68>
     724:	00061008 	andeq	r1, r6, r8
     728:	00240200 	eoreq	r0, r4, r0, lsl #4
     72c:	0b3e0b0b 	bleq	f83360 <_E_text+0xf81e74>
     730:	00000e03 	andeq	r0, r0, r3, lsl #28
     734:	3e010403 	cdpcc	4, 0, cr0, cr1, cr3, {0}
     738:	490b0b0b 	stmdbmi	fp, {r0, r1, r3, r8, r9, fp}
     73c:	3b0b3a13 	blcc	2cef90 <_E_text+0x2cdaa4>
     740:	010b390b 	tsteq	fp, fp, lsl #18
     744:	04000013 	streq	r0, [r0], #-19	; 0xffffffed
     748:	0e030028 	cdpeq	0, 0, cr0, cr3, cr8, {1}
     74c:	00000b1c 	andeq	r0, r0, ip, lsl fp
     750:	03001605 	movweq	r1, #1541	; 0x605
     754:	3b0b3a0e 	blcc	2cef94 <_E_text+0x2cdaa8>
     758:	490b390b 	stmdbmi	fp, {r0, r1, r3, r8, fp, ip, sp}
     75c:	06000013 			; <UNDEFINED> instruction: 0x06000013
     760:	0b0b0113 	bleq	2c0bb4 <_E_text+0x2bf6c8>
     764:	0b3b0b3a 	bleq	ec3454 <_E_text+0xec1f68>
     768:	13010b39 	movwne	r0, #6969	; 0x1b39
     76c:	0d070000 	stceq	0, cr0, [r7, #-0]
     770:	3a0e0300 	bcc	381378 <_E_text+0x37fe8c>
     774:	390b3b0b 	stmdbcc	fp, {r0, r1, r3, r8, r9, fp, ip, sp}
     778:	3813490b 	ldmdacc	r3, {r0, r1, r3, r8, fp, lr}
     77c:	0800000a 	stmdaeq	r0, {r1, r3}
     780:	13490026 	movtne	r0, #36902	; 0x9026
     784:	01090000 	mrseq	r0, (UNDEF: 9)
     788:	01134901 	tsteq	r3, r1, lsl #18
     78c:	0a000013 	beq	7e0 <UART_ClockConfigurationRegisters+0xc>
     790:	13490021 	movtne	r0, #36897	; 0x9021
     794:	00000b2f 	andeq	r0, r0, pc, lsr #22
     798:	0b000f0b 	bleq	43cc <_E_text+0x2ee0>
     79c:	0013490b 	andseq	r4, r3, fp, lsl #18
     7a0:	00340c00 	eorseq	r0, r4, r0, lsl #24
     7a4:	0b3a0e03 	bleq	e83fb8 <_E_text+0xe82acc>
     7a8:	0b390b3b 	bleq	e4349c <_E_text+0xe41fb0>
     7ac:	0c3f1349 	ldceq	3, cr1, [pc], #-292	; 690 <GPTM_Config_32BitTimer0B>
     7b0:	00000c3c 	andeq	r0, r0, ip, lsr ip
     7b4:	0300340d 	movweq	r3, #1037	; 0x40d
     7b8:	3b0b3a0e 	blcc	2ceff8 <_E_text+0x2cdb0c>
     7bc:	490b390b 	stmdbmi	fp, {r0, r1, r3, r8, fp, ip, sp}
     7c0:	020c3f13 	andeq	r3, ip, #19, 30	; 0x4c
     7c4:	0e00000a 	cdpeq	0, 0, cr0, cr0, cr10, {0}
     7c8:	13470034 	movtne	r0, #28724	; 0x7034
     7cc:	0b3b0b3a 	bleq	ec34bc <_E_text+0xec1fd0>
     7d0:	0a020b39 	beq	834bc <_E_text+0x81fd0>
     7d4:	01000000 	mrseq	r0, (UNDEF: 0)
     7d8:	0e250111 	mcreq	1, 1, r0, cr5, cr1, {0}
     7dc:	0e030b13 	vmoveq.32	d3[0], r0
     7e0:	0655081b 			; <UNDEFINED> instruction: 0x0655081b
     7e4:	01520111 	cmpeq	r2, r1, lsl r1
     7e8:	00000610 	andeq	r0, r0, r0, lsl r6
     7ec:	03001602 	movweq	r1, #1538	; 0x602
     7f0:	3b0b3a0e 	blcc	2cf030 <_E_text+0x2cdb44>
     7f4:	490b390b 	stmdbmi	fp, {r0, r1, r3, r8, fp, ip, sp}
     7f8:	03000013 	movweq	r0, #19
     7fc:	0b0b0024 	bleq	2c0894 <_E_text+0x2bf3a8>
     800:	0e030b3e 	vmoveq.16	d3[0], r0
     804:	04040000 	streq	r0, [r4], #-0
     808:	0b0b3e01 	bleq	2d0014 <_E_text+0x2ceb28>
     80c:	3a13490b 	bcc	4d2c40 <_E_text+0x4d1754>
     810:	390b3b0b 	stmdbcc	fp, {r0, r1, r3, r8, r9, fp, ip, sp}
     814:	0013010b 	andseq	r0, r3, fp, lsl #2
     818:	00280500 	eoreq	r0, r8, r0, lsl #10
     81c:	0b1c0e03 	bleq	704030 <_E_text+0x702b44>
     820:	13060000 	movwne	r0, #24576	; 0x6000
     824:	3a0b0b01 	bcc	2c3430 <_E_text+0x2c1f44>
     828:	390b3b0b 	stmdbcc	fp, {r0, r1, r3, r8, r9, fp, ip, sp}
     82c:	0013010b 	andseq	r0, r3, fp, lsl #2
     830:	000d0700 	andeq	r0, sp, r0, lsl #14
     834:	0b3a0e03 	bleq	e84048 <_E_text+0xe82b5c>
     838:	0b390b3b 	bleq	e4352c <_E_text+0xe42040>
     83c:	0a381349 	beq	e05568 <_E_text+0xe0407c>
     840:	34080000 	strcc	r0, [r8], #-0
     844:	3a0e0300 	bcc	38144c <_E_text+0x37ff60>
     848:	390b3b0b 	stmdbcc	fp, {r0, r1, r3, r8, r9, fp, ip, sp}
     84c:	3f13490b 	svccc	0x0013490b
     850:	000c3c0c 	andeq	r3, ip, ip, lsl #24
     854:	00260900 	eoreq	r0, r6, r0, lsl #18
     858:	00001349 	andeq	r1, r0, r9, asr #6
     85c:	4901010a 	stmdbmi	r1, {r1, r3, r8}
     860:	00130113 	andseq	r0, r3, r3, lsl r1
     864:	00210b00 	eoreq	r0, r1, r0, lsl #22
     868:	0b2f1349 	bleq	bc5594 <_E_text+0xbc40a8>
     86c:	0f0c0000 	svceq	0x000c0000
     870:	490b0b00 	stmdbmi	fp, {r8, r9, fp}
     874:	0d000013 	stceq	0, cr0, [r0, #-76]	; 0xffffffb4
     878:	0c3f012e 	ldfeqs	f0, [pc], #-184	; 7c8 <UART_FractionalBaudRateDivisorRegisters+0x14>
     87c:	0b3a0e03 	bleq	e84090 <_E_text+0xe82ba4>
     880:	0b390b3b 	bleq	e43574 <_E_text+0xe42088>
     884:	01110c27 	tsteq	r1, r7, lsr #24
     888:	06400112 			; <UNDEFINED> instruction: 0x06400112
     88c:	010c4296 			; <UNDEFINED> instruction: 0x010c4296
     890:	0e000013 	mcreq	0, 0, r0, cr0, cr3, {0}
     894:	0e030005 	cdpeq	0, 0, cr0, cr3, cr5, {0}
     898:	0b3b0b3a 	bleq	ec3588 <_E_text+0xec209c>
     89c:	13490b39 	movtne	r0, #39737	; 0x9b39
     8a0:	00000a02 	andeq	r0, r0, r2, lsl #20
     8a4:	3f002e0f 	svccc	0x00002e0f
     8a8:	3a0e030c 	bcc	3814e0 <_E_text+0x37fff4>
     8ac:	390b3b0b 	stmdbcc	fp, {r0, r1, r3, r8, r9, fp, ip, sp}
     8b0:	110c270b 	tstne	ip, fp, lsl #14
     8b4:	40011201 	andmi	r1, r1, r1, lsl #4
     8b8:	0c429606 	mcrreq	6, 0, r9, r2, cr6
     8bc:	01000000 	mrseq	r0, (UNDEF: 0)
     8c0:	0e250111 	mcreq	1, 1, r0, cr5, cr1, {0}
     8c4:	0e030b13 	vmoveq.32	d3[0], r0
     8c8:	0655081b 			; <UNDEFINED> instruction: 0x0655081b
     8cc:	01520111 	cmpeq	r2, r1, lsl r1
     8d0:	00000610 	andeq	r0, r0, r0, lsl r6
     8d4:	03001602 	movweq	r1, #1538	; 0x602
     8d8:	3b0b3a0e 	blcc	2cf118 <_E_text+0x2cdc2c>
     8dc:	490b390b 	stmdbmi	fp, {r0, r1, r3, r8, fp, ip, sp}
     8e0:	03000013 	movweq	r0, #19
     8e4:	0b0b0024 	bleq	2c097c <_E_text+0x2bf490>
     8e8:	0e030b3e 	vmoveq.16	d3[0], r0
     8ec:	35040000 	strcc	r0, [r4, #-0]
     8f0:	00134900 	andseq	r4, r3, r0, lsl #18
     8f4:	01040500 	tsteq	r4, r0, lsl #10
     8f8:	0b0b0b3e 	bleq	2c35f8 <_E_text+0x2c210c>
     8fc:	0b3a1349 	bleq	e85628 <_E_text+0xe8413c>
     900:	0b390b3b 	bleq	e435f4 <_E_text+0xe42108>
     904:	00001301 	andeq	r1, r0, r1, lsl #6
     908:	03002806 	movweq	r2, #2054	; 0x806
     90c:	000b1c0e 	andeq	r1, fp, lr, lsl #24
     910:	01130700 	tsteq	r3, r0, lsl #14
     914:	0b3a0b0b 	bleq	e83548 <_E_text+0xe8205c>
     918:	0b390b3b 	bleq	e4360c <_E_text+0xe42120>
     91c:	00001301 	andeq	r1, r0, r1, lsl #6
     920:	03000d08 	movweq	r0, #3336	; 0xd08
     924:	3b0b3a0e 	blcc	2cf164 <_E_text+0x2cdc78>
     928:	490b390b 	stmdbmi	fp, {r0, r1, r3, r8, fp, ip, sp}
     92c:	000a3813 	andeq	r3, sl, r3, lsl r8
     930:	00340900 	eorseq	r0, r4, r0, lsl #18
     934:	0b3a0e03 	bleq	e84148 <_E_text+0xe82c5c>
     938:	0b390b3b 	bleq	e4362c <_E_text+0xe42140>
     93c:	0c3f1349 	ldceq	3, cr1, [pc], #-292	; 820 <UART_LineControlRegisters+0xc>
     940:	00000c3c 	andeq	r0, r0, ip, lsr ip
     944:	0300280a 	movweq	r2, #2058	; 0x80a
     948:	00051c0e 	andeq	r1, r5, lr, lsl #24
     94c:	00280b00 	eoreq	r0, r8, r0, lsl #22
     950:	061c0e03 	ldreq	r0, [ip], -r3, lsl #28
     954:	280c0000 	stmdacs	ip, {}	; <UNPREDICTABLE>
     958:	1c080300 	stcne	3, cr0, [r8], {-0}
     95c:	0d00000b 	stceq	0, cr0, [r0, #-44]	; 0xffffffd4
     960:	0b0b000f 	bleq	2c09a4 <_E_text+0x2bf4b8>
     964:	00001349 	andeq	r1, r0, r9, asr #6
     968:	0b00240e 	bleq	99a8 <_E_text+0x84bc>
     96c:	030b3e0b 	movweq	r3, #48651	; 0xbe0b
     970:	0f000008 	svceq	0x00000008
     974:	0e030034 	mcreq	0, 0, r0, cr3, cr4, {1}
     978:	0b3b0b3a 	bleq	ec3668 <_E_text+0xec217c>
     97c:	13490b39 	movtne	r0, #39737	; 0x9b39
     980:	0a020c3f 	beq	83a84 <_E_text+0x82598>
     984:	01100000 	tsteq	r0, r0
     988:	01134901 	tsteq	r3, r1, lsl #18
     98c:	11000013 	tstne	r0, r3, lsl r0
     990:	13490021 	movtne	r0, #36897	; 0x9021
     994:	0000052f 	andeq	r0, r0, pc, lsr #10
     998:	49002112 	stmdbmi	r0, {r1, r4, r8, sp}
     99c:	000b2f13 	andeq	r2, fp, r3, lsl pc
     9a0:	00341300 	eorseq	r1, r4, r0, lsl #6
     9a4:	0b3a0e03 	bleq	e841b8 <_E_text+0xe82ccc>
     9a8:	0b390b3b 	bleq	e4369c <_E_text+0xe421b0>
     9ac:	0a021349 	beq	856d8 <_E_text+0x841ec>
     9b0:	2e140000 	cdpcs	0, 1, cr0, cr4, cr0, {0}
     9b4:	030c3f01 	movweq	r3, #52993	; 0xcf01
     9b8:	3b0b3a0e 	blcc	2cf1f8 <_E_text+0x2cdd0c>
     9bc:	270b390b 	strcs	r3, [fp, -fp, lsl #18]
     9c0:	1113490c 	tstne	r3, ip, lsl #18
     9c4:	40011201 	andmi	r1, r1, r1, lsl #4
     9c8:	0c429606 	mcrreq	6, 0, r9, r2, cr6
     9cc:	00001301 	andeq	r1, r0, r1, lsl #6
     9d0:	03003415 	movweq	r3, #1045	; 0x415
     9d4:	3b0b3a0e 	blcc	2cf214 <_E_text+0x2cdd28>
     9d8:	490b3905 	stmdbmi	fp, {r0, r2, r8, fp, ip, sp}
     9dc:	000b1c13 	andeq	r1, fp, r3, lsl ip
     9e0:	00341600 	eorseq	r1, r4, r0, lsl #12
     9e4:	0b3a0e03 	bleq	e841f8 <_E_text+0xe82d0c>
     9e8:	0b39053b 	bleq	e41edc <_E_text+0xe409f0>
     9ec:	0a021349 	beq	85718 <_E_text+0x8422c>
     9f0:	2e170000 	cdpcs	0, 1, cr0, cr7, cr0, {0}
     9f4:	030c3f01 	movweq	r3, #52993	; 0xcf01
     9f8:	3b0b3a0e 	blcc	2cf238 <_E_text+0x2cdd4c>
     9fc:	270b390b 	strcs	r3, [fp, -fp, lsl #18]
     a00:	1201110c 	andne	r1, r1, #12, 2
     a04:	97064001 	strls	r4, [r6, -r1]
     a08:	00000c42 	andeq	r0, r0, r2, asr #24
     a0c:	01110100 	tsteq	r1, r0, lsl #2
     a10:	0b130e25 	bleq	4c42ac <_E_text+0x4c2dc0>
     a14:	081b0e03 	ldmdaeq	fp, {r0, r1, r9, sl, fp}
     a18:	01110655 	tsteq	r1, r5, asr r6
     a1c:	06100152 			; <UNDEFINED> instruction: 0x06100152
     a20:	16020000 	strne	r0, [r2], -r0
     a24:	3a0e0300 	bcc	38162c <_E_text+0x380140>
     a28:	390b3b0b 	stmdbcc	fp, {r0, r1, r3, r8, r9, fp, ip, sp}
     a2c:	0013490b 	andseq	r4, r3, fp, lsl #18
     a30:	00240300 	eoreq	r0, r4, r0, lsl #6
     a34:	0b3e0b0b 	bleq	f83668 <_E_text+0xf8217c>
     a38:	00000e03 	andeq	r0, r0, r3, lsl #28
     a3c:	49003504 	stmdbmi	r0, {r2, r8, sl, ip, sp}
     a40:	05000013 	streq	r0, [r0, #-19]	; 0xffffffed
     a44:	0b0b0113 	bleq	2c0e98 <_E_text+0x2bf9ac>
     a48:	0b3b0b3a 	bleq	ec3738 <_E_text+0xec224c>
     a4c:	13010b39 	movwne	r0, #6969	; 0x1b39
     a50:	0d060000 	stceq	0, cr0, [r6, #-0]
     a54:	3a0e0300 	bcc	38165c <_E_text+0x380170>
     a58:	390b3b0b 	stmdbcc	fp, {r0, r1, r3, r8, r9, fp, ip, sp}
     a5c:	0b13490b 	bleq	4d2e90 <_E_text+0x4d19a4>
     a60:	0c0b0d0b 	stceq	13, cr0, [fp], {11}
     a64:	000a380b 	andeq	r3, sl, fp, lsl #16
     a68:	000d0700 	andeq	r0, sp, r0, lsl #14
     a6c:	0b3a0803 	bleq	e82a80 <_E_text+0xe81594>
     a70:	0b390b3b 	bleq	e43764 <_E_text+0xe42278>
     a74:	0b0b1349 	bleq	2c57a0 <_E_text+0x2c42b4>
     a78:	0b0c0b0d 	bleq	3036b4 <_E_text+0x3021c8>
     a7c:	00000a38 	andeq	r0, r0, r8, lsr sl
     a80:	3e010408 	cdpcc	4, 0, cr0, cr1, cr8, {0}
     a84:	490b0b0b 	stmdbmi	fp, {r0, r1, r3, r8, r9, fp}
     a88:	3b0b3a13 	blcc	2cf2dc <_E_text+0x2cddf0>
     a8c:	010b390b 	tsteq	fp, fp, lsl #18
     a90:	09000013 	stmdbeq	r0, {r0, r1, r4}
     a94:	0e030028 	cdpeq	0, 0, cr0, cr3, cr8, {1}
     a98:	00000b1c 	andeq	r0, r0, ip, lsl fp
     a9c:	4901010a 	stmdbmi	r1, {r1, r3, r8}
     aa0:	00130113 	andseq	r0, r3, r3, lsl r1
     aa4:	00210b00 	eoreq	r0, r1, r0, lsl #22
     aa8:	0b2f1349 	bleq	bc57d4 <_E_text+0xbc42e8>
     aac:	260c0000 	strcs	r0, [ip], -r0
     ab0:	00134900 	andseq	r4, r3, r0, lsl #18
     ab4:	000f0d00 	andeq	r0, pc, r0, lsl #26
     ab8:	13490b0b 	movtne	r0, #39691	; 0x9b0b
     abc:	340e0000 	strcc	r0, [lr], #-0
     ac0:	3a0e0300 	bcc	3816c8 <_E_text+0x3801dc>
     ac4:	390b3b0b 	stmdbcc	fp, {r0, r1, r3, r8, r9, fp, ip, sp}
     ac8:	0213490b 	andseq	r4, r3, #180224	; 0x2c000
     acc:	0f00000a 	svceq	0x0000000a
     ad0:	0c3f012e 	ldfeqs	f0, [pc], #-184	; a20 <DMA_ChannelControlStructureSet+0x7c>
     ad4:	0b3a0e03 	bleq	e842e8 <_E_text+0xe82dfc>
     ad8:	0b390b3b 	bleq	e437cc <_E_text+0xe422e0>
     adc:	01110c27 	tsteq	r1, r7, lsr #24
     ae0:	06400112 			; <UNDEFINED> instruction: 0x06400112
     ae4:	010c4297 			; <UNDEFINED> instruction: 0x010c4297
     ae8:	10000013 	andne	r0, r0, r3, lsl r0
     aec:	0e030005 	cdpeq	0, 0, cr0, cr3, cr5, {0}
     af0:	0b3b0b3a 	bleq	ec37e0 <_E_text+0xec22f4>
     af4:	13490b39 	movtne	r0, #39737	; 0x9b39
     af8:	00000a02 	andeq	r0, r0, r2, lsl #20
     afc:	03000511 	movweq	r0, #1297	; 0x511
     b00:	3b0b3a08 	blcc	2cf328 <_E_text+0x2cde3c>
     b04:	490b390b 	stmdbmi	fp, {r0, r1, r3, r8, fp, ip, sp}
     b08:	000a0213 	andeq	r0, sl, r3, lsl r2
     b0c:	012e1200 			; <UNDEFINED> instruction: 0x012e1200
     b10:	0e030c3f 	mcreq	12, 0, r0, cr3, cr15, {1}
     b14:	0b3b0b3a 	bleq	ec3804 <_E_text+0xec2318>
     b18:	0c270b39 			; <UNDEFINED> instruction: 0x0c270b39
     b1c:	01120111 	tsteq	r2, r1, lsl r1
     b20:	42970640 	addsmi	r0, r7, #64, 12	; 0x4000000
     b24:	0000000c 	andeq	r0, r0, ip
     b28:	25011101 	strcs	r1, [r1, #-257]	; 0xfffffeff
     b2c:	030b130e 	movweq	r1, #45838	; 0xb30e
     b30:	55081b0e 	strpl	r1, [r8, #-2830]	; 0xfffff4f2
     b34:	52011106 	andpl	r1, r1, #-2147483647	; 0x80000001
     b38:	00061001 	andeq	r1, r6, r1
     b3c:	00240200 	eoreq	r0, r4, r0, lsl #4
     b40:	0b3e0b0b 	bleq	f83774 <_E_text+0xf82288>
     b44:	00000e03 	andeq	r0, r0, r3, lsl #28
     b48:	0b002403 	bleq	9b5c <_E_text+0x8670>
     b4c:	030b3e0b 	movweq	r3, #48651	; 0xbe0b
     b50:	04000008 	streq	r0, [r0], #-8
     b54:	13490101 	movtne	r0, #37121	; 0x9101
     b58:	00001301 	andeq	r1, r0, r1, lsl #6
     b5c:	49002105 	stmdbmi	r0, {r0, r2, r8, sp}
     b60:	000b2f13 	andeq	r2, fp, r3, lsl pc
     b64:	00340600 	eorseq	r0, r4, r0, lsl #12
     b68:	0b3a0e03 	bleq	e8437c <_E_text+0xe82e90>
     b6c:	0b390b3b 	bleq	e43860 <_E_text+0xe42374>
     b70:	0a021349 	beq	8589c <_E_text+0x843b0>
     b74:	26070000 	strcs	r0, [r7], -r0
     b78:	00134900 	andseq	r4, r3, r0, lsl #18
     b7c:	000f0800 	andeq	r0, pc, r0, lsl #16
     b80:	13490b0b 	movtne	r0, #39691	; 0x9b0b
     b84:	15090000 	strne	r0, [r9, #-0]
     b88:	00130101 	andseq	r0, r3, r1, lsl #2
     b8c:	00180a00 	andseq	r0, r8, r0, lsl #20
     b90:	340b0000 	strcc	r0, [fp], #-0
     b94:	3a0e0300 	bcc	38179c <_E_text+0x3802b0>
     b98:	390b3b0b 	stmdbcc	fp, {r0, r1, r3, r8, r9, fp, ip, sp}
     b9c:	3f13490b 	svccc	0x0013490b
     ba0:	000a020c 	andeq	r0, sl, ip, lsl #4
     ba4:	00340c00 	eorseq	r0, r4, r0, lsl #24
     ba8:	0b3a0e03 	bleq	e843bc <_E_text+0xe82ed0>
     bac:	0b390b3b 	bleq	e438a0 <_E_text+0xe423b4>
     bb0:	0c3f1349 	ldceq	3, cr1, [pc], #-292	; a94 <DMA_ChannelControlStructureSet+0xf0>
     bb4:	00000c3c 	andeq	r0, r0, ip, lsr ip
     bb8:	3f012e0d 	svccc	0x00012e0d
     bbc:	3a0e030c 	bcc	3817f4 <_E_text+0x380308>
     bc0:	390b3b0b 	stmdbcc	fp, {r0, r1, r3, r8, r9, fp, ip, sp}
     bc4:	1201110b 	andne	r1, r1, #-1073741822	; 0xc0000002
     bc8:	96064001 	strls	r4, [r6], -r1
     bcc:	13010c42 	movwne	r0, #7234	; 0x1c42
     bd0:	0b0e0000 	bleq	380bd8 <_E_text+0x37f6ec>
     bd4:	12011101 	andne	r1, r1, #1073741824	; 0x40000000
     bd8:	00130101 	andseq	r0, r3, r1, lsl #2
     bdc:	00340f00 	eorseq	r0, r4, r0, lsl #30
     be0:	0b3a0803 	bleq	e82bf4 <_E_text+0xe81708>
     be4:	0b390b3b 	bleq	e438d8 <_E_text+0xe423ec>
     be8:	0a021349 	beq	85914 <_E_text+0x84428>
     bec:	0b100000 	bleq	400bf4 <_E_text+0x3ff708>
     bf0:	12011101 	andne	r1, r1, #1073741824	; 0x40000000
     bf4:	11000001 	tstne	r0, r1
     bf8:	0c3f002e 	ldceq	0, cr0, [pc], #-184	; b48 <DMA_ConfigureChannelSoftwareRequest+0x4c>
     bfc:	0b3a0e03 	bleq	e84410 <_E_text+0xe82f24>
     c00:	0b390b3b 	bleq	e438f4 <_E_text+0xe42408>
     c04:	01120111 	tsteq	r2, r1, lsl r1
     c08:	42960640 	addsmi	r0, r6, #64, 12	; 0x4000000
     c0c:	0000000c 	andeq	r0, r0, ip
     c10:	25011101 	strcs	r1, [r1, #-257]	; 0xfffffeff
     c14:	030b130e 	movweq	r1, #45838	; 0xb30e
     c18:	55081b0e 	strpl	r1, [r8, #-2830]	; 0xfffff4f2
     c1c:	52011106 	andpl	r1, r1, #-2147483647	; 0x80000001
     c20:	00061001 	andeq	r1, r6, r1
     c24:	00160200 	andseq	r0, r6, r0, lsl #4
     c28:	0b3a0e03 	bleq	e8443c <_E_text+0xe82f50>
     c2c:	0b390b3b 	bleq	e43920 <_E_text+0xe42434>
     c30:	00001349 	andeq	r1, r0, r9, asr #6
     c34:	49002603 	stmdbmi	r0, {r0, r1, r9, sl, sp}
     c38:	04000013 	streq	r0, [r0], #-19	; 0xffffffed
     c3c:	0b0b0024 	bleq	2c0cd4 <_E_text+0x2bf7e8>
     c40:	0e030b3e 	vmoveq.16	d3[0], r0
     c44:	13050000 	movwne	r0, #20480	; 0x5000
     c48:	3a0b0b01 	bcc	2c3854 <_E_text+0x2c2368>
     c4c:	390b3b0b 	stmdbcc	fp, {r0, r1, r3, r8, r9, fp, ip, sp}
     c50:	0013010b 	andseq	r0, r3, fp, lsl #2
     c54:	000d0600 	andeq	r0, sp, r0, lsl #12
     c58:	0b3a0e03 	bleq	e8446c <_E_text+0xe82f80>
     c5c:	0b390b3b 	bleq	e43950 <_E_text+0xe42464>
     c60:	0b0b1349 	bleq	2c598c <_E_text+0x2c44a0>
     c64:	0b0c0b0d 	bleq	3038a0 <_E_text+0x3023b4>
     c68:	00000a38 	andeq	r0, r0, r8, lsr sl
     c6c:	0b011707 	bleq	46890 <_E_text+0x453a4>
     c70:	3b0b3a0b 	blcc	2cf4a4 <_E_text+0x2cdfb8>
     c74:	010b390b 	tsteq	fp, fp, lsl #18
     c78:	08000013 	stmdaeq	r0, {r0, r1, r4}
     c7c:	0e03000d 	cdpeq	0, 0, cr0, cr3, cr13, {0}
     c80:	0b3b0b3a 	bleq	ec3970 <_E_text+0xec2484>
     c84:	13490b39 	movtne	r0, #39737	; 0x9b39
     c88:	04090000 	streq	r0, [r9], #-0
     c8c:	0b0b3e01 	bleq	2d0498 <_E_text+0x2cefac>
     c90:	3a13490b 	bcc	4d30c4 <_E_text+0x4d1bd8>
     c94:	390b3b0b 	stmdbcc	fp, {r0, r1, r3, r8, r9, fp, ip, sp}
     c98:	0013010b 	andseq	r0, r3, fp, lsl #2
     c9c:	00280a00 	eoreq	r0, r8, r0, lsl #20
     ca0:	0b1c0e03 	bleq	7044b4 <_E_text+0x702fc8>
     ca4:	0d0b0000 	stceq	0, cr0, [fp, #-0]
     ca8:	3a0e0300 	bcc	3818b0 <_E_text+0x3803c4>
     cac:	390b3b0b 	stmdbcc	fp, {r0, r1, r3, r8, r9, fp, ip, sp}
     cb0:	3813490b 	ldmdacc	r3, {r0, r1, r3, r8, fp, lr}
     cb4:	0c00000a 	stceq	0, cr0, [r0], {10}
     cb8:	13490101 	movtne	r0, #37121	; 0x9101
     cbc:	00001301 	andeq	r1, r0, r1, lsl #6
     cc0:	4900210d 	stmdbmi	r0, {r0, r2, r3, r8, sp}
     cc4:	000b2f13 	andeq	r2, fp, r3, lsl pc
     cc8:	00340e00 	eorseq	r0, r4, r0, lsl #28
     ccc:	0b3a0e03 	bleq	e844e0 <_E_text+0xe82ff4>
     cd0:	0b390b3b 	bleq	e439c4 <_E_text+0xe424d8>
     cd4:	0c3f1349 	ldceq	3, cr1, [pc], #-292	; bb8 <DMA_ConfigureChannelInterrupt+0x2c>
     cd8:	00000a02 	andeq	r0, r0, r2, lsl #20
     cdc:	3f012e0f 	svccc	0x00012e0f
     ce0:	3a0e030c 	bcc	381918 <_E_text+0x38042c>
     ce4:	39053b0b 	stmdbcc	r5, {r0, r1, r3, r8, r9, fp, ip, sp}
     ce8:	110c270b 	tstne	ip, fp, lsl #14
     cec:	40011201 	andmi	r1, r1, r1, lsl #4
     cf0:	0c429706 	mcrreq	7, 0, r9, r2, cr6
     cf4:	00001301 	andeq	r1, r0, r1, lsl #6
     cf8:	03000510 	movweq	r0, #1296	; 0x510
     cfc:	3b0b3a0e 	blcc	2cf53c <_E_text+0x2ce050>
     d00:	490b3905 	stmdbmi	fp, {r0, r2, r8, fp, ip, sp}
     d04:	000a0213 	andeq	r0, sl, r3, lsl r2
     d08:	012e1100 			; <UNDEFINED> instruction: 0x012e1100
     d0c:	0e030c3f 	mcreq	12, 0, r0, cr3, cr15, {1}
     d10:	053b0b3a 	ldreq	r0, [fp, #-2874]!	; 0xfffff4c6
     d14:	0c270b39 			; <UNDEFINED> instruction: 0x0c270b39
     d18:	01111349 	tsteq	r1, r9, asr #6
     d1c:	06400112 			; <UNDEFINED> instruction: 0x06400112
     d20:	010c4296 			; <UNDEFINED> instruction: 0x010c4296
     d24:	12000013 	andne	r0, r0, #19
     d28:	0e030034 	mcreq	0, 0, r0, cr3, cr4, {1}
     d2c:	053b0b3a 	ldreq	r0, [fp, #-2874]!	; 0xfffff4c6
     d30:	13490b39 	movtne	r0, #39737	; 0x9b39
     d34:	00000a02 	andeq	r0, r0, r2, lsl #20
     d38:	0b000f13 	bleq	498c <_E_text+0x34a0>
     d3c:	0013490b 	andseq	r4, r3, fp, lsl #18
     d40:	012e1400 			; <UNDEFINED> instruction: 0x012e1400
     d44:	0e030c3f 	mcreq	12, 0, r0, cr3, cr15, {1}
     d48:	053b0b3a 	ldreq	r0, [fp, #-2874]!	; 0xfffff4c6
     d4c:	0c270b39 			; <UNDEFINED> instruction: 0x0c270b39
     d50:	01120111 	tsteq	r2, r1, lsl r1
     d54:	42960640 	addsmi	r0, r6, #64, 12	; 0x4000000
     d58:	0013010c 	andseq	r0, r3, ip, lsl #2
     d5c:	012e1500 			; <UNDEFINED> instruction: 0x012e1500
     d60:	0e030c3f 	mcreq	12, 0, r0, cr3, cr15, {1}
     d64:	0b3b0b3a 	bleq	ec3a54 <_E_text+0xec2568>
     d68:	0c270b39 			; <UNDEFINED> instruction: 0x0c270b39
     d6c:	01111349 	tsteq	r1, r9, asr #6
     d70:	06400112 			; <UNDEFINED> instruction: 0x06400112
     d74:	010c4296 			; <UNDEFINED> instruction: 0x010c4296
     d78:	16000013 			; <UNDEFINED> instruction: 0x16000013
     d7c:	0e030034 	mcreq	0, 0, r0, cr3, cr4, {1}
     d80:	0b3b0b3a 	bleq	ec3a70 <_E_text+0xec2584>
     d84:	13490b39 	movtne	r0, #39737	; 0x9b39
     d88:	00000a02 	andeq	r0, r0, r2, lsl #20
     d8c:	03002e17 	movweq	r2, #3607	; 0xe17
     d90:	3b0b3a0e 	blcc	2cf5d0 <_E_text+0x2ce0e4>
     d94:	270b390b 	strcs	r3, [fp, -fp, lsl #18]
     d98:	1113490c 	tstne	r3, ip, lsl #18
     d9c:	40011201 	andmi	r1, r1, r1, lsl #4
     da0:	0c429706 	mcrreq	7, 0, r9, r2, cr6
     da4:	2e180000 	cdpcs	0, 1, cr0, cr8, cr0, {0}
     da8:	030c3f01 	movweq	r3, #52993	; 0xcf01
     dac:	3b0b3a0e 	blcc	2cf5ec <_E_text+0x2ce100>
     db0:	270b390b 	strcs	r3, [fp, -fp, lsl #18]
     db4:	1201110c 	andne	r1, r1, #12, 2
     db8:	97064001 	strls	r4, [r6, -r1]
     dbc:	13010c42 	movwne	r0, #7234	; 0x1c42
     dc0:	05190000 	ldreq	r0, [r9, #-0]
     dc4:	3a0e0300 	bcc	3819cc <_E_text+0x3804e0>
     dc8:	390b3b0b 	stmdbcc	fp, {r0, r1, r3, r8, r9, fp, ip, sp}
     dcc:	0213490b 	andseq	r4, r3, #180224	; 0x2c000
     dd0:	1a00000a 	bne	e00 <GPIO_SetData+0x80>
     dd4:	0e03012e 	adfeqsp	f0, f3, #0.5
     dd8:	0b3b0b3a 	bleq	ec3ac8 <_E_text+0xec25dc>
     ddc:	0c270b39 			; <UNDEFINED> instruction: 0x0c270b39
     de0:	01111349 	tsteq	r1, r9, asr #6
     de4:	06400112 			; <UNDEFINED> instruction: 0x06400112
     de8:	010c4297 			; <UNDEFINED> instruction: 0x010c4297
     dec:	1b000013 	blne	e40 <GPIO_ConfigureDigitalEnable+0x30>
     df0:	0b0b0024 	bleq	2c0e88 <_E_text+0x2bf99c>
     df4:	08030b3e 	stmdaeq	r3, {r1, r2, r3, r4, r5, r8, r9, fp}
     df8:	01000000 	mrseq	r0, (UNDEF: 0)
     dfc:	0e250111 	mcreq	1, 1, r0, cr5, cr1, {0}
     e00:	0e030b13 	vmoveq.32	d3[0], r0
     e04:	0610081b 			; <UNDEFINED> instruction: 0x0610081b
     e08:	04020000 	streq	r0, [r2], #-0
     e0c:	0b0b3e01 	bleq	2d0618 <_E_text+0x2cf12c>
     e10:	3a13490b 	bcc	4d3244 <_E_text+0x4d1d58>
     e14:	390b3b0b 	stmdbcc	fp, {r0, r1, r3, r8, r9, fp, ip, sp}
     e18:	0013010b 	andseq	r0, r3, fp, lsl #2
     e1c:	00280300 	eoreq	r0, r8, r0, lsl #6
     e20:	0b1c0e03 	bleq	704634 <_E_text+0x703148>
     e24:	24040000 	strcs	r0, [r4], #-0
     e28:	3e0b0b00 	vmlacc.f64	d0, d11, d0
     e2c:	000e030b 	andeq	r0, lr, fp, lsl #6
     e30:	00160500 	andseq	r0, r6, r0, lsl #10
     e34:	0b3a0e03 	bleq	e84648 <_E_text+0xe8315c>
     e38:	0b390b3b 	bleq	e43b2c <_E_text+0xe42640>
     e3c:	00001349 	andeq	r1, r0, r9, asr #6
     e40:	0b011306 	bleq	45a60 <_E_text+0x44574>
     e44:	3b0b3a0b 	blcc	2cf678 <_E_text+0x2ce18c>
     e48:	010b390b 	tsteq	fp, fp, lsl #18
     e4c:	07000013 	smladeq	r0, r3, r0, r0
     e50:	0e03000d 	cdpeq	0, 0, cr0, cr3, cr13, {0}
     e54:	0b3b0b3a 	bleq	ec3b44 <_E_text+0xec2658>
     e58:	13490b39 	movtne	r0, #39737	; 0x9b39
     e5c:	00000a38 	andeq	r0, r0, r8, lsr sl
     e60:	03003408 	movweq	r3, #1032	; 0x408
     e64:	3b0b3a0e 	blcc	2cf6a4 <_E_text+0x2ce1b8>
     e68:	490b390b 	stmdbmi	fp, {r0, r1, r3, r8, fp, ip, sp}
     e6c:	3c0c3f13 	stccc	15, cr3, [ip], {19}
     e70:	0900000c 	stmdbeq	r0, {r2, r3}
     e74:	13470034 	movtne	r0, #28724	; 0x7034
     e78:	0b3b0b3a 	bleq	ec3b68 <_E_text+0xec267c>
     e7c:	0a020b39 	beq	83b68 <_E_text+0x8267c>
     e80:	01000000 	mrseq	r0, (UNDEF: 0)
     e84:	0e250111 	mcreq	1, 1, r0, cr5, cr1, {0}
     e88:	0e030b13 	vmoveq.32	d3[0], r0
     e8c:	0655081b 			; <UNDEFINED> instruction: 0x0655081b
     e90:	01520111 	cmpeq	r2, r1, lsl r1
     e94:	00000610 	andeq	r0, r0, r0, lsl r6
     e98:	0b002402 	bleq	9ea8 <_E_text+0x89bc>
     e9c:	030b3e0b 	movweq	r3, #48651	; 0xbe0b
     ea0:	0300000e 	movweq	r0, #14
     ea4:	0e030016 	mcreq	0, 0, r0, cr3, cr6, {0}
     ea8:	0b3b0b3a 	bleq	ec3b98 <_E_text+0xec26ac>
     eac:	13490b39 	movtne	r0, #39737	; 0x9b39
     eb0:	35040000 	strcc	r0, [r4, #-0]
     eb4:	00134900 	andseq	r4, r3, r0, lsl #18
     eb8:	000f0500 	andeq	r0, pc, r0, lsl #10
     ebc:	13490b0b 	movtne	r0, #39691	; 0x9b0b
     ec0:	15060000 	strne	r0, [r6, #-0]
     ec4:	000c2700 	andeq	r2, ip, r0, lsl #14
     ec8:	01130700 	tsteq	r3, r0, lsl #14
     ecc:	0b3a0b0b 	bleq	e83b00 <_E_text+0xe82614>
     ed0:	0b390b3b 	bleq	e43bc4 <_E_text+0xe426d8>
     ed4:	00001301 	andeq	r1, r0, r1, lsl #6
     ed8:	03000d08 	movweq	r0, #3336	; 0xd08
     edc:	3b0b3a0e 	blcc	2cf71c <_E_text+0x2ce230>
     ee0:	490b390b 	stmdbmi	fp, {r0, r1, r3, r8, fp, ip, sp}
     ee4:	0d0b0b13 	vstreq	d0, [fp, #-76]	; 0xffffffb4
     ee8:	380b0c0b 	stmdacc	fp, {r0, r1, r3, sl, fp}
     eec:	0900000a 	stmdbeq	r0, {r1, r3}
     ef0:	0b0b0117 	bleq	2c1354 <_E_text+0x2bfe68>
     ef4:	0b3b0b3a 	bleq	ec3be4 <_E_text+0xec26f8>
     ef8:	13010b39 	movwne	r0, #6969	; 0x1b39
     efc:	0d0a0000 	stceq	0, cr0, [sl, #-0]
     f00:	3a0e0300 	bcc	381b08 <_E_text+0x38061c>
     f04:	390b3b0b 	stmdbcc	fp, {r0, r1, r3, r8, r9, fp, ip, sp}
     f08:	0013490b 	andseq	r4, r3, fp, lsl #18
     f0c:	01040b00 	tsteq	r4, r0, lsl #22
     f10:	0b0b0b3e 	bleq	2c3c10 <_E_text+0x2c2724>
     f14:	0b3a1349 	bleq	e85c40 <_E_text+0xe84754>
     f18:	0b390b3b 	bleq	e43c0c <_E_text+0xe42720>
     f1c:	00001301 	andeq	r1, r0, r1, lsl #6
     f20:	0300280c 	movweq	r2, #2060	; 0x80c
     f24:	00051c0e 	andeq	r1, r5, lr, lsl #24
     f28:	00280d00 	eoreq	r0, r8, r0, lsl #26
     f2c:	061c0e03 	ldreq	r0, [ip], -r3, lsl #28
     f30:	280e0000 	stmdacs	lr, {}	; <UNPREDICTABLE>
     f34:	1c080300 	stcne	3, cr0, [r8], {-0}
     f38:	0f00000b 	svceq	0x0000000b
     f3c:	0e030028 	cdpeq	0, 0, cr0, cr3, cr8, {1}
     f40:	00000b1c 	andeq	r0, r0, ip, lsl fp
     f44:	03003410 	movweq	r3, #1040	; 0x410
     f48:	3b0b3a0e 	blcc	2cf788 <_E_text+0x2ce29c>
     f4c:	490b390b 	stmdbmi	fp, {r0, r1, r3, r8, fp, ip, sp}
     f50:	000a0213 	andeq	r0, sl, r3, lsl r2
     f54:	012e1100 			; <UNDEFINED> instruction: 0x012e1100
     f58:	0e030c3f 	mcreq	12, 0, r0, cr3, cr15, {1}
     f5c:	0b3b0b3a 	bleq	ec3c4c <_E_text+0xec2760>
     f60:	0c270b39 			; <UNDEFINED> instruction: 0x0c270b39
     f64:	01120111 	tsteq	r2, r1, lsl r1
     f68:	42970640 	addsmi	r0, r7, #64, 12	; 0x4000000
     f6c:	0013010c 	andseq	r0, r3, ip, lsl #2
     f70:	012e1200 			; <UNDEFINED> instruction: 0x012e1200
     f74:	0e030c3f 	mcreq	12, 0, r0, cr3, cr15, {1}
     f78:	0b3b0b3a 	bleq	ec3c68 <_E_text+0xec277c>
     f7c:	0c270b39 			; <UNDEFINED> instruction: 0x0c270b39
     f80:	01120111 	tsteq	r2, r1, lsl r1
     f84:	42960640 	addsmi	r0, r6, #64, 12	; 0x4000000
     f88:	0013010c 	andseq	r0, r3, ip, lsl #2
     f8c:	00051300 	andeq	r1, r5, r0, lsl #6
     f90:	0b3a0e03 	bleq	e847a4 <_E_text+0xe832b8>
     f94:	0b390b3b 	bleq	e43c88 <_E_text+0xe4279c>
     f98:	0a021349 	beq	85cc4 <_E_text+0x847d8>
     f9c:	2e140000 	cdpcs	0, 1, cr0, cr4, cr0, {0}
     fa0:	3a0e0301 	bcc	381bac <_E_text+0x3806c0>
     fa4:	390b3b0b 	stmdbcc	fp, {r0, r1, r3, r8, r9, fp, ip, sp}
     fa8:	490c270b 	stmdbmi	ip, {r0, r1, r3, r8, r9, sl, sp}
     fac:	12011113 	andne	r1, r1, #-1073741820	; 0xc0000004
     fb0:	96064001 	strls	r4, [r6], -r1
     fb4:	13010c42 	movwne	r0, #7234	; 0x1c42
     fb8:	2e150000 	cdpcs	0, 1, cr0, cr5, cr0, {0}
     fbc:	3a0e0300 	bcc	381bc4 <_E_text+0x3806d8>
     fc0:	390b3b0b 	stmdbcc	fp, {r0, r1, r3, r8, r9, fp, ip, sp}
     fc4:	110c270b 	tstne	ip, fp, lsl #14
     fc8:	40011201 	andmi	r1, r1, r1, lsl #4
     fcc:	0c429706 	mcrreq	7, 0, r9, r2, cr6
     fd0:	2e160000 	cdpcs	0, 1, cr0, cr6, cr0, {0}
     fd4:	030c3f00 	movweq	r3, #52992	; 0xcf00
     fd8:	3b0b3a0e 	blcc	2cf818 <_E_text+0x2ce32c>
     fdc:	490b390b 	stmdbmi	fp, {r0, r1, r3, r8, fp, ip, sp}
     fe0:	12011113 	andne	r1, r1, #-1073741820	; 0xc0000004
     fe4:	96064001 	strls	r4, [r6], -r1
     fe8:	00000c42 	andeq	r0, r0, r2, asr #24
     fec:	0b002417 	bleq	a050 <_E_text+0x8b64>
     ff0:	030b3e0b 	movweq	r3, #48651	; 0xbe0b
     ff4:	00000008 	andeq	r0, r0, r8
     ff8:	25011101 	strcs	r1, [r1, #-257]	; 0xfffffeff
     ffc:	030b130e 	movweq	r1, #45838	; 0xb30e
    1000:	55081b0e 	strpl	r1, [r8, #-2830]	; 0xfffff4f2
    1004:	52011106 	andpl	r1, r1, #-2147483647	; 0x80000001
    1008:	00061001 	andeq	r1, r6, r1
    100c:	00160200 	andseq	r0, r6, r0, lsl #4
    1010:	0b3a0e03 	bleq	e84824 <_E_text+0xe83338>
    1014:	0b390b3b 	bleq	e43d08 <_E_text+0xe4281c>
    1018:	00001349 	andeq	r1, r0, r9, asr #6
    101c:	0b002403 	bleq	a030 <_E_text+0x8b44>
    1020:	030b3e0b 	movweq	r3, #48651	; 0xbe0b
    1024:	0400000e 	streq	r0, [r0], #-14
    1028:	13490035 	movtne	r0, #36917	; 0x9035
    102c:	0f050000 	svceq	0x00050000
    1030:	490b0b00 	stmdbmi	fp, {r8, r9, fp}
    1034:	06000013 			; <UNDEFINED> instruction: 0x06000013
    1038:	0c270015 	stceq	0, cr0, [r7], #-84	; 0xffffffac
    103c:	04070000 	streq	r0, [r7], #-0
    1040:	0b0b3e01 	bleq	2d084c <_E_text+0x2cf360>
    1044:	3a13490b 	bcc	4d3478 <_E_text+0x4d1f8c>
    1048:	390b3b0b 	stmdbcc	fp, {r0, r1, r3, r8, r9, fp, ip, sp}
    104c:	0013010b 	andseq	r0, r3, fp, lsl #2
    1050:	00280800 	eoreq	r0, r8, r0, lsl #16
    1054:	0b1c0e03 	bleq	704868 <_E_text+0x70337c>
    1058:	04090000 	streq	r0, [r9], #-0
    105c:	3e0e0301 	cdpcc	3, 0, cr0, cr14, cr1, {0}
    1060:	490b0b0b 	stmdbmi	fp, {r0, r1, r3, r8, r9, fp}
    1064:	3b0b3a13 	blcc	2cf8b8 <_E_text+0x2ce3cc>
    1068:	010b390b 	tsteq	fp, fp, lsl #18
    106c:	0a000013 	beq	10c0 <GPIO_WriteBitBandBits+0x4>
    1070:	0b0b0113 	bleq	2c14c4 <_E_text+0x2bffd8>
    1074:	0b3b0b3a 	bleq	ec3d64 <_E_text+0xec2878>
    1078:	13010b39 	movwne	r0, #6969	; 0x1b39
    107c:	0d0b0000 	stceq	0, cr0, [fp, #-0]
    1080:	3a0e0300 	bcc	381c88 <_E_text+0x38079c>
    1084:	390b3b0b 	stmdbcc	fp, {r0, r1, r3, r8, r9, fp, ip, sp}
    1088:	3813490b 	ldmdacc	r3, {r0, r1, r3, r8, fp, lr}
    108c:	0c00000a 	stceq	0, cr0, [r0], {10}
    1090:	13490026 	movtne	r0, #36902	; 0x9026
    1094:	010d0000 	mrseq	r0, (UNDEF: 13)
    1098:	01134901 	tsteq	r3, r1, lsl #18
    109c:	0e000013 	mcreq	0, 0, r0, cr0, cr3, {0}
    10a0:	13490021 	movtne	r0, #36897	; 0x9021
    10a4:	00000b2f 	andeq	r0, r0, pc, lsr #22
    10a8:	0300340f 	movweq	r3, #1039	; 0x40f
    10ac:	3b0b3a0e 	blcc	2cf8ec <_E_text+0x2ce400>
    10b0:	490b390b 	stmdbmi	fp, {r0, r1, r3, r8, fp, ip, sp}
    10b4:	3c0c3f13 	stccc	15, cr3, [ip], {19}
    10b8:	1000000c 	andne	r0, r0, ip
    10bc:	0e03000d 	cdpeq	0, 0, cr0, cr3, cr13, {0}
    10c0:	0b3b0b3a 	bleq	ec3db0 <_E_text+0xec28c4>
    10c4:	13490b39 	movtne	r0, #39737	; 0x9b39
    10c8:	0b0d0b0b 	bleq	343cfc <_E_text+0x342810>
    10cc:	0a380b0c 	beq	e03d04 <_E_text+0xe02818>
    10d0:	17110000 	ldrne	r0, [r1, -r0]
    10d4:	3a0b0b01 	bcc	2c3ce0 <_E_text+0x2c27f4>
    10d8:	390b3b0b 	stmdbcc	fp, {r0, r1, r3, r8, r9, fp, ip, sp}
    10dc:	0013010b 	andseq	r0, r3, fp, lsl #2
    10e0:	000d1200 	andeq	r1, sp, r0, lsl #4
    10e4:	0b3a0e03 	bleq	e848f8 <_E_text+0xe8340c>
    10e8:	0b390b3b 	bleq	e43ddc <_E_text+0xe428f0>
    10ec:	00001349 	andeq	r1, r0, r9, asr #6
    10f0:	03000d13 	movweq	r0, #3347	; 0xd13
    10f4:	3b0b3a08 	blcc	2cf91c <_E_text+0x2ce430>
    10f8:	490b390b 	stmdbmi	fp, {r0, r1, r3, r8, fp, ip, sp}
    10fc:	0d0b0b13 	vstreq	d0, [fp, #-76]	; 0xffffffb4
    1100:	380b0c0b 	stmdacc	fp, {r0, r1, r3, sl, fp}
    1104:	1400000a 	strne	r0, [r0], #-10
    1108:	0e03000d 	cdpeq	0, 0, cr0, cr3, cr13, {0}
    110c:	053b0b3a 	ldreq	r0, [fp, #-2874]!	; 0xfffff4c6
    1110:	13490b39 	movtne	r0, #39737	; 0x9b39
    1114:	0b0d0b0b 	bleq	343d48 <_E_text+0x34285c>
    1118:	0a380b0c 	beq	e03d50 <_E_text+0xe02864>
    111c:	0d150000 	ldceq	0, cr0, [r5, #-0]
    1120:	3a0e0300 	bcc	381d28 <_E_text+0x38083c>
    1124:	39053b0b 	stmdbcc	r5, {r0, r1, r3, r8, r9, fp, ip, sp}
    1128:	0013490b 	andseq	r4, r3, fp, lsl #18
    112c:	00161600 	andseq	r1, r6, r0, lsl #12
    1130:	0b3a0e03 	bleq	e84944 <_E_text+0xe83458>
    1134:	0b39053b 	bleq	e42628 <_E_text+0xe4113c>
    1138:	00001349 	andeq	r1, r0, r9, asr #6
    113c:	0b011317 	bleq	45da0 <_E_text+0x448b4>
    1140:	3b0b3a0b 	blcc	2cf974 <_E_text+0x2ce488>
    1144:	010b3905 	tsteq	fp, r5, lsl #18
    1148:	18000013 	stmdane	r0, {r0, r1, r4}
    114c:	0b0b0117 	bleq	2c15b0 <_E_text+0x2c00c4>
    1150:	053b0b3a 	ldreq	r0, [fp, #-2874]!	; 0xfffff4c6
    1154:	13010b39 	movwne	r0, #6969	; 0x1b39
    1158:	28190000 	ldmdacs	r9, {}	; <UNPREDICTABLE>
    115c:	1c0e0300 	stcne	3, cr0, [lr], {-0}
    1160:	1a000005 	bne	117c <main+0x3c>
    1164:	0e030028 	cdpeq	0, 0, cr0, cr3, cr8, {1}
    1168:	0000061c 	andeq	r0, r0, ip, lsl r6
    116c:	0300281b 	movweq	r2, #2075	; 0x81b
    1170:	000b1c08 	andeq	r1, fp, r8, lsl #24
    1174:	00211c00 	eoreq	r1, r1, r0, lsl #24
    1178:	052f1349 	streq	r1, [pc, #-841]!	; e37 <GPIO_ConfigureDigitalEnable+0x27>
    117c:	341d0000 	ldrcc	r0, [sp], #-0
    1180:	3a0e0300 	bcc	381d88 <_E_text+0x38089c>
    1184:	390b3b0b 	stmdbcc	fp, {r0, r1, r3, r8, r9, fp, ip, sp}
    1188:	3f13490b 	svccc	0x0013490b
    118c:	000a020c 	andeq	r0, sl, ip, lsl #4
    1190:	00341e00 	eorseq	r1, r4, r0, lsl #28
    1194:	0b3a0e03 	bleq	e849a8 <_E_text+0xe834bc>
    1198:	0b390b3b 	bleq	e43e8c <_E_text+0xe429a0>
    119c:	0a021349 	beq	85ec8 <_E_text+0x849dc>
    11a0:	341f0000 	ldrcc	r0, [pc], #-0	; 11a8 <main+0x68>
    11a4:	3a0e0300 	bcc	381dac <_E_text+0x3808c0>
    11a8:	39053b0b 	stmdbcc	r5, {r0, r1, r3, r8, r9, fp, ip, sp}
    11ac:	0213490b 	andseq	r4, r3, #180224	; 0x2c000
    11b0:	2000000a 	andcs	r0, r0, sl
    11b4:	0c3f012e 	ldfeqs	f0, [pc], #-184	; 1104 <GPIO_WriteBitBandBits+0x48>
    11b8:	0b3a0e03 	bleq	e849cc <_E_text+0xe834e0>
    11bc:	0b39053b 	bleq	e426b0 <_E_text+0xe411c4>
    11c0:	01110c27 	tsteq	r1, r7, lsr #24
    11c4:	06400112 			; <UNDEFINED> instruction: 0x06400112
    11c8:	010c4297 			; <UNDEFINED> instruction: 0x010c4297
    11cc:	21000013 	tstcs	r0, r3, lsl r0
    11d0:	0e030005 	cdpeq	0, 0, cr0, cr3, cr5, {0}
    11d4:	053b0b3a 	ldreq	r0, [fp, #-2874]!	; 0xfffff4c6
    11d8:	13490b39 	movtne	r0, #39737	; 0x9b39
    11dc:	00000a02 	andeq	r0, r0, r2, lsl #20
    11e0:	3f012e22 	svccc	0x00012e22
    11e4:	3a0e030c 	bcc	381e1c <_E_text+0x380930>
    11e8:	39053b0b 	stmdbcc	r5, {r0, r1, r3, r8, r9, fp, ip, sp}
    11ec:	110c270b 	tstne	ip, fp, lsl #14
    11f0:	40011201 	andmi	r1, r1, r1, lsl #4
    11f4:	0c429606 	mcrreq	6, 0, r9, r2, cr6
    11f8:	00001301 	andeq	r1, r0, r1, lsl #6
    11fc:	3f012e23 	svccc	0x00012e23
    1200:	3a0e030c 	bcc	381e38 <_E_text+0x38094c>
    1204:	39053b0b 	stmdbcc	r5, {r0, r1, r3, r8, r9, fp, ip, sp}
    1208:	1113490b 	tstne	r3, fp, lsl #18
    120c:	40011201 	andmi	r1, r1, r1, lsl #4
    1210:	0c429606 	mcrreq	6, 0, r9, r2, cr6
    1214:	00001301 	andeq	r1, r0, r1, lsl #6
    1218:	0b002424 	bleq	a2b0 <_E_text+0x8dc4>
    121c:	030b3e0b 	movweq	r3, #48651	; 0xbe0b
    1220:	25000008 	strcs	r0, [r0, #-8]
    1224:	0c3f012e 	ldfeqs	f0, [pc], #-184	; 1174 <main+0x34>
    1228:	0b3a0e03 	bleq	e84a3c <_E_text+0xe83550>
    122c:	0b39053b 	bleq	e42720 <_E_text+0xe41234>
    1230:	01111349 	tsteq	r1, r9, asr #6
    1234:	06400112 			; <UNDEFINED> instruction: 0x06400112
    1238:	000c4296 	muleq	ip, r6, r2
    123c:	11010000 	mrsne	r0, (UNDEF: 1)
    1240:	130e2501 	movwne	r2, #58625	; 0xe501
    1244:	1b0e030b 	blne	381e78 <_E_text+0x38098c>
    1248:	00061008 	andeq	r1, r6, r8
    124c:	00240200 	eoreq	r0, r4, r0, lsl #4
    1250:	0b3e0b0b 	bleq	f83e84 <_E_text+0xf82998>
    1254:	00000e03 	andeq	r0, r0, r3, lsl #28
    1258:	03001603 	movweq	r1, #1539	; 0x603
    125c:	3b0b3a0e 	blcc	2cfa9c <_E_text+0x2ce5b0>
    1260:	490b390b 	stmdbmi	fp, {r0, r1, r3, r8, fp, ip, sp}
    1264:	04000013 	streq	r0, [r0], #-19	; 0xffffffed
    1268:	0b3e0104 	bleq	f81680 <_E_text+0xf80194>
    126c:	13490b0b 	movtne	r0, #39691	; 0x9b0b
    1270:	0b3b0b3a 	bleq	ec3f60 <_E_text+0xec2a74>
    1274:	13010b39 	movwne	r0, #6969	; 0x1b39
    1278:	28050000 	stmdacs	r5, {}	; <UNPREDICTABLE>
    127c:	1c0e0300 	stcne	3, cr0, [lr], {-0}
    1280:	0600000b 	streq	r0, [r0], -fp
    1284:	0b0b0113 	bleq	2c16d8 <_E_text+0x2c01ec>
    1288:	0b3b0b3a 	bleq	ec3f78 <_E_text+0xec2a8c>
    128c:	13010b39 	movwne	r0, #6969	; 0x1b39
    1290:	0d070000 	stceq	0, cr0, [r7, #-0]
    1294:	3a0e0300 	bcc	381e9c <_E_text+0x3809b0>
    1298:	390b3b0b 	stmdbcc	fp, {r0, r1, r3, r8, r9, fp, ip, sp}
    129c:	3813490b 	ldmdacc	r3, {r0, r1, r3, r8, fp, lr}
    12a0:	0800000a 	stmdaeq	r0, {r1, r3}
    12a4:	0e030034 	mcreq	0, 0, r0, cr3, cr4, {1}
    12a8:	0b3b0b3a 	bleq	ec3f98 <_E_text+0xec2aac>
    12ac:	13490b39 	movtne	r0, #39737	; 0x9b39
    12b0:	0c3c0c3f 	ldceq	12, cr0, [ip], #-252	; 0xffffff04
    12b4:	34090000 	strcc	r0, [r9], #-0
    12b8:	3a134700 	bcc	4d2ec0 <_E_text+0x4d19d4>
    12bc:	390b3b0b 	stmdbcc	fp, {r0, r1, r3, r8, r9, fp, ip, sp}
    12c0:	000a020b 	andeq	r0, sl, fp, lsl #4
	...

Disassembly of section .debug_loc:

00000000 <.debug_loc>:
	...
       8:	007d0002 	rsbseq	r0, sp, r2
	...
      14:	047d0002 	ldrbteq	r0, [sp], #-2
	...
      20:	107d0002 	rsbsne	r0, sp, r2
	...
      2c:	10770002 	rsbsne	r0, r7, r2
	...
      38:	04770002 	ldrbteq	r0, [r7], #-2
	...
      44:	047d0002 	ldrbteq	r0, [sp], #-2
	...
      50:	007d0002 	rsbseq	r0, sp, r2
	...
      64:	007d0002 	rsbseq	r0, sp, r2
	...
      70:	047d0002 	ldrbteq	r0, [sp], #-2
	...
      7c:	107d0002 	rsbsne	r0, sp, r2
	...
      88:	10770002 	rsbsne	r0, r7, r2
	...
      94:	04770002 	ldrbteq	r0, [r7], #-2
	...
      a0:	047d0002 	ldrbteq	r0, [sp], #-2
	...
      ac:	007d0002 	rsbseq	r0, sp, r2
	...
      c0:	007d0002 	rsbseq	r0, sp, r2
	...
      cc:	087d0002 	ldmdaeq	sp!, {r1}^
	...
      d8:	107d0002 	rsbsne	r0, sp, r2
	...
      e4:	10770002 	rsbsne	r0, r7, r2
	...
      f0:	08770002 	ldmdaeq	r7!, {r1}^
	...
      fc:	087d0002 	ldmdaeq	sp!, {r1}^
	...
     110:	007d0002 	rsbseq	r0, sp, r2
	...
     11c:	087d0002 	ldmdaeq	sp!, {r1}^
	...
     128:	107d0002 	rsbsne	r0, sp, r2
	...
     134:	10770002 	rsbsne	r0, r7, r2
	...
     140:	08770002 	ldmdaeq	r7!, {r1}^
	...
     14c:	087d0002 	ldmdaeq	sp!, {r1}^
	...
     160:	007d0002 	rsbseq	r0, sp, r2
	...
     16c:	087d0002 	ldmdaeq	sp!, {r1}^
	...
     178:	107d0002 	rsbsne	r0, sp, r2
	...
     184:	10770002 	rsbsne	r0, r7, r2
	...
     190:	08770002 	ldmdaeq	r7!, {r1}^
	...
     19c:	087d0002 	ldmdaeq	sp!, {r1}^
	...
     1b0:	007d0002 	rsbseq	r0, sp, r2
	...
     1bc:	047d0002 	ldrbteq	r0, [sp], #-2
	...
     1c8:	187d0002 	ldmdane	sp!, {r1}^
	...
     1d4:	18770002 	ldmdane	r7!, {r1}^
	...
     1e0:	04770002 	ldrbteq	r0, [r7], #-2
	...
     1ec:	047d0002 	ldrbteq	r0, [sp], #-2
	...
     1f8:	007d0002 	rsbseq	r0, sp, r2
	...
     204:	00000c38 	andeq	r0, r0, r8, lsr ip
     208:	00000c3a 	andeq	r0, r0, sl, lsr ip
     20c:	007d0002 	rsbseq	r0, sp, r2
     210:	00000c3a 	andeq	r0, r0, sl, lsr ip
     214:	00000c3c 	andeq	r0, r0, ip, lsr ip
     218:	047d0002 	ldrbteq	r0, [sp], #-2
     21c:	00000c3c 	andeq	r0, r0, ip, lsr ip
     220:	00000c3e 	andeq	r0, r0, lr, lsr ip
     224:	187d0002 	ldmdane	sp!, {r1}^
     228:	00000c3e 	andeq	r0, r0, lr, lsr ip
     22c:	00000c86 	andeq	r0, r0, r6, lsl #25
     230:	18770002 	ldmdane	r7!, {r1}^
     234:	00000c86 	andeq	r0, r0, r6, lsl #25
     238:	00000c88 	andeq	r0, r0, r8, lsl #25
     23c:	04770002 	ldrbteq	r0, [r7], #-2
     240:	00000c88 	andeq	r0, r0, r8, lsl #25
     244:	00000c8a 	andeq	r0, r0, sl, lsl #25
     248:	047d0002 	ldrbteq	r0, [sp], #-2
     24c:	00000c8a 	andeq	r0, r0, sl, lsl #25
     250:	00000c90 	muleq	r0, r0, ip
     254:	007d0002 	rsbseq	r0, sp, r2
	...
     260:	00000be0 	andeq	r0, r0, r0, ror #23
     264:	00000be2 	andeq	r0, r0, r2, ror #23
     268:	007d0002 	rsbseq	r0, sp, r2
     26c:	00000be2 	andeq	r0, r0, r2, ror #23
     270:	00000be4 	andeq	r0, r0, r4, ror #23
     274:	047d0002 	ldrbteq	r0, [sp], #-2
     278:	00000be4 	andeq	r0, r0, r4, ror #23
     27c:	00000be6 	andeq	r0, r0, r6, ror #23
     280:	107d0002 	rsbsne	r0, sp, r2
     284:	00000be6 	andeq	r0, r0, r6, ror #23
     288:	00000c2e 	andeq	r0, r0, lr, lsr #24
     28c:	10770002 	rsbsne	r0, r7, r2
     290:	00000c2e 	andeq	r0, r0, lr, lsr #24
     294:	00000c30 	andeq	r0, r0, r0, lsr ip
     298:	04770002 	ldrbteq	r0, [r7], #-2
     29c:	00000c30 	andeq	r0, r0, r0, lsr ip
     2a0:	00000c32 	andeq	r0, r0, r2, lsr ip
     2a4:	047d0002 	ldrbteq	r0, [sp], #-2
     2a8:	00000c32 	andeq	r0, r0, r2, lsr ip
     2ac:	00000c38 	andeq	r0, r0, r8, lsr ip
     2b0:	007d0002 	rsbseq	r0, sp, r2
	...
     2bc:	00000b8c 	andeq	r0, r0, ip, lsl #23
     2c0:	00000b8e 	andeq	r0, r0, lr, lsl #23
     2c4:	007d0002 	rsbseq	r0, sp, r2
     2c8:	00000b8e 	andeq	r0, r0, lr, lsl #23
     2cc:	00000b90 	muleq	r0, r0, fp
     2d0:	047d0002 	ldrbteq	r0, [sp], #-2
     2d4:	00000b90 	muleq	r0, r0, fp
     2d8:	00000b92 	muleq	r0, r2, fp
     2dc:	107d0002 	rsbsne	r0, sp, r2
     2e0:	00000b92 	muleq	r0, r2, fp
     2e4:	00000bd6 	ldrdeq	r0, [r0], -r6
     2e8:	10770002 	rsbsne	r0, r7, r2
     2ec:	00000bd6 	ldrdeq	r0, [r0], -r6
     2f0:	00000bd8 	ldrdeq	r0, [r0], -r8
     2f4:	04770002 	ldrbteq	r0, [r7], #-2
     2f8:	00000bd8 	ldrdeq	r0, [r0], -r8
     2fc:	00000bda 	ldrdeq	r0, [r0], -sl
     300:	047d0002 	ldrbteq	r0, [sp], #-2
     304:	00000bda 	ldrdeq	r0, [r0], -sl
     308:	00000be0 	andeq	r0, r0, r0, ror #23
     30c:	007d0002 	rsbseq	r0, sp, r2
	...
     318:	00000b54 	andeq	r0, r0, r4, asr fp
     31c:	00000b56 	andeq	r0, r0, r6, asr fp
     320:	007d0002 	rsbseq	r0, sp, r2
     324:	00000b56 	andeq	r0, r0, r6, asr fp
     328:	00000b58 	andeq	r0, r0, r8, asr fp
     32c:	087d0002 	ldmdaeq	sp!, {r1}^
     330:	00000b58 	andeq	r0, r0, r8, asr fp
     334:	00000b5a 	andeq	r0, r0, sl, asr fp
     338:	107d0002 	rsbsne	r0, sp, r2
     33c:	00000b5a 	andeq	r0, r0, sl, asr fp
     340:	00000b88 	andeq	r0, r0, r8, lsl #23
     344:	10770002 	rsbsne	r0, r7, r2
     348:	00000b88 	andeq	r0, r0, r8, lsl #23
     34c:	00000b8a 	andeq	r0, r0, sl, lsl #23
     350:	08770002 	ldmdaeq	r7!, {r1}^
     354:	00000b8a 	andeq	r0, r0, sl, lsl #23
     358:	00000b8c 	andeq	r0, r0, ip, lsl #23
     35c:	087d0002 	ldmdaeq	sp!, {r1}^
	...
     370:	007d0002 	rsbseq	r0, sp, r2
	...
     37c:	047d0002 	ldrbteq	r0, [sp], #-2
	...
     388:	107d0002 	rsbsne	r0, sp, r2
	...
     394:	10770002 	rsbsne	r0, r7, r2
	...
     3a0:	04770002 	ldrbteq	r0, [r7], #-2
	...
     3ac:	047d0002 	ldrbteq	r0, [sp], #-2
	...
     3b8:	007d0002 	rsbseq	r0, sp, r2
	...
     3c4:	00000afc 	strdeq	r0, [r0], -ip
     3c8:	00000afe 	strdeq	r0, [r0], -lr
     3cc:	007d0002 	rsbseq	r0, sp, r2
     3d0:	00000afe 	strdeq	r0, [r0], -lr
     3d4:	00000b00 	andeq	r0, r0, r0, lsl #22
     3d8:	047d0002 	ldrbteq	r0, [sp], #-2
     3dc:	00000b00 	andeq	r0, r0, r0, lsl #22
     3e0:	00000b02 	andeq	r0, r0, r2, lsl #22
     3e4:	107d0002 	rsbsne	r0, sp, r2
     3e8:	00000b02 	andeq	r0, r0, r2, lsl #22
     3ec:	00000b4a 	andeq	r0, r0, sl, asr #22
     3f0:	10770002 	rsbsne	r0, r7, r2
     3f4:	00000b4a 	andeq	r0, r0, sl, asr #22
     3f8:	00000b4c 	andeq	r0, r0, ip, asr #22
     3fc:	04770002 	ldrbteq	r0, [r7], #-2
     400:	00000b4c 	andeq	r0, r0, ip, asr #22
     404:	00000b4e 	andeq	r0, r0, lr, asr #22
     408:	047d0002 	ldrbteq	r0, [sp], #-2
     40c:	00000b4e 	andeq	r0, r0, lr, asr #22
     410:	00000b54 	andeq	r0, r0, r4, asr fp
     414:	007d0002 	rsbseq	r0, sp, r2
	...
     428:	007d0002 	rsbseq	r0, sp, r2
	...
     434:	047d0002 	ldrbteq	r0, [sp], #-2
	...
     440:	187d0002 	ldmdane	sp!, {r1}^
	...
     44c:	18770002 	ldmdane	r7!, {r1}^
	...
     458:	04770002 	ldrbteq	r0, [r7], #-2
	...
     464:	047d0002 	ldrbteq	r0, [sp], #-2
	...
     470:	007d0002 	rsbseq	r0, sp, r2
	...
     47c:	000009a4 	andeq	r0, r0, r4, lsr #19
     480:	000009a6 	andeq	r0, r0, r6, lsr #19
     484:	007d0002 	rsbseq	r0, sp, r2
     488:	000009a6 	andeq	r0, r0, r6, lsr #19
     48c:	000009a8 	andeq	r0, r0, r8, lsr #19
     490:	047d0002 	ldrbteq	r0, [sp], #-2
     494:	000009a8 	andeq	r0, r0, r8, lsr #19
     498:	000009aa 	andeq	r0, r0, sl, lsr #19
     49c:	187d0002 	ldmdane	sp!, {r1}^
     4a0:	000009aa 	andeq	r0, r0, sl, lsr #19
     4a4:	00000adc 	ldrdeq	r0, [r0], -ip
     4a8:	18770002 	ldmdane	r7!, {r1}^
     4ac:	00000adc 	ldrdeq	r0, [r0], -ip
     4b0:	00000ade 	ldrdeq	r0, [r0], -lr
     4b4:	04770002 	ldrbteq	r0, [r7], #-2
     4b8:	00000ade 	ldrdeq	r0, [r0], -lr
     4bc:	00000ae0 	andeq	r0, r0, r0, ror #21
     4c0:	047d0002 	ldrbteq	r0, [sp], #-2
     4c4:	00000ae0 	andeq	r0, r0, r0, ror #21
     4c8:	00000afc 	strdeq	r0, [r0], -ip
     4cc:	007d0002 	rsbseq	r0, sp, r2
	...
     4d8:	00000978 	andeq	r0, r0, r8, ror r9
     4dc:	0000097a 	andeq	r0, r0, sl, ror r9
     4e0:	007d0002 	rsbseq	r0, sp, r2
     4e4:	0000097a 	andeq	r0, r0, sl, ror r9
     4e8:	0000097c 	andeq	r0, r0, ip, ror r9
     4ec:	047d0002 	ldrbteq	r0, [sp], #-2
     4f0:	0000097c 	andeq	r0, r0, ip, ror r9
     4f4:	0000097e 	andeq	r0, r0, lr, ror r9
     4f8:	107d0002 	rsbsne	r0, sp, r2
     4fc:	0000097e 	andeq	r0, r0, lr, ror r9
     500:	0000099a 	muleq	r0, sl, r9
     504:	10770002 	rsbsne	r0, r7, r2
     508:	0000099a 	muleq	r0, sl, r9
     50c:	0000099c 	muleq	r0, ip, r9
     510:	04770002 	ldrbteq	r0, [r7], #-2
     514:	0000099c 	muleq	r0, ip, r9
     518:	0000099e 	muleq	r0, lr, r9
     51c:	047d0002 	ldrbteq	r0, [sp], #-2
     520:	0000099e 	muleq	r0, lr, r9
     524:	000009a4 	andeq	r0, r0, r4, lsr #19
     528:	007d0002 	rsbseq	r0, sp, r2
	...
     53c:	007d0002 	rsbseq	r0, sp, r2
	...
     548:	047d0002 	ldrbteq	r0, [sp], #-2
	...
     554:	107d0002 	rsbsne	r0, sp, r2
	...
     560:	10770002 	rsbsne	r0, r7, r2
	...
     56c:	04770002 	ldrbteq	r0, [r7], #-2
	...
     578:	047d0002 	ldrbteq	r0, [sp], #-2
	...
     584:	007d0002 	rsbseq	r0, sp, r2
	...
     598:	007d0002 	rsbseq	r0, sp, r2
	...
     5a4:	047d0002 	ldrbteq	r0, [sp], #-2
	...
     5b0:	107d0002 	rsbsne	r0, sp, r2
	...
     5bc:	10770002 	rsbsne	r0, r7, r2
	...
     5c8:	04770002 	ldrbteq	r0, [r7], #-2
	...
     5d4:	047d0002 	ldrbteq	r0, [sp], #-2
	...
     5e0:	007d0002 	rsbseq	r0, sp, r2
	...
     5ec:	000008ec 	andeq	r0, r0, ip, ror #17
     5f0:	000008ee 	andeq	r0, r0, lr, ror #17
     5f4:	007d0002 	rsbseq	r0, sp, r2
     5f8:	000008ee 	andeq	r0, r0, lr, ror #17
     5fc:	000008f0 	strdeq	r0, [r0], -r0	; <UNPREDICTABLE>
     600:	087d0002 	ldmdaeq	sp!, {r1}^
     604:	000008f0 	strdeq	r0, [r0], -r0	; <UNPREDICTABLE>
     608:	000008f2 	strdeq	r0, [r0], -r2
     60c:	107d0002 	rsbsne	r0, sp, r2
     610:	000008f2 	strdeq	r0, [r0], -r2
     614:	00000966 	andeq	r0, r0, r6, ror #18
     618:	10770002 	rsbsne	r0, r7, r2
     61c:	00000966 	andeq	r0, r0, r6, ror #18
     620:	00000968 	andeq	r0, r0, r8, ror #18
     624:	08770002 	ldmdaeq	r7!, {r1}^
     628:	00000968 	andeq	r0, r0, r8, ror #18
     62c:	00000978 	andeq	r0, r0, r8, ror r9
     630:	087d0002 	ldmdaeq	sp!, {r1}^
	...
     63c:	000008b4 			; <UNDEFINED> instruction: 0x000008b4
     640:	000008b6 			; <UNDEFINED> instruction: 0x000008b6
     644:	007d0002 	rsbseq	r0, sp, r2
     648:	000008b6 			; <UNDEFINED> instruction: 0x000008b6
     64c:	000008b8 			; <UNDEFINED> instruction: 0x000008b8
     650:	047d0002 	ldrbteq	r0, [sp], #-2
     654:	000008b8 			; <UNDEFINED> instruction: 0x000008b8
     658:	000008d8 	ldrdeq	r0, [r0], -r8
     65c:	04770002 	ldrbteq	r0, [r7], #-2
     660:	000008d8 	ldrdeq	r0, [r0], -r8
     664:	000008da 	ldrdeq	r0, [r0], -sl
     668:	047d0002 	ldrbteq	r0, [sp], #-2
     66c:	000008da 	ldrdeq	r0, [r0], -sl
     670:	000008ec 	andeq	r0, r0, ip, ror #17
     674:	007d0002 	rsbseq	r0, sp, r2
	...
     688:	007d0002 	rsbseq	r0, sp, r2
	...
     694:	087d0002 	ldmdaeq	sp!, {r1}^
	...
     6a0:	08770002 	ldmdaeq	r7!, {r1}^
	...
     6b4:	007d0002 	rsbseq	r0, sp, r2
	...
     6c0:	047d0002 	ldrbteq	r0, [sp], #-2
	...
     6cc:	04770002 	ldrbteq	r0, [r7], #-2
	...
     6d8:	047d0002 	ldrbteq	r0, [sp], #-2
	...
     6e4:	007d0002 	rsbseq	r0, sp, r2
	...
     6f8:	007d0002 	rsbseq	r0, sp, r2
	...
     704:	047d0002 	ldrbteq	r0, [sp], #-2
	...
     710:	04770002 	ldrbteq	r0, [r7], #-2
	...
     71c:	047d0002 	ldrbteq	r0, [sp], #-2
	...
     728:	007d0002 	rsbseq	r0, sp, r2
	...
     73c:	007d0002 	rsbseq	r0, sp, r2
	...
     748:	047d0002 	ldrbteq	r0, [sp], #-2
	...
     754:	107d0002 	rsbsne	r0, sp, r2
	...
     760:	10770002 	rsbsne	r0, r7, r2
	...
     76c:	04770002 	ldrbteq	r0, [r7], #-2
	...
     778:	047d0002 	ldrbteq	r0, [sp], #-2
	...
     784:	007d0002 	rsbseq	r0, sp, r2
	...
     798:	007d0002 	rsbseq	r0, sp, r2
	...
     7a4:	087d0002 	ldmdaeq	sp!, {r1}^
	...
     7b0:	107d0002 	rsbsne	r0, sp, r2
	...
     7bc:	10770002 	rsbsne	r0, r7, r2
	...
     7c8:	08770002 	ldmdaeq	r7!, {r1}^
	...
     7d4:	087d0002 	ldmdaeq	sp!, {r1}^
	...
     7e8:	007d0002 	rsbseq	r0, sp, r2
	...
     7f4:	087d0002 	ldmdaeq	sp!, {r1}^
	...
     800:	107d0002 	rsbsne	r0, sp, r2
	...
     80c:	10770002 	rsbsne	r0, r7, r2
	...
     818:	08770002 	ldmdaeq	r7!, {r1}^
	...
     824:	087d0002 	ldmdaeq	sp!, {r1}^
	...
     830:	000010bc 	strheq	r1, [r0], -ip
     834:	000010be 	strheq	r1, [r0], -lr
     838:	007d0002 	rsbseq	r0, sp, r2
     83c:	000010be 	strheq	r1, [r0], -lr
     840:	000010c0 	andeq	r1, r0, r0, asr #1
     844:	087d0002 	ldmdaeq	sp!, {r1}^
     848:	000010c0 	andeq	r1, r0, r0, asr #1
     84c:	000010c2 	andeq	r1, r0, r2, asr #1
     850:	107d0002 	rsbsne	r0, sp, r2
     854:	000010c2 	andeq	r1, r0, r2, asr #1
     858:	00001136 	andeq	r1, r0, r6, lsr r1
     85c:	10770002 	rsbsne	r0, r7, r2
     860:	00001136 	andeq	r1, r0, r6, lsr r1
     864:	00001138 	andeq	r1, r0, r8, lsr r1
     868:	08770002 	ldmdaeq	r7!, {r1}^
     86c:	00001138 	andeq	r1, r0, r8, lsr r1
     870:	0000113a 	andeq	r1, r0, sl, lsr r1
     874:	087d0002 	ldmdaeq	sp!, {r1}^
     878:	0000113a 	andeq	r1, r0, sl, lsr r1
     87c:	00001140 	andeq	r1, r0, r0, asr #2
     880:	007d0002 	rsbseq	r0, sp, r2
	...
     894:	007d0002 	rsbseq	r0, sp, r2
	...
     8a0:	047d0002 	ldrbteq	r0, [sp], #-2
	...
     8ac:	107d0002 	rsbsne	r0, sp, r2
	...
     8b8:	10770002 	rsbsne	r0, r7, r2
	...
     8c4:	04770002 	ldrbteq	r0, [r7], #-2
	...
     8d0:	047d0002 	ldrbteq	r0, [sp], #-2
	...
     8dc:	007d0002 	rsbseq	r0, sp, r2
	...
     8f0:	007d0002 	rsbseq	r0, sp, r2
	...
     8fc:	087d0002 	ldmdaeq	sp!, {r1}^
	...
     908:	107d0002 	rsbsne	r0, sp, r2
	...
     914:	10770002 	rsbsne	r0, r7, r2
	...
     920:	08770002 	ldmdaeq	r7!, {r1}^
	...
     92c:	087d0002 	ldmdaeq	sp!, {r1}^
	...
     938:	007d0002 	rsbseq	r0, sp, r2
	...
     944:	00001058 	andeq	r1, r0, r8, asr r0
     948:	0000105a 	andeq	r1, r0, sl, asr r0
     94c:	007d0002 	rsbseq	r0, sp, r2
     950:	0000105a 	andeq	r1, r0, sl, asr r0
     954:	0000105c 	andeq	r1, r0, ip, asr r0
     958:	087d0002 	ldmdaeq	sp!, {r1}^
     95c:	0000105c 	andeq	r1, r0, ip, asr r0
     960:	0000105e 	andeq	r1, r0, lr, asr r0
     964:	107d0002 	rsbsne	r0, sp, r2
     968:	0000105e 	andeq	r1, r0, lr, asr r0
     96c:	000010b8 	strheq	r1, [r0], -r8
     970:	10770002 	rsbsne	r0, r7, r2
     974:	000010b8 	strheq	r1, [r0], -r8
     978:	000010ba 	strheq	r1, [r0], -sl
     97c:	08770002 	ldmdaeq	r7!, {r1}^
     980:	000010ba 	strheq	r1, [r0], -sl
     984:	000010bc 	strheq	r1, [r0], -ip
     988:	087d0002 	ldmdaeq	sp!, {r1}^
	...
     994:	0000100c 	andeq	r1, r0, ip
     998:	0000100e 	andeq	r1, r0, lr
     99c:	007d0002 	rsbseq	r0, sp, r2
     9a0:	0000100e 	andeq	r1, r0, lr
     9a4:	00001010 	andeq	r1, r0, r0, lsl r0
     9a8:	047d0002 	ldrbteq	r0, [sp], #-2
     9ac:	00001010 	andeq	r1, r0, r0, lsl r0
     9b0:	00001012 	andeq	r1, r0, r2, lsl r0
     9b4:	107d0002 	rsbsne	r0, sp, r2
     9b8:	00001012 	andeq	r1, r0, r2, lsl r0
     9bc:	0000104e 	andeq	r1, r0, lr, asr #32
     9c0:	10770002 	rsbsne	r0, r7, r2
     9c4:	0000104e 	andeq	r1, r0, lr, asr #32
     9c8:	00001050 	andeq	r1, r0, r0, asr r0
     9cc:	04770002 	ldrbteq	r0, [r7], #-2
     9d0:	00001050 	andeq	r1, r0, r0, asr r0
     9d4:	00001052 	andeq	r1, r0, r2, asr r0
     9d8:	047d0002 	ldrbteq	r0, [sp], #-2
     9dc:	00001052 	andeq	r1, r0, r2, asr r0
     9e0:	00001058 	andeq	r1, r0, r8, asr r0
     9e4:	007d0002 	rsbseq	r0, sp, r2
	...
     9f0:	00000f7c 	andeq	r0, r0, ip, ror pc
     9f4:	00000f7e 	andeq	r0, r0, lr, ror pc
     9f8:	007d0002 	rsbseq	r0, sp, r2
     9fc:	00000f7e 	andeq	r0, r0, lr, ror pc
     a00:	00000f80 	andeq	r0, r0, r0, lsl #31
     a04:	047d0002 	ldrbteq	r0, [sp], #-2
     a08:	00000f80 	andeq	r0, r0, r0, lsl #31
     a0c:	00000f82 	andeq	r0, r0, r2, lsl #31
     a10:	107d0002 	rsbsne	r0, sp, r2
     a14:	00000f82 	andeq	r0, r0, r2, lsl #31
     a18:	00001002 	andeq	r1, r0, r2
     a1c:	10770002 	rsbsne	r0, r7, r2
     a20:	00001002 	andeq	r1, r0, r2
     a24:	00001004 	andeq	r1, r0, r4
     a28:	04770002 	ldrbteq	r0, [r7], #-2
     a2c:	00001004 	andeq	r1, r0, r4
     a30:	00001006 	andeq	r1, r0, r6
     a34:	047d0002 	ldrbteq	r0, [sp], #-2
     a38:	00001006 	andeq	r1, r0, r6
     a3c:	0000100c 	andeq	r1, r0, ip
     a40:	007d0002 	rsbseq	r0, sp, r2
	...
     a4c:	00000f20 	andeq	r0, r0, r0, lsr #30
     a50:	00000f22 	andeq	r0, r0, r2, lsr #30
     a54:	007d0002 	rsbseq	r0, sp, r2
     a58:	00000f22 	andeq	r0, r0, r2, lsr #30
     a5c:	00000f24 	andeq	r0, r0, r4, lsr #30
     a60:	087d0002 	ldmdaeq	sp!, {r1}^
     a64:	00000f24 	andeq	r0, r0, r4, lsr #30
     a68:	00000f26 	andeq	r0, r0, r6, lsr #30
     a6c:	107d0002 	rsbsne	r0, sp, r2
     a70:	00000f26 	andeq	r0, r0, r6, lsr #30
     a74:	00000f76 	andeq	r0, r0, r6, ror pc
     a78:	10770002 	rsbsne	r0, r7, r2
     a7c:	00000f76 	andeq	r0, r0, r6, ror pc
     a80:	00000f78 	andeq	r0, r0, r8, ror pc
     a84:	08770002 	ldmdaeq	r7!, {r1}^
     a88:	00000f78 	andeq	r0, r0, r8, ror pc
     a8c:	00000f7a 	andeq	r0, r0, sl, ror pc
     a90:	087d0002 	ldmdaeq	sp!, {r1}^
	...
     aa4:	007d0002 	rsbseq	r0, sp, r2
	...
     ab0:	047d0002 	ldrbteq	r0, [sp], #-2
	...
     abc:	107d0002 	rsbsne	r0, sp, r2
	...
     ac8:	10770002 	rsbsne	r0, r7, r2
	...
     ad4:	04770002 	ldrbteq	r0, [r7], #-2
	...
     ae0:	047d0002 	ldrbteq	r0, [sp], #-2
	...
     aec:	007d0002 	rsbseq	r0, sp, r2
	...
     b00:	007d0002 	rsbseq	r0, sp, r2
	...
     b0c:	047d0002 	ldrbteq	r0, [sp], #-2
	...
     b18:	107d0002 	rsbsne	r0, sp, r2
	...
     b24:	10770002 	rsbsne	r0, r7, r2
	...
     b30:	04770002 	ldrbteq	r0, [r7], #-2
	...
     b3c:	047d0002 	ldrbteq	r0, [sp], #-2
	...
     b48:	007d0002 	rsbseq	r0, sp, r2
	...
     b54:	00000ea0 	andeq	r0, r0, r0, lsr #29
     b58:	00000ea2 	andeq	r0, r0, r2, lsr #29
     b5c:	007d0002 	rsbseq	r0, sp, r2
     b60:	00000ea2 	andeq	r0, r0, r2, lsr #29
     b64:	00000ea4 	andeq	r0, r0, r4, lsr #29
     b68:	047d0002 	ldrbteq	r0, [sp], #-2
     b6c:	00000ea4 	andeq	r0, r0, r4, lsr #29
     b70:	00000ea6 	andeq	r0, r0, r6, lsr #29
     b74:	107d0002 	rsbsne	r0, sp, r2
     b78:	00000ea6 	andeq	r0, r0, r6, lsr #29
     b7c:	00000f0c 	andeq	r0, r0, ip, lsl #30
     b80:	10770002 	rsbsne	r0, r7, r2
     b84:	00000f0c 	andeq	r0, r0, ip, lsl #30
     b88:	00000f0e 	andeq	r0, r0, lr, lsl #30
     b8c:	04770002 	ldrbteq	r0, [r7], #-2
     b90:	00000f0e 	andeq	r0, r0, lr, lsl #30
     b94:	00000f10 	andeq	r0, r0, r0, lsl pc
     b98:	047d0002 	ldrbteq	r0, [sp], #-2
     b9c:	00000f10 	andeq	r0, r0, r0, lsl pc
     ba0:	00000f20 	andeq	r0, r0, r0, lsr #30
     ba4:	007d0002 	rsbseq	r0, sp, r2
	...
     bb0:	00000e10 	andeq	r0, r0, r0, lsl lr
     bb4:	00000e12 	andeq	r0, r0, r2, lsl lr
     bb8:	007d0002 	rsbseq	r0, sp, r2
     bbc:	00000e12 	andeq	r0, r0, r2, lsl lr
     bc0:	00000e14 	andeq	r0, r0, r4, lsl lr
     bc4:	047d0002 	ldrbteq	r0, [sp], #-2
     bc8:	00000e14 	andeq	r0, r0, r4, lsl lr
     bcc:	00000e16 	andeq	r0, r0, r6, lsl lr
     bd0:	107d0002 	rsbsne	r0, sp, r2
     bd4:	00000e16 	andeq	r0, r0, r6, lsl lr
     bd8:	00000e96 	muleq	r0, r6, lr
     bdc:	10770002 	rsbsne	r0, r7, r2
     be0:	00000e96 	muleq	r0, r6, lr
     be4:	00000e98 	muleq	r0, r8, lr
     be8:	04770002 	ldrbteq	r0, [r7], #-2
     bec:	00000e98 	muleq	r0, r8, lr
     bf0:	00000e9a 	muleq	r0, sl, lr
     bf4:	047d0002 	ldrbteq	r0, [sp], #-2
     bf8:	00000e9a 	muleq	r0, sl, lr
     bfc:	00000ea0 	andeq	r0, r0, r0, lsr #29
     c00:	007d0002 	rsbseq	r0, sp, r2
	...
     c14:	007d0002 	rsbseq	r0, sp, r2
	...
     c20:	047d0002 	ldrbteq	r0, [sp], #-2
	...
     c2c:	107d0002 	rsbsne	r0, sp, r2
	...
     c38:	10770002 	rsbsne	r0, r7, r2
	...
     c44:	04770002 	ldrbteq	r0, [r7], #-2
	...
     c50:	047d0002 	ldrbteq	r0, [sp], #-2
	...
     c5c:	007d0002 	rsbseq	r0, sp, r2
	...
     c70:	007d0002 	rsbseq	r0, sp, r2
	...
     c7c:	047d0002 	ldrbteq	r0, [sp], #-2
	...
     c88:	107d0002 	rsbsne	r0, sp, r2
	...
     c94:	10770002 	rsbsne	r0, r7, r2
	...
     ca0:	04770002 	ldrbteq	r0, [r7], #-2
	...
     cac:	047d0002 	ldrbteq	r0, [sp], #-2
	...
     cb8:	007d0002 	rsbseq	r0, sp, r2
	...
     ccc:	007d0002 	rsbseq	r0, sp, r2
	...
     cd8:	047d0002 	ldrbteq	r0, [sp], #-2
	...
     ce4:	107d0002 	rsbsne	r0, sp, r2
	...
     cf0:	10770002 	rsbsne	r0, r7, r2
	...
     cfc:	04770002 	ldrbteq	r0, [r7], #-2
	...
     d08:	047d0002 	ldrbteq	r0, [sp], #-2
	...
     d14:	007d0002 	rsbseq	r0, sp, r2
	...
     d28:	007d0002 	rsbseq	r0, sp, r2
	...
     d34:	047d0002 	ldrbteq	r0, [sp], #-2
	...
     d40:	107d0002 	rsbsne	r0, sp, r2
	...
     d4c:	10770002 	rsbsne	r0, r7, r2
	...
     d58:	04770002 	ldrbteq	r0, [r7], #-2
	...
     d64:	047d0002 	ldrbteq	r0, [sp], #-2
	...
     d70:	007d0002 	rsbseq	r0, sp, r2
	...
     d7c:	00000d80 	andeq	r0, r0, r0, lsl #27
     d80:	00000d82 	andeq	r0, r0, r2, lsl #27
     d84:	007d0002 	rsbseq	r0, sp, r2
     d88:	00000d82 	andeq	r0, r0, r2, lsl #27
     d8c:	00000d84 	andeq	r0, r0, r4, lsl #27
     d90:	047d0002 	ldrbteq	r0, [sp], #-2
     d94:	00000d84 	andeq	r0, r0, r4, lsl #27
     d98:	00000d86 	andeq	r0, r0, r6, lsl #27
     d9c:	107d0002 	rsbsne	r0, sp, r2
     da0:	00000d86 	andeq	r0, r0, r6, lsl #27
     da4:	00000e06 	andeq	r0, r0, r6, lsl #28
     da8:	10770002 	rsbsne	r0, r7, r2
     dac:	00000e06 	andeq	r0, r0, r6, lsl #28
     db0:	00000e08 	andeq	r0, r0, r8, lsl #28
     db4:	04770002 	ldrbteq	r0, [r7], #-2
     db8:	00000e08 	andeq	r0, r0, r8, lsl #28
     dbc:	00000e0a 	andeq	r0, r0, sl, lsl #28
     dc0:	047d0002 	ldrbteq	r0, [sp], #-2
     dc4:	00000e0a 	andeq	r0, r0, sl, lsl #28
     dc8:	00000e10 	andeq	r0, r0, r0, lsl lr
     dcc:	007d0002 	rsbseq	r0, sp, r2
	...
     dd8:	00000cf0 	strdeq	r0, [r0], -r0	; <UNPREDICTABLE>
     ddc:	00000cf2 	strdeq	r0, [r0], -r2
     de0:	007d0002 	rsbseq	r0, sp, r2
     de4:	00000cf2 	strdeq	r0, [r0], -r2
     de8:	00000cf4 	strdeq	r0, [r0], -r4
     dec:	047d0002 	ldrbteq	r0, [sp], #-2
     df0:	00000cf4 	strdeq	r0, [r0], -r4
     df4:	00000cf6 	strdeq	r0, [r0], -r6
     df8:	107d0002 	rsbsne	r0, sp, r2
     dfc:	00000cf6 	strdeq	r0, [r0], -r6
     e00:	00000d76 	andeq	r0, r0, r6, ror sp
     e04:	10770002 	rsbsne	r0, r7, r2
     e08:	00000d76 	andeq	r0, r0, r6, ror sp
     e0c:	00000d78 	andeq	r0, r0, r8, ror sp
     e10:	04770002 	ldrbteq	r0, [r7], #-2
     e14:	00000d78 	andeq	r0, r0, r8, ror sp
     e18:	00000d7a 	andeq	r0, r0, sl, ror sp
     e1c:	047d0002 	ldrbteq	r0, [sp], #-2
     e20:	00000d7a 	andeq	r0, r0, sl, ror sp
     e24:	00000d80 	andeq	r0, r0, r0, lsl #27
     e28:	007d0002 	rsbseq	r0, sp, r2
	...
     e34:	00000c90 	muleq	r0, r0, ip
     e38:	00000c92 	muleq	r0, r2, ip
     e3c:	007d0002 	rsbseq	r0, sp, r2
     e40:	00000c92 	muleq	r0, r2, ip
     e44:	00000c94 	muleq	r0, r4, ip
     e48:	047d0002 	ldrbteq	r0, [sp], #-2
     e4c:	00000c94 	muleq	r0, r4, ip
     e50:	00000c96 	muleq	r0, r6, ip
     e54:	107d0002 	rsbsne	r0, sp, r2
     e58:	00000c96 	muleq	r0, r6, ip
     e5c:	00000ce6 	andeq	r0, r0, r6, ror #25
     e60:	10770002 	rsbsne	r0, r7, r2
     e64:	00000ce6 	andeq	r0, r0, r6, ror #25
     e68:	00000ce8 	andeq	r0, r0, r8, ror #25
     e6c:	04770002 	ldrbteq	r0, [r7], #-2
     e70:	00000ce8 	andeq	r0, r0, r8, ror #25
     e74:	00000cea 	andeq	r0, r0, sl, ror #25
     e78:	047d0002 	ldrbteq	r0, [sp], #-2
     e7c:	00000cea 	andeq	r0, r0, sl, ror #25
     e80:	00000cf0 	strdeq	r0, [r0], -r0	; <UNPREDICTABLE>
     e84:	007d0002 	rsbseq	r0, sp, r2
	...
     e98:	007d0002 	rsbseq	r0, sp, r2
	...
     ea4:	087d0002 	ldmdaeq	sp!, {r1}^
	...
     eb0:	08770002 	ldmdaeq	r7!, {r1}^
	...
     ec4:	007d0002 	rsbseq	r0, sp, r2
	...
     ed0:	087d0002 	ldmdaeq	sp!, {r1}^
	...
     edc:	08770002 	ldmdaeq	r7!, {r1}^
	...
     ef0:	007d0002 	rsbseq	r0, sp, r2
	...
     efc:	087d0002 	ldmdaeq	sp!, {r1}^
	...
     f08:	08770002 	ldmdaeq	r7!, {r1}^
	...
     f1c:	007d0002 	rsbseq	r0, sp, r2
	...
     f28:	087d0002 	ldmdaeq	sp!, {r1}^
	...
     f34:	08770002 	ldmdaeq	r7!, {r1}^
	...
     f48:	007d0002 	rsbseq	r0, sp, r2
	...
     f54:	087d0002 	ldmdaeq	sp!, {r1}^
	...
     f60:	08770002 	ldmdaeq	r7!, {r1}^
	...
     f74:	007d0002 	rsbseq	r0, sp, r2
	...
     f80:	087d0002 	ldmdaeq	sp!, {r1}^
	...
     f8c:	08770002 	ldmdaeq	r7!, {r1}^
	...
     fa0:	007d0002 	rsbseq	r0, sp, r2
	...
     fac:	087d0002 	ldmdaeq	sp!, {r1}^
	...
     fb8:	307d0002 	rsbscc	r0, sp, r2
	...
     fc4:	30770002 	rsbscc	r0, r7, r2
	...
     fd0:	08770002 	ldmdaeq	r7!, {r1}^
	...
     fdc:	087d0002 	ldmdaeq	sp!, {r1}^
	...
     ff0:	007d0002 	rsbseq	r0, sp, r2
	...
     ffc:	087d0002 	ldmdaeq	sp!, {r1}^
	...
    1008:	107d0002 	rsbsne	r0, sp, r2
	...
    1014:	10770002 	rsbsne	r0, r7, r2
	...
    1020:	08770002 	ldmdaeq	r7!, {r1}^
	...
    102c:	087d0002 	ldmdaeq	sp!, {r1}^
	...
    1040:	007d0002 	rsbseq	r0, sp, r2
	...
    104c:	087d0002 	ldmdaeq	sp!, {r1}^
	...
    1058:	287d0002 	ldmdacs	sp!, {r1}^
	...
    1064:	28770002 	ldmdacs	r7!, {r1}^
	...
    1070:	08770002 	ldmdaeq	r7!, {r1}^
	...
    107c:	087d0002 	ldmdaeq	sp!, {r1}^
	...
    1090:	007d0002 	rsbseq	r0, sp, r2
	...
    109c:	087d0002 	ldmdaeq	sp!, {r1}^
	...
    10a8:	107d0002 	rsbsne	r0, sp, r2
	...
    10b4:	10770002 	rsbsne	r0, r7, r2
	...
    10c0:	08770002 	ldmdaeq	r7!, {r1}^
	...
    10cc:	087d0002 	ldmdaeq	sp!, {r1}^
	...
    10e0:	007d0002 	rsbseq	r0, sp, r2
	...
    10ec:	0c7d0002 	ldcleq	0, cr0, [sp], #-8
	...
    10f8:	187d0002 	ldmdane	sp!, {r1}^
	...
    1104:	18770002 	ldmdane	r7!, {r1}^
	...
    1110:	0c770002 	ldcleq	0, cr0, [r7], #-8
	...
    111c:	0c7d0002 	ldcleq	0, cr0, [sp], #-8
	...
    1128:	007d0002 	rsbseq	r0, sp, r2
	...
    113c:	007d0002 	rsbseq	r0, sp, r2
	...
    1148:	0c7d0002 	ldcleq	0, cr0, [sp], #-8
	...
    1154:	187d0002 	ldmdane	sp!, {r1}^
	...
    1160:	18770002 	ldmdane	r7!, {r1}^
	...
    116c:	0c770002 	ldcleq	0, cr0, [r7], #-8
	...
    1178:	0c7d0002 	ldcleq	0, cr0, [sp], #-8
	...
    1184:	007d0002 	rsbseq	r0, sp, r2
	...
    1198:	007d0002 	rsbseq	r0, sp, r2
	...
    11a4:	047d0002 	ldrbteq	r0, [sp], #-2
	...
    11b0:	107d0002 	rsbsne	r0, sp, r2
	...
    11bc:	10770002 	rsbsne	r0, r7, r2
	...
    11c8:	04770002 	ldrbteq	r0, [r7], #-2
	...
    11d4:	047d0002 	ldrbteq	r0, [sp], #-2
	...
    11e0:	007d0002 	rsbseq	r0, sp, r2
	...
    11f4:	007d0002 	rsbseq	r0, sp, r2
	...
    1200:	087d0002 	ldmdaeq	sp!, {r1}^
	...
    120c:	107d0002 	rsbsne	r0, sp, r2
	...
    1218:	10770002 	rsbsne	r0, r7, r2
	...
    1224:	08770002 	ldmdaeq	r7!, {r1}^
	...
    1230:	087d0002 	ldmdaeq	sp!, {r1}^
	...
    1244:	007d0002 	rsbseq	r0, sp, r2
	...
    1250:	087d0002 	ldmdaeq	sp!, {r1}^
	...
    125c:	107d0002 	rsbsne	r0, sp, r2
	...
    1268:	10770002 	rsbsne	r0, r7, r2
	...
    1274:	08770002 	ldmdaeq	r7!, {r1}^
	...
    1280:	087d0002 	ldmdaeq	sp!, {r1}^
	...
    1294:	007d0002 	rsbseq	r0, sp, r2
	...
    12a0:	087d0002 	ldmdaeq	sp!, {r1}^
	...
    12ac:	107d0002 	rsbsne	r0, sp, r2
	...
    12b8:	10770002 	rsbsne	r0, r7, r2
	...
    12c4:	08770002 	ldmdaeq	r7!, {r1}^
	...
    12d0:	087d0002 	ldmdaeq	sp!, {r1}^
	...
    12e4:	007d0002 	rsbseq	r0, sp, r2
	...
    12f0:	087d0002 	ldmdaeq	sp!, {r1}^
	...
    12fc:	107d0002 	rsbsne	r0, sp, r2
	...
    1308:	10770002 	rsbsne	r0, r7, r2
	...
    1314:	08770002 	ldmdaeq	r7!, {r1}^
	...
    1320:	087d0002 	ldmdaeq	sp!, {r1}^
	...
    1334:	007d0002 	rsbseq	r0, sp, r2
	...
    1340:	087d0002 	ldmdaeq	sp!, {r1}^
	...
    134c:	107d0002 	rsbsne	r0, sp, r2
	...
    1358:	10770002 	rsbsne	r0, r7, r2
	...
    1364:	08770002 	ldmdaeq	r7!, {r1}^
	...
    1370:	087d0002 	ldmdaeq	sp!, {r1}^
	...
    1384:	007d0002 	rsbseq	r0, sp, r2
	...
    1390:	087d0002 	ldmdaeq	sp!, {r1}^
	...
    139c:	08770002 	ldmdaeq	r7!, {r1}^
	...
    13b0:	007d0002 	rsbseq	r0, sp, r2
	...
    13bc:	087d0002 	ldmdaeq	sp!, {r1}^
	...
    13c8:	08770002 	ldmdaeq	r7!, {r1}^
	...
    13d4:	00001140 	andeq	r1, r0, r0, asr #2
    13d8:	00001142 	andeq	r1, r0, r2, asr #2
    13dc:	007d0002 	rsbseq	r0, sp, r2
    13e0:	00001142 	andeq	r1, r0, r2, asr #2
    13e4:	00001144 	andeq	r1, r0, r4, asr #2
    13e8:	087d0002 	ldmdaeq	sp!, {r1}^
    13ec:	00001144 	andeq	r1, r0, r4, asr #2
    13f0:	00001146 	andeq	r1, r0, r6, asr #2
    13f4:	107d0002 	rsbsne	r0, sp, r2
    13f8:	00001146 	andeq	r1, r0, r6, asr #2
    13fc:	000011e4 	andeq	r1, r0, r4, ror #3
    1400:	10770002 	rsbsne	r0, r7, r2
	...
    1414:	007d0002 	rsbseq	r0, sp, r2
	...
    1420:	047d0002 	ldrbteq	r0, [sp], #-2
	...
    142c:	107d0002 	rsbsne	r0, sp, r2
	...
    1438:	10770002 	rsbsne	r0, r7, r2
	...
    1444:	04770002 	ldrbteq	r0, [r7], #-2
	...
    1450:	047d0002 	ldrbteq	r0, [sp], #-2
	...
    145c:	007d0002 	rsbseq	r0, sp, r2
	...
    1470:	007d0002 	rsbseq	r0, sp, r2
	...
    147c:	047d0002 	ldrbteq	r0, [sp], #-2
	...
    1488:	187d0002 	ldmdane	sp!, {r1}^
	...
    1494:	18770002 	ldmdane	r7!, {r1}^
	...
    14a0:	04770002 	ldrbteq	r0, [r7], #-2
	...
    14ac:	047d0002 	ldrbteq	r0, [sp], #-2
	...
    14b8:	007d0002 	rsbseq	r0, sp, r2
	...
    14cc:	007d0002 	rsbseq	r0, sp, r2
	...
    14d8:	047d0002 	ldrbteq	r0, [sp], #-2
	...
    14e4:	107d0002 	rsbsne	r0, sp, r2
	...
    14f0:	10770002 	rsbsne	r0, r7, r2
	...
    14fc:	04770002 	ldrbteq	r0, [r7], #-2
	...
    1508:	047d0002 	ldrbteq	r0, [sp], #-2
	...
    1514:	007d0002 	rsbseq	r0, sp, r2
	...
    1528:	007d0002 	rsbseq	r0, sp, r2
	...
    1534:	047d0002 	ldrbteq	r0, [sp], #-2
	...
    1540:	187d0002 	ldmdane	sp!, {r1}^
	...
    154c:	18770002 	ldmdane	r7!, {r1}^
	...
    1558:	04770002 	ldrbteq	r0, [r7], #-2
	...
    1564:	047d0002 	ldrbteq	r0, [sp], #-2
	...
    1570:	007d0002 	rsbseq	r0, sp, r2
	...
    1584:	007d0002 	rsbseq	r0, sp, r2
	...
    1590:	047d0002 	ldrbteq	r0, [sp], #-2
	...
    159c:	187d0002 	ldmdane	sp!, {r1}^
	...
    15a8:	18770002 	ldmdane	r7!, {r1}^
	...
    15b4:	04770002 	ldrbteq	r0, [r7], #-2
	...
    15c0:	047d0002 	ldrbteq	r0, [sp], #-2
	...
    15cc:	007d0002 	rsbseq	r0, sp, r2
	...
    15d8:	00001230 	andeq	r1, r0, r0, lsr r2
    15dc:	00001232 	andeq	r1, r0, r2, lsr r2
    15e0:	007d0002 	rsbseq	r0, sp, r2
    15e4:	00001232 	andeq	r1, r0, r2, lsr r2
    15e8:	00001234 	andeq	r1, r0, r4, lsr r2
    15ec:	047d0002 	ldrbteq	r0, [sp], #-2
    15f0:	00001234 	andeq	r1, r0, r4, lsr r2
    15f4:	00001236 	andeq	r1, r0, r6, lsr r2
    15f8:	187d0002 	ldmdane	sp!, {r1}^
    15fc:	00001236 	andeq	r1, r0, r6, lsr r2
    1600:	00001272 	andeq	r1, r0, r2, ror r2
    1604:	18770002 	ldmdane	r7!, {r1}^
    1608:	00001272 	andeq	r1, r0, r2, ror r2
    160c:	00001274 	andeq	r1, r0, r4, ror r2
    1610:	04770002 	ldrbteq	r0, [r7], #-2
    1614:	00001274 	andeq	r1, r0, r4, ror r2
    1618:	00001276 	andeq	r1, r0, r6, ror r2
    161c:	047d0002 	ldrbteq	r0, [sp], #-2
    1620:	00001276 	andeq	r1, r0, r6, ror r2
    1624:	0000127c 	andeq	r1, r0, ip, ror r2
    1628:	007d0002 	rsbseq	r0, sp, r2
	...
    1634:	000011e4 	andeq	r1, r0, r4, ror #3
    1638:	000011e6 	andeq	r1, r0, r6, ror #3
    163c:	007d0002 	rsbseq	r0, sp, r2
    1640:	000011e6 	andeq	r1, r0, r6, ror #3
    1644:	000011e8 	andeq	r1, r0, r8, ror #3
    1648:	047d0002 	ldrbteq	r0, [sp], #-2
    164c:	000011e8 	andeq	r1, r0, r8, ror #3
    1650:	000011ea 	andeq	r1, r0, sl, ror #3
    1654:	187d0002 	ldmdane	sp!, {r1}^
    1658:	000011ea 	andeq	r1, r0, sl, ror #3
    165c:	00001224 	andeq	r1, r0, r4, lsr #4
    1660:	18770002 	ldmdane	r7!, {r1}^
    1664:	00001224 	andeq	r1, r0, r4, lsr #4
    1668:	00001226 	andeq	r1, r0, r6, lsr #4
    166c:	04770002 	ldrbteq	r0, [r7], #-2
    1670:	00001226 	andeq	r1, r0, r6, lsr #4
    1674:	00001228 	andeq	r1, r0, r8, lsr #4
    1678:	047d0002 	ldrbteq	r0, [sp], #-2
    167c:	00001228 	andeq	r1, r0, r8, lsr #4
    1680:	00001230 	andeq	r1, r0, r0, lsr r2
    1684:	007d0002 	rsbseq	r0, sp, r2
	...
    1690:	00001288 	andeq	r1, r0, r8, lsl #5
    1694:	0000128a 	andeq	r1, r0, sl, lsl #5
    1698:	007d0002 	rsbseq	r0, sp, r2
    169c:	0000128a 	andeq	r1, r0, sl, lsl #5
    16a0:	0000128c 	andeq	r1, r0, ip, lsl #5
    16a4:	087d0002 	ldmdaeq	sp!, {r1}^
    16a8:	0000128c 	andeq	r1, r0, ip, lsl #5
    16ac:	0000128e 	andeq	r1, r0, lr, lsl #5
    16b0:	207d0002 	rsbscs	r0, sp, r2
    16b4:	0000128e 	andeq	r1, r0, lr, lsl #5
    16b8:	000012f0 	strdeq	r1, [r0], -r0
    16bc:	20770002 	rsbscs	r0, r7, r2
    16c0:	000012f0 	strdeq	r1, [r0], -r0
    16c4:	000012f2 	strdeq	r1, [r0], -r2
    16c8:	08770002 	ldmdaeq	r7!, {r1}^
    16cc:	000012f2 	strdeq	r1, [r0], -r2
    16d0:	00001308 	andeq	r1, r0, r8, lsl #6
    16d4:	087d0002 	ldmdaeq	sp!, {r1}^
	...
    16e0:	0000127c 	andeq	r1, r0, ip, ror r2
    16e4:	0000127e 	andeq	r1, r0, lr, ror r2
    16e8:	007d0002 	rsbseq	r0, sp, r2
    16ec:	0000127e 	andeq	r1, r0, lr, ror r2
    16f0:	00001280 	andeq	r1, r0, r0, lsl #5
    16f4:	087d0002 	ldmdaeq	sp!, {r1}^
    16f8:	00001280 	andeq	r1, r0, r0, lsl #5
    16fc:	00001288 	andeq	r1, r0, r8, lsl #5
    1700:	08770002 	ldmdaeq	r7!, {r1}^
	...
    1714:	007d0002 	rsbseq	r0, sp, r2
	...
    1720:	047d0002 	ldrbteq	r0, [sp], #-2
	...
    172c:	107d0002 	rsbsne	r0, sp, r2
	...
    1738:	10770002 	rsbsne	r0, r7, r2
	...
    1744:	04770002 	ldrbteq	r0, [r7], #-2
	...
    1750:	047d0002 	ldrbteq	r0, [sp], #-2
	...
    175c:	007d0002 	rsbseq	r0, sp, r2
	...
    1770:	007d0002 	rsbseq	r0, sp, r2
	...
    177c:	087d0002 	ldmdaeq	sp!, {r1}^
	...
    1788:	187d0002 	ldmdane	sp!, {r1}^
	...
    1794:	18770002 	ldmdane	r7!, {r1}^
	...
    17a0:	08770002 	ldmdaeq	r7!, {r1}^
	...
    17ac:	087d0002 	ldmdaeq	sp!, {r1}^
	...
    17c0:	007d0002 	rsbseq	r0, sp, r2
	...
    17cc:	087d0002 	ldmdaeq	sp!, {r1}^
	...
    17d8:	107d0002 	rsbsne	r0, sp, r2
	...
    17e4:	10770002 	rsbsne	r0, r7, r2
	...
    17f0:	08770002 	ldmdaeq	r7!, {r1}^
	...
    17fc:	087d0002 	ldmdaeq	sp!, {r1}^
	...
    1808:	00001350 	andeq	r1, r0, r0, asr r3
    180c:	00001352 	andeq	r1, r0, r2, asr r3
    1810:	007d0002 	rsbseq	r0, sp, r2
    1814:	00001352 	andeq	r1, r0, r2, asr r3
    1818:	00001354 	andeq	r1, r0, r4, asr r3
    181c:	087d0002 	ldmdaeq	sp!, {r1}^
    1820:	00001354 	andeq	r1, r0, r4, asr r3
    1824:	00001356 	andeq	r1, r0, r6, asr r3
    1828:	107d0002 	rsbsne	r0, sp, r2
    182c:	00001356 	andeq	r1, r0, r6, asr r3
    1830:	000013da 	ldrdeq	r1, [r0], -sl
    1834:	10770002 	rsbsne	r0, r7, r2
    1838:	000013da 	ldrdeq	r1, [r0], -sl
    183c:	000013dc 	ldrdeq	r1, [r0], -ip
    1840:	08770002 	ldmdaeq	r7!, {r1}^
    1844:	000013dc 	ldrdeq	r1, [r0], -ip
    1848:	000013ec 	andeq	r1, r0, ip, ror #7
    184c:	087d0002 	ldmdaeq	sp!, {r1}^
	...
    1858:	00001308 	andeq	r1, r0, r8, lsl #6
    185c:	0000130a 	andeq	r1, r0, sl, lsl #6
    1860:	007d0002 	rsbseq	r0, sp, r2
    1864:	0000130a 	andeq	r1, r0, sl, lsl #6
    1868:	0000130c 	andeq	r1, r0, ip, lsl #6
    186c:	047d0002 	ldrbteq	r0, [sp], #-2
    1870:	0000130c 	andeq	r1, r0, ip, lsl #6
    1874:	0000133a 	andeq	r1, r0, sl, lsr r3
    1878:	04770002 	ldrbteq	r0, [r7], #-2
    187c:	0000133a 	andeq	r1, r0, sl, lsr r3
    1880:	0000133c 	andeq	r1, r0, ip, lsr r3
    1884:	047d0002 	ldrbteq	r0, [sp], #-2
    1888:	0000133c 	andeq	r1, r0, ip, lsr r3
    188c:	00001350 	andeq	r1, r0, r0, asr r3
    1890:	007d0002 	rsbseq	r0, sp, r2
	...
    18a4:	007d0002 	rsbseq	r0, sp, r2
	...
    18b0:	047d0002 	ldrbteq	r0, [sp], #-2
	...
    18bc:	107d0002 	rsbsne	r0, sp, r2
	...
    18c8:	10770002 	rsbsne	r0, r7, r2
	...
    18d4:	04770002 	ldrbteq	r0, [r7], #-2
	...
    18e0:	047d0002 	ldrbteq	r0, [sp], #-2
	...
    18ec:	007d0002 	rsbseq	r0, sp, r2
	...
    1900:	007d0002 	rsbseq	r0, sp, r2
	...
    190c:	047d0002 	ldrbteq	r0, [sp], #-2
	...
    1918:	107d0002 	rsbsne	r0, sp, r2
	...
    1924:	10770002 	rsbsne	r0, r7, r2
	...
    1930:	04770002 	ldrbteq	r0, [r7], #-2
	...
    193c:	047d0002 	ldrbteq	r0, [sp], #-2
	...
    1948:	007d0002 	rsbseq	r0, sp, r2
	...
    195c:	007d0002 	rsbseq	r0, sp, r2
	...
    1968:	047d0002 	ldrbteq	r0, [sp], #-2
	...
    1974:	107d0002 	rsbsne	r0, sp, r2
	...
    1980:	10770002 	rsbsne	r0, r7, r2
	...
    198c:	04770002 	ldrbteq	r0, [r7], #-2
	...
    1998:	047d0002 	ldrbteq	r0, [sp], #-2
	...
    19a4:	007d0002 	rsbseq	r0, sp, r2
	...
    19b0:	00001494 	muleq	r0, r4, r4
    19b4:	00001496 	muleq	r0, r6, r4
    19b8:	007d0002 	rsbseq	r0, sp, r2
    19bc:	00001496 	muleq	r0, r6, r4
    19c0:	00001498 	muleq	r0, r8, r4
    19c4:	087d0002 	ldmdaeq	sp!, {r1}^
    19c8:	00001498 	muleq	r0, r8, r4
    19cc:	0000149a 	muleq	r0, sl, r4
    19d0:	207d0002 	rsbscs	r0, sp, r2
    19d4:	0000149a 	muleq	r0, sl, r4
    19d8:	000014de 	ldrdeq	r1, [r0], -lr
    19dc:	20770002 	rsbscs	r0, r7, r2
    19e0:	000014de 	ldrdeq	r1, [r0], -lr
    19e4:	000014e0 	andeq	r1, r0, r0, ror #9
    19e8:	08770002 	ldmdaeq	r7!, {r1}^
    19ec:	000014e0 	andeq	r1, r0, r0, ror #9
    19f0:	000014ec 	andeq	r1, r0, ip, ror #9
    19f4:	087d0002 	ldmdaeq	sp!, {r1}^
	...
    1a08:	007d0002 	rsbseq	r0, sp, r2
	...
    1a14:	047d0002 	ldrbteq	r0, [sp], #-2
	...
    1a20:	107d0002 	rsbsne	r0, sp, r2
	...
    1a2c:	10770002 	rsbsne	r0, r7, r2
	...
    1a38:	04770002 	ldrbteq	r0, [r7], #-2
	...
    1a44:	047d0002 	ldrbteq	r0, [sp], #-2
	...
    1a50:	007d0002 	rsbseq	r0, sp, r2
	...
    1a64:	007d0002 	rsbseq	r0, sp, r2
	...
    1a70:	087d0002 	ldmdaeq	sp!, {r1}^
	...
    1a7c:	287d0002 	ldmdacs	sp!, {r1}^
	...
    1a88:	28770002 	ldmdacs	r7!, {r1}^
	...
    1a94:	08770002 	ldmdaeq	r7!, {r1}^
	...
    1aa0:	087d0002 	ldmdaeq	sp!, {r1}^
	...
    1aac:	00001468 	andeq	r1, r0, r8, ror #8
    1ab0:	0000146a 	andeq	r1, r0, sl, ror #8
    1ab4:	007d0002 	rsbseq	r0, sp, r2
    1ab8:	0000146a 	andeq	r1, r0, sl, ror #8
    1abc:	0000146c 	andeq	r1, r0, ip, ror #8
    1ac0:	047d0002 	ldrbteq	r0, [sp], #-2
    1ac4:	0000146c 	andeq	r1, r0, ip, ror #8
    1ac8:	0000146e 	andeq	r1, r0, lr, ror #8
    1acc:	107d0002 	rsbsne	r0, sp, r2
    1ad0:	0000146e 	andeq	r1, r0, lr, ror #8
    1ad4:	00001488 	andeq	r1, r0, r8, lsl #9
    1ad8:	10770002 	rsbsne	r0, r7, r2
    1adc:	00001488 	andeq	r1, r0, r8, lsl #9
    1ae0:	0000148a 	andeq	r1, r0, sl, lsl #9
    1ae4:	04770002 	ldrbteq	r0, [r7], #-2
    1ae8:	0000148a 	andeq	r1, r0, sl, lsl #9
    1aec:	0000148c 	andeq	r1, r0, ip, lsl #9
    1af0:	047d0002 	ldrbteq	r0, [sp], #-2
    1af4:	0000148c 	andeq	r1, r0, ip, lsl #9
    1af8:	00001494 	muleq	r0, r4, r4
    1afc:	007d0002 	rsbseq	r0, sp, r2
	...
    1b08:	00001424 	andeq	r1, r0, r4, lsr #8
    1b0c:	00001426 	andeq	r1, r0, r6, lsr #8
    1b10:	007d0002 	rsbseq	r0, sp, r2
    1b14:	00001426 	andeq	r1, r0, r6, lsr #8
    1b18:	00001428 	andeq	r1, r0, r8, lsr #8
    1b1c:	107d0002 	rsbsne	r0, sp, r2
    1b20:	00001428 	andeq	r1, r0, r8, lsr #8
    1b24:	0000142a 	andeq	r1, r0, sl, lsr #8
    1b28:	187d0002 	ldmdane	sp!, {r1}^
    1b2c:	0000142a 	andeq	r1, r0, sl, lsr #8
    1b30:	0000145a 	andeq	r1, r0, sl, asr r4
    1b34:	18770002 	ldmdane	r7!, {r1}^
    1b38:	0000145a 	andeq	r1, r0, sl, asr r4
    1b3c:	0000145c 	andeq	r1, r0, ip, asr r4
    1b40:	10770002 	rsbsne	r0, r7, r2
    1b44:	0000145c 	andeq	r1, r0, ip, asr r4
    1b48:	00001468 	andeq	r1, r0, r8, ror #8
    1b4c:	107d0002 	rsbsne	r0, sp, r2
	...
    1b58:	00001408 	andeq	r1, r0, r8, lsl #8
    1b5c:	0000140a 	andeq	r1, r0, sl, lsl #8
    1b60:	007d0002 	rsbseq	r0, sp, r2
    1b64:	0000140a 	andeq	r1, r0, sl, lsl #8
    1b68:	0000140c 	andeq	r1, r0, ip, lsl #8
    1b6c:	047d0002 	ldrbteq	r0, [sp], #-2
    1b70:	0000140c 	andeq	r1, r0, ip, lsl #8
    1b74:	0000141a 	andeq	r1, r0, sl, lsl r4
    1b78:	04770002 	ldrbteq	r0, [r7], #-2
    1b7c:	0000141a 	andeq	r1, r0, sl, lsl r4
    1b80:	0000141c 	andeq	r1, r0, ip, lsl r4
    1b84:	047d0002 	ldrbteq	r0, [sp], #-2
    1b88:	0000141c 	andeq	r1, r0, ip, lsl r4
    1b8c:	00001424 	andeq	r1, r0, r4, lsr #8
    1b90:	007d0002 	rsbseq	r0, sp, r2
	...
    1b9c:	000013ec 	andeq	r1, r0, ip, ror #7
    1ba0:	000013ee 	andeq	r1, r0, lr, ror #7
    1ba4:	007d0002 	rsbseq	r0, sp, r2
    1ba8:	000013ee 	andeq	r1, r0, lr, ror #7
    1bac:	000013f0 	strdeq	r1, [r0], -r0
    1bb0:	047d0002 	ldrbteq	r0, [sp], #-2
    1bb4:	000013f0 	strdeq	r1, [r0], -r0
    1bb8:	000013fe 	strdeq	r1, [r0], -lr
    1bbc:	04770002 	ldrbteq	r0, [r7], #-2
    1bc0:	000013fe 	strdeq	r1, [r0], -lr
    1bc4:	00001400 	andeq	r1, r0, r0, lsl #8
    1bc8:	047d0002 	ldrbteq	r0, [sp], #-2
    1bcc:	00001400 	andeq	r1, r0, r0, lsl #8
    1bd0:	00001408 	andeq	r1, r0, r8, lsl #8
    1bd4:	007d0002 	rsbseq	r0, sp, r2
	...
    1be8:	007d0002 	rsbseq	r0, sp, r2
	...
    1bf4:	087d0002 	ldmdaeq	sp!, {r1}^
	...
    1c00:	08770002 	ldmdaeq	r7!, {r1}^
	...
    1c14:	007d0002 	rsbseq	r0, sp, r2
	...
    1c20:	047d0002 	ldrbteq	r0, [sp], #-2
	...
    1c2c:	107d0002 	rsbsne	r0, sp, r2
	...
    1c38:	10770002 	rsbsne	r0, r7, r2
	...
    1c44:	04770002 	ldrbteq	r0, [r7], #-2
	...
    1c50:	047d0002 	ldrbteq	r0, [sp], #-2
	...
    1c5c:	007d0002 	rsbseq	r0, sp, r2
	...
    1c70:	007d0002 	rsbseq	r0, sp, r2
	...
    1c7c:	047d0002 	ldrbteq	r0, [sp], #-2
	...
    1c88:	107d0002 	rsbsne	r0, sp, r2
	...
    1c94:	10770002 	rsbsne	r0, r7, r2
	...
    1ca0:	04770002 	ldrbteq	r0, [r7], #-2
	...
    1cac:	047d0002 	ldrbteq	r0, [sp], #-2
	...
    1cb8:	007d0002 	rsbseq	r0, sp, r2
	...
    1ccc:	007d0002 	rsbseq	r0, sp, r2
	...
    1cd8:	047d0002 	ldrbteq	r0, [sp], #-2
	...
    1ce4:	107d0002 	rsbsne	r0, sp, r2
	...
    1cf0:	10770002 	rsbsne	r0, r7, r2
	...
    1cfc:	04770002 	ldrbteq	r0, [r7], #-2
	...
    1d08:	047d0002 	ldrbteq	r0, [sp], #-2
	...
    1d14:	007d0002 	rsbseq	r0, sp, r2
	...
    1d28:	007d0002 	rsbseq	r0, sp, r2
	...
    1d34:	047d0002 	ldrbteq	r0, [sp], #-2
	...
    1d40:	107d0002 	rsbsne	r0, sp, r2
	...
    1d4c:	10770002 	rsbsne	r0, r7, r2
	...
    1d58:	04770002 	ldrbteq	r0, [r7], #-2
	...
    1d64:	047d0002 	ldrbteq	r0, [sp], #-2
	...
    1d70:	007d0002 	rsbseq	r0, sp, r2
	...
    1d84:	007d0002 	rsbseq	r0, sp, r2
	...
    1d90:	047d0002 	ldrbteq	r0, [sp], #-2
	...
    1d9c:	107d0002 	rsbsne	r0, sp, r2
	...
    1da8:	10770002 	rsbsne	r0, r7, r2
	...
    1db4:	04770002 	ldrbteq	r0, [r7], #-2
	...
    1dc0:	047d0002 	ldrbteq	r0, [sp], #-2
	...
    1dcc:	007d0002 	rsbseq	r0, sp, r2
	...
    1de0:	007d0002 	rsbseq	r0, sp, r2
	...
    1dec:	047d0002 	ldrbteq	r0, [sp], #-2
	...
    1df8:	107d0002 	rsbsne	r0, sp, r2
	...
    1e04:	10770002 	rsbsne	r0, r7, r2
	...
    1e10:	04770002 	ldrbteq	r0, [r7], #-2
	...
    1e1c:	047d0002 	ldrbteq	r0, [sp], #-2
	...
    1e28:	007d0002 	rsbseq	r0, sp, r2
	...
    1e3c:	007d0002 	rsbseq	r0, sp, r2
	...
    1e48:	047d0002 	ldrbteq	r0, [sp], #-2
	...
    1e54:	107d0002 	rsbsne	r0, sp, r2
	...
    1e60:	10770002 	rsbsne	r0, r7, r2
	...
    1e6c:	04770002 	ldrbteq	r0, [r7], #-2
	...
    1e78:	047d0002 	ldrbteq	r0, [sp], #-2
	...
    1e84:	007d0002 	rsbseq	r0, sp, r2
	...
    1e98:	007d0002 	rsbseq	r0, sp, r2
	...
    1ea4:	047d0002 	ldrbteq	r0, [sp], #-2
	...
    1eb0:	107d0002 	rsbsne	r0, sp, r2
	...
    1ebc:	10770002 	rsbsne	r0, r7, r2
	...
    1ec8:	04770002 	ldrbteq	r0, [r7], #-2
	...
    1ed4:	047d0002 	ldrbteq	r0, [sp], #-2
	...
    1ee0:	007d0002 	rsbseq	r0, sp, r2
	...
    1ef4:	007d0002 	rsbseq	r0, sp, r2
	...
    1f00:	087d0002 	ldmdaeq	sp!, {r1}^
	...
    1f0c:	107d0002 	rsbsne	r0, sp, r2
	...
    1f18:	10770002 	rsbsne	r0, r7, r2
	...
    1f24:	08770002 	ldmdaeq	r7!, {r1}^
	...
    1f30:	087d0002 	ldmdaeq	sp!, {r1}^
	...
    1f44:	007d0002 	rsbseq	r0, sp, r2
	...
    1f50:	087d0002 	ldmdaeq	sp!, {r1}^
	...
    1f5c:	107d0002 	rsbsne	r0, sp, r2
	...
    1f68:	10770002 	rsbsne	r0, r7, r2
	...
    1f74:	08770002 	ldmdaeq	r7!, {r1}^
	...
    1f80:	087d0002 	ldmdaeq	sp!, {r1}^
	...
    1f94:	007d0002 	rsbseq	r0, sp, r2
	...
    1fa0:	087d0002 	ldmdaeq	sp!, {r1}^
	...
    1fac:	107d0002 	rsbsne	r0, sp, r2
	...
    1fb8:	10770002 	rsbsne	r0, r7, r2
	...
    1fc4:	08770002 	ldmdaeq	r7!, {r1}^
	...
    1fd0:	087d0002 	ldmdaeq	sp!, {r1}^
	...
    1fe4:	007d0002 	rsbseq	r0, sp, r2
	...
    1ff0:	047d0002 	ldrbteq	r0, [sp], #-2
	...
    1ffc:	107d0002 	rsbsne	r0, sp, r2
	...
    2008:	10770002 	rsbsne	r0, r7, r2
	...
    2014:	04770002 	ldrbteq	r0, [r7], #-2
	...
    2020:	047d0002 	ldrbteq	r0, [sp], #-2
	...
    202c:	007d0002 	rsbseq	r0, sp, r2
	...
    2040:	007d0002 	rsbseq	r0, sp, r2
	...
    204c:	087d0002 	ldmdaeq	sp!, {r1}^
	...
    2058:	107d0002 	rsbsne	r0, sp, r2
	...
    2064:	10770002 	rsbsne	r0, r7, r2
	...
    2070:	08770002 	ldmdaeq	r7!, {r1}^
	...
    207c:	087d0002 	ldmdaeq	sp!, {r1}^
	...
    2090:	007d0002 	rsbseq	r0, sp, r2
	...
    209c:	087d0002 	ldmdaeq	sp!, {r1}^
	...
    20a8:	107d0002 	rsbsne	r0, sp, r2
	...
    20b4:	10770002 	rsbsne	r0, r7, r2
	...
    20c0:	08770002 	ldmdaeq	r7!, {r1}^
	...
    20cc:	087d0002 	ldmdaeq	sp!, {r1}^
	...
    20e0:	007d0002 	rsbseq	r0, sp, r2
	...
    20ec:	087d0002 	ldmdaeq	sp!, {r1}^
	...
    20f8:	107d0002 	rsbsne	r0, sp, r2
	...
    2104:	10770002 	rsbsne	r0, r7, r2
	...
    2110:	08770002 	ldmdaeq	r7!, {r1}^
	...
    211c:	087d0002 	ldmdaeq	sp!, {r1}^
	...
    2130:	007d0002 	rsbseq	r0, sp, r2
	...
    213c:	047d0002 	ldrbteq	r0, [sp], #-2
	...
    2148:	107d0002 	rsbsne	r0, sp, r2
	...
    2154:	10770002 	rsbsne	r0, r7, r2
	...
    2160:	04770002 	ldrbteq	r0, [r7], #-2
	...
    216c:	047d0002 	ldrbteq	r0, [sp], #-2
	...
    2178:	007d0002 	rsbseq	r0, sp, r2
	...
    218c:	007d0002 	rsbseq	r0, sp, r2
	...
    2198:	047d0002 	ldrbteq	r0, [sp], #-2
	...
    21a4:	107d0002 	rsbsne	r0, sp, r2
	...
    21b0:	10770002 	rsbsne	r0, r7, r2
	...
    21bc:	04770002 	ldrbteq	r0, [r7], #-2
	...
    21c8:	047d0002 	ldrbteq	r0, [sp], #-2
	...
    21d4:	007d0002 	rsbseq	r0, sp, r2
	...
    21e8:	007d0002 	rsbseq	r0, sp, r2
	...
    21f4:	047d0002 	ldrbteq	r0, [sp], #-2
	...
    2200:	107d0002 	rsbsne	r0, sp, r2
	...
    220c:	10770002 	rsbsne	r0, r7, r2
	...
    2218:	04770002 	ldrbteq	r0, [r7], #-2
	...
    2224:	047d0002 	ldrbteq	r0, [sp], #-2
	...
    2230:	007d0002 	rsbseq	r0, sp, r2
	...
    2244:	007d0002 	rsbseq	r0, sp, r2
	...
    2250:	087d0002 	ldmdaeq	sp!, {r1}^
	...
    225c:	107d0002 	rsbsne	r0, sp, r2
	...
    2268:	10770002 	rsbsne	r0, r7, r2
	...
    2274:	08770002 	ldmdaeq	r7!, {r1}^
	...
    2280:	087d0002 	ldmdaeq	sp!, {r1}^
	...
    2294:	007d0002 	rsbseq	r0, sp, r2
	...
    22a0:	087d0002 	ldmdaeq	sp!, {r1}^
	...
    22ac:	107d0002 	rsbsne	r0, sp, r2
	...
    22b8:	10770002 	rsbsne	r0, r7, r2
	...
    22c4:	08770002 	ldmdaeq	r7!, {r1}^
	...
    22d0:	087d0002 	ldmdaeq	sp!, {r1}^
	...
    22e4:	007d0002 	rsbseq	r0, sp, r2
	...
    22f0:	087d0002 	ldmdaeq	sp!, {r1}^
	...
    22fc:	107d0002 	rsbsne	r0, sp, r2
	...
    2308:	10770002 	rsbsne	r0, r7, r2
	...
    2314:	08770002 	ldmdaeq	r7!, {r1}^
	...
    2320:	087d0002 	ldmdaeq	sp!, {r1}^
	...
    2334:	007d0002 	rsbseq	r0, sp, r2
	...
    2340:	087d0002 	ldmdaeq	sp!, {r1}^
	...
    234c:	107d0002 	rsbsne	r0, sp, r2
	...
    2358:	10770002 	rsbsne	r0, r7, r2
	...
    2364:	08770002 	ldmdaeq	r7!, {r1}^
	...
    2370:	087d0002 	ldmdaeq	sp!, {r1}^
	...
    2384:	007d0002 	rsbseq	r0, sp, r2
	...
    2390:	087d0002 	ldmdaeq	sp!, {r1}^
	...
    239c:	107d0002 	rsbsne	r0, sp, r2
	...
    23a8:	10770002 	rsbsne	r0, r7, r2
	...
    23b4:	08770002 	ldmdaeq	r7!, {r1}^
	...
    23c0:	087d0002 	ldmdaeq	sp!, {r1}^
	...
    23d4:	007d0002 	rsbseq	r0, sp, r2
	...
    23e0:	087d0002 	ldmdaeq	sp!, {r1}^
	...
    23ec:	107d0002 	rsbsne	r0, sp, r2
	...
    23f8:	10770002 	rsbsne	r0, r7, r2
	...
    2404:	08770002 	ldmdaeq	r7!, {r1}^
	...
    2410:	087d0002 	ldmdaeq	sp!, {r1}^
	...
    2424:	007d0002 	rsbseq	r0, sp, r2
	...
    2430:	087d0002 	ldmdaeq	sp!, {r1}^
	...
    243c:	107d0002 	rsbsne	r0, sp, r2
	...
    2448:	10770002 	rsbsne	r0, r7, r2
	...
    2454:	08770002 	ldmdaeq	r7!, {r1}^
	...
    2460:	087d0002 	ldmdaeq	sp!, {r1}^
	...
    2474:	007d0002 	rsbseq	r0, sp, r2
	...
    2480:	087d0002 	ldmdaeq	sp!, {r1}^
	...
    248c:	107d0002 	rsbsne	r0, sp, r2
	...
    2498:	10770002 	rsbsne	r0, r7, r2
	...
    24a4:	08770002 	ldmdaeq	r7!, {r1}^
	...
    24b0:	087d0002 	ldmdaeq	sp!, {r1}^
	...
    24c4:	007d0002 	rsbseq	r0, sp, r2
	...
    24d0:	087d0002 	ldmdaeq	sp!, {r1}^
	...
    24dc:	107d0002 	rsbsne	r0, sp, r2
	...
    24e8:	10770002 	rsbsne	r0, r7, r2
	...
    24f4:	08770002 	ldmdaeq	r7!, {r1}^
	...
    2500:	087d0002 	ldmdaeq	sp!, {r1}^
	...

Disassembly of section .debug_aranges:

00000000 <.debug_aranges>:
   0:	000000bc 	strheq	r0, [r0], -ip
   4:	00000002 	andeq	r0, r0, r2
   8:	00040000 	andeq	r0, r4, r0
	...
  14:	00000020 	andeq	r0, r0, r0, lsr #32
  18:	00000000 	andeq	r0, r0, r0
  1c:	00000024 	andeq	r0, r0, r4, lsr #32
  20:	000008b4 			; <UNDEFINED> instruction: 0x000008b4
  24:	00000038 	andeq	r0, r0, r8, lsr r0
  28:	000008ec 	andeq	r0, r0, ip, ror #17
  2c:	0000008c 	andeq	r0, r0, ip, lsl #1
  30:	00000000 	andeq	r0, r0, r0
  34:	00000070 	andeq	r0, r0, r0, ror r0
  38:	00000000 	andeq	r0, r0, r0
  3c:	00000028 	andeq	r0, r0, r8, lsr #32
  40:	00000978 	andeq	r0, r0, r8, ror r9
  44:	0000002c 	andeq	r0, r0, ip, lsr #32
  48:	000009a4 	andeq	r0, r0, r4, lsr #19
  4c:	00000158 	andeq	r0, r0, r8, asr r1
  50:	00000000 	andeq	r0, r0, r0
  54:	00000158 	andeq	r0, r0, r8, asr r1
  58:	00000afc 	strdeq	r0, [r0], -ip
  5c:	00000058 	andeq	r0, r0, r8, asr r0
  60:	00000000 	andeq	r0, r0, r0
  64:	00000024 	andeq	r0, r0, r4, lsr #32
  68:	00000b54 	andeq	r0, r0, r4, asr fp
  6c:	00000038 	andeq	r0, r0, r8, lsr r0
  70:	00000b8c 	andeq	r0, r0, ip, lsl #23
  74:	00000054 	andeq	r0, r0, r4, asr r0
  78:	00000be0 	andeq	r0, r0, r0, ror #23
  7c:	00000058 	andeq	r0, r0, r8, asr r0
  80:	00000c38 	andeq	r0, r0, r8, lsr ip
  84:	00000058 	andeq	r0, r0, r8, asr r0
  88:	00000000 	andeq	r0, r0, r0
  8c:	0000005c 	andeq	r0, r0, ip, asr r0
  90:	00000000 	andeq	r0, r0, r0
  94:	00000034 	andeq	r0, r0, r4, lsr r0
  98:	00000000 	andeq	r0, r0, r0
  9c:	00000060 	andeq	r0, r0, r0, rrx
  a0:	00000000 	andeq	r0, r0, r0
  a4:	00000060 	andeq	r0, r0, r0, rrx
  a8:	00000000 	andeq	r0, r0, r0
  ac:	00000024 	andeq	r0, r0, r4, lsr #32
  b0:	00000000 	andeq	r0, r0, r0
  b4:	00000024 	andeq	r0, r0, r4, lsr #32
	...
  c0:	00000014 	andeq	r0, r0, r4, lsl r0
  c4:	0fd10002 	svceq	0x00d10002
  c8:	00040000 	andeq	r0, r4, r0
	...
  d8:	0000001c 	andeq	r0, r0, ip, lsl r0
  dc:	177f0002 	ldrbne	r0, [pc, -r2]!
  e0:	00040000 	andeq	r0, r4, r0
	...
  ec:	0000000c 	andeq	r0, r0, ip
	...
  f8:	000000ec 	andeq	r0, r0, ip, ror #1
  fc:	17be0002 	ldrne	r0, [lr, r2]!
 100:	00040000 	andeq	r0, r4, r0
	...
 10c:	0000001c 	andeq	r0, r0, ip, lsl r0
 110:	00000000 	andeq	r0, r0, r0
 114:	0000001c 	andeq	r0, r0, ip, lsl r0
 118:	00000000 	andeq	r0, r0, r0
 11c:	0000001c 	andeq	r0, r0, ip, lsl r0
 120:	00000000 	andeq	r0, r0, r0
 124:	0000001c 	andeq	r0, r0, ip, lsl r0
 128:	00000000 	andeq	r0, r0, r0
 12c:	0000001c 	andeq	r0, r0, ip, lsl r0
 130:	00000000 	andeq	r0, r0, r0
 134:	0000001c 	andeq	r0, r0, ip, lsl r0
 138:	00000c90 	muleq	r0, r0, ip
 13c:	00000060 	andeq	r0, r0, r0, rrx
 140:	00000cf0 	strdeq	r0, [r0], -r0	; <UNPREDICTABLE>
 144:	00000090 	muleq	r0, r0, r0
 148:	00000d80 	andeq	r0, r0, r0, lsl #27
 14c:	00000090 	muleq	r0, r0, r0
 150:	00000000 	andeq	r0, r0, r0
 154:	0000004c 	andeq	r0, r0, ip, asr #32
 158:	00000000 	andeq	r0, r0, r0
 15c:	00000090 	muleq	r0, r0, r0
 160:	00000000 	andeq	r0, r0, r0
 164:	00000028 	andeq	r0, r0, r8, lsr #32
 168:	00000000 	andeq	r0, r0, r0
 16c:	00000060 	andeq	r0, r0, r0, rrx
 170:	00000e10 	andeq	r0, r0, r0, lsl lr
 174:	00000090 	muleq	r0, r0, r0
 178:	00000ea0 	andeq	r0, r0, r0, lsr #29
 17c:	00000080 	andeq	r0, r0, r0, lsl #1
 180:	00000000 	andeq	r0, r0, r0
 184:	0000004c 	andeq	r0, r0, ip, asr #32
 188:	00000000 	andeq	r0, r0, r0
 18c:	00000090 	muleq	r0, r0, r0
 190:	00000f20 	andeq	r0, r0, r0, lsr #30
 194:	0000005a 	andeq	r0, r0, sl, asr r0
 198:	00000f7c 	andeq	r0, r0, ip, ror pc
 19c:	00000090 	muleq	r0, r0, r0
 1a0:	0000100c 	andeq	r1, r0, ip
 1a4:	0000004c 	andeq	r0, r0, ip, asr #32
 1a8:	00001058 	andeq	r1, r0, r8, asr r0
 1ac:	00000064 	andeq	r0, r0, r4, rrx
 1b0:	00000000 	andeq	r0, r0, r0
 1b4:	00000054 	andeq	r0, r0, r4, asr r0
 1b8:	00000000 	andeq	r0, r0, r0
 1bc:	00000034 	andeq	r0, r0, r4, lsr r0
 1c0:	000010bc 	strheq	r1, [r0], -ip
 1c4:	00000084 	andeq	r0, r0, r4, lsl #1
 1c8:	00000000 	andeq	r0, r0, r0
 1cc:	0000005a 	andeq	r0, r0, sl, asr r0
 1d0:	00000000 	andeq	r0, r0, r0
 1d4:	0000007a 	andeq	r0, r0, sl, ror r0
 1d8:	00000000 	andeq	r0, r0, r0
 1dc:	00000024 	andeq	r0, r0, r4, lsr #32
	...
 1e8:	00000014 	andeq	r0, r0, r4, lsl r0
 1ec:	28190002 	ldmdacs	r9, {r1}
 1f0:	00040000 	andeq	r0, r4, r0
	...
 200:	0000004c 	andeq	r0, r0, ip, asr #32
 204:	2c5a0002 	mrrccs	0, 0, r0, sl, cr2
 208:	00040000 	andeq	r0, r4, r0
	...
 214:	00000080 	andeq	r0, r0, r0, lsl #1
 218:	00000000 	andeq	r0, r0, r0
 21c:	0000005c 	andeq	r0, r0, ip, asr r0
 220:	00000000 	andeq	r0, r0, r0
 224:	0000005c 	andeq	r0, r0, ip, asr r0
 228:	00000000 	andeq	r0, r0, r0
 22c:	00000124 	andeq	r0, r0, r4, lsr #2
 230:	00000000 	andeq	r0, r0, r0
 234:	000000b0 	strheq	r0, [r0], -r0	; <UNPREDICTABLE>
 238:	00000000 	andeq	r0, r0, r0
 23c:	000000b4 	strheq	r0, [r0], -r4
 240:	00000000 	andeq	r0, r0, r0
 244:	000000cc 	andeq	r0, r0, ip, asr #1
	...
 250:	00000014 	andeq	r0, r0, r4, lsl r0
 254:	38150002 	ldmdacc	r5, {r1}
 258:	00040000 	andeq	r0, r4, r0
	...
 268:	0000004c 	andeq	r0, r0, ip, asr #32
 26c:	3ab60002 	bcc	fed8027c <_E_BSS+0xded7e488>
 270:	00040000 	andeq	r0, r4, r0
	...
 27c:	0000001c 	andeq	r0, r0, ip, lsl r0
 280:	00000000 	andeq	r0, r0, r0
 284:	00000020 	andeq	r0, r0, r0, lsr #32
 288:	00000000 	andeq	r0, r0, r0
 28c:	00000026 	andeq	r0, r0, r6, lsr #32
 290:	00000000 	andeq	r0, r0, r0
 294:	00000026 	andeq	r0, r0, r6, lsr #32
 298:	00000000 	andeq	r0, r0, r0
 29c:	00000018 	andeq	r0, r0, r8, lsl r0
 2a0:	00000000 	andeq	r0, r0, r0
 2a4:	00000018 	andeq	r0, r0, r8, lsl r0
 2a8:	00000000 	andeq	r0, r0, r0
 2ac:	00000028 	andeq	r0, r0, r8, lsr #32
	...
 2b8:	00000024 	andeq	r0, r0, r4, lsr #32
 2bc:	3f660002 	svccc	0x00660002
 2c0:	00040000 	andeq	r0, r4, r0
	...
 2cc:	0000002a 	andeq	r0, r0, sl, lsr #32
 2d0:	00001140 	andeq	r1, r0, r0, asr #2
 2d4:	000000a4 	andeq	r0, r0, r4, lsr #1
	...
 2e0:	00000044 	andeq	r0, r0, r4, asr #32
 2e4:	48070002 	stmdami	r7, {r1}
 2e8:	00040000 	andeq	r0, r4, r0
 2ec:	00000000 	andeq	r0, r0, r0
 2f0:	000011e4 	andeq	r1, r0, r4, ror #3
 2f4:	0000004c 	andeq	r0, r0, ip, asr #32
 2f8:	00001230 	andeq	r1, r0, r0, lsr r2
 2fc:	0000004c 	andeq	r0, r0, ip, asr #32
 300:	00000000 	andeq	r0, r0, r0
 304:	0000004c 	andeq	r0, r0, ip, asr #32
 308:	00000000 	andeq	r0, r0, r0
 30c:	0000004c 	andeq	r0, r0, ip, asr #32
 310:	00000000 	andeq	r0, r0, r0
 314:	00000038 	andeq	r0, r0, r8, lsr r0
 318:	00000000 	andeq	r0, r0, r0
 31c:	00000134 	andeq	r0, r0, r4, lsr r1
	...
 328:	00000024 	andeq	r0, r0, r4, lsr #32
 32c:	4c760002 	ldclmi	0, cr0, [r6], #-8
 330:	00040000 	andeq	r0, r4, r0
 334:	00000000 	andeq	r0, r0, r0
 338:	0000127c 	andeq	r1, r0, ip, ror r2
 33c:	0000000c 	andeq	r0, r0, ip
 340:	00001288 	andeq	r1, r0, r8, lsl #5
 344:	00000080 	andeq	r0, r0, r0, lsl #1
	...
 350:	0000004c 	andeq	r0, r0, ip, asr #32
 354:	4e2b0002 	cdpmi	0, 2, cr0, cr11, cr2, {0}
 358:	00040000 	andeq	r0, r4, r0
	...
 364:	00000030 	andeq	r0, r0, r0, lsr r0
 368:	00000000 	andeq	r0, r0, r0
 36c:	0000012c 	andeq	r0, r0, ip, lsr #2
 370:	00001308 	andeq	r1, r0, r8, lsl #6
 374:	00000048 	andeq	r0, r0, r8, asr #32
 378:	00001350 	andeq	r1, r0, r0, asr r3
 37c:	0000009c 	muleq	r0, ip, r0
 380:	00000000 	andeq	r0, r0, r0
 384:	0000004c 	andeq	r0, r0, ip, asr #32
 388:	00000000 	andeq	r0, r0, r0
 38c:	00000048 	andeq	r0, r0, r8, asr #32
 390:	00000000 	andeq	r0, r0, r0
 394:	0000002c 	andeq	r0, r0, ip, lsr #32
	...
 3a0:	00000014 	andeq	r0, r0, r4, lsl r0
 3a4:	55a40002 	strpl	r0, [r4, #2]!
 3a8:	00040000 	andeq	r0, r4, r0
	...
 3b8:	0000005c 	andeq	r0, r0, ip, asr r0
 3bc:	589d0002 	ldmpl	sp, {r1}
 3c0:	00040000 	andeq	r0, r4, r0
	...
 3cc:	0000001c 	andeq	r0, r0, ip, lsl r0
 3d0:	000013ec 	andeq	r1, r0, ip, ror #7
 3d4:	0000001c 	andeq	r0, r0, ip, lsl r0
 3d8:	00001408 	andeq	r1, r0, r8, lsl #8
 3dc:	0000001c 	andeq	r0, r0, ip, lsl r0
 3e0:	00001424 	andeq	r1, r0, r4, lsr #8
 3e4:	00000044 	andeq	r0, r0, r4, asr #32
 3e8:	00001468 	andeq	r1, r0, r8, ror #8
 3ec:	0000002c 	andeq	r0, r0, ip, lsr #32
 3f0:	00000000 	andeq	r0, r0, r0
 3f4:	00000074 	andeq	r0, r0, r4, ror r0
 3f8:	00000000 	andeq	r0, r0, r0
 3fc:	0000001c 	andeq	r0, r0, ip, lsl r0
 400:	00001494 	muleq	r0, r4, r4
 404:	00000058 	andeq	r0, r0, r8, asr r0
 408:	00000000 	andeq	r0, r0, r0
 40c:	0000001c 	andeq	r0, r0, ip, lsl r0
	...
 418:	000000ec 	andeq	r0, r0, ip, ror #1
 41c:	5c2b0002 	stcpl	0, cr0, [fp], #-8
 420:	00040000 	andeq	r0, r4, r0
	...
 42c:	00000090 	muleq	r0, r0, r0
 430:	00000000 	andeq	r0, r0, r0
 434:	00000090 	muleq	r0, r0, r0
 438:	00000000 	andeq	r0, r0, r0
 43c:	00000090 	muleq	r0, r0, r0
 440:	00000000 	andeq	r0, r0, r0
 444:	00000090 	muleq	r0, r0, r0
 448:	00000000 	andeq	r0, r0, r0
 44c:	00000090 	muleq	r0, r0, r0
 450:	00000000 	andeq	r0, r0, r0
 454:	00000090 	muleq	r0, r0, r0
 458:	00000000 	andeq	r0, r0, r0
 45c:	00000090 	muleq	r0, r0, r0
 460:	00000000 	andeq	r0, r0, r0
 464:	00000090 	muleq	r0, r0, r0
 468:	00000000 	andeq	r0, r0, r0
 46c:	00000110 	andeq	r0, r0, r0, lsl r1
 470:	00000000 	andeq	r0, r0, r0
 474:	000000b8 	strheq	r0, [r0], -r8
 478:	00000000 	andeq	r0, r0, r0
 47c:	0000005c 	andeq	r0, r0, ip, asr r0
 480:	00000000 	andeq	r0, r0, r0
 484:	00000058 	andeq	r0, r0, r8, asr r0
 488:	00000000 	andeq	r0, r0, r0
 48c:	00000064 	andeq	r0, r0, r4, rrx
 490:	00000000 	andeq	r0, r0, r0
 494:	00000060 	andeq	r0, r0, r0, rrx
 498:	00000000 	andeq	r0, r0, r0
 49c:	00000098 	muleq	r0, r8, r0
 4a0:	00000000 	andeq	r0, r0, r0
 4a4:	0000003c 	andeq	r0, r0, ip, lsr r0
 4a8:	00000000 	andeq	r0, r0, r0
 4ac:	00000054 	andeq	r0, r0, r4, asr r0
 4b0:	00000000 	andeq	r0, r0, r0
 4b4:	00000054 	andeq	r0, r0, r4, asr r0
 4b8:	00000000 	andeq	r0, r0, r0
 4bc:	0000005c 	andeq	r0, r0, ip, asr r0
 4c0:	00000000 	andeq	r0, r0, r0
 4c4:	00000024 	andeq	r0, r0, r4, lsr #32
 4c8:	00000000 	andeq	r0, r0, r0
 4cc:	00000024 	andeq	r0, r0, r4, lsr #32
 4d0:	00000000 	andeq	r0, r0, r0
 4d4:	00000024 	andeq	r0, r0, r4, lsr #32
 4d8:	00000000 	andeq	r0, r0, r0
 4dc:	00000024 	andeq	r0, r0, r4, lsr #32
 4e0:	00000000 	andeq	r0, r0, r0
 4e4:	00000024 	andeq	r0, r0, r4, lsr #32
 4e8:	00000000 	andeq	r0, r0, r0
 4ec:	00000024 	andeq	r0, r0, r4, lsr #32
 4f0:	00000000 	andeq	r0, r0, r0
 4f4:	00000024 	andeq	r0, r0, r4, lsr #32
 4f8:	00000000 	andeq	r0, r0, r0
 4fc:	00000024 	andeq	r0, r0, r4, lsr #32
	...
 508:	00000014 	andeq	r0, r0, r4, lsl r0
 50c:	761e0002 	ldrvc	r0, [lr], -r2
 510:	00040000 	andeq	r0, r4, r0
	...

Disassembly of section .debug_ranges:

00000000 <.debug_ranges>:
   0:	00000001 	andeq	r0, r0, r1
   4:	00000001 	andeq	r0, r0, r1
   8:	00000001 	andeq	r0, r0, r1
   c:	00000001 	andeq	r0, r0, r1
  10:	000008b4 			; <UNDEFINED> instruction: 0x000008b4
  14:	000008ec 	andeq	r0, r0, ip, ror #17
  18:	000008ec 	andeq	r0, r0, ip, ror #17
  1c:	00000978 	andeq	r0, r0, r8, ror r9
  20:	00000001 	andeq	r0, r0, r1
  24:	00000001 	andeq	r0, r0, r1
  28:	00000001 	andeq	r0, r0, r1
  2c:	00000001 	andeq	r0, r0, r1
  30:	00000978 	andeq	r0, r0, r8, ror r9
  34:	000009a4 	andeq	r0, r0, r4, lsr #19
  38:	000009a4 	andeq	r0, r0, r4, lsr #19
  3c:	00000afc 	strdeq	r0, [r0], -ip
  40:	00000001 	andeq	r0, r0, r1
  44:	00000001 	andeq	r0, r0, r1
  48:	00000afc 	strdeq	r0, [r0], -ip
  4c:	00000b54 	andeq	r0, r0, r4, asr fp
  50:	00000001 	andeq	r0, r0, r1
  54:	00000001 	andeq	r0, r0, r1
  58:	00000b54 	andeq	r0, r0, r4, asr fp
  5c:	00000b8c 	andeq	r0, r0, ip, lsl #23
  60:	00000b8c 	andeq	r0, r0, ip, lsl #23
  64:	00000be0 	andeq	r0, r0, r0, ror #23
  68:	00000be0 	andeq	r0, r0, r0, ror #23
  6c:	00000c38 	andeq	r0, r0, r8, lsr ip
  70:	00000c38 	andeq	r0, r0, r8, lsr ip
  74:	00000c90 	muleq	r0, r0, ip
  78:	00000001 	andeq	r0, r0, r1
  7c:	00000001 	andeq	r0, r0, r1
  80:	00000001 	andeq	r0, r0, r1
  84:	00000001 	andeq	r0, r0, r1
  88:	00000001 	andeq	r0, r0, r1
  8c:	00000001 	andeq	r0, r0, r1
  90:	00000001 	andeq	r0, r0, r1
  94:	00000001 	andeq	r0, r0, r1
  98:	00000001 	andeq	r0, r0, r1
  9c:	00000001 	andeq	r0, r0, r1
  a0:	00000001 	andeq	r0, r0, r1
  a4:	00000001 	andeq	r0, r0, r1
	...
  b0:	00000001 	andeq	r0, r0, r1
  b4:	00000001 	andeq	r0, r0, r1
	...
  c0:	00000001 	andeq	r0, r0, r1
  c4:	00000001 	andeq	r0, r0, r1
  c8:	00000001 	andeq	r0, r0, r1
  cc:	00000001 	andeq	r0, r0, r1
  d0:	00000001 	andeq	r0, r0, r1
  d4:	00000001 	andeq	r0, r0, r1
  d8:	00000001 	andeq	r0, r0, r1
  dc:	00000001 	andeq	r0, r0, r1
  e0:	00000001 	andeq	r0, r0, r1
  e4:	00000001 	andeq	r0, r0, r1
  e8:	00000001 	andeq	r0, r0, r1
  ec:	00000001 	andeq	r0, r0, r1
  f0:	00000c90 	muleq	r0, r0, ip
  f4:	00000cf0 	strdeq	r0, [r0], -r0	; <UNPREDICTABLE>
  f8:	00000cf0 	strdeq	r0, [r0], -r0	; <UNPREDICTABLE>
  fc:	00000d80 	andeq	r0, r0, r0, lsl #27
 100:	00000d80 	andeq	r0, r0, r0, lsl #27
 104:	00000e10 	andeq	r0, r0, r0, lsl lr
 108:	00000001 	andeq	r0, r0, r1
 10c:	00000001 	andeq	r0, r0, r1
 110:	00000001 	andeq	r0, r0, r1
 114:	00000001 	andeq	r0, r0, r1
 118:	00000001 	andeq	r0, r0, r1
 11c:	00000001 	andeq	r0, r0, r1
 120:	00000001 	andeq	r0, r0, r1
 124:	00000001 	andeq	r0, r0, r1
 128:	00000e10 	andeq	r0, r0, r0, lsl lr
 12c:	00000ea0 	andeq	r0, r0, r0, lsr #29
 130:	00000ea0 	andeq	r0, r0, r0, lsr #29
 134:	00000f20 	andeq	r0, r0, r0, lsr #30
 138:	00000001 	andeq	r0, r0, r1
 13c:	00000001 	andeq	r0, r0, r1
 140:	00000001 	andeq	r0, r0, r1
 144:	00000001 	andeq	r0, r0, r1
 148:	00000f20 	andeq	r0, r0, r0, lsr #30
 14c:	00000f7a 	andeq	r0, r0, sl, ror pc
 150:	00000f7c 	andeq	r0, r0, ip, ror pc
 154:	0000100c 	andeq	r1, r0, ip
 158:	0000100c 	andeq	r1, r0, ip
 15c:	00001058 	andeq	r1, r0, r8, asr r0
 160:	00001058 	andeq	r1, r0, r8, asr r0
 164:	000010bc 	strheq	r1, [r0], -ip
 168:	00000001 	andeq	r0, r0, r1
 16c:	00000001 	andeq	r0, r0, r1
 170:	00000001 	andeq	r0, r0, r1
 174:	00000001 	andeq	r0, r0, r1
 178:	000010bc 	strheq	r1, [r0], -ip
 17c:	00001140 	andeq	r1, r0, r0, asr #2
 180:	00000001 	andeq	r0, r0, r1
 184:	00000001 	andeq	r0, r0, r1
 188:	00000001 	andeq	r0, r0, r1
 18c:	00000001 	andeq	r0, r0, r1
 190:	00000001 	andeq	r0, r0, r1
 194:	00000001 	andeq	r0, r0, r1
	...
 1a0:	00000001 	andeq	r0, r0, r1
 1a4:	00000001 	andeq	r0, r0, r1
 1a8:	00000001 	andeq	r0, r0, r1
 1ac:	00000001 	andeq	r0, r0, r1
 1b0:	00000001 	andeq	r0, r0, r1
 1b4:	00000001 	andeq	r0, r0, r1
 1b8:	00000001 	andeq	r0, r0, r1
 1bc:	00000001 	andeq	r0, r0, r1
 1c0:	00000001 	andeq	r0, r0, r1
 1c4:	00000001 	andeq	r0, r0, r1
 1c8:	00000001 	andeq	r0, r0, r1
 1cc:	00000001 	andeq	r0, r0, r1
 1d0:	00000001 	andeq	r0, r0, r1
 1d4:	00000001 	andeq	r0, r0, r1
	...
 1e0:	00000001 	andeq	r0, r0, r1
 1e4:	00000001 	andeq	r0, r0, r1
 1e8:	00000001 	andeq	r0, r0, r1
 1ec:	00000001 	andeq	r0, r0, r1
 1f0:	00000001 	andeq	r0, r0, r1
 1f4:	00000001 	andeq	r0, r0, r1
 1f8:	00000001 	andeq	r0, r0, r1
 1fc:	00000001 	andeq	r0, r0, r1
 200:	00000001 	andeq	r0, r0, r1
 204:	00000001 	andeq	r0, r0, r1
 208:	00000001 	andeq	r0, r0, r1
 20c:	00000001 	andeq	r0, r0, r1
 210:	00000001 	andeq	r0, r0, r1
 214:	00000001 	andeq	r0, r0, r1
	...
 220:	00000001 	andeq	r0, r0, r1
 224:	00000001 	andeq	r0, r0, r1
 228:	00001140 	andeq	r1, r0, r0, asr #2
 22c:	000011e4 	andeq	r1, r0, r4, ror #3
	...
 238:	000011e4 	andeq	r1, r0, r4, ror #3
 23c:	00001230 	andeq	r1, r0, r0, lsr r2
 240:	00001230 	andeq	r1, r0, r0, lsr r2
 244:	0000127c 	andeq	r1, r0, ip, ror r2
 248:	00000001 	andeq	r0, r0, r1
 24c:	00000001 	andeq	r0, r0, r1
 250:	00000001 	andeq	r0, r0, r1
 254:	00000001 	andeq	r0, r0, r1
 258:	00000001 	andeq	r0, r0, r1
 25c:	00000001 	andeq	r0, r0, r1
 260:	00000001 	andeq	r0, r0, r1
 264:	00000001 	andeq	r0, r0, r1
	...
 270:	0000127c 	andeq	r1, r0, ip, ror r2
 274:	00001288 	andeq	r1, r0, r8, lsl #5
 278:	00001288 	andeq	r1, r0, r8, lsl #5
 27c:	00001308 	andeq	r1, r0, r8, lsl #6
	...
 288:	00000001 	andeq	r0, r0, r1
 28c:	00000001 	andeq	r0, r0, r1
 290:	00000001 	andeq	r0, r0, r1
 294:	00000001 	andeq	r0, r0, r1
 298:	00001308 	andeq	r1, r0, r8, lsl #6
 29c:	00001350 	andeq	r1, r0, r0, asr r3
 2a0:	00001350 	andeq	r1, r0, r0, asr r3
 2a4:	000013ec 	andeq	r1, r0, ip, ror #7
 2a8:	00000001 	andeq	r0, r0, r1
 2ac:	00000001 	andeq	r0, r0, r1
 2b0:	00000001 	andeq	r0, r0, r1
 2b4:	00000001 	andeq	r0, r0, r1
 2b8:	00000001 	andeq	r0, r0, r1
 2bc:	00000001 	andeq	r0, r0, r1
	...
 2c8:	00000001 	andeq	r0, r0, r1
 2cc:	00000001 	andeq	r0, r0, r1
 2d0:	000013ec 	andeq	r1, r0, ip, ror #7
 2d4:	00001408 	andeq	r1, r0, r8, lsl #8
 2d8:	00001408 	andeq	r1, r0, r8, lsl #8
 2dc:	00001424 	andeq	r1, r0, r4, lsr #8
 2e0:	00001424 	andeq	r1, r0, r4, lsr #8
 2e4:	00001468 	andeq	r1, r0, r8, ror #8
 2e8:	00001468 	andeq	r1, r0, r8, ror #8
 2ec:	00001494 	muleq	r0, r4, r4
 2f0:	00000001 	andeq	r0, r0, r1
 2f4:	00000001 	andeq	r0, r0, r1
 2f8:	00000001 	andeq	r0, r0, r1
 2fc:	00000001 	andeq	r0, r0, r1
 300:	00001494 	muleq	r0, r4, r4
 304:	000014ec 	andeq	r1, r0, ip, ror #9
 308:	00000001 	andeq	r0, r0, r1
 30c:	00000001 	andeq	r0, r0, r1
	...
 318:	00000001 	andeq	r0, r0, r1
 31c:	00000001 	andeq	r0, r0, r1
 320:	00000001 	andeq	r0, r0, r1
 324:	00000001 	andeq	r0, r0, r1
 328:	00000001 	andeq	r0, r0, r1
 32c:	00000001 	andeq	r0, r0, r1
 330:	00000001 	andeq	r0, r0, r1
 334:	00000001 	andeq	r0, r0, r1
 338:	00000001 	andeq	r0, r0, r1
 33c:	00000001 	andeq	r0, r0, r1
 340:	00000001 	andeq	r0, r0, r1
 344:	00000001 	andeq	r0, r0, r1
 348:	00000001 	andeq	r0, r0, r1
 34c:	00000001 	andeq	r0, r0, r1
 350:	00000001 	andeq	r0, r0, r1
 354:	00000001 	andeq	r0, r0, r1
 358:	00000001 	andeq	r0, r0, r1
 35c:	00000001 	andeq	r0, r0, r1
 360:	00000001 	andeq	r0, r0, r1
 364:	00000001 	andeq	r0, r0, r1
 368:	00000001 	andeq	r0, r0, r1
 36c:	00000001 	andeq	r0, r0, r1
 370:	00000001 	andeq	r0, r0, r1
 374:	00000001 	andeq	r0, r0, r1
 378:	00000001 	andeq	r0, r0, r1
 37c:	00000001 	andeq	r0, r0, r1
 380:	00000001 	andeq	r0, r0, r1
 384:	00000001 	andeq	r0, r0, r1
 388:	00000001 	andeq	r0, r0, r1
 38c:	00000001 	andeq	r0, r0, r1
 390:	00000001 	andeq	r0, r0, r1
 394:	00000001 	andeq	r0, r0, r1
 398:	00000001 	andeq	r0, r0, r1
 39c:	00000001 	andeq	r0, r0, r1
 3a0:	00000001 	andeq	r0, r0, r1
 3a4:	00000001 	andeq	r0, r0, r1
 3a8:	00000001 	andeq	r0, r0, r1
 3ac:	00000001 	andeq	r0, r0, r1
 3b0:	00000001 	andeq	r0, r0, r1
 3b4:	00000001 	andeq	r0, r0, r1
 3b8:	00000001 	andeq	r0, r0, r1
 3bc:	00000001 	andeq	r0, r0, r1
 3c0:	00000001 	andeq	r0, r0, r1
 3c4:	00000001 	andeq	r0, r0, r1
 3c8:	00000001 	andeq	r0, r0, r1
 3cc:	00000001 	andeq	r0, r0, r1
 3d0:	00000001 	andeq	r0, r0, r1
 3d4:	00000001 	andeq	r0, r0, r1
 3d8:	00000001 	andeq	r0, r0, r1
 3dc:	00000001 	andeq	r0, r0, r1
 3e0:	00000001 	andeq	r0, r0, r1
 3e4:	00000001 	andeq	r0, r0, r1
 3e8:	00000001 	andeq	r0, r0, r1
 3ec:	00000001 	andeq	r0, r0, r1
	...

Disassembly of section .debug_line:

00000000 <.debug_line>:
       0:	0000050c 	andeq	r0, r0, ip, lsl #10
       4:	00540003 	subseq	r0, r4, r3
       8:	01020000 	mrseq	r0, (UNDEF: 2)
       c:	000d0efb 	strdeq	r0, [sp], -fp
      10:	01010101 	tsteq	r1, r1, lsl #2
      14:	01000000 	mrseq	r0, (UNDEF: 0)
      18:	00010000 	andeq	r0, r1, r0
      1c:	2e414d44 	cdpcs	13, 4, cr4, cr1, cr4, {2}
      20:	00000063 	andeq	r0, r0, r3, rrx
      24:	74736c00 	ldrbtvc	r6, [r3], #-3072	; 0xfffff400
      28:	00682e64 	rsbeq	r2, r8, r4, ror #28
      2c:	44000000 	strmi	r0, [r0], #-0
      30:	725f414d 	subsvc	r4, pc, #1073741843	; 0x40000013
      34:	682e6765 	stmdavs	lr!, {r0, r2, r5, r6, r8, r9, sl, sp, lr}
      38:	00000000 	andeq	r0, r0, r0
      3c:	5f414d44 	svcpl	0x00414d44
      40:	666e6f63 	strbtvs	r6, [lr], -r3, ror #30
      44:	682e6769 	stmdavs	lr!, {r0, r3, r5, r6, r8, r9, sl, sp, lr}
      48:	00000000 	andeq	r0, r0, r0
      4c:	4f495047 	svcmi	0x00495047
      50:	6e6f635f 	mcrvs	3, 3, r6, cr15, cr15, {2}
      54:	2e676966 	vnmulcs.f16	s13, s14, s13	; <UNPREDICTABLE>
      58:	00000068 	andeq	r0, r0, r8, rrx
      5c:	13050000 	movwne	r0, #20480	; 0x5000
      60:	00020500 	andeq	r0, r2, r0, lsl #10
      64:	03000000 	movweq	r0, #0
      68:	050101ca 	streq	r0, [r1, #-458]	; 0xfffffe36
      6c:	2e0f031a 	mcrcs	3, 0, r0, cr15, cr10, {0}
      70:	02680105 	rsbeq	r0, r8, #1073741825	; 0x40000001
      74:	01010008 	tsteq	r1, r8
      78:	05001e05 	streq	r1, [r0, #-3589]	; 0xfffff1fb
      7c:	00000002 	andeq	r0, r0, r2
      80:	03c20300 	biceq	r0, r2, #0, 6
      84:	3f053101 	svccc	0x00053101
      88:	4b050520 	blmi	141510 <_E_text+0x140024>
      8c:	3c030205 	sfmcc	f0, 4, [r3], {5}
      90:	00060258 	andeq	r0, r6, r8, asr r2
      94:	24050101 	strcs	r0, [r5], #-257	; 0xfffffeff
      98:	b4020500 	strlt	r0, [r2], #-1280	; 0xfffffb00
      9c:	03000008 	movweq	r0, #8
      a0:	050104a1 	streq	r0, [r1, #-1185]	; 0xfffffb5f
      a4:	3a053211 	bcc	14c8f0 <_E_text+0x14b404>
      a8:	4e1b0520 	cfmul64mi	mvdx0, mvdx11, mvdx0
      ac:	056a2505 	strbeq	r2, [sl, #-1285]!	; 0xfffffafb
      b0:	2f052030 	svccs	0x00052030
      b4:	24010520 	strcs	r0, [r1], #-1312	; 0xfffffae0
      b8:	01000c02 	tsteq	r0, r2, lsl #24
      bc:	004b0501 	subeq	r0, fp, r1, lsl #10
      c0:	08ec0205 	stmiaeq	ip!, {r0, r2, r9}^
      c4:	b4030000 	strlt	r0, [r3], #-0
      c8:	05050104 	streq	r0, [r5, #-260]	; 0xfffffefc
      cc:	8629054e 	strthi	r0, [r9], -lr, asr #10
      d0:	052e3c05 	streq	r3, [lr, #-3077]!	; 0xfffff3fb
      d4:	29053c2d 	stmdbcs	r5, {r0, r2, r3, r5, sl, fp, ip, sp}
      d8:	4021053c 	eormi	r0, r1, ip, lsr r5
      dc:	052e3405 	streq	r3, [lr, #-1029]!	; 0xfffffbfb
      e0:	21053c25 	tstcs	r5, r5, lsr #24
      e4:	4120053c 			; <UNDEFINED> instruction: 0x4120053c
      e8:	052e3305 	streq	r3, [lr, #-773]!	; 0xfffffcfb
      ec:	20053c24 	andcs	r3, r5, r4, lsr #24
      f0:	3f23053c 	svccc	0x0023053c
      f4:	052e3d05 	streq	r3, [lr, #-3333]!	; 0xfffff2fb
      f8:	054d2e05 	strbeq	r2, [sp, #-3589]	; 0xfffff1fb
      fc:	0b026701 	bleq	99d08 <_E_text+0x9881c>
     100:	05010100 	streq	r0, [r1, #-256]	; 0xffffff00
     104:	0205004c 	andeq	r0, r5, #76	; 0x4c
     108:	00000000 	andeq	r0, r0, r0
     10c:	0104ce03 	tsteq	r4, r3, lsl #28
     110:	054c2e05 	strbeq	r2, [ip, #-3589]	; 0xfffff1fb
     114:	25052e07 	strcs	r2, [r5, #-3591]	; 0xfffff1f9
     118:	2e3a0530 	mrccs	5, 1, r0, cr10, cr0, {1}
     11c:	053c2a05 	ldreq	r2, [ip, #-2565]!	; 0xfffff5fb
     120:	28053c25 	stmdacs	r5, {r0, r2, r5, sl, fp, ip, sp}
     124:	2e07053f 	mcrcs	5, 0, r0, cr7, cr15, {1}
     128:	05302505 	ldreq	r2, [r0, #-1285]!	; 0xfffffafb
     12c:	29052e39 	stmdbcs	r5, {r0, r3, r4, r5, r9, sl, fp, sp}
     130:	3c25053c 	cfstr32cc	mvfx0, [r5], #-240	; 0xffffff10
     134:	053f2005 	ldreq	r2, [pc, #-5]!	; 137 <DestinationAddressPointerRegisters+0x1b>
     138:	24052e34 	strcs	r2, [r5], #-3636	; 0xfffff1cc
     13c:	3c20053c 	cfstr32cc	mvfx0, [r0], #-240	; 0xffffff10
     140:	023e0105 	eorseq	r0, lr, #1073741825	; 0x40000001
     144:	0101000b 	tsteq	r1, fp
     148:	05004005 	streq	r4, [r0, #-5]
     14c:	00000002 	andeq	r0, r0, r2
     150:	04de0300 	ldrbeq	r0, [lr], #768	; 0x300
     154:	4c430501 	cfstr64mi	mvdx0, [r3], {1}
     158:	05202205 	streq	r2, [r0, #-517]!	; 0xfffffdfb
     15c:	42052043 	andmi	r2, r5, #67	; 0x43
     160:	4b01052e 	blmi	41620 <_E_text+0x40134>
     164:	01000802 	tsteq	r0, r2, lsl #16
     168:	00330501 	eorseq	r0, r3, r1, lsl #10
     16c:	09780205 	ldmdbeq	r8!, {r0, r2, r9}^
     170:	e3030000 	movw	r0, #12288	; 0x3000
     174:	1d050104 	stfnes	f0, [r5, #-16]
     178:	2e210559 	mcrcs	5, 1, r0, cr1, cr9, {2}
     17c:	05581d05 	ldrbeq	r1, [r8, #-3333]	; 0xfffff2fb
     180:	07023d01 	streq	r3, [r2, -r1, lsl #26]
     184:	05010100 	streq	r0, [r1, #-256]	; 0xffffff00
     188:	02050073 	andeq	r0, r5, #115	; 0x73
     18c:	000009a4 	andeq	r0, r0, r4, lsr #19
     190:	0104e803 	tsteq	r4, r3, lsl #16
     194:	05680a05 	strbeq	r0, [r8, #-2565]!	; 0xfffff5fb
     198:	21053c07 	tstcs	r5, r7, lsl #24
     19c:	01040200 	mrseq	r0, R12_usr
     1a0:	001c052e 	andseq	r0, ip, lr, lsr #10
     1a4:	3c010402 	cfstrscc	mvf0, [r1], {2}
     1a8:	052f2f05 	streq	r2, [pc, #-3845]!	; fffff2ab <_E_BSS+0xdfffd4b7>
     1ac:	3d053c25 	stccc	12, cr3, [r5, #-148]	; 0xffffff6c
     1b0:	310a053c 	tstcc	sl, ip, lsr r5
     1b4:	053c0705 	ldreq	r0, [ip, #-1797]!	; 0xfffff8fb
     1b8:	04020021 	streq	r0, [r2], #-33	; 0xffffffdf
     1bc:	1c052e01 	stcne	14, cr2, [r5], {1}
     1c0:	01040200 	mrseq	r0, R12_usr
     1c4:	2f34053c 	svccs	0x0034053c
     1c8:	053c2a05 	ldreq	r2, [ip, #-2565]!	; 0xfffff5fb
     1cc:	54053c42 	strpl	r3, [r5], #-3138	; 0xfffff3be
     1d0:	2e300531 	mrccs	5, 1, r0, cr0, cr1, {1}
     1d4:	053c2605 	ldreq	r2, [ip, #-1541]!	; 0xfffff9fb
     1d8:	4a053c54 	bmi	14f330 <_E_text+0x14de44>
     1dc:	4b55054a 	blmi	154170c <_E_text+0x1540220>
     1e0:	052e3005 	streq	r3, [lr, #-5]!
     1e4:	55053c26 	strpl	r3, [r5, #-3110]	; 0xfffff3da
     1e8:	4a4b053c 	bmi	12c16e0 <_E_text+0x12c01f4>
     1ec:	054b5405 	strbeq	r5, [fp, #-1029]	; 0xfffffbfb
     1f0:	26052e30 			; <UNDEFINED> instruction: 0x26052e30
     1f4:	3c54053c 	cfldr64cc	mvdx0, [r4], {60}	; 0x3c
     1f8:	054a4a05 	strbeq	r4, [sl, #-2565]	; 0xfffff5fb
     1fc:	30054b55 	andcc	r4, r5, r5, asr fp
     200:	3c26052e 	cfstr32cc	mvfx0, [r6], #-184	; 0xffffff48
     204:	053c5505 	ldreq	r5, [ip, #-1285]!	; 0xfffffafb
     208:	56054a4b 	strpl	r4, [r5], -fp, asr #20
     20c:	2e30054b 	cdpcs	5, 3, cr0, cr0, cr11, {2}
     210:	053c2605 	ldreq	r2, [ip, #-1541]!	; 0xfffff9fb
     214:	4c053c56 	stcmi	12, cr3, [r5], {86}	; 0x56
     218:	4b56054a 	blmi	1581748 <_E_text+0x158025c>
     21c:	052e3005 	streq	r3, [lr, #-5]!
     220:	56053c26 	strpl	r3, [r5], -r6, lsr #24
     224:	4a4c053c 	bmi	130171c <_E_text+0x1300230>
     228:	054b5505 	strbeq	r5, [fp, #-1285]	; 0xfffffafb
     22c:	26052e30 			; <UNDEFINED> instruction: 0x26052e30
     230:	3c55053c 	cfldr64cc	mvdx0, [r5], {60}	; 0x3c
     234:	054a4b05 	strbeq	r4, [sl, #-2821]	; 0xfffff4fb
     238:	12024c01 	andne	r4, r2, #256	; 0x100
     23c:	05010100 	streq	r0, [r1, #-256]	; 0xffffff00
     240:	0205007b 	andeq	r0, r5, #123	; 0x7b
     244:	00000000 	andeq	r0, r0, r0
     248:	0104fc03 	tsteq	r4, r3, lsl #24	; <UNPREDICTABLE>
     24c:	05680a05 	strbeq	r0, [r8, #-2565]!	; 0xfffff5fb
     250:	21053c07 	tstcs	r5, r7, lsl #24
     254:	01040200 	mrseq	r0, R12_usr
     258:	001c052e 	andseq	r0, ip, lr, lsr #10
     25c:	3c010402 	cfstrscc	mvf0, [r1], {2}
     260:	052f3705 	streq	r3, [pc, #-1797]!	; fffffb63 <_E_BSS+0xdfffdd6f>
     264:	45053c2d 	strmi	r3, [r5, #-3117]	; 0xfffff3d3
     268:	310a053c 	tstcc	sl, ip, lsr r5
     26c:	053c0705 	ldreq	r0, [ip, #-1797]!	; 0xfffff8fb
     270:	04020021 	streq	r0, [r2], #-33	; 0xffffffdf
     274:	1c052e01 	stcne	14, cr2, [r5], {1}
     278:	01040200 	mrseq	r0, R12_usr
     27c:	2f3c053c 	svccs	0x003c053c
     280:	053c3205 	ldreq	r3, [ip, #-517]!	; 0xfffffdfb
     284:	5d053c4a 	stcpl	12, cr3, [r5, #-296]	; 0xfffffed8
     288:	2e390531 	mrccs	5, 1, r0, cr9, cr1, {1}
     28c:	053c2f05 	ldreq	r2, [ip, #-3845]!	; 0xfffff0fb
     290:	53053c5d 	movwpl	r3, #23645	; 0x5c5d
     294:	4b5e054a 	blmi	17817c4 <_E_text+0x17802d8>
     298:	052e3905 	streq	r3, [lr, #-2309]!	; 0xfffff6fb
     29c:	5e053c2f 	cdppl	12, 0, cr3, cr5, cr15, {1}
     2a0:	4a54053c 	bmi	1501798 <_E_text+0x15002ac>
     2a4:	054b5d05 	strbeq	r5, [fp, #-3333]	; 0xfffff2fb
     2a8:	2f052e39 	svccs	0x00052e39
     2ac:	3c5d053c 	cfldr64cc	mvdx0, [sp], {60}	; 0x3c
     2b0:	054a5305 	strbeq	r5, [sl, #-773]	; 0xfffffcfb
     2b4:	39054b5e 	stmdbcc	r5, {r1, r2, r3, r4, r6, r8, r9, fp, lr}
     2b8:	3c2f052e 	cfstr32cc	mvfx0, [pc], #-184	; 208 <AlternateDestinationAddressPointerRegisters+0x6c>
     2bc:	053c5e05 	ldreq	r5, [ip, #-3589]!	; 0xfffff1fb
     2c0:	5f054a54 	svcpl	0x00054a54
     2c4:	2e39054b 	cdpcs	5, 3, cr0, cr9, cr11, {2}
     2c8:	053c2f05 	ldreq	r2, [ip, #-3845]!	; 0xfffff0fb
     2cc:	55053c5f 	strpl	r3, [r5, #-3167]	; 0xfffff3a1
     2d0:	4b5f054a 	blmi	17c1800 <_E_text+0x17c0314>
     2d4:	052e3905 	streq	r3, [lr, #-2309]!	; 0xfffff6fb
     2d8:	5f053c2f 	svcpl	0x00053c2f
     2dc:	4a55053c 	bmi	15417d4 <_E_text+0x15402e8>
     2e0:	054b5e05 	strbeq	r5, [fp, #-3589]	; 0xfffff1fb
     2e4:	2f052e39 	svccs	0x00052e39
     2e8:	3c5e053c 	cfldr64cc	mvdx0, [lr], {60}	; 0x3c
     2ec:	054a5405 	strbeq	r5, [sl, #-1029]	; 0xfffffbfb
     2f0:	12024c01 	andne	r4, r2, #256	; 0x100
     2f4:	05010100 	streq	r0, [r1, #-256]	; 0xffffff00
     2f8:	0205006b 	andeq	r0, r5, #107	; 0x6b
     2fc:	00000afc 	strdeq	r0, [r0], -ip
     300:	01059103 	tsteq	r5, r3, lsl #2
     304:	05840505 	streq	r0, [r4, #1285]	; 0x505
     308:	580c0301 	stmdapl	ip, {r0, r8, r9}
     30c:	77032c05 	strvc	r2, [r3, -r5, lsl #24]
     310:	2e320520 	cfabs64cs	mvdx0, mvdx2
     314:	054a2f05 	strbeq	r2, [sl, #-3845]	; 0xfffff0fb
     318:	04052e2c 	streq	r2, [r5], #-3628	; 0xfffff1d4
     31c:	232c053d 			; <UNDEFINED> instruction: 0x232c053d
     320:	052e3105 	streq	r3, [lr, #-261]!	; 0xfffffefb
     324:	0505582c 	streq	r5, [r5, #-2092]	; 0xfffff7d4
     328:	2401053d 	strcs	r0, [r1], #-1341	; 0xfffffac3
     32c:	01000702 	tsteq	r0, r2, lsl #14
     330:	00360501 	eorseq	r0, r6, r1, lsl #10
     334:	00000205 	andeq	r0, r0, r5, lsl #4
     338:	a1030000 	mrsge	r0, (UNDEF: 3)
     33c:	28050105 	stmdacs	r5, {r0, r2, r8}
     340:	6701054c 	strvs	r0, [r1, -ip, asr #10]
     344:	01000802 	tsteq	r0, r2, lsl #16
     348:	00420501 	subeq	r0, r2, r1, lsl #10
     34c:	0b540205 	bleq	1500b68 <_E_text+0x14ff67c>
     350:	a6030000 	strge	r0, [r3], -r0
     354:	0b050105 	bleq	140770 <_E_text+0x13f284>
     358:	3d09055a 	cfstr32cc	mvfx0, [r9, #-360]	; 0xfffffe98
     35c:	4401053d 	strmi	r0, [r1], #-1341	; 0xfffffac3
     360:	051b0c05 	ldreq	r0, [fp, #-3077]	; 0xfffff3fb
     364:	053d3d09 	ldreq	r3, [sp, #-3337]!	; 0xfffff2f7
     368:	04023f01 	streq	r3, [r2], #-3841	; 0xfffff0ff
     36c:	05010100 	streq	r0, [r1, #-256]	; 0xffffff00
     370:	0205005b 	andeq	r0, r5, #91	; 0x5b
     374:	00000b8c 	andeq	r0, r0, ip, lsl #23
     378:	0105b603 	tsteq	r5, r3, lsl #12
     37c:	05840505 	streq	r0, [r4, #1285]	; 0x505
     380:	2e056001 	cdpcs	0, 0, cr6, cr5, cr1, {0}
     384:	05207a03 	streq	r7, [r0, #-2563]!	; 0xfffff5fd
     388:	2e052e32 	mcrcs	14, 0, r2, cr5, cr2, {1}
     38c:	3f2d0558 	svccc	0x002d0558
     390:	052e3305 	streq	r3, [lr, #-773]!	; 0xfffffcfb
     394:	2d054a30 	vstrcs	s8, [r5, #-192]	; 0xffffff40
     398:	3f01052e 	svccc	0x0001052e
     39c:	01000702 	tsteq	r0, r2, lsl #14
     3a0:	00670501 	rsbeq	r0, r7, r1, lsl #10
     3a4:	0be00205 	bleq	ff800bc0 <_E_BSS+0xdf7fedcc>
     3a8:	c2030000 	andgt	r0, r3, #0
     3ac:	05050105 	streq	r0, [r5, #-261]	; 0xfffffefb
     3b0:	03010584 	movweq	r0, #5508	; 0x1584
     3b4:	2305580b 	movwcs	r5, #22539	; 0x580b
     3b8:	05207803 	streq	r7, [r0, #-2051]!	; 0xfffff7fd
     3bc:	26052e29 	strcs	r2, [r5], -r9, lsr #28
     3c0:	2e23054a 	cfsh64cs	mvdx0, mvdx3, #42
     3c4:	053d0505 	ldreq	r0, [sp, #-1285]!	; 0xfffffafb
     3c8:	28052323 	stmdacs	r5, {r0, r1, r5, r8, r9, sp}
     3cc:	5823052e 	stmdapl	r3!, {r1, r2, r3, r5, r8, sl}
     3d0:	053d0505 	ldreq	r0, [sp, #-1285]!	; 0xfffffafb
     3d4:	07022301 	streq	r2, [r2, -r1, lsl #6]
     3d8:	05010100 	streq	r0, [r1, #-256]	; 0xffffff00
     3dc:	0205004a 	andeq	r0, r5, #74	; 0x4a
     3e0:	00000c38 	andeq	r0, r0, r8, lsr ip
     3e4:	0105d103 	tsteq	r5, r3, lsl #2
     3e8:	05840a05 	streq	r0, [r4, #2565]	; 0xa05
     3ec:	2f053d22 	svccs	0x00053d22
     3f0:	2e220520 	cfsh64cs	mvdx0, mvdx2, #16
     3f4:	05203705 	streq	r3, [r0, #-1797]!	; 0xfffff8fb
     3f8:	23053c0a 	movwcs	r3, #23562	; 0x5c0a
     3fc:	4a30053d 	bmi	c018f8 <_E_text+0xc0040c>
     400:	05203405 	streq	r3, [r0, #-1029]!	; 0xfffffbfb
     404:	30055823 	andcc	r5, r5, r3, lsr #16
     408:	2f01054a 	svccs	0x0001054a
     40c:	01000702 	tsteq	r0, r2, lsl #14
     410:	004c0501 	subeq	r0, ip, r1, lsl #10
     414:	00000205 	andeq	r0, r0, r5, lsl #4
     418:	d8030000 	stmdale	r3, {}	; <UNPREDICTABLE>
     41c:	0a050105 	beq	140838 <_E_text+0x13f34c>
     420:	3d220584 	cfstr32cc	mvfx0, [r2, #-528]!	; 0xfffffdf0
     424:	05202f05 	streq	r2, [r0, #-3845]!	; 0xfffff0fb
     428:	37052e22 	strcc	r2, [r5, -r2, lsr #28]
     42c:	3c0a0520 	cfstr32cc	mvfx0, [sl], {32}
     430:	053d2305 	ldreq	r2, [sp, #-773]!	; 0xfffffcfb
     434:	35054a30 	strcc	r4, [r5, #-2608]	; 0xfffff5d0
     438:	4a320520 	bmi	c818c0 <_E_text+0xc803d4>
     43c:	052e2305 	streq	r2, [lr, #-773]!	; 0xfffffcfb
     440:	01054a30 	tsteq	r5, r0, lsr sl
     444:	0008022f 	andeq	r0, r8, pc, lsr #4
     448:	48050101 	stmdami	r5, {r0, r8}
     44c:	00020500 	andeq	r0, r2, r0, lsl #10
     450:	03000000 	movweq	r0, #0
     454:	050105e0 	streq	r0, [r1, #-1504]	; 0xfffffa20
     458:	4b775a05 	blmi	1dd6c74 <_E_text+0x1dd5788>
     45c:	023f0105 	eorseq	r0, pc, #1073741825	; 0x40000001
     460:	01010007 	tsteq	r1, r7
     464:	05004805 	streq	r4, [r0, #-2053]	; 0xfffff7fb
     468:	00000002 	andeq	r0, r0, r2
     46c:	05ec0300 	strbeq	r0, [ip, #768]!	; 0x300
     470:	4c070501 	cfstr32mi	mvfx0, [r7], {1}
     474:	05202105 	streq	r2, [r0, #-261]!	; 0xfffffefb
     478:	27052f07 	strcs	r2, [r5, -r7, lsl #30]
     47c:	20260520 	eorcs	r0, r6, r0, lsr #10
     480:	05211705 	streq	r1, [r1, #-1797]!	; 0xfffff8fb
     484:	16053d05 	strne	r3, [r5], -r5, lsl #26
     488:	03290559 			; <UNDEFINED> instruction: 0x03290559
     48c:	39053c0a 	stmdbcc	r5, {r1, r3, sl, fp, ip, sp}
     490:	3c2d052e 	cfstr32cc	mvfx0, [sp], #-184	; 0xffffff48
     494:	053c2905 	ldreq	r2, [ip, #-2309]!	; 0xfffff6fb
     498:	10023e01 	andne	r3, r2, r1, lsl #28
     49c:	05010100 	streq	r0, [r1, #-256]	; 0xffffff00
     4a0:	02050052 	andeq	r0, r5, #82	; 0x52
     4a4:	00000000 	andeq	r0, r0, r0
     4a8:	01068103 	tsteq	r6, r3, lsl #2
     4ac:	054c0805 	strbeq	r0, [ip, #-2053]	; 0xfffff7fb
     4b0:	08052022 	stmdaeq	r5, {r1, r5, sp}
     4b4:	2028052f 	eorcs	r0, r8, pc, lsr #10
     4b8:	05202705 	streq	r2, [r0, #-1797]!	; 0xfffff8fb
     4bc:	05052117 	streq	r2, [r5, #-279]	; 0xfffffee9
     4c0:	5916053d 	ldmdbpl	r6, {r0, r2, r3, r4, r5, r8, sl}
     4c4:	0a032905 	beq	ca8e0 <_E_text+0xc93f4>
     4c8:	2e39053c 	mrccs	5, 1, r0, cr9, cr12, {1}
     4cc:	053c2d05 	ldreq	r2, [ip, #-3333]!	; 0xfffff2fb
     4d0:	01053c29 	tsteq	r5, r9, lsr #24
     4d4:	0010023e 	andseq	r0, r0, lr, lsr r2
     4d8:	6c050101 	stfvss	f0, [r5], {1}
     4dc:	00020500 	andeq	r0, r2, r0, lsl #10
     4e0:	03000000 	movweq	r0, #0
     4e4:	05010695 	streq	r0, [r1, #-1685]	; 0xfffff96b
     4e8:	2f056823 	svccs	0x00056823
     4ec:	4c020520 	cfstr32mi	mvfx0, [r2], {32}
     4f0:	01000702 	tsteq	r0, r2, lsl #14
     4f4:	00680501 	rsbeq	r0, r8, r1, lsl #10
     4f8:	00000205 	andeq	r0, r0, r5, lsl #4
     4fc:	9b030000 	blls	c0504 <_E_text+0xbf018>
     500:	1f050106 	svcne	0x00050106
     504:	202b0568 	eorcs	r0, fp, r8, ror #10
     508:	024c0205 	subeq	r0, ip, #1342177280	; 0x50000000
     50c:	01010007 	tsteq	r1, r7
     510:	00000043 	andeq	r0, r0, r3, asr #32
     514:	003d0003 	eorseq	r0, sp, r3
     518:	01020000 	mrseq	r0, (UNDEF: 2)
     51c:	000d0efb 	strdeq	r0, [sp], -fp
     520:	01010101 	tsteq	r1, r1, lsl #2
     524:	01000000 	mrseq	r0, (UNDEF: 0)
     528:	00010000 	andeq	r0, r1, r0
     52c:	6474736c 	ldrbtvs	r7, [r4], #-876	; 0xfffffc94
     530:	0000682e 	andeq	r6, r0, lr, lsr #16
     534:	4d440000 	stclmi	0, cr0, [r4, #-0]
     538:	6f635f41 	svcvs	0x00635f41
     53c:	6769666e 	strbvs	r6, [r9, -lr, ror #12]!
     540:	0000682e 	andeq	r6, r0, lr, lsr #16
     544:	4d440000 	stclmi	0, cr0, [r4, #-0]
     548:	6f635f41 	svcvs	0x00635f41
     54c:	6769666e 	strbvs	r6, [r9, -lr, ror #12]!
     550:	0000632e 	andeq	r6, r0, lr, lsr #6
     554:	3d000000 	stccc	0, cr0, [r0, #-0]
     558:	03000000 	movweq	r0, #0
     55c:	00002500 	andeq	r2, r0, r0, lsl #10
     560:	fb010200 	blx	40d6a <_E_text+0x3f87e>
     564:	01000d0e 	tsteq	r0, lr, lsl #26
     568:	00010101 	andeq	r0, r1, r1, lsl #2
     56c:	00010000 	andeq	r0, r1, r0
     570:	64000100 	strvs	r0, [r0], #-256	; 0xffffff00
     574:	796d6d75 	stmdbvc	sp!, {r0, r2, r4, r5, r6, r8, sl, fp, sp, lr}^
     578:	6f636d5f 	svcvs	0x00636d5f
     57c:	2e746e75 	mrccs	14, 3, r6, cr4, cr5, {3}
     580:	00000063 	andeq	r0, r0, r3, rrx
     584:	32050000 	andcc	r0, r5, #0
     588:	00020500 	andeq	r0, r2, r0, lsl #10
     58c:	01000000 	mrseq	r0, (UNDEF: 0)
     590:	02300105 	eorseq	r0, r0, #1073741825	; 0x40000001
     594:	01010004 	tsteq	r1, r4
     598:	0000053e 	andeq	r0, r0, lr, lsr r5
     59c:	00460003 	subeq	r0, r6, r3
     5a0:	01020000 	mrseq	r0, (UNDEF: 2)
     5a4:	000d0efb 	strdeq	r0, [sp], -fp
     5a8:	01010101 	tsteq	r1, r1, lsl #2
     5ac:	01000000 	mrseq	r0, (UNDEF: 0)
     5b0:	00010000 	andeq	r0, r1, r0
     5b4:	4f495047 	svcmi	0x00495047
     5b8:	0000632e 	andeq	r6, r0, lr, lsr #6
     5bc:	736c0000 	cmnvc	ip, #0
     5c0:	682e6474 	stmdavs	lr!, {r2, r4, r5, r6, sl, sp, lr}
     5c4:	00000000 	andeq	r0, r0, r0
     5c8:	4f495047 	svcmi	0x00495047
     5cc:	6765725f 			; <UNDEFINED> instruction: 0x6765725f
     5d0:	0000682e 	andeq	r6, r0, lr, lsr #16
     5d4:	70670000 	rsbvc	r0, r7, r0
     5d8:	635f6f69 	cmpvs	pc, #420	; 0x1a4
     5dc:	69666e6f 	stmdbvs	r6!, {r0, r1, r2, r3, r5, r6, r9, sl, fp, sp, lr}^
     5e0:	00682e67 	rsbeq	r2, r8, r7, ror #28
     5e4:	00000000 	andeq	r0, r0, r0
     5e8:	05001305 	streq	r1, [r0, #-773]	; 0xfffffcfb
     5ec:	00000002 	andeq	r0, r0, r2
     5f0:	00dc0300 	sbcseq	r0, ip, r0, lsl #6
     5f4:	30160501 	andscc	r0, r6, r1, lsl #10
     5f8:	052e0805 	streq	r0, [lr, #-2053]!	; 0xfffff7fb
     5fc:	01053006 	tsteq	r5, r6
     600:	00050240 	andeq	r0, r5, r0, asr #4
     604:	13050101 	movwne	r0, #20737	; 0x5101
     608:	00020500 	andeq	r0, r2, r0, lsl #10
     60c:	03000000 	movweq	r0, #0
     610:	050100fc 	streq	r0, [r1, #-252]	; 0xffffff04
     614:	08053016 	stmdaeq	r5, {r1, r2, r4, ip, sp}
     618:	3006052e 	andcc	r0, r6, lr, lsr #10
     61c:	02400105 	subeq	r0, r0, #1073741825	; 0x40000001
     620:	01010005 	tsteq	r1, r5
     624:	05001205 	streq	r1, [r0, #-517]	; 0xfffffdfb
     628:	00000002 	andeq	r0, r0, r2
     62c:	019d0300 	orrseq	r0, sp, r0, lsl #6
     630:	30160501 	andscc	r0, r6, r1, lsl #10
     634:	052e0805 	streq	r0, [lr, #-2053]!	; 0xfffff7fb
     638:	01053006 	tsteq	r5, r6
     63c:	00050240 	andeq	r0, r5, r0, asr #4
     640:	12050101 	andne	r0, r5, #1073741824	; 0x40000000
     644:	00020500 	andeq	r0, r2, r0, lsl #10
     648:	03000000 	movweq	r0, #0
     64c:	050101bc 	streq	r0, [r1, #-444]	; 0xfffffe44
     650:	08053016 	stmdaeq	r5, {r1, r2, r4, ip, sp}
     654:	3006052e 	andcc	r0, r6, lr, lsr #10
     658:	02400105 	subeq	r0, r0, #1073741825	; 0x40000001
     65c:	01010005 	tsteq	r1, r5
     660:	05001205 	streq	r1, [r0, #-517]	; 0xfffffdfb
     664:	00000002 	andeq	r0, r0, r2
     668:	01db0300 	bicseq	r0, fp, r0, lsl #6
     66c:	30160501 	andscc	r0, r6, r1, lsl #10
     670:	052e0805 	streq	r0, [lr, #-2053]!	; 0xfffff7fb
     674:	01053006 	tsteq	r5, r6
     678:	00050240 	andeq	r0, r5, r0, asr #4
     67c:	12050101 	andne	r0, r5, #1073741824	; 0x40000000
     680:	00020500 	andeq	r0, r2, r0, lsl #10
     684:	03000000 	movweq	r0, #0
     688:	050101fc 	streq	r0, [r1, #-508]	; 0xfffffe04
     68c:	08053016 	stmdaeq	r5, {r1, r2, r4, ip, sp}
     690:	3006052e 	andcc	r0, r6, lr, lsr #10
     694:	02410105 	subeq	r0, r1, #1073741825	; 0x40000001
     698:	01010005 	tsteq	r1, r5
     69c:	05005e05 	streq	r5, [r0, #-3589]	; 0xfffff1fb
     6a0:	000c9002 	andeq	r9, ip, r2
     6a4:	049f0300 	ldreq	r0, [pc], #768	; 6ac <GPTM_Config_32BitTimer4A>
     6a8:	5a4d0501 	bpl	1341ab4 <_E_text+0x13405c8>
     6ac:	05665205 	strbeq	r5, [r6, #-517]!	; 0xfffffdfb
     6b0:	0b054a4d 	bleq	152fec <_E_text+0x151b00>
     6b4:	002c05ae 	eoreq	r0, ip, lr, lsr #11
     6b8:	20010402 	andcs	r0, r1, r2, lsl #8
     6bc:	02003205 	andeq	r3, r0, #1342177280	; 0x50000000
     6c0:	05200104 	streq	r0, [r0, #-260]!	; 0xfffffefc
     6c4:	0402006d 	streq	r0, [r2], #-109	; 0xffffff93
     6c8:	0b055801 	bleq	1566d4 <_E_text+0x1551e8>
     6cc:	01040200 	mrseq	r0, R12_usr
     6d0:	30020558 	andcc	r0, r2, r8, asr r5
     6d4:	01000802 	tsteq	r0, r2, lsl #16
     6d8:	018a0501 	orreq	r0, sl, r1, lsl #10
     6dc:	f0020500 			; <UNDEFINED> instruction: 0xf0020500
     6e0:	0300000c 	movweq	r0, #12
     6e4:	050104c1 	streq	r0, [r1, #-1217]	; 0xfffffb3f
     6e8:	01059705 	tsteq	r5, r5, lsl #14
     6ec:	05580d03 	ldrbeq	r0, [r8, #-3331]	; 0xfffff2fd
     6f0:	2076031f 	rsbscs	r0, r6, pc, lsl r3
     6f4:	054a4105 	strbeq	r4, [sl, #-261]	; 0xfffffefb
     6f8:	41053c47 	tstmi	r5, r7, asr #24
     6fc:	581f054a 	ldmdapl	pc, {r1, r3, r6, r8, sl}	; <UNPREDICTABLE>
     700:	054a4105 	strbeq	r4, [sl, #-261]	; 0xfffffefb
     704:	1f055905 	svcne	0x00055905
     708:	4a410523 	bmi	1041b9c <_E_text+0x10406b0>
     70c:	053c4505 	ldreq	r4, [ip, #-1285]!	; 0xfffffafb
     710:	1f054a41 	svcne	0x00054a41
     714:	4a41053c 	bmi	1041c0c <_E_text+0x1040720>
     718:	05590505 	ldrbeq	r0, [r9, #-1285]	; 0xfffffafb
     71c:	07022501 	streq	r2, [r2, -r1, lsl #10]
     720:	05010100 	streq	r0, [r1, #-256]	; 0xffffff00
     724:	0500018b 	streq	r0, [r0, #-395]	; 0xfffffe75
     728:	000d8002 	andeq	r8, sp, r2
     72c:	04d70300 	ldrbeq	r0, [r7], #768	; 0x300
     730:	95090501 	strls	r0, [r9, #-1281]	; 0xfffffaff
     734:	0e030105 	adfeqs	f0, f3, f5
     738:	03230558 			; <UNDEFINED> instruction: 0x03230558
     73c:	40052075 	andmi	r2, r5, r5, ror r0
     740:	3c46054a 	cfstr64cc	mvdx0, [r6], {74}	; 0x4a
     744:	054a4005 	strbeq	r4, [sl, #-5]
     748:	40055823 	andmi	r5, r5, r3, lsr #16
     74c:	590c054a 	stmdbpl	ip, {r1, r3, r6, r8, sl}
     750:	05232205 	streq	r2, [r3, #-517]!	; 0xfffffdfb
     754:	44054a3f 	strmi	r4, [r5], #-2623	; 0xfffff5c1
     758:	4a3f053c 	bmi	fc1c50 <_E_text+0xfc0764>
     75c:	053c2205 	ldreq	r2, [ip, #-517]!	; 0xfffffdfb
     760:	0c054a3f 			; <UNDEFINED> instruction: 0x0c054a3f
     764:	26010559 			; <UNDEFINED> instruction: 0x26010559
     768:	01000702 	tsteq	r0, r2, lsl #14
     76c:	00710501 	rsbseq	r0, r1, r1, lsl #10
     770:	00000205 	andeq	r0, r0, r5, lsl #4
     774:	ed030000 	stc	0, cr0, [r3, #-0]
     778:	1e050104 	adfnes	f0, f5, f4
     77c:	4a3b0587 	bmi	ec1da0 <_E_text+0xec08b4>
     780:	053c4005 	ldreq	r4, [ip, #-5]!
     784:	1e054a3b 			; <UNDEFINED> instruction: 0x1e054a3b
     788:	4a3b053c 	bmi	ec1c80 <_E_text+0xec0794>
     78c:	025c0105 	subseq	r0, ip, #1073741825	; 0x40000001
     790:	01010007 	tsteq	r1, r7
     794:	0001a005 	andeq	sl, r1, r5
     798:	00000205 	andeq	r0, r0, r5, lsl #4
     79c:	f8030000 			; <UNDEFINED> instruction: 0xf8030000
     7a0:	05050104 	streq	r0, [r5, #-260]	; 0xfffffefc
     7a4:	03010592 	movweq	r0, #5522	; 0x1592
     7a8:	3105580b 	tstcc	r5, fp, lsl #16
     7ac:	05207803 	streq	r7, [r0, #-2051]!	; 0xfffff7fd
     7b0:	67054a61 	strvs	r4, [r5, -r1, ror #20]
     7b4:	4a61053c 	bmi	1841cac <_E_text+0x18407c0>
     7b8:	05583105 	ldrbeq	r3, [r8, #-261]	; 0xfffffefb
     7bc:	09054a61 	stmdbeq	r5, {r0, r5, r6, r9, fp, lr}
     7c0:	23300559 	teqcs	r0, #373293056	; 0x16400000
     7c4:	054a6005 	strbeq	r6, [sl, #-5]
     7c8:	60053c65 	andvs	r3, r5, r5, ror #24
     7cc:	3c30054a 	cfldr32cc	mvfx0, [r0], #-296	; 0xfffffed8
     7d0:	054a6005 	strbeq	r6, [sl, #-5]
     7d4:	01055909 	tsteq	r5, r9, lsl #18
     7d8:	00070223 	andeq	r0, r7, r3, lsr #4
     7dc:	98050101 	stmdals	r5, {r0, r8}
     7e0:	02050001 	andeq	r0, r5, #1
     7e4:	00000000 	andeq	r0, r0, r0
     7e8:	01058803 	tsteq	r5, r3, lsl #16
     7ec:	05920505 	ldreq	r0, [r2, #1285]	; 0x505
     7f0:	051c5209 	ldreq	r5, [ip, #-521]	; 0xfffffdf7
     7f4:	05022701 	streq	r2, [r2, #-1793]	; 0xfffff8ff
     7f8:	05010100 	streq	r0, [r1, #-256]	; 0xffffff00
     7fc:	050001a4 	streq	r0, [r0, #-420]	; 0xfffffe5c
     800:	00000002 	andeq	r0, r0, r2
     804:	05970300 	ldreq	r0, [r7, #768]	; 0x300
     808:	93200501 			; <UNDEFINED> instruction: 0x93200501
     80c:	054a3205 	strbeq	r3, [sl, #-517]	; 0xfffffdfb
     810:	4305205a 	movwmi	r2, #20570	; 0x505a
     814:	3c35052e 	cfldr32cc	mvfx0, [r5], #-184	; 0xffffff48
     818:	05202005 	streq	r2, [r0, #-5]!
     81c:	20054a32 	andcs	r4, r5, r2, lsr sl
     820:	052e0d03 	streq	r0, [lr, #-3331]!	; 0xfffff2fd
     824:	37054a32 	smladxcc	r5, r2, sl, r4
     828:	20660520 	rsbcs	r0, r6, r0, lsr #10
     82c:	052e5005 	streq	r5, [lr, #-5]!
     830:	32052020 	andcc	r2, r5, #32
     834:	3401054a 	strcc	r0, [r1], #-1354	; 0xfffffab6
     838:	01000702 	tsteq	r0, r2, lsl #14
     83c:	01990501 	orrseq	r0, r9, r1, lsl #10
     840:	10020500 	andne	r0, r2, r0, lsl #10
     844:	0300000e 	movweq	r0, #14
     848:	050105af 	streq	r0, [r1, #-1455]	; 0xfffffa51
     84c:	01059305 	tsteq	r5, r5, lsl #6
     850:	05580c03 	ldrbeq	r0, [r8, #-3075]	; 0xfffff3fd
     854:	20770327 	rsbscs	r0, r7, r7, lsr #6
     858:	054a4d05 	strbeq	r4, [sl, #-3333]	; 0xfffff2fb
     85c:	4d053c53 	stcmi	12, cr3, [r5, #-332]	; 0xfffffeb4
     860:	5827054a 	stmdapl	r7!, {r1, r3, r6, r8, sl}
     864:	054a4d05 	strbeq	r4, [sl, #-3333]	; 0xfffff2fb
     868:	27055909 	strcs	r5, [r5, -r9, lsl #18]
     86c:	4a4d0523 	bmi	1341d00 <_E_text+0x1340814>
     870:	053c5105 	ldreq	r5, [ip, #-261]!	; 0xfffffefb
     874:	27054a4d 	strcs	r4, [r5, -sp, asr #20]
     878:	4a4d053c 	bmi	1341d70 <_E_text+0x1340884>
     87c:	05590905 	ldrbeq	r0, [r9, #-2309]	; 0xfffff6fb
     880:	07022401 	streq	r2, [r2, -r1, lsl #8]
     884:	05010100 	streq	r0, [r1, #-256]	; 0xffffff00
     888:	0500018c 	streq	r0, [r0, #-396]	; 0xfffffe74
     88c:	000ea002 	andeq	sl, lr, r2
     890:	05c00300 	strbeq	r0, [r0, #768]	; 0x300
     894:	92050501 	andls	r0, r5, #4194304	; 0x400000
     898:	0c030105 	stfeqs	f0, [r3], {5}
     89c:	031d0558 	tsteq	sp, #88, 10	; 0x16000000
     8a0:	2f052077 	svccs	0x00052077
     8a4:	2f09054a 	svccs	0x0009054a
     8a8:	05231d05 	streq	r1, [r3, #-3333]!	; 0xfffff2fb
     8ac:	1b054a2f 	blne	153170 <_E_text+0x151c84>
     8b0:	4a3a052f 	bmi	e81d74 <_E_text+0xe80888>
     8b4:	053c3e05 	ldreq	r3, [ip, #-3589]!	; 0xfffff1fb
     8b8:	1b054a3a 	blne	1531a8 <_E_text+0x151cbc>
     8bc:	4a3a053c 	bmi	e81db4 <_E_text+0xe808c8>
     8c0:	05590905 	ldrbeq	r0, [r9, #-2309]	; 0xfffff6fb
     8c4:	0c022301 	stceq	3, cr2, [r2], {1}
     8c8:	05010100 	streq	r0, [r1, #-256]	; 0xffffff00
     8cc:	02050075 	andeq	r0, r5, #117	; 0x75
     8d0:	00000000 	andeq	r0, r0, r0
     8d4:	0105d103 	tsteq	r5, r3, lsl #2
     8d8:	05842405 	streq	r2, [r4, #1029]	; 0x405
     8dc:	50054a4b 	andpl	r4, r5, fp, asr #20
     8e0:	4a4b053c 	bmi	12c1dd8 <_E_text+0x12c08ec>
     8e4:	053c2405 	ldreq	r2, [ip, #-1029]!	; 0xfffffbfb
     8e8:	01054a4b 	tsteq	r5, fp, asr #20
     8ec:	0007025a 	andeq	r0, r7, sl, asr r2
     8f0:	a5050101 	strge	r0, [r5, #-257]	; 0xfffffeff
     8f4:	02050001 	andeq	r0, r5, #1
     8f8:	00000000 	andeq	r0, r0, r0
     8fc:	0105d703 	tsteq	r5, r3, lsl #14
     900:	05920505 	ldreq	r0, [r2, #1285]	; 0x505
     904:	580c0301 	stmdapl	ip, {r0, r8, r9}
     908:	77032705 	strvc	r2, [r3, -r5, lsl #14]
     90c:	4a530520 	bmi	14c1d94 <_E_text+0x14c08a8>
     910:	053c5805 	ldreq	r5, [ip, #-2053]!	; 0xfffff7fb
     914:	27054a53 	smlsdcs	r5, r3, sl, r4
     918:	4a53053c 	bmi	14c1e10 <_E_text+0x14c0924>
     91c:	05590505 	ldrbeq	r0, [r9, #-1285]	; 0xfffffafb
     920:	53052327 	movwpl	r2, #21287	; 0x5327
     924:	3c59054a 	cfldr64cc	mvdx0, [r9], {74}	; 0x4a
     928:	054a5305 	strbeq	r5, [sl, #-773]	; 0xfffffcfb
     92c:	53055827 	movwpl	r5, #22567	; 0x5827
     930:	5905054a 	stmdbpl	r5, {r1, r3, r6, r8, sl}
     934:	02240105 	eoreq	r0, r4, #1073741825	; 0x40000001
     938:	01010007 	tsteq	r1, r7
     93c:	05004305 	streq	r4, [r0, #-773]	; 0xfffffcfb
     940:	000f2002 	andeq	r2, pc, r2
     944:	05eb0300 	strbeq	r0, [fp, #768]!	; 0x300
     948:	4c050501 	cfstr32mi	mvfx0, [r5], {1}
     94c:	8484845a 	strhi	r8, [r4], #1114	; 0x45a
     950:	02840205 	addeq	r0, r4, #1342177280	; 0x50000000
     954:	01010004 	tsteq	r1, r4
     958:	00018d05 	andeq	r8, r1, r5, lsl #26
     95c:	0f7c0205 	svceq	0x007c0205
     960:	f9030000 			; <UNDEFINED> instruction: 0xf9030000
     964:	05050105 	streq	r0, [r5, #-261]	; 0xfffffefb
     968:	03010595 	movweq	r0, #5525	; 0x1595
     96c:	1f05580d 	svcne	0x0005580d
     970:	05207603 	streq	r7, [r0, #-1539]!	; 0xfffff9fd
     974:	47054a41 	strmi	r4, [r5, -r1, asr #20]
     978:	4a41053c 	bmi	1041e70 <_E_text+0x1040984>
     97c:	05581f05 	ldrbeq	r1, [r8, #-3845]	; 0xfffff0fb
     980:	05054a41 	streq	r4, [r5, #-2625]	; 0xfffff5bf
     984:	231f0559 	tstcs	pc, #373293056	; 0x16400000
     988:	054a4105 	strbeq	r4, [sl, #-261]	; 0xfffffefb
     98c:	41053c45 	tstmi	r5, r5, asr #24
     990:	3c1f054a 	cfldr32cc	mvfx0, [pc], {74}	; 0x4a
     994:	054a4105 	strbeq	r4, [sl, #-261]	; 0xfffffefb
     998:	01055905 	tsteq	r5, r5, lsl #18
     99c:	00070225 	andeq	r0, r7, r5, lsr #4
     9a0:	71050101 	tstvc	r5, r1, lsl #2
     9a4:	0c020500 	cfstr32eq	mvfx0, [r2], {-0}
     9a8:	03000010 	movweq	r0, #16
     9ac:	0501068d 	streq	r0, [r1, #-1677]	; 0xfffff973
     9b0:	3f05841a 	svccc	0x0005841a
     9b4:	3c43054a 	cfstr64cc	mvdx0, [r3], {74}	; 0x4a
     9b8:	054a3f05 	strbeq	r3, [sl, #-3845]	; 0xfffff0fb
     9bc:	3f053c1a 	svccc	0x00053c1a
     9c0:	5901054a 	stmdbpl	r1, {r1, r3, r6, r8, sl}
     9c4:	01000702 	tsteq	r0, r2, lsl #14
     9c8:	00420501 	subeq	r0, r2, r1, lsl #10
     9cc:	10580205 	subsne	r0, r8, r5, lsl #4
     9d0:	93030000 	movwls	r0, #12288	; 0x3000
     9d4:	05050106 	streq	r0, [r5, #-262]	; 0xfffffefa
     9d8:	5a23054c 	bpl	8c1f10 <_E_text+0x8c0a24>
     9dc:	052e0705 	streq	r0, [lr, #-1797]!	; 0xfffff8fb
     9e0:	0402004b 	streq	r0, [r2], #-75	; 0xffffffb5
     9e4:	37052e01 	strcc	r2, [r5, -r1, lsl #28]
     9e8:	01040200 	mrseq	r0, R12_usr
     9ec:	3005052e 	andcc	r0, r5, lr, lsr #10
     9f0:	0405845b 	streq	r8, [r5], #-1115	; 0xfffffba5
     9f4:	85010584 	strhi	r0, [r1, #-1412]	; 0xfffffa7c
     9f8:	01000402 	tsteq	r0, r2, lsl #8
     9fc:	006b0501 	rsbeq	r0, fp, r1, lsl #10
     a00:	00000205 	andeq	r0, r0, r5, lsl #4
     a04:	a6030000 	strge	r0, [r3], -r0
     a08:	36050106 	strcc	r0, [r5], -r6, lsl #2
     a0c:	4a600584 	bmi	1802024 <_E_text+0x1800b38>
     a10:	05746505 	ldrbeq	r6, [r4, #-1285]!	; 0xfffffafb
     a14:	01055860 	tsteq	r5, r0, ror #16
     a18:	000802a0 	andeq	r0, r8, r0, lsr #5
     a1c:	6a050101 	bvs	140e28 <_E_text+0x13f93c>
     a20:	00020500 	andeq	r0, r2, r0, lsl #10
     a24:	03000000 	movweq	r0, #0
     a28:	050106ad 	streq	r0, [r1, #-1709]	; 0xfffff953
     a2c:	59058440 	stmdbpl	r5, {r6, sl, pc}
     a30:	2e55054a 	cdpcs	5, 5, cr0, cr5, cr10, {2}
     a34:	053c5105 	ldreq	r5, [ip, #-261]!	; 0xfffffefb
     a38:	0105200c 	tsteq	r5, ip
     a3c:	00070222 	andeq	r0, r7, r2, lsr #4
     a40:	8b050101 	blhi	140e4c <_E_text+0x13f960>
     a44:	02050001 	andeq	r0, r5, #1
     a48:	000010bc 	strheq	r1, [r0], -ip
     a4c:	0106b303 	tsteq	r6, r3, lsl #6
     a50:	05920505 	ldreq	r0, [r2, #1285]	; 0x505
     a54:	3b055a69 	blcc	157400 <_E_text+0x155f14>
     a58:	4a54054a 	bmi	1501f88 <_E_text+0x1500a9c>
     a5c:	052e5005 	streq	r5, [lr, #-5]!
     a60:	69053c4c 	stmdbvs	r5, {r2, r3, r6, sl, fp, ip, sp}
     a64:	20650520 	rsbcs	r0, r5, r0, lsr #10
     a68:	05210705 	streq	r0, [r1, #-1797]!	; 0xfffff8fb
     a6c:	6705233d 	smladxvs	r5, sp, r3, r2
     a70:	746d054a 	strbtvc	r0, [sp], #-1354	; 0xfffffab6
     a74:	054a6a05 	strbeq	r6, [sl, #-2565]	; 0xfffff5fb
     a78:	09052e67 	stmdbeq	r5, {r0, r1, r2, r5, r6, r9, sl, fp, sp}
     a7c:	2401059f 	strcs	r0, [r1], #-1439	; 0xfffffa61
     a80:	01000702 	tsteq	r0, r2, lsl #14
     a84:	004e0501 	subeq	r0, lr, r1, lsl #10
     a88:	00000205 	andeq	r0, r0, r5, lsl #4
     a8c:	c5030000 	strgt	r0, [r3, #-0]
     a90:	05050106 	streq	r0, [r5, #-262]	; 0xfffffefa
     a94:	83835e4c 	orrhi	r5, r3, #76, 28	; 0x4c0
     a98:	84010585 	strhi	r0, [r1], #-1413	; 0xfffffa7b
     a9c:	01000402 	tsteq	r0, r2, lsl #8
     aa0:	004b0501 	subeq	r0, fp, r1, lsl #10
     aa4:	00000205 	andeq	r0, r0, r5, lsl #4
     aa8:	ed030000 	stc	0, cr0, [r3, #-0]
     aac:	05050106 	streq	r0, [r5, #-262]	; 0xfffffefa
     ab0:	84835a4c 	strhi	r5, [r3], #2636	; 0xa4c
     ab4:	05838483 	streq	r8, [r3, #1155]	; 0x483
     ab8:	04028501 	streq	r8, [r2], #-1281	; 0xfffffaff
     abc:	05010100 	streq	r0, [r1, #-256]	; 0xffffff00
     ac0:	02050061 	andeq	r0, r5, #97	; 0x61
     ac4:	00000000 	andeq	r0, r0, r0
     ac8:	0106fd03 	tsteq	r6, r3, lsl #26	; <UNPREDICTABLE>
     acc:	05681205 	strbeq	r1, [r8, #-517]!	; 0xfffffdfb
     ad0:	01052023 	tsteq	r5, r3, lsr #32
     ad4:	0007024f 	andeq	r0, r7, pc, asr #4
     ad8:	00450101 	subeq	r0, r5, r1, lsl #2
     adc:	00030000 	andeq	r0, r3, r0
     ae0:	0000003f 	andeq	r0, r0, pc, lsr r0
     ae4:	0efb0102 	cdpeq	1, 15, cr0, cr11, cr2, {0}
     ae8:	0101000d 	tsteq	r1, sp
     aec:	00000101 	andeq	r0, r0, r1, lsl #2
     af0:	00000100 	andeq	r0, r0, r0, lsl #2
     af4:	736c0001 	cmnvc	ip, #1
     af8:	682e6474 	stmdavs	lr!, {r2, r4, r5, r6, sl, sp, lr}
     afc:	00000000 	andeq	r0, r0, r0
     b00:	4f495047 	svcmi	0x00495047
     b04:	6e6f635f 	mcrvs	3, 3, r6, cr15, cr15, {2}
     b08:	2e676966 	vnmulcs.f16	s13, s14, s13	; <UNPREDICTABLE>
     b0c:	00000068 	andeq	r0, r0, r8, rrx
     b10:	49504700 	ldmdbmi	r0, {r8, r9, sl, lr}^
     b14:	6f635f4f 	svcvs	0x00635f4f
     b18:	6769666e 	strbvs	r6, [r9, -lr, ror #12]!
     b1c:	0000632e 	andeq	r6, r0, lr, lsr #6
     b20:	99000000 	stmdbls	r0, {}	; <UNPREDICTABLE>
     b24:	03000002 	movweq	r0, #2
     b28:	00005700 	andeq	r5, r0, r0, lsl #14
     b2c:	fb010200 	blx	41336 <_E_text+0x3fe4a>
     b30:	01000d0e 	tsteq	r0, lr, lsl #26
     b34:	00010101 	andeq	r0, r1, r1, lsl #2
     b38:	00010000 	andeq	r0, r1, r0
     b3c:	47000100 	strmi	r0, [r0, -r0, lsl #2]
     b40:	2e4d5450 	mcrcs	4, 2, r5, cr13, cr0, {2}
     b44:	00000063 	andeq	r0, r0, r3, rrx
     b48:	74736c00 	ldrbtvc	r6, [r3], #-3072	; 0xfffff400
     b4c:	00682e64 	rsbeq	r2, r8, r4, ror #28
     b50:	47000000 	strmi	r0, [r0, -r0]
     b54:	5f4d5450 	svcpl	0x004d5450
     b58:	2e676572 	mcrcs	5, 3, r6, cr7, cr2, {3}
     b5c:	00000068 	andeq	r0, r0, r8, rrx
     b60:	49504700 	ldmdbmi	r0, {r8, r9, sl, lr}^
     b64:	6f635f4f 	svcvs	0x00635f4f
     b68:	6769666e 	strbvs	r6, [r9, -lr, ror #12]!
     b6c:	0000682e 	andeq	r6, r0, lr, lsr #16
     b70:	50470000 	subpl	r0, r7, r0
     b74:	635f4d54 	cmpvs	pc, #84, 26	; 0x1500
     b78:	69666e6f 	stmdbvs	r6!, {r0, r1, r2, r3, r5, r6, r9, sl, fp, sp, lr}^
     b7c:	00682e67 	rsbeq	r2, r8, r7, ror #28
     b80:	00000000 	andeq	r0, r0, r0
     b84:	00018205 	andeq	r8, r1, r5, lsl #4
     b88:	00000205 	andeq	r0, r0, r5, lsl #4
     b8c:	f2030000 	vhadd.s8	d0, d3, d0
     b90:	07050101 	streq	r0, [r5, -r1, lsl #2]
     b94:	3d160584 	cfldr32cc	mvfx0, [r6, #-528]	; 0xfffffdf0
     b98:	052e1a05 	streq	r1, [lr, #-2565]!	; 0xfffff5fb
     b9c:	0a055816 	beq	156bfc <_E_text+0x155710>
     ba0:	000d053d 	andeq	r0, sp, sp, lsr r5
     ba4:	20010402 	andcs	r0, r1, r2, lsl #8
     ba8:	02002205 	andeq	r2, r0, #1342177280	; 0x50000000
     bac:	052e0104 	streq	r0, [lr, #-260]!	; 0xfffffefc
     bb0:	0402001e 	streq	r0, [r2], #-30	; 0xffffffe2
     bb4:	0a054a01 	beq	1533c0 <_E_text+0x151ed4>
     bb8:	01040200 	mrseq	r0, R12_usr
     bbc:	35010520 	strcc	r0, [r1, #-1312]	; 0xfffffae0
     bc0:	051c0c05 	ldreq	r0, [ip, #-3077]	; 0xfffff3fb
     bc4:	1f053d1b 	svcne	0x00053d1b
     bc8:	581b052e 	ldmdapl	fp, {r1, r2, r3, r5, r8, sl}
     bcc:	053d0e05 	ldreq	r0, [sp, #-3589]!	; 0xfffff1fb
     bd0:	04020011 	streq	r0, [r2], #-17	; 0xffffffef
     bd4:	27052001 	strcs	r2, [r5, -r1]
     bd8:	01040200 	mrseq	r0, R12_usr
     bdc:	0023052e 	eoreq	r0, r3, lr, lsr #10
     be0:	4a010402 	bmi	41bf0 <_E_text+0x40704>
     be4:	02000e05 	andeq	r0, r0, #5, 28	; 0x50
     be8:	05200104 	streq	r0, [r0, #-260]!	; 0xfffffefc
     bec:	09023001 	stmdbeq	r2, {r0, ip, sp}
     bf0:	05010100 	streq	r0, [r1, #-256]	; 0xffffff00
     bf4:	050001ae 	streq	r0, [r0, #-430]	; 0xfffffe52
     bf8:	00000002 	andeq	r0, r0, r2
     bfc:	01ff0300 	mvnseq	r0, r0, lsl #6
     c00:	92250501 	eorls	r0, r5, #4194304	; 0x400000
     c04:	059e4805 	ldreq	r4, [lr, #2053]	; 0x805
     c08:	2505204c 	strcs	r2, [r5, #-76]	; 0xffffffb4
     c0c:	9e480558 	mcrls	5, 2, r0, cr8, cr8, {2}
     c10:	023d0205 	eorseq	r0, sp, #1342177280	; 0x50000000
     c14:	01010008 	tsteq	r1, r8
     c18:	0001af05 	andeq	sl, r1, r5, lsl #30
     c1c:	00000205 	andeq	r0, r0, r5, lsl #4
     c20:	84030000 	strhi	r0, [r3], #-0
     c24:	25050102 	strcs	r0, [r5, #-258]	; 0xfffffefe
     c28:	9e480592 	mcrls	5, 2, r0, cr8, cr2, {4}
     c2c:	05204e05 	streq	r4, [r0, #-3589]!	; 0xfffff1fb
     c30:	25054a4b 	strcs	r4, [r5, #-2635]	; 0xfffff5b5
     c34:	9e48052e 	cdpls	5, 4, cr0, cr8, cr14, {1}
     c38:	023e0105 	eorseq	r0, lr, #1073741825	; 0x40000001
     c3c:	01010007 	tsteq	r1, r7
     c40:	05007905 	streq	r7, [r0, #-2309]	; 0xfffff6fb
     c44:	00000002 	andeq	r0, r0, r2
     c48:	02910300 	addseq	r0, r1, #0, 6
     c4c:	5a050501 	bpl	142058 <_E_text+0x140b6c>
     c50:	37054084 	strcc	r4, [r5, -r4, lsl #1]
     c54:	3c600593 	cfstr64cc	mvdx0, [r0], #-588	; 0xfffffdb4
     c58:	053c4b05 	ldreq	r4, [ip, #-2821]!	; 0xfffff4fb
     c5c:	05820187 	streq	r0, [r2, #391]	; 0x187
     c60:	57055b2a 	strpl	r5, [r5, -sl, lsr #22]
     c64:	3c42053c 	cfstr64cc	mvdx0, [r2], {60}	; 0x3c
     c68:	82018805 	andhi	r8, r1, #327680	; 0x50000
     c6c:	054b2a05 	strbeq	r2, [fp, #-2565]	; 0xfffff5fb
     c70:	42053c57 	andmi	r3, r5, #22272	; 0x5700
     c74:	827a053c 	rsbshi	r0, sl, #60, 10	; 0xf000000
     c78:	05592a05 	ldrbeq	r2, [r9, #-2565]	; 0xfffff5fb
     c7c:	42053c57 	andmi	r3, r5, #22272	; 0x5700
     c80:	0181053c 	orreq	r0, r1, ip, lsr r5
     c84:	4d280582 	cfstr32mi	mvfx0, [r8, #-520]!	; 0xfffffdf8
     c88:	053c5105 	ldreq	r5, [ip, #-261]!	; 0xfffffefb
     c8c:	7f053c3c 	svcvc	0x00053c3c
     c90:	4b280582 	blmi	a022a0 <_E_text+0xa00db4>
     c94:	053c5105 	ldreq	r5, [ip, #-261]!	; 0xfffffefb
     c98:	7f053c3c 	svcvc	0x00053c3c
     c9c:	4c010582 	cfstr32mi	mvfx0, [r1], {130}	; 0x82
     ca0:	01000b02 	tsteq	r0, r2, lsl #22
     ca4:	006c0501 	rsbeq	r0, ip, r1, lsl #10
     ca8:	00000205 	andeq	r0, r0, r5, lsl #4
     cac:	a9030000 	stmdbge	r3, {}	; <UNPREDICTABLE>
     cb0:	02050102 	andeq	r0, r5, #-2147483648	; 0x80000000
     cb4:	030f0576 	movweq	r0, #62838	; 0xf576
     cb8:	0e059011 	mcreq	0, 0, r9, cr5, cr1, {0}
     cbc:	2f110567 	svccs	0x00110567
     cc0:	052f2405 	streq	r2, [pc, #-1029]!	; 8c3 <DMA_PeripheralInitialization+0xf>
     cc4:	46052e04 	strmi	r2, [r5], -r4, lsl #28
     cc8:	3c310531 	cfldr32cc	mvfx0, [r1], #-196	; 0xffffff3c
     ccc:	053c5905 	ldreq	r5, [ip, #-2309]!	; 0xfffff6fb
     cd0:	2b052f40 	blcs	14c9d8 <_E_text+0x14b4ec>
     cd4:	3c53053c 	cfldr64cc	mvdx0, [r3], {60}	; 0x3c
     cd8:	053f2905 	ldreq	r2, [pc, #-2309]!	; 3db <GPIO_PortControl_Registers+0x17>
     cdc:	39052e0a 	stmdbcc	r5, {r1, r3, r9, sl, fp, sp}
     ce0:	3c24052f 	cfstr32cc	mvfx0, [r4], #-188	; 0xffffff44
     ce4:	053c4b05 	ldreq	r4, [ip, #-2821]!	; 0xfffff4fb
     ce8:	1d052f32 	stcne	15, cr2, [r5, #-200]	; 0xffffff38
     cec:	3c44053c 	cfstr64cc	mvdx0, [r4], {60}	; 0x3c
     cf0:	05310205 	ldreq	r0, [r1, #-517]!	; 0xfffffdfb
     cf4:	0c029101 	stfeqd	f1, [r2], {1}
     cf8:	05010100 	streq	r0, [r1, #-256]	; 0xffffff00
     cfc:	05000189 	streq	r0, [r0, #-393]	; 0xfffffe77
     d00:	00000002 	andeq	r0, r0, r2
     d04:	02cf0300 	sbceq	r0, pc, #0, 6
     d08:	5a050501 	bpl	142114 <_E_text+0x140c28>
     d0c:	2b053e84 	blcs	150724 <_E_text+0x14f238>
     d10:	3c590592 	cfldr64cc	mvdx0, [r9], {146}	; 0x92
     d14:	053c4305 	ldreq	r4, [ip, #-773]!	; 0xfffffcfb
     d18:	2b05827c 	blcs	161710 <_E_text+0x160224>
     d1c:	3c59055b 	cfldr64cc	mvdx0, [r9], {91}	; 0x5b
     d20:	053c4305 	ldreq	r4, [ip, #-773]!	; 0xfffffcfb
     d24:	05820185 	streq	r0, [r2, #389]	; 0x185
     d28:	62054c38 	andvs	r4, r5, #56, 24	; 0x3800
     d2c:	3c4c053c 	cfstr64cc	mvdx0, [ip], {60}	; 0x3c
     d30:	82018905 	andhi	r8, r1, #81920	; 0x14000
     d34:	025a0505 	subseq	r0, sl, #20971520	; 0x1400000
     d38:	01010009 	tsteq	r1, r9
     d3c:	05007c05 	streq	r7, [r0, #-3077]	; 0xfffff3fb
     d40:	00000002 	andeq	r0, r0, r2
     d44:	02e00300 	rsceq	r0, r0, #0, 6
     d48:	6e100501 	cfmul32vs	mvfx0, mvfx0, mvfx1
     d4c:	2f490567 	svccs	0x00490567
     d50:	053c3305 	ldreq	r3, [ip, #-773]!	; 0xfffffcfb
     d54:	42053c5c 	andmi	r3, r5, #92, 24	; 0x5c00
     d58:	3c2c052f 	cfstr32cc	mvfx0, [ip], #-188	; 0xffffff44
     d5c:	053c5505 	ldreq	r5, [ip, #-1285]!	; 0xfffffafb
     d60:	1d053007 	stcne	0, cr3, [r5, #-28]	; 0xffffffe4
     d64:	2e050595 	mcrcs	5, 0, r0, cr5, cr5, {4}
     d68:	05220b05 	streq	r0, [r2, #-2821]!	; 0xfffff4fb
     d6c:	04020033 	streq	r0, [r2], #-51	; 0xffffffcd
     d70:	61052001 	tstvs	r5, r1
     d74:	01040200 	mrseq	r0, R12_usr
     d78:	004b053c 	subeq	r0, fp, ip, lsr r5
     d7c:	3c010402 	cfstrscc	mvf0, [r1], {2}
     d80:	02007905 	andeq	r7, r0, #81920	; 0x14000
     d84:	05820104 	streq	r0, [r2, #260]	; 0x104
     d88:	0402000b 	streq	r0, [r2], #-11
     d8c:	2d054a01 	vstrcs	s8, [r5, #-4]
     d90:	02040200 	andeq	r0, r4, #0, 4
     d94:	005b052f 	subseq	r0, fp, pc, lsr #10
     d98:	3c020402 	cfstrscc	mvf0, [r2], {2}
     d9c:	02004505 	andeq	r4, r0, #20971520	; 0x1400000
     da0:	053c0204 	ldreq	r0, [ip, #-516]!	; 0xfffffdfc
     da4:	0402007c 	streq	r0, [r2], #-124	; 0xffffff84
     da8:	59058202 	stmdbpl	r5, {r1, r9, pc}
     dac:	02040200 	andeq	r0, r4, #0, 4
     db0:	00050547 	andeq	r0, r5, r7, asr #10
     db4:	3c010402 	cfstrscc	mvf0, [r1], {2}
     db8:	02510105 	subseq	r0, r1, #1073741825	; 0x40000001
     dbc:	0101000e 	tsteq	r1, lr
     dc0:	0000003b 	andeq	r0, r0, fp, lsr r0
     dc4:	00350003 	eorseq	r0, r5, r3
     dc8:	01020000 	mrseq	r0, (UNDEF: 2)
     dcc:	000d0efb 	strdeq	r0, [sp], -fp
     dd0:	01010101 	tsteq	r1, r1, lsl #2
     dd4:	01000000 	mrseq	r0, (UNDEF: 0)
     dd8:	00010000 	andeq	r0, r1, r0
     ddc:	4d545047 	ldclmi	0, cr5, [r4, #-284]	; 0xfffffee4
     de0:	6e6f635f 	mcrvs	3, 3, r6, cr15, cr15, {2}
     de4:	2e676966 	vnmulcs.f16	s13, s14, s13	; <UNPREDICTABLE>
     de8:	00000068 	andeq	r0, r0, r8, rrx
     dec:	54504700 	ldrbpl	r4, [r0], #-1792	; 0xfffff900
     df0:	6f635f4d 	svcvs	0x00635f4d
     df4:	6769666e 	strbvs	r6, [r9, -lr, ror #12]!
     df8:	0000632e 	andeq	r6, r0, lr, lsr #6
     dfc:	0d000000 	stceq	0, cr0, [r0, #-0]
     e00:	03000001 	movweq	r0, #1
     e04:	00005a00 	andeq	r5, r0, r0, lsl #20
     e08:	fb010200 	blx	41612 <_E_text+0x40126>
     e0c:	01000d0e 	tsteq	r0, lr, lsl #26
     e10:	00010101 	andeq	r0, r1, r1, lsl #2
     e14:	00010000 	andeq	r0, r1, r0
     e18:	48000100 	stmdami	r0, {r8}
     e1c:	35302d43 	ldrcc	r2, [r0, #-3395]!	; 0xfffff2bd
     e20:	0000632e 	andeq	r6, r0, lr, lsr #6
     e24:	736c0000 	cmnvc	ip, #0
     e28:	682e6474 	stmdavs	lr!, {r2, r4, r5, r6, sl, sp, lr}
     e2c:	00000000 	andeq	r0, r0, r0
     e30:	54524155 	ldrbpl	r4, [r2], #-341	; 0xfffffeab
     e34:	6e6f635f 	mcrvs	3, 3, r6, cr15, cr15, {2}
     e38:	2e676966 	vnmulcs.f16	s13, s14, s13	; <UNPREDICTABLE>
     e3c:	00000068 	andeq	r0, r0, r8, rrx
     e40:	49504700 	ldmdbmi	r0, {r8, r9, sl, lr}^
     e44:	6f635f4f 	svcvs	0x00635f4f
     e48:	6769666e 	strbvs	r6, [r9, -lr, ror #12]!
     e4c:	0000682e 	andeq	r6, r0, lr, lsr #16
     e50:	4d440000 	stclmi	0, cr0, [r4, #-0]
     e54:	6f635f41 	svcvs	0x00635f41
     e58:	6769666e 	strbvs	r6, [r9, -lr, ror #12]!
     e5c:	0000682e 	andeq	r6, r0, lr, lsr #16
     e60:	05000000 	streq	r0, [r0, #-0]
     e64:	0205001f 	andeq	r0, r5, #31
     e68:	00000000 	andeq	r0, r0, r0
     e6c:	2f020519 	svccs	0x00020519
     e70:	02680105 	rsbeq	r0, r8, #1073741825	; 0x40000001
     e74:	01010006 	tsteq	r1, r6
     e78:	05002305 	streq	r2, [r0, #-773]	; 0xfffffcfb
     e7c:	00000002 	andeq	r0, r0, r2
     e80:	010c0300 	mrseq	r0, LR_mon
     e84:	67300205 	ldrvs	r0, [r0, -r5, lsl #4]!
     e88:	02320105 	eorseq	r0, r2, #1073741825	; 0x40000001
     e8c:	01010006 	tsteq	r1, r6
     e90:	05002a05 	streq	r2, [r0, #-2565]	; 0xfffff5fb
     e94:	00000002 	andeq	r0, r0, r2
     e98:	01150300 	tsteq	r5, r0, lsl #6
     e9c:	4e4c0505 	cdpmi	5, 4, cr0, cr12, cr5, {0}
     ea0:	3d01054b 	cfstr32cc	mvfx0, [r1, #-300]	; 0xfffffed4
     ea4:	01000402 	tsteq	r0, r2, lsl #8
     ea8:	002d0501 	eoreq	r0, sp, r1, lsl #10
     eac:	00000205 	andeq	r0, r0, r5, lsl #4
     eb0:	20030000 	andcs	r0, r3, r0
     eb4:	4c050501 	cfstr32mi	mvfx0, [r5], {1}
     eb8:	01054b4e 	tsteq	r5, lr, asr #22
     ebc:	0004023d 	andeq	r0, r4, sp, lsr r2
     ec0:	28050101 	stmdacs	r5, {r0, r8}
     ec4:	00020500 	andeq	r0, r2, r0, lsl #10
     ec8:	03000000 	movweq	r0, #0
     ecc:	0505012a 	streq	r0, [r5, #-298]	; 0xfffffed6
     ed0:	4c01054c 	cfstr32mi	mvfx0, [r1], {76}	; 0x4c
     ed4:	01000402 	tsteq	r0, r2, lsl #8
     ed8:	00250501 	eoreq	r0, r5, r1, lsl #10
     edc:	00000205 	andeq	r0, r0, r5, lsl #4
     ee0:	31030000 	mrscc	r0, (UNDEF: 3)
     ee4:	4b020501 	blmi	822f0 <_E_text+0x80e04>
     ee8:	024c0105 	subeq	r0, ip, #1073741825	; 0x40000001
     eec:	01010004 	tsteq	r1, r4
     ef0:	05002605 	streq	r2, [r0, #-1541]	; 0xfffff9fb
     ef4:	00000002 	andeq	r0, r0, r2
     ef8:	01360300 	teqeq	r6, r0, lsl #6
     efc:	054c0a05 	strbeq	r0, [ip, #-2565]	; 0xfffff5fb
     f00:	0b052209 	bleq	14972c <_E_text+0x148240>
     f04:	2e0a0564 	cfsh32cs	mvfx0, mvfx10, #52
     f08:	02320105 	eorseq	r0, r2, #1073741825	; 0x40000001
     f0c:	01010005 	tsteq	r1, r5
     f10:	000000ed 	andeq	r0, r0, sp, ror #1
     f14:	006b0003 	rsbeq	r0, fp, r3
     f18:	01020000 	mrseq	r0, (UNDEF: 2)
     f1c:	000d0efb 	strdeq	r0, [sp], -fp
     f20:	01010101 	tsteq	r1, r1, lsl #2
     f24:	01000000 	mrseq	r0, (UNDEF: 0)
     f28:	00010000 	andeq	r0, r1, r0
     f2c:	6e69616d 	powvsez	f6, f1, #5.0
     f30:	0000632e 	andeq	r6, r0, lr, lsr #6
     f34:	736c0000 	cmnvc	ip, #0
     f38:	682e6474 	stmdavs	lr!, {r2, r4, r5, r6, sl, sp, lr}
     f3c:	00000000 	andeq	r0, r0, r0
     f40:	6f697067 	svcvs	0x00697067
     f44:	6e6f635f 	mcrvs	3, 3, r6, cr15, cr15, {2}
     f48:	2e676966 	vnmulcs.f16	s13, s14, s13	; <UNPREDICTABLE>
     f4c:	00000068 	andeq	r0, r0, r8, rrx
     f50:	54504700 	ldrbpl	r4, [r0], #-1792	; 0xfffff900
     f54:	6f635f4d 	svcvs	0x00635f4d
     f58:	6769666e 	strbvs	r6, [r9, -lr, ror #12]!
     f5c:	0000682e 	andeq	r6, r0, lr, lsr #16
     f60:	4d440000 	stclmi	0, cr0, [r4, #-0]
     f64:	6f635f41 	svcvs	0x00635f41
     f68:	6769666e 	strbvs	r6, [r9, -lr, ror #12]!
     f6c:	0000682e 	andeq	r6, r0, lr, lsr #16
     f70:	79530000 	ldmdbvc	r3, {}^	; <UNPREDICTABLE>
     f74:	63697473 	cmnvs	r9, #1929379840	; 0x73000000
     f78:	6d69546b 	cfstrdvs	mvd5, [r9, #-428]!	; 0xfffffe54
     f7c:	682e7265 	stmdavs	lr!, {r0, r2, r5, r6, r9, ip, sp, lr}
     f80:	00000000 	andeq	r0, r0, r0
     f84:	00170500 	andseq	r0, r7, r0, lsl #10
     f88:	00000205 	andeq	r0, r0, r5, lsl #4
     f8c:	35030000 	strcc	r0, [r3, #-0]
     f90:	40150501 	andsmi	r0, r5, r1, lsl #10
     f94:	052e0505 	streq	r0, [lr, #-1285]!	; 0xfffffafb
     f98:	04020010 	streq	r0, [r2], #-16
     f9c:	35052103 	strcc	r2, [r5, #-259]	; 0xfffffefd
     fa0:	03040200 	movweq	r0, #16896	; 0x4200
     fa4:	0005053b 	andeq	r0, r5, fp, lsr r5
     fa8:	3c010402 	cfstrscc	mvf0, [r1], {2}
     fac:	023f0105 	eorseq	r0, pc, #1073741825	; 0x40000001
     fb0:	01010006 	tsteq	r1, r6
     fb4:	05000105 	streq	r0, [r0, #-261]	; 0xfffffefb
     fb8:	00114002 	andseq	r4, r1, r2
     fbc:	013f0300 	teqeq	pc, r0, lsl #6
     fc0:	22410605 	subcs	r0, r1, #5242880	; 0x500000
     fc4:	053d1505 	ldreq	r1, [sp, #-1285]!	; 0xfffffafb
     fc8:	07053c13 	smladeq	r5, r3, ip, r3
     fcc:	053d3d31 	ldreq	r3, [sp, #-3377]!	; 0xfffff2cf
     fd0:	00d30305 	sbcseq	r0, r3, r5, lsl #6
     fd4:	59752f3c 	ldmdbpl	r5!, {r2, r3, r4, r5, r8, r9, sl, fp, sp}^
     fd8:	4d3d3d4b 	ldcmi	13, cr3, [sp, #-300]!	; 0xfffffed4
     fdc:	0309054b 	movweq	r0, #38219	; 0x954b
     fe0:	054a0186 	strbeq	r0, [sl, #-390]	; 0xfffffe7a
     fe4:	04020012 	streq	r0, [r2], #-18	; 0xffffffee
     fe8:	09053101 	stmdbeq	r5, {r0, r8, ip, sp}
     fec:	01040200 	mrseq	r0, R12_usr
     ff0:	053c0d03 	ldreq	r0, [ip, #-3331]!	; 0xfffff2fd
     ff4:	04020012 	streq	r0, [r2], #-18	; 0xffffffee
     ff8:	58730301 	ldmdapl	r3!, {r0, r8, r9}^
     ffc:	01000f02 	tsteq	r0, r2, lsl #30
    1000:	0001bd01 	andeq	fp, r1, r1, lsl #26
    1004:	46000300 	strmi	r0, [r0], -r0, lsl #6
    1008:	02000000 	andeq	r0, r0, #0
    100c:	0d0efb01 	vstreq	d15, [lr, #-4]
    1010:	01010100 	mrseq	r0, (UNDEF: 17)
    1014:	00000001 	andeq	r0, r0, r1
    1018:	01000001 	tsteq	r0, r1
    101c:	49564e00 	ldmdbmi	r6, {r9, sl, fp, lr}^
    1020:	00632e43 	rsbeq	r2, r3, r3, asr #28
    1024:	6c000000 	stcvs	0, cr0, [r0], {-0}
    1028:	2e647473 	mcrcs	4, 3, r7, cr4, cr3, {3}
    102c:	00000068 	andeq	r0, r0, r8, rrx
    1030:	49564e00 	ldmdbmi	r6, {r9, sl, fp, lr}^
    1034:	65725f43 	ldrbvs	r5, [r2, #-3907]!	; 0xfffff0bd
    1038:	00682e67 	rsbeq	r2, r8, r7, ror #28
    103c:	4e000000 	cdpmi	0, 0, cr0, cr0, cr0, {0}
    1040:	5f434956 	svcpl	0x00434956
    1044:	666e6f63 	strbtvs	r6, [lr], -r3, ror #30
    1048:	682e6769 	stmdavs	lr!, {r0, r3, r5, r6, r8, r9, sl, sp, lr}
    104c:	00000000 	andeq	r0, r0, r0
    1050:	00340500 	eorseq	r0, r4, r0, lsl #10
    1054:	11e40205 	mvnne	r0, r5, lsl #4
    1058:	e1030000 	mrs	r0, (UNDEF: 3)
    105c:	2d050100 	stfcss	f0, [r5, #-0]
    1060:	2e0a054c 	cfsh32cs	mvfx0, mvfx10, #44
    1064:	05241805 	streq	r1, [r4, #-2053]!	; 0xfffff7fb
    1068:	2005580a 	andcs	r5, r5, sl, lsl #16
    106c:	4a2c0530 	bmi	b02534 <_E_text+0xb01048>
    1070:	05203005 	streq	r3, [r0, #-5]!
    1074:	2c055820 	stccs	8, cr5, [r5], {32}
    1078:	3002054a 	andcc	r0, r2, sl, asr #10
    107c:	01000802 	tsteq	r0, r2, lsl #16
    1080:	00330501 	eorseq	r0, r3, r1, lsl #10
    1084:	12300205 	eorsne	r0, r0, #1342177280	; 0x50000000
    1088:	ee030000 	cdp	0, 0, cr0, cr3, cr0, {0}
    108c:	2d050100 	stfcss	f0, [r5, #-0]
    1090:	2e0a054c 	cfsh32cs	mvfx0, mvfx10, #44
    1094:	05241705 	streq	r1, [r4, #-1797]!	; 0xfffff8fb
    1098:	1f05580a 	svcne	0x0005580a
    109c:	4a2c0530 	bmi	b02564 <_E_text+0xb01078>
    10a0:	05203205 	streq	r3, [r0, #-517]!	; 0xfffffdfb
    10a4:	1f054a2f 	svcne	0x00054a2f
    10a8:	4a2c052e 	bmi	b02568 <_E_text+0xb0107c>
    10ac:	02320205 	eorseq	r0, r2, #1342177280	; 0x50000000
    10b0:	01010007 	tsteq	r1, r7
    10b4:	05002f05 	streq	r2, [r0, #-3845]	; 0xfffff0fb
    10b8:	00000002 	andeq	r0, r0, r2
    10bc:	00fd0300 	rscseq	r0, sp, r0, lsl #6
    10c0:	4c2d0501 	cfstr32mi	mvfx0, [sp], #-4
    10c4:	052e0a05 	streq	r0, [lr, #-2565]!	; 0xfffff5fb
    10c8:	0a052417 	beq	14a12c <_E_text+0x148c40>
    10cc:	301a0558 	andscc	r0, sl, r8, asr r5
    10d0:	054a2605 	strbeq	r2, [sl, #-1541]	; 0xfffff9fb
    10d4:	1a05202a 	bne	149184 <_E_text+0x147c98>
    10d8:	4a260558 	bmi	982640 <_E_text+0x981154>
    10dc:	02320205 	eorseq	r0, r2, #1342177280	; 0x50000000
    10e0:	01010008 	tsteq	r1, r8
    10e4:	05003105 	streq	r3, [r0, #-261]	; 0xfffffefb
    10e8:	00000002 	andeq	r0, r0, r2
    10ec:	018c0300 	orreq	r0, ip, r0, lsl #6
    10f0:	4c2d0501 	cfstr32mi	mvfx0, [sp], #-4
    10f4:	052e0a05 	streq	r0, [lr, #-2565]!	; 0xfffff5fb
    10f8:	0a052416 	beq	14a158 <_E_text+0x148c6c>
    10fc:	301c0558 	andscc	r0, ip, r8, asr r5
    1100:	054a2905 	strbeq	r2, [sl, #-2309]	; 0xfffff6fb
    1104:	2c05202f 	stccs	0, cr2, [r5], {47}	; 0x2f
    1108:	2e1c054a 	cfmac32cs	mvfx0, mvfx12, mvfx10
    110c:	054a2905 	strbeq	r2, [sl, #-2309]	; 0xfffff6fb
    1110:	07023202 	streq	r3, [r2, -r2, lsl #4]
    1114:	05010100 	streq	r0, [r1, #-256]	; 0xffffff00
    1118:	0205003b 	andeq	r0, r5, #59	; 0x3b
    111c:	00000000 	andeq	r0, r0, r0
    1120:	01019b03 	tsteq	r1, r3, lsl #22
    1124:	055a0505 	ldrbeq	r0, [sl, #-1285]	; 0xfffffafb
    1128:	0505201b 	streq	r2, [r5, #-27]	; 0xffffffe5
    112c:	201c0568 	andscs	r0, ip, r8, ror #10
    1130:	02840105 	addeq	r0, r4, #1073741825	; 0x40000001
    1134:	01010007 	tsteq	r1, r7
    1138:	05007205 	streq	r7, [r0, #-517]	; 0xfffffdfb
    113c:	00000002 	andeq	r0, r0, r2
    1140:	01a40300 			; <UNDEFINED> instruction: 0x01a40300
    1144:	930b0501 	movwls	r0, #46337	; 0xb501
    1148:	05410c05 	strbeq	r0, [r1, #-3077]	; 0xfffff3fb
    114c:	07052015 	smladeq	r5, r5, r0, r2
    1150:	2f22052e 	svccs	0x0022052e
    1154:	054a3105 	strbeq	r3, [sl, #-261]	; 0xfffffefb
    1158:	3105ac22 	tstcc	r5, r2, lsr #24
    115c:	0301054a 	movweq	r0, #5450	; 0x154a
    1160:	11058215 	tstne	r5, r5, lsl r2
    1164:	05206f03 	streq	r6, [r0, #-3843]!	; 0xfffff0fd
    1168:	1d05201a 	stcne	0, cr2, [r5, #-104]	; 0xffffff98
    116c:	200d052e 	andcs	r0, sp, lr, lsr #10
    1170:	052f2605 	streq	r2, [pc, #-1541]!	; b73 <DMA_ConfigurePeripheralInterrupt+0x1f>
    1174:	26054a35 			; <UNDEFINED> instruction: 0x26054a35
    1178:	4a3505ac 	bmi	d42830 <_E_text+0xd41344>
    117c:	10030105 	andne	r0, r3, r5, lsl #2
    1180:	03100582 	tsteq	r0, #545259520	; 0x20800000
    1184:	19052074 	stmdbne	r5, {r2, r4, r5, r6, sp}
    1188:	2e1c0520 	cfmul64cs	mvdx0, mvdx12, mvdx0
    118c:	05200c05 	streq	r0, [r0, #-3077]!	; 0xfffff3fb
    1190:	35052f26 	strcc	r2, [r5, #-3878]	; 0xfffff0da
    1194:	ac26054a 	cfstr32ge	mvfx0, [r6], #-296	; 0xfffffed8
    1198:	054a3505 	strbeq	r3, [sl, #-1285]	; 0xfffffafb
    119c:	820b0301 	andhi	r0, fp, #67108864	; 0x4000000
    11a0:	79031105 	stmdbvc	r3, {r0, r2, r8, ip}
    11a4:	201a0520 	andscs	r0, sl, r0, lsr #10
    11a8:	052e1d05 	streq	r1, [lr, #-3333]!	; 0xfffff2fb
    11ac:	2605200d 	strcs	r2, [r5], -sp
    11b0:	4a35052f 	bmi	d42674 <_E_text+0xd41188>
    11b4:	05ac2605 	streq	r2, [ip, #1541]!	; 0x605
    11b8:	01054a35 	tsteq	r5, r5, lsr sl
    11bc:	00080288 	andeq	r0, r8, r8, lsl #5
    11c0:	00c00101 	sbceq	r0, r0, r1, lsl #2
    11c4:	00030000 	andeq	r0, r3, r0
    11c8:	00000020 	andeq	r0, r0, r0, lsr #32
    11cc:	0efb0102 	cdpeq	1, 15, cr0, cr11, cr2, {0}
    11d0:	0101000d 	tsteq	r1, sp
    11d4:	00000101 	andeq	r0, r0, r1, lsl #2
    11d8:	00000100 	andeq	r0, r0, r0, lsl #2
    11dc:	74730001 	ldrbtvc	r0, [r3], #-1
    11e0:	75747261 	ldrbvc	r7, [r4, #-609]!	; 0xfffffd9f
    11e4:	00632e70 	rsbeq	r2, r3, r0, ror lr
    11e8:	00000000 	andeq	r0, r0, r0
    11ec:	05001705 	streq	r1, [r0, #-1797]	; 0xfffff8fb
    11f0:	00127c02 	andseq	r7, r2, r2, lsl #24
    11f4:	010b0300 	mrseq	r0, (UNDEF: 59)
    11f8:	30300105 	eorscc	r0, r0, r5, lsl #2
    11fc:	01000202 	tsteq	r0, r2, lsl #4
    1200:	00160501 	andseq	r0, r6, r1, lsl #10
    1204:	12880205 	addne	r0, r8, #1342177280	; 0x50000000
    1208:	32030000 	andcc	r0, r3, #0
    120c:	3e340501 	cdpcc	5, 3, cr0, cr4, cr1, {0}
    1210:	053c0e05 	ldreq	r0, [ip, #-3589]!	; 0xfffff1fb
    1214:	0e052132 	mcreq	1, 0, r2, cr5, cr2, {1}
    1218:	2310053c 	tstcs	r0, #60, 10	; 0xf000000
    121c:	300a052f 	andcc	r0, sl, pc, lsr #10
    1220:	052e0105 	streq	r0, [lr, #-261]!	; 0xfffffefb
    1224:	04020022 	streq	r0, [r2], #-34	; 0xffffffde
    1228:	04052203 	streq	r2, [r5], #-515	; 0xfffffdfd
    122c:	03040200 	movweq	r0, #16896	; 0x4200
    1230:	0020053c 	eoreq	r0, r0, ip, lsr r5
    1234:	3c030402 	cfstrscc	mvf0, [r3], {2}
    1238:	02001e05 	andeq	r1, r0, #5, 28	; 0x50
    123c:	05200304 	streq	r0, [r0, #-772]!	; 0xfffffcfc
    1240:	04020020 	streq	r0, [r2], #-32	; 0xffffffe0
    1244:	12051e03 	andne	r1, r5, #3, 28	; 0x30
    1248:	01040200 	mrseq	r0, R12_usr
    124c:	0001053c 	andeq	r0, r1, ip, lsr r5
    1250:	20010402 	andcs	r0, r1, r2, lsl #8
    1254:	05410a05 	strbeq	r0, [r1, #-2565]	; 0xfffff5fb
    1258:	04052e01 	streq	r2, [r5], #-3585	; 0xfffff1ff
    125c:	03040200 	movweq	r0, #16896	; 0x4200
    1260:	001e0522 	andseq	r0, lr, r2, lsr #10
    1264:	3c030402 	cfstrscc	mvf0, [r3], {2}
    1268:	03040200 	movweq	r0, #16896	; 0x4200
    126c:	0011052c 	andseq	r0, r1, ip, lsr #10
    1270:	3c010402 	cfstrscc	mvf0, [r1], {2}
    1274:	02000105 	andeq	r0, r0, #1073741825	; 0x40000001
    1278:	05200104 	streq	r0, [r0, #-260]!	; 0xfffffefc
    127c:	01054302 	tsteq	r5, r2, lsl #6
    1280:	000e0230 	andeq	r0, lr, r0, lsr r2
    1284:	02690101 	rsbeq	r0, r9, #1073741824	; 0x40000000
    1288:	00030000 	andeq	r0, r3, r0
    128c:	00000061 	andeq	r0, r0, r1, rrx
    1290:	0efb0102 	cdpeq	1, 15, cr0, cr11, cr2, {0}
    1294:	0101000d 	tsteq	r1, sp
    1298:	00000101 	andeq	r0, r0, r1, lsl #2
    129c:	00000100 	andeq	r0, r0, r0, lsl #2
    12a0:	79530001 	ldmdbvc	r3, {r0}^
    12a4:	6d657473 	cfstrdvs	mvd7, [r5, #-460]!	; 0xfffffe34
    12a8:	746e6f43 	strbtvc	r6, [lr], #-3907	; 0xfffff0bd
    12ac:	2e6c6f72 	mcrcs	15, 3, r6, cr12, cr2, {3}
    12b0:	00000063 	andeq	r0, r0, r3, rrx
    12b4:	74736c00 	ldrbtvc	r6, [r3], #-3072	; 0xfffff400
    12b8:	00682e64 	rsbeq	r2, r8, r4, ror #28
    12bc:	53000000 	movwpl	r0, #0
    12c0:	65747379 	ldrbvs	r7, [r4, #-889]!	; 0xfffffc87
    12c4:	6e6f436d 	cdpvs	3, 6, cr4, cr15, cr13, {3}
    12c8:	6c6f7274 	sfmvs	f7, 2, [pc], #-464	; 1100 <GPIO_WriteBitBandBits+0x44>
    12cc:	6765725f 			; <UNDEFINED> instruction: 0x6765725f
    12d0:	0000682e 	andeq	r6, r0, lr, lsr #16
    12d4:	79530000 	ldmdbvc	r3, {}^	; <UNPREDICTABLE>
    12d8:	6d657473 	cfstrdvs	mvd7, [r5, #-460]!	; 0xfffffe34
    12dc:	746e6f43 	strbtvc	r6, [lr], #-3907	; 0xfffff0bd
    12e0:	5f6c6f72 	svcpl	0x006c6f72
    12e4:	666e6f63 	strbtvs	r6, [lr], -r3, ror #30
    12e8:	682e6769 	stmdavs	lr!, {r0, r3, r5, r6, r8, r9, sl, sp, lr}
    12ec:	00000000 	andeq	r0, r0, r0
    12f0:	00540500 	subseq	r0, r4, r0, lsl #10
    12f4:	00000205 	andeq	r0, r0, r5, lsl #4
    12f8:	2b030000 	blcs	c1300 <_E_text+0xbfe14>
    12fc:	4c280501 	cfstr32mi	mvfx0, [r8], #-4
    1300:	052e4305 	streq	r4, [lr, #-773]!	; 0xfffffcfb
    1304:	28053c2c 	stmdacs	r5, {r2, r3, r5, sl, fp, ip, sp}
    1308:	3e01053c 	mcrcc	5, 0, r0, cr1, cr12, {1}
    130c:	01000902 	tsteq	r0, r2, lsl #18
    1310:	00380501 	eorseq	r0, r8, r1, lsl #10
    1314:	00000205 	andeq	r0, r0, r5, lsl #4
    1318:	c4030000 	strgt	r0, [r3], #-0
    131c:	22050100 	andcs	r0, r5, #0, 2
    1320:	2030054d 	eorscs	r0, r0, sp, asr #10
    1324:	05501e05 	ldrbeq	r1, [r0, #-3589]	; 0xfffff1fb
    1328:	2a052e06 	bcs	14cb48 <_E_text+0x14b65c>
    132c:	203a0531 	eorscs	r0, sl, r1, lsr r5
    1330:	054b2a05 	strbeq	r2, [fp, #-2565]	; 0xfffff5fb
    1334:	4c052049 	stcmi	0, cr2, [r5], {73}	; 0x49
    1338:	054a0c03 	strbeq	r0, [sl, #-3075]	; 0xfffff3fd
    133c:	4c052e2a 	stcmi	14, cr2, [r5], {42}	; 0x2a
    1340:	3c420520 	cfstr64cc	mvdx0, [r2], {32}
    1344:	054b2a05 	strbeq	r2, [fp, #-2565]	; 0xfffff5fb
    1348:	2c05203d 	stccs	0, cr2, [r5], {61}	; 0x3d
    134c:	2e11054c 	cfmac32cs	mvfx0, mvfx1, mvfx12
    1350:	052f4705 	streq	r4, [pc, #-1797]!	; c53 <DMA_AssignChannel+0x1b>
    1354:	47052e2a 	strmi	r2, [r5, -sl, lsr #28]
    1358:	3c3d0520 	cfldr32cc	mvfx0, [sp], #-128	; 0xffffff80
    135c:	0d034e05 	stceq	14, cr4, [r3, #-20]	; 0xffffffec
    1360:	2e2a054a 	cfsh64cs	mvdx0, mvdx10, #42
    1364:	05204e05 	streq	r4, [r0, #-3589]!	; 0xfffff1fb
    1368:	52053c44 	andpl	r3, r5, #68, 24	; 0x4400
    136c:	2e2a054b 	cfsh64cs	mvdx0, mvdx10, #43
    1370:	05205205 	streq	r5, [r0, #-517]!	; 0xfffffdfb
    1374:	14053c49 	strne	r3, [r5], #-3145	; 0xfffff3b7
    1378:	054a0e03 	strbeq	r0, [sl, #-3587]	; 0xfffff1fd
    137c:	04020020 	streq	r0, [r2], #-32	; 0xffffffe0
    1380:	26052001 	strcs	r2, [r5], -r1
    1384:	01040200 	mrseq	r0, R12_usr
    1388:	00140520 	andseq	r0, r4, r0, lsr #10
    138c:	4a010402 	bmi	4239c <_E_text+0x40eb0>
    1390:	05342a05 	ldreq	r2, [r4, #-2565]!	; 0xfffff5fb
    1394:	0105203a 	tsteq	r5, sl, lsr r0
    1398:	054a1c03 	strbeq	r1, [sl, #-3075]	; 0xfffff3fd
    139c:	20700328 	rsbscs	r0, r0, r8, lsr #6
    13a0:	052e1105 	streq	r1, [lr, #-261]!	; 0xfffffefb
    13a4:	3a05302a 	bcc	14d454 <_E_text+0x14bf68>
    13a8:	4b4b0520 	blmi	12c2830 <_E_text+0x12c1344>
    13ac:	052e2a05 	streq	r2, [lr, #-2565]!	; 0xfffff5fb
    13b0:	4105204b 	tstmi	r5, fp, asr #32
    13b4:	4c2c053c 	cfstr32mi	mvfx0, [ip], #-240	; 0xffffff10
    13b8:	052e1005 	streq	r1, [lr, #-5]!
    13bc:	2a052f47 	bcs	14d0e0 <_E_text+0x14bbf4>
    13c0:	2047052e 	subcs	r0, r7, lr, lsr #10
    13c4:	053c3d05 	ldreq	r3, [ip, #-3333]!	; 0xfffff2fb
    13c8:	10054d2a 	andne	r4, r5, sl, lsr #26
    13cc:	2f4e052e 	svccs	0x004e052e
    13d0:	052e2a05 	streq	r2, [lr, #-2565]!	; 0xfffff5fb
    13d4:	4405204e 	strmi	r2, [r5], #-78	; 0xffffffb2
    13d8:	4b2a053c 	blmi	a828d0 <_E_text+0xa813e4>
    13dc:	05204905 	streq	r4, [r0, #-2309]!	; 0xfffff6fb
    13e0:	0c024f01 	stceq	15, cr4, [r2], {1}
    13e4:	05010100 	streq	r0, [r1, #-256]	; 0xffffff00
    13e8:	02050029 	andeq	r0, r5, #41	; 0x29
    13ec:	00001308 	andeq	r1, r0, r8, lsl #6
    13f0:	0101ae03 	tsteq	r1, r3, lsl #28
    13f4:	05302805 	ldreq	r2, [r0, #-2053]!	; 0xfffff7fb
    13f8:	0505202e 	streq	r2, [r5, #-46]	; 0xffffffd2
    13fc:	8514054a 	ldrhi	r0, [r4, #-1354]	; 0xfffffab6
    1400:	05323232 	ldreq	r3, [r2, #-562]!	; 0xfffffdce
    1404:	2e0d0301 	cdpcs	3, 0, cr0, cr13, cr1, {0}
    1408:	01000d02 	tsteq	r0, r2, lsl #26
    140c:	001e0501 	andseq	r0, lr, r1, lsl #10
    1410:	13500205 	cmpne	r0, #1342177280	; 0x50000000
    1414:	da030000 	ble	c141c <_E_text+0xbff30>
    1418:	2b050101 	blcs	141824 <_E_text+0x140338>
    141c:	20310544 	eorscs	r0, r1, r4, asr #10
    1420:	054a0805 	strbeq	r0, [sl, #-2053]	; 0xfffff7fb
    1424:	3505302f 	strcc	r3, [r5, #-47]	; 0xffffffd1
    1428:	4a0c0520 	bmi	3028b0 <_E_text+0x3013c4>
    142c:	05301805 	ldreq	r1, [r0, #-2053]!	; 0xfffff7fb
    1430:	4e052f48 	cdpmi	15, 0, cr2, cr5, cr8, {2}
    1434:	582b0520 	stmdapl	fp!, {r5, r8, sl}
    1438:	053c1605 	ldreq	r1, [ip, #-1541]!	; 0xfffff9fb
    143c:	2e054d10 	mcrcs	13, 0, r4, cr5, cr0, {0}
    1440:	052e0903 	streq	r0, [lr, #-2307]!	; 0xfffff6fd
    1444:	0c052034 	stceq	0, cr2, [r5], {52}	; 0x34
    1448:	3513054a 	ldrcc	r0, [r3, #-1354]	; 0xfffffab6
    144c:	053e2f05 	ldreq	r2, [lr, #-3845]!	; 0xfffff0fb
    1450:	0c052035 	stceq	0, cr2, [r5], {53}	; 0x35
    1454:	2f47054a 	svccs	0x0047054a
    1458:	05204d05 	streq	r4, [r0, #-3333]!	; 0xfffff2fb
    145c:	1505582a 	strne	r5, [r5, #-2090]	; 0xfffff7d6
    1460:	4d10053c 	cfldr32mi	mvfx0, [r0, #-240]	; 0xffffff10
    1464:	05320c05 	ldreq	r0, [r2, #-3077]!	; 0xfffff3fb
    1468:	0b022101 	bleq	89874 <_E_text+0x88388>
    146c:	05010100 	streq	r0, [r1, #-256]	; 0xffffff00
    1470:	02050045 	andeq	r0, r5, #69	; 0x45
    1474:	00000000 	andeq	r0, r0, r0
    1478:	01028803 	tsteq	r2, r3, lsl #16
    147c:	054c0505 	strbeq	r0, [ip, #-1285]	; 0xfffffafb
    1480:	21053e50 	tstcs	r5, r0, asr lr
    1484:	2050052e 	subscs	r0, r0, lr, lsr #10
    1488:	053c3e05 	ldreq	r3, [ip, #-3589]!	; 0xfffff1fb
    148c:	08054c2d 	stmdaeq	r5, {r0, r2, r3, r5, sl, fp, lr}
    1490:	304e052e 	subcc	r0, lr, lr, lsr #10
    1494:	052e2105 	streq	r2, [lr, #-261]!	; 0xfffffefb
    1498:	3c05204e 	stccc	0, cr2, [r5], {78}	; 0x4e
    149c:	4d01053c 	cfstr32mi	mvfx0, [r1, #-240]	; 0xffffff10
    14a0:	01000702 	tsteq	r0, r2, lsl #14
    14a4:	00460501 	subeq	r0, r6, r1, lsl #10
    14a8:	00000205 	andeq	r0, r0, r5, lsl #4
    14ac:	97030000 	strls	r0, [r3, -r0]
    14b0:	11050102 	tstne	r5, r2, lsl #2
    14b4:	4021054f 	eormi	r0, r1, pc, asr #10
    14b8:	052e0705 	streq	r0, [lr, #-1797]!	; 0xfffff8fb
    14bc:	49053043 	stmdbmi	r5, {r0, r1, r6, ip, sp}
    14c0:	58260520 	stmdapl	r6!, {r5, r8, sl}
    14c4:	053c1005 	ldreq	r1, [ip, #-5]!
    14c8:	0a054b0f 	beq	15410c <_E_text+0x152c20>
    14cc:	22010531 	andcs	r0, r1, #205520896	; 0xc400000
    14d0:	01000902 	tsteq	r0, r2, lsl #18
    14d4:	004a0501 	subeq	r0, sl, r1, lsl #10
    14d8:	00000205 	andeq	r0, r0, r5, lsl #4
    14dc:	ab030000 	blge	c14e4 <_E_text+0xbfff8>
    14e0:	1e050102 	adfnes	f0, f5, f2
    14e4:	2e23055a 	mcrcs	5, 1, r0, cr3, cr10, {2}
    14e8:	05581e05 	ldrbeq	r1, [r8, #-3589]	; 0xfffff1fb
    14ec:	07023d01 	streq	r3, [r2, -r1, lsl #26]
    14f0:	4d010100 	stfmis	f0, [r1, #-0]
    14f4:	03000000 	movweq	r0, #0
    14f8:	00004700 	andeq	r4, r0, r0, lsl #14
    14fc:	fb010200 	blx	41d06 <_E_text+0x4081a>
    1500:	01000d0e 	tsteq	r0, lr, lsl #26
    1504:	00010101 	andeq	r0, r1, r1, lsl #2
    1508:	00010000 	andeq	r0, r1, r0
    150c:	53000100 	movwpl	r0, #256	; 0x100
    1510:	65747379 	ldrbvs	r7, [r4, #-889]!	; 0xfffffc87
    1514:	6e6f436d 	cdpvs	3, 6, cr4, cr15, cr13, {3}
    1518:	6c6f7274 	sfmvs	f7, 2, [pc], #-464	; 1350 <SC_GetSystemClock>
    151c:	6e6f635f 	mcrvs	3, 3, r6, cr15, cr15, {2}
    1520:	2e676966 	vnmulcs.f16	s13, s14, s13	; <UNPREDICTABLE>
    1524:	00000068 	andeq	r0, r0, r8, rrx
    1528:	73795300 	cmnvc	r9, #0, 6
    152c:	436d6574 	cmnmi	sp, #116, 10	; 0x1d000000
    1530:	72746e6f 	rsbsvc	r6, r4, #1776	; 0x6f0
    1534:	435f6c6f 	cmpmi	pc, #28416	; 0x6f00
    1538:	69666e6f 	stmdbvs	r6!, {r0, r1, r2, r3, r5, r6, r9, sl, fp, sp, lr}^
    153c:	00632e67 	rsbeq	r2, r3, r7, ror #28
    1540:	00000000 	andeq	r0, r0, r0
    1544:	000001b8 			; <UNDEFINED> instruction: 0x000001b8
    1548:	00680003 	rsbeq	r0, r8, r3
    154c:	01020000 	mrseq	r0, (UNDEF: 2)
    1550:	000d0efb 	strdeq	r0, [sp], -fp
    1554:	01010101 	tsteq	r1, r1, lsl #2
    1558:	01000000 	mrseq	r0, (UNDEF: 0)
    155c:	00010000 	andeq	r0, r1, r0
    1560:	74737953 	ldrbtvc	r7, [r3], #-2387	; 0xfffff6ad
    1564:	546b6369 	strbtpl	r6, [fp], #-873	; 0xfffffc97
    1568:	72656d69 	rsbvc	r6, r5, #6720	; 0x1a40
    156c:	0000632e 	andeq	r6, r0, lr, lsr #6
    1570:	736c0000 	cmnvc	ip, #0
    1574:	682e6474 	stmdavs	lr!, {r2, r4, r5, r6, sl, sp, lr}
    1578:	00000000 	andeq	r0, r0, r0
    157c:	74737953 	ldrbtvc	r7, [r3], #-2387	; 0xfffff6ad
    1580:	546b6369 	strbtpl	r6, [fp], #-873	; 0xfffffc97
    1584:	72656d69 	rsbvc	r6, r5, #6720	; 0x1a40
    1588:	6765725f 			; <UNDEFINED> instruction: 0x6765725f
    158c:	0000682e 	andeq	r6, r0, lr, lsr #16
    1590:	50470000 	subpl	r0, r7, r0
    1594:	635f4d54 	cmpvs	pc, #84, 26	; 0x1500
    1598:	69666e6f 	stmdbvs	r6!, {r0, r1, r2, r3, r5, r6, r9, sl, fp, sp, lr}^
    159c:	00682e67 	rsbeq	r2, r8, r7, ror #28
    15a0:	53000000 	movwpl	r0, #0
    15a4:	69747379 	ldmdbvs	r4!, {r0, r3, r4, r5, r6, r8, r9, ip, sp, lr}^
    15a8:	69546b63 	ldmdbvs	r4, {r0, r1, r5, r6, r8, r9, fp, sp, lr}^
    15ac:	2e72656d 	cdpcs	5, 7, cr6, cr2, cr13, {3}
    15b0:	00000068 	andeq	r0, r0, r8, rrx
    15b4:	12050000 	andne	r0, r5, #0
    15b8:	00020500 	andeq	r0, r2, r0, lsl #10
    15bc:	03000000 	movweq	r0, #0
    15c0:	1b05010b 	blne	1419f4 <_E_text+0x140508>
    15c4:	2e090530 	cfmv64hrcs	mvdx9, r0
    15c8:	05300705 	ldreq	r0, [r0, #-1797]!	; 0xfffff8fb
    15cc:	05024002 	streq	r4, [r2, #-2]
    15d0:	05010100 	streq	r0, [r1, #-256]	; 0xffffff00
    15d4:	02050027 	andeq	r0, r5, #39	; 0x27
    15d8:	000013ec 	andeq	r1, r0, ip, ror #7
    15dc:	05011703 	streq	r1, [r1, #-1795]	; 0xfffff8fd
    15e0:	28052f1b 	stmdacs	r5, {r0, r1, r3, r4, r8, r9, sl, fp, sp}
    15e4:	4b010520 	blmi	42a6c <_E_text+0x41580>
    15e8:	01000702 	tsteq	r0, r2, lsl #14
    15ec:	00280501 	eoreq	r0, r8, r1, lsl #10
    15f0:	14080205 	strne	r0, [r8], #-517	; 0xfffffdfb
    15f4:	1c030000 	stcne	0, cr0, [r3], {-0}
    15f8:	2f1b0501 	svccs	0x001b0501
    15fc:	05202805 	streq	r2, [r0, #-2053]!	; 0xfffff7fb
    1600:	07024b01 	streq	r4, [r2, -r1, lsl #22]
    1604:	05010100 	streq	r0, [r1, #-256]	; 0xffffff00
    1608:	0205002e 	andeq	r0, r5, #46	; 0x2e
    160c:	00001424 	andeq	r1, r0, r4, lsr #8
    1610:	05012203 	streq	r2, [r1, #-515]	; 0xfffffdfd
    1614:	30053f2a 	andcc	r3, r5, sl, lsr #30
    1618:	4a050520 	bmi	142aa0 <_E_text+0x1415b4>
    161c:	05300e05 	ldreq	r0, [r0, #-3589]!	; 0xfffff1fb
    1620:	12054e14 	andne	r4, r5, #20, 28	; 0x140
    1624:	590a053c 	stmdbpl	sl, {r2, r3, r4, r5, r8, sl}
    1628:	02300105 	eorseq	r0, r0, #1073741825	; 0x40000001
    162c:	0101000a 	tsteq	r1, sl
    1630:	05003e05 	streq	r3, [r0, #-3589]	; 0xfffff1fb
    1634:	00146802 	andseq	r6, r4, r2, lsl #16
    1638:	01350300 	teqeq	r5, r0, lsl #6
    163c:	055a1b05 	ldrbeq	r1, [sl, #-2821]	; 0xfffff4fb
    1640:	01052029 	tsteq	r5, r9, lsr #32
    1644:	00080283 	andeq	r0, r8, r3, lsl #5
    1648:	52050101 	andpl	r0, r5, #1073741824	; 0x40000000
    164c:	00020500 	andeq	r0, r2, r0, lsl #10
    1650:	03000000 	movweq	r0, #0
    1654:	0505013a 	streq	r0, [r5, #-314]	; 0xfffffec6
    1658:	361f055a 			; <UNDEFINED> instruction: 0x361f055a
    165c:	05671505 	strbeq	r1, [r7, #-1285]!	; 0xfffffafb
    1660:	26056719 			; <UNDEFINED> instruction: 0x26056719
    1664:	76050520 	strvc	r0, [r5], -r0, lsr #10
    1668:	05321d05 	ldreq	r1, [r2, #-3333]!	; 0xfffff2fb
    166c:	0b052e05 	bleq	14ce88 <_E_text+0x14b99c>
    1670:	00220521 	eoreq	r0, r2, r1, lsr #10
    1674:	20010402 	andcs	r0, r1, r2, lsl #8
    1678:	02002805 	andeq	r2, r0, #327680	; 0x50000
    167c:	05200104 	streq	r0, [r0, #-260]!	; 0xfffffefc
    1680:	0402000b 	streq	r0, [r2], #-11
    1684:	59054a01 	stmdbpl	r5, {r0, r9, fp, lr}
    1688:	02040200 	andeq	r0, r4, #0, 4
    168c:	0005052d 	andeq	r0, r5, sp, lsr #10
    1690:	3c010402 	cfstrscc	mvf0, [r1], {2}
    1694:	3001054e 	andcc	r0, r1, lr, asr #10
    1698:	01000902 	tsteq	r0, r2, lsl #18
    169c:	00420501 	subeq	r0, r2, r1, lsl #10
    16a0:	00000205 	andeq	r0, r0, r5, lsl #4
    16a4:	d4030000 	strle	r0, [r3], #-0
    16a8:	15050100 	strne	r0, [r5, #-256]	; 0xffffff00
    16ac:	3d01054c 	cfstr32cc	mvfx0, [r1, #-304]	; 0xfffffed0
    16b0:	01000702 	tsteq	r0, r2, lsl #14
    16b4:	00540501 	subseq	r0, r4, r1, lsl #10
    16b8:	14940205 	ldrne	r0, [r4], #517	; 0x205
    16bc:	da030000 	ble	c16c4 <_E_text+0xc01d8>
    16c0:	05050100 	streq	r0, [r5, #-256]	; 0xffffff00
    16c4:	331e055a 	tstcc	lr, #377487360	; 0x16800000
    16c8:	054d1405 	strbeq	r1, [sp, #-1029]	; 0xfffffbfb
    16cc:	26056719 			; <UNDEFINED> instruction: 0x26056719
    16d0:	761b0520 	ldrvc	r0, [fp], -r0, lsr #10
    16d4:	05202705 	streq	r2, [r0, #-1797]!	; 0xfffff8fb
    16d8:	05054b06 	streq	r4, [r5, #-2822]	; 0xfffff4fa
    16dc:	3001053d 	andcc	r0, r1, sp, lsr r5
    16e0:	01000902 	tsteq	r0, r2, lsl #18
    16e4:	001d0501 	andseq	r0, sp, r1, lsl #10
    16e8:	00000205 	andeq	r0, r0, r5, lsl #4
    16ec:	ed030000 	stc	0, cr0, [r3, #-0]
    16f0:	24050100 	strcs	r0, [r5], #-256	; 0xffffff00
    16f4:	200d053f 	andcs	r0, sp, pc, lsr r5
    16f8:	022f0105 	eoreq	r0, pc, #1073741825	; 0x40000001
    16fc:	01010008 	tsteq	r1, r8
    1700:	000006d4 	ldrdeq	r0, [r0], -r4
    1704:	00850003 	addeq	r0, r5, r3
    1708:	01020000 	mrseq	r0, (UNDEF: 2)
    170c:	000d0efb 	strdeq	r0, [sp], -fp
    1710:	01010101 	tsteq	r1, r1, lsl #2
    1714:	01000000 	mrseq	r0, (UNDEF: 0)
    1718:	00010000 	andeq	r0, r1, r0
    171c:	54524155 	ldrbpl	r4, [r2], #-341	; 0xfffffeab
    1720:	0000632e 	andeq	r6, r0, lr, lsr #6
    1724:	736c0000 	cmnvc	ip, #0
    1728:	682e6474 	stmdavs	lr!, {r2, r4, r5, r6, sl, sp, lr}
    172c:	00000000 	andeq	r0, r0, r0
    1730:	54524155 	ldrbpl	r4, [r2], #-341	; 0xfffffeab
    1734:	6e6f635f 	mcrvs	3, 3, r6, cr15, cr15, {2}
    1738:	2e676966 	vnmulcs.f16	s13, s14, s13	; <UNPREDICTABLE>
    173c:	00000068 	andeq	r0, r0, r8, rrx
    1740:	49504700 	ldmdbmi	r0, {r8, r9, sl, lr}^
    1744:	6f635f4f 	svcvs	0x00635f4f
    1748:	6769666e 	strbvs	r6, [r9, -lr, ror #12]!
    174c:	0000682e 	andeq	r6, r0, lr, lsr #16
    1750:	4d440000 	stclmi	0, cr0, [r4, #-0]
    1754:	6f635f41 	svcvs	0x00635f41
    1758:	6769666e 	strbvs	r6, [r9, -lr, ror #12]!
    175c:	0000682e 	andeq	r6, r0, lr, lsr #16
    1760:	41550000 	cmpmi	r5, r0
    1764:	725f5452 	subsvc	r5, pc, #1375731712	; 0x52000000
    1768:	682e6765 	stmdavs	lr!, {r0, r2, r5, r6, r8, r9, sl, sp, lr}
    176c:	00000000 	andeq	r0, r0, r0
    1770:	4d545047 	ldclmi	0, cr5, [r4, #-284]	; 0xfffffee4
    1774:	6e6f635f 	mcrvs	3, 3, r6, cr15, cr15, {2}
    1778:	2e676966 	vnmulcs.f16	s13, s14, s13	; <UNPREDICTABLE>
    177c:	00000068 	andeq	r0, r0, r8, rrx
    1780:	414d4400 	cmpmi	sp, r0, lsl #8
    1784:	6765725f 			; <UNDEFINED> instruction: 0x6765725f
    1788:	0000682e 	andeq	r6, r0, lr, lsr #16
    178c:	05000000 	streq	r0, [r0, #-0]
    1790:	02050017 	andeq	r0, r5, #23
    1794:	00000000 	andeq	r0, r0, r0
    1798:	01048003 	tsteq	r4, r3
    179c:	05413505 	strbeq	r3, [r1, #-1285]	; 0xfffffafb
    17a0:	0905204a 	stmdbeq	r5, {r1, r3, r6, sp}
    17a4:	300f054a 	andcc	r0, pc, sl, asr #10
    17a8:	05403805 	strbeq	r3, [r0, #-2053]	; 0xfffff7fb
    17ac:	0d05204d 	stceq	0, cr2, [r5, #-308]	; 0xfffffecc
    17b0:	2f0e054a 	svccs	0x000e054a
    17b4:	05403905 	strbeq	r3, [r0, #-2309]	; 0xfffff6fb
    17b8:	0d05204e 	stceq	0, cr2, [r5, #-312]	; 0xfffffec8
    17bc:	2f0e054a 	svccs	0x000e054a
    17c0:	053f3805 	ldreq	r3, [pc, #-2053]!	; fc3 <GPIO_SetPinDirection+0x47>
    17c4:	0d05204d 	stceq	0, cr2, [r5, #-308]	; 0xfffffecc
    17c8:	2f0e054a 	svccs	0x000e054a
    17cc:	053f3805 	ldreq	r3, [pc, #-2053]!	; fcf <GPIO_SetPinDirection+0x53>
    17d0:	0d05204d 	stceq	0, cr2, [r5, #-308]	; 0xfffffecc
    17d4:	2f0e054a 	svccs	0x000e054a
    17d8:	05321805 	ldreq	r1, [r2, #-2053]!	; 0xfffff7fb
    17dc:	0b054a09 	bleq	154008 <_E_text+0x152b1c>
    17e0:	5c030530 	cfstr32pl	mvfx0, [r3], {48}	; 0x30
    17e4:	01000902 	tsteq	r0, r2, lsl #18
    17e8:	00170501 	andseq	r0, r7, r1, lsl #10
    17ec:	00000205 	andeq	r0, r0, r5, lsl #4
    17f0:	bb030000 	bllt	c17f8 <_E_text+0xc030c>
    17f4:	35050104 	strcc	r0, [r5, #-260]	; 0xfffffefc
    17f8:	204a0541 	subcs	r0, sl, r1, asr #10
    17fc:	054a0905 	strbeq	r0, [sl, #-2309]	; 0xfffff6fb
    1800:	3805300f 	stmdacc	r5, {r0, r1, r2, r3, ip, sp}
    1804:	204d0540 	subcs	r0, sp, r0, asr #10
    1808:	054a0d05 	strbeq	r0, [sl, #-3333]	; 0xfffff2fb
    180c:	39052f0e 	stmdbcc	r5, {r1, r2, r3, r8, r9, sl, fp, sp}
    1810:	204e0540 	subcs	r0, lr, r0, asr #10
    1814:	054a0d05 	strbeq	r0, [sl, #-3333]	; 0xfffff2fb
    1818:	38052f0e 	stmdacc	r5, {r1, r2, r3, r8, r9, sl, fp, sp}
    181c:	204d053f 	subcs	r0, sp, pc, lsr r5
    1820:	054a0d05 	strbeq	r0, [sl, #-3333]	; 0xfffff2fb
    1824:	38052f0e 	stmdacc	r5, {r1, r2, r3, r8, r9, sl, fp, sp}
    1828:	204d053f 	subcs	r0, sp, pc, lsr r5
    182c:	054a0d05 	strbeq	r0, [sl, #-3333]	; 0xfffff2fb
    1830:	18052f0e 	stmdane	r5, {r1, r2, r3, r8, r9, sl, fp, sp}
    1834:	4a090532 	bmi	242d04 <_E_text+0x241818>
    1838:	05300b05 	ldreq	r0, [r0, #-2821]!	; 0xfffff4fb
    183c:	09025e03 	stmdbeq	r2, {r0, r1, r9, sl, fp, ip, lr}
    1840:	05010100 	streq	r0, [r1, #-256]	; 0xffffff00
    1844:	02050017 	andeq	r0, r5, #23
    1848:	00000000 	andeq	r0, r0, r0
    184c:	0104f703 	tsteq	r4, r3, lsl #14	; <UNPREDICTABLE>
    1850:	05413505 	strbeq	r3, [r1, #-1285]	; 0xfffffafb
    1854:	0905204a 	stmdbeq	r5, {r1, r3, r6, sp}
    1858:	300f054a 	andcc	r0, pc, sl, asr #10
    185c:	05403805 	strbeq	r3, [r0, #-2053]	; 0xfffff7fb
    1860:	0d05204d 	stceq	0, cr2, [r5, #-308]	; 0xfffffecc
    1864:	2f0e054a 	svccs	0x000e054a
    1868:	05403905 	strbeq	r3, [r0, #-2309]	; 0xfffff6fb
    186c:	0d05204e 	stceq	0, cr2, [r5, #-312]	; 0xfffffec8
    1870:	2f0e054a 	svccs	0x000e054a
    1874:	053f3805 	ldreq	r3, [pc, #-2053]!	; 1077 <GPIO_ConfigureInputPin+0x1f>
    1878:	0d05204d 	stceq	0, cr2, [r5, #-308]	; 0xfffffecc
    187c:	2f0e054a 	svccs	0x000e054a
    1880:	053f3805 	ldreq	r3, [pc, #-2053]!	; 1083 <GPIO_ConfigureInputPin+0x2b>
    1884:	0d05204d 	stceq	0, cr2, [r5, #-308]	; 0xfffffecc
    1888:	2f0e054a 	svccs	0x000e054a
    188c:	05321805 	ldreq	r1, [r2, #-2053]!	; 0xfffff7fb
    1890:	0b054a09 	bleq	1540bc <_E_text+0x152bd0>
    1894:	5e030530 	cfmv64hrpl	mvdx3, r0
    1898:	01000902 	tsteq	r0, r2, lsl #18
    189c:	00170501 	andseq	r0, r7, r1, lsl #10
    18a0:	00000205 	andeq	r0, r0, r5, lsl #4
    18a4:	b4030000 	strlt	r0, [r3], #-0
    18a8:	35050105 	strcc	r0, [r5, #-261]	; 0xfffffefb
    18ac:	204a0541 	subcs	r0, sl, r1, asr #10
    18b0:	054a0905 	strbeq	r0, [sl, #-2309]	; 0xfffff6fb
    18b4:	3805300f 	stmdacc	r5, {r0, r1, r2, r3, ip, sp}
    18b8:	204d0540 	subcs	r0, sp, r0, asr #10
    18bc:	054a0d05 	strbeq	r0, [sl, #-3333]	; 0xfffff2fb
    18c0:	39052f0e 	stmdbcc	r5, {r1, r2, r3, r8, r9, sl, fp, sp}
    18c4:	204e0540 	subcs	r0, lr, r0, asr #10
    18c8:	054a0d05 	strbeq	r0, [sl, #-3333]	; 0xfffff2fb
    18cc:	38052f0e 	stmdacc	r5, {r1, r2, r3, r8, r9, sl, fp, sp}
    18d0:	204d053f 	subcs	r0, sp, pc, lsr r5
    18d4:	054a0d05 	strbeq	r0, [sl, #-3333]	; 0xfffff2fb
    18d8:	38052f0e 	stmdacc	r5, {r1, r2, r3, r8, r9, sl, fp, sp}
    18dc:	204d053f 	subcs	r0, sp, pc, lsr r5
    18e0:	054a0d05 	strbeq	r0, [sl, #-3333]	; 0xfffff2fb
    18e4:	18052f0e 	stmdane	r5, {r1, r2, r3, r8, r9, sl, fp, sp}
    18e8:	4a090532 	bmi	242db8 <_E_text+0x2418cc>
    18ec:	05300b05 	ldreq	r0, [r0, #-2821]!	; 0xfffff4fb
    18f0:	09025d03 	stmdbeq	r2, {r0, r1, r8, sl, fp, ip, lr}
    18f4:	05010100 	streq	r0, [r1, #-256]	; 0xffffff00
    18f8:	02050017 	andeq	r0, r5, #23
    18fc:	00000000 	andeq	r0, r0, r0
    1900:	0105f003 	tsteq	r5, r3	; <UNPREDICTABLE>
    1904:	05413505 	strbeq	r3, [r1, #-1285]	; 0xfffffafb
    1908:	0905204a 	stmdbeq	r5, {r1, r3, r6, sp}
    190c:	300f054a 	andcc	r0, pc, sl, asr #10
    1910:	05403805 	strbeq	r3, [r0, #-2053]	; 0xfffff7fb
    1914:	0d05204d 	stceq	0, cr2, [r5, #-308]	; 0xfffffecc
    1918:	2f0e054a 	svccs	0x000e054a
    191c:	05403905 	strbeq	r3, [r0, #-2309]	; 0xfffff6fb
    1920:	0d05204e 	stceq	0, cr2, [r5, #-312]	; 0xfffffec8
    1924:	2f0e054a 	svccs	0x000e054a
    1928:	053f3805 	ldreq	r3, [pc, #-2053]!	; 112b <GPIO_WriteBitBandBits+0x6f>
    192c:	0d05204d 	stceq	0, cr2, [r5, #-308]	; 0xfffffecc
    1930:	2f0e054a 	svccs	0x000e054a
    1934:	053f3805 	ldreq	r3, [pc, #-2053]!	; 1137 <GPIO_WriteBitBandBits+0x7b>
    1938:	0d05204d 	stceq	0, cr2, [r5, #-308]	; 0xfffffecc
    193c:	2f0e054a 	svccs	0x000e054a
    1940:	05321805 	ldreq	r1, [r2, #-2053]!	; 0xfffff7fb
    1944:	0b054a09 	bleq	154170 <_E_text+0x152c84>
    1948:	5e030530 	cfmv64hrpl	mvdx3, r0
    194c:	01000902 	tsteq	r0, r2, lsl #18
    1950:	00170501 	andseq	r0, r7, r1, lsl #10
    1954:	00000205 	andeq	r0, r0, r5, lsl #4
    1958:	ad030000 	stcge	0, cr0, [r3, #-0]
    195c:	35050106 	strcc	r0, [r5, #-262]	; 0xfffffefa
    1960:	204a0541 	subcs	r0, sl, r1, asr #10
    1964:	054a0905 	strbeq	r0, [sl, #-2309]	; 0xfffff6fb
    1968:	3805300f 	stmdacc	r5, {r0, r1, r2, r3, ip, sp}
    196c:	204d0540 	subcs	r0, sp, r0, asr #10
    1970:	054a0d05 	strbeq	r0, [sl, #-3333]	; 0xfffff2fb
    1974:	39052f0e 	stmdbcc	r5, {r1, r2, r3, r8, r9, sl, fp, sp}
    1978:	204e0540 	subcs	r0, lr, r0, asr #10
    197c:	054a0d05 	strbeq	r0, [sl, #-3333]	; 0xfffff2fb
    1980:	38052f0e 	stmdacc	r5, {r1, r2, r3, r8, r9, sl, fp, sp}
    1984:	204d053f 	subcs	r0, sp, pc, lsr r5
    1988:	054a0d05 	strbeq	r0, [sl, #-3333]	; 0xfffff2fb
    198c:	38052f0e 	stmdacc	r5, {r1, r2, r3, r8, r9, sl, fp, sp}
    1990:	204d053f 	subcs	r0, sp, pc, lsr r5
    1994:	054a0d05 	strbeq	r0, [sl, #-3333]	; 0xfffff2fb
    1998:	18052f0e 	stmdane	r5, {r1, r2, r3, r8, r9, sl, fp, sp}
    199c:	4a090533 	bmi	242e70 <_E_text+0x241984>
    19a0:	05300b05 	ldreq	r0, [r0, #-2821]!	; 0xfffff4fb
    19a4:	09025c03 	stmdbeq	r2, {r0, r1, sl, fp, ip, lr}
    19a8:	05010100 	streq	r0, [r1, #-256]	; 0xffffff00
    19ac:	02050017 	andeq	r0, r5, #23
    19b0:	00000000 	andeq	r0, r0, r0
    19b4:	0106e903 	tsteq	r6, r3, lsl #18
    19b8:	05403505 	strbeq	r3, [r0, #-1285]	; 0xfffffafb
    19bc:	0905204a 	stmdbeq	r5, {r1, r3, r6, sp}
    19c0:	300f054a 	andcc	r0, pc, sl, asr #10
    19c4:	05403805 	strbeq	r3, [r0, #-2053]	; 0xfffff7fb
    19c8:	0d05204d 	stceq	0, cr2, [r5, #-308]	; 0xfffffecc
    19cc:	2f0e054a 	svccs	0x000e054a
    19d0:	05403905 	strbeq	r3, [r0, #-2309]	; 0xfffff6fb
    19d4:	0d05204e 	stceq	0, cr2, [r5, #-312]	; 0xfffffec8
    19d8:	2f0e054a 	svccs	0x000e054a
    19dc:	053f3805 	ldreq	r3, [pc, #-2053]!	; 11df <main+0x9f>
    19e0:	0d05204d 	stceq	0, cr2, [r5, #-308]	; 0xfffffecc
    19e4:	2f0e054a 	svccs	0x000e054a
    19e8:	053f3805 	ldreq	r3, [pc, #-2053]!	; 11eb <NVIC_Enable_Interrupt+0x7>
    19ec:	0d05204d 	stceq	0, cr2, [r5, #-308]	; 0xfffffecc
    19f0:	2f0e054a 	svccs	0x000e054a
    19f4:	05331805 	ldreq	r1, [r3, #-2053]!	; 0xfffff7fb
    19f8:	0b054a09 	bleq	154224 <_E_text+0x152d38>
    19fc:	5d030530 	cfstr32pl	mvfx0, [r3, #-192]	; 0xffffff40
    1a00:	01000902 	tsteq	r0, r2, lsl #18
    1a04:	00190501 	andseq	r0, r9, r1, lsl #10
    1a08:	00000205 	andeq	r0, r0, r5, lsl #4
    1a0c:	a5030000 	strge	r0, [r3, #-0]
    1a10:	37050107 	strcc	r0, [r5, -r7, lsl #2]
    1a14:	204c0540 	subcs	r0, ip, r0, asr #10
    1a18:	054a0b05 	strbeq	r0, [sl, #-2821]	; 0xfffff4fb
    1a1c:	3a053011 	bcc	14da68 <_E_text+0x14c57c>
    1a20:	204f0540 	subcs	r0, pc, r0, asr #10
    1a24:	054a0f05 	strbeq	r0, [sl, #-3845]	; 0xfffff0fb
    1a28:	3b052f10 	blcc	14d670 <_E_text+0x14c184>
    1a2c:	20500540 	subscs	r0, r0, r0, asr #10
    1a30:	054a0f05 	strbeq	r0, [sl, #-3845]	; 0xfffff0fb
    1a34:	3a052f10 	bcc	14d67c <_E_text+0x14c190>
    1a38:	204f053f 	subcs	r0, pc, pc, lsr r5	; <UNPREDICTABLE>
    1a3c:	054a0f05 	strbeq	r0, [sl, #-3845]	; 0xfffff0fb
    1a40:	3a052f10 	bcc	14d688 <_E_text+0x14c19c>
    1a44:	204f053f 	subcs	r0, pc, pc, lsr r5	; <UNPREDICTABLE>
    1a48:	054a0f05 	strbeq	r0, [sl, #-3845]	; 0xfffff0fb
    1a4c:	1a052f10 	bne	14d694 <_E_text+0x14c1a8>
    1a50:	4a0b0533 	bmi	2c2f24 <_E_text+0x2c1a38>
    1a54:	05300d05 	ldreq	r0, [r0, #-3333]!	; 0xfffff2fb
    1a58:	09025c06 	stmdbeq	r2, {r1, r2, sl, fp, ip, lr}
    1a5c:	05010100 	streq	r0, [r1, #-256]	; 0xffffff00
    1a60:	02050065 	andeq	r0, r5, #101	; 0x65
    1a64:	00000000 	andeq	r0, r0, r0
    1a68:	0107e203 	tsteq	r7, r3, lsl #4
    1a6c:	055d5c05 	ldrbeq	r5, [sp, #-3077]	; 0xfffff3fb
    1a70:	61054a6d 	tstvs	r5, sp, ror #20
    1a74:	2e5c053c 	mrccs	5, 2, r0, cr12, cr12, {1}
    1a78:	05980705 	ldreq	r0, [r8, #1797]	; 0x705
    1a7c:	1e054028 	cdpne	0, 0, cr4, cr5, cr8, {1}
    1a80:	3c43053c 	cfstr64cc	mvdx0, [r3], {60}	; 0x3c
    1a84:	0c033705 	stceq	7, cr3, [r3], {5}
    1a88:	3c2d054a 	cfstr32cc	mvfx0, [sp], #-296	; 0xfffffed8
    1a8c:	053c5e05 	ldreq	r5, [ip, #-3589]!	; 0xfffff1fb
    1a90:	3005593a 	andcc	r5, r5, sl, lsr r9
    1a94:	3c64053c 	cfstr64cc	mvdx0, [r4], #-240	; 0xffffff10
    1a98:	17035405 	strne	r5, [r3, -r5, lsl #8]
    1a9c:	2e2d0558 	mcrcs	5, 1, r0, cr13, cr8, {2}
    1aa0:	053c2305 	ldreq	r2, [ip, #-773]!	; 0xfffffcfb
    1aa4:	49053c54 	stmdbmi	r5, {r2, r4, r6, sl, fp, ip, sp}
    1aa8:	4f2d054a 	svcmi	0x002d054a
    1aac:	053c2305 	ldreq	r2, [ip, #-773]!	; 0xfffffcfb
    1ab0:	2d053c49 	stccs	12, cr3, [r5, #-292]	; 0xfffffedc
    1ab4:	3c23054b 	cfstr32cc	mvfx0, [r3], #-300	; 0xfffffed4
    1ab8:	053c4a05 	ldreq	r4, [ip, #-2565]!	; 0xfffff5fb
    1abc:	34054d5f 	strcc	r4, [r5], #-3423	; 0xfffff2a1
    1ac0:	3c2a052e 	cfstr32cc	mvfx0, [sl], #-184	; 0xffffff48
    1ac4:	053c5f05 	ldreq	r5, [ip, #-3845]!	; 0xfffff0fb
    1ac8:	28054a54 	stmdacs	r5, {r2, r4, r6, r9, fp, lr}
    1acc:	3c1e054e 	cfldr32cc	mvfx0, [lr], {78}	; 0x4e
    1ad0:	053c4305 	ldreq	r4, [ip, #-773]!	; 0xfffffcfb
    1ad4:	10024c03 	andne	r4, r2, r3, lsl #24
    1ad8:	05010100 	streq	r0, [r1, #-256]	; 0xffffff00
    1adc:	05000190 	streq	r0, [r0, #-400]	; 0xfffffe70
    1ae0:	00000002 	andeq	r0, r0, r2
    1ae4:	08bd0300 	popeq	{r8, r9}
    1ae8:	93260501 			; <UNDEFINED> instruction: 0x93260501
    1aec:	054a3505 	strbeq	r3, [sl, #-1285]	; 0xfffffafb
    1af0:	05314a09 	ldreq	r4, [r1, #-2569]!	; 0xfffff5f7
    1af4:	50053d28 	andpl	r3, r5, r8, lsr #26
    1af8:	0303054a 	movweq	r0, #13642	; 0x354a
    1afc:	0e058212 	mcreq	2, 0, r8, cr5, cr2, {0}
    1b00:	05207103 	streq	r7, [r0, #-259]!	; 0xfffffefd
    1b04:	4c053d28 	stcmi	13, cr3, [r5], {40}	; 0x28
    1b08:	0303054a 	movweq	r0, #13642	; 0x354a
    1b0c:	0e05820e 	cdpeq	2, 0, cr8, cr5, cr14, {0}
    1b10:	05207503 	streq	r7, [r0, #-1283]!	; 0xfffffafd
    1b14:	4d053d28 	stcmi	13, cr3, [r5, #-160]	; 0xffffff60
    1b18:	0303054a 	movweq	r0, #13642	; 0x354a
    1b1c:	0e05820a 	cdpeq	2, 0, cr8, cr5, cr10, {0}
    1b20:	05207903 	streq	r7, [r0, #-2307]!	; 0xfffff6fd
    1b24:	51053d28 	tstpl	r5, r8, lsr #26
    1b28:	8803054a 	stmdahi	r3, {r1, r3, r6, r8, sl}
    1b2c:	01000a02 	tsteq	r0, r2, lsl #20
    1b30:	004b0501 	subeq	r0, fp, r1, lsl #10
    1b34:	00000205 	andeq	r0, r0, r5, lsl #4
    1b38:	d9030000 	stmdble	r3, {}	; <UNPREDICTABLE>
    1b3c:	1f050108 	svcne	0x00050108
    1b40:	4a3d0568 	bmi	f430e8 <_E_text+0xf41bfc>
    1b44:	054e0d05 	strbeq	r0, [lr, #-3333]	; 0xfffff2fb
    1b48:	04020023 	streq	r0, [r2], #-35	; 0xffffffdd
    1b4c:	32052001 	andcc	r2, r5, #1
    1b50:	01040200 	mrseq	r0, R12_usr
    1b54:	000d054a 	andeq	r0, sp, sl, asr #10
    1b58:	4a010402 	bmi	42b68 <_E_text+0x4167c>
    1b5c:	05301c05 	ldreq	r1, [r0, #-3077]!	; 0xfffff3fb
    1b60:	30054a32 	andcc	r4, r5, r2, lsr sl
    1b64:	4c04052e 	cfstr32mi	mvfx0, [r4], {46}	; 0x2e
    1b68:	01000b02 	tsteq	r0, r2, lsl #22
    1b6c:	004b0501 	subeq	r0, fp, r1, lsl #10
    1b70:	00000205 	andeq	r0, r0, r5, lsl #4
    1b74:	e6030000 	str	r0, [r3], -r0
    1b78:	20050108 	andcs	r0, r5, r8, lsl #2
    1b7c:	4a3d0568 	bmi	f43124 <_E_text+0xf41c38>
    1b80:	054c0e05 	strbeq	r0, [ip, #-3589]	; 0xfffff1fb
    1b84:	04020024 	streq	r0, [r2], #-36	; 0xffffffdc
    1b88:	33052001 	movwcc	r2, #20481	; 0x5001
    1b8c:	01040200 	mrseq	r0, R12_usr
    1b90:	000e054a 	andeq	r0, lr, sl, asr #10
    1b94:	4a010402 	bmi	42ba4 <_E_text+0x416b8>
    1b98:	05303405 	ldreq	r3, [r0, #-1029]!	; 0xfffffbfb
    1b9c:	1e054a43 	vmlsne.f32	s8, s10, s6
    1ba0:	3004052e 	andcc	r0, r4, lr, lsr #10
    1ba4:	01000b02 	tsteq	r0, r2, lsl #22
    1ba8:	004d0501 	subeq	r0, sp, r1, lsl #10
    1bac:	00000205 	andeq	r0, r0, r5, lsl #4
    1bb0:	f2030000 	vhadd.s8	d0, d3, d0
    1bb4:	1f050108 	svcne	0x00050108
    1bb8:	4a3d056a 	bmi	f43168 <_E_text+0xf41c7c>
    1bbc:	054c3405 	strbeq	r3, [ip, #-1029]	; 0xfffffbfb
    1bc0:	25053c08 	strcs	r3, [r5, #-3080]	; 0xfffff3f8
    1bc4:	4a4a053e 	bmi	12830c4 <_E_text+0x1281bd8>
    1bc8:	054c1b05 	strbeq	r1, [ip, #-2821]	; 0xfffff4fb
    1bcc:	2f054a31 	svccs	0x00054a31
    1bd0:	4c04052e 	cfstr32mi	mvfx0, [r4], {46}	; 0x2e
    1bd4:	01000c02 	tsteq	r0, r2, lsl #24
    1bd8:	004d0501 	subeq	r0, sp, r1, lsl #10
    1bdc:	00000205 	andeq	r0, r0, r5, lsl #4
    1be0:	81030000 	mrshi	r0, (UNDEF: 3)
    1be4:	20050109 	andcs	r0, r5, r9, lsl #2
    1be8:	4a3d0568 	bmi	f43190 <_E_text+0xf41ca4>
    1bec:	054b3605 	strbeq	r3, [fp, #-1541]	; 0xfffff9fb
    1bf0:	26053c0a 	strcs	r3, [r5], -sl, lsl #24
    1bf4:	4a4a053d 	bmi	12830f0 <_E_text+0x1281c04>
    1bf8:	054c3505 	strbeq	r3, [ip, #-1285]	; 0xfffffafb
    1bfc:	1e054a44 	vmlsne.f32	s8, s10, s8
    1c00:	3004052e 	andcc	r0, r4, lr, lsr #10
    1c04:	01000c02 	tsteq	r0, r2, lsl #24
    1c08:	006d0501 	rsbeq	r0, sp, r1, lsl #10
    1c0c:	00000205 	andeq	r0, r0, r5, lsl #4
    1c10:	8b030000 	blhi	c1c18 <_E_text+0xc072c>
    1c14:	19050109 	stmdbne	r5, {r0, r3, r8}
    1c18:	3e0b0584 	cfsh32cc	mvfx0, mvfx11, #-60
    1c1c:	05587f05 	ldrbeq	r7, [r8, #-3845]	; 0xfffff0fb
    1c20:	49053c0b 	stmdbmi	r5, {r0, r1, r3, sl, fp, ip, sp}
    1c24:	200d054b 	andcs	r0, sp, fp, asr #10
    1c28:	05204905 	streq	r4, [r0, #-2309]!	; 0xfffff6fb
    1c2c:	28053c2e 	stmdacs	r5, {r1, r2, r3, r5, sl, fp, ip, sp}
    1c30:	4a400522 	bmi	10030c0 <_E_text+0x1001bd4>
    1c34:	055a2405 	ldrbeq	r2, [sl, #-1029]	; 0xfffffbfb
    1c38:	21054a45 	tstcs	r5, r5, asr #20
    1c3c:	4a3f054b 	bmi	fc3170 <_E_text+0xfc1c84>
    1c40:	054b1805 	strbeq	r1, [fp, #-2053]	; 0xfffff7fb
    1c44:	13023d06 	movwne	r3, #11526	; 0x2d06
    1c48:	05010100 	streq	r0, [r1, #-256]	; 0xffffff00
    1c4c:	02050033 	andeq	r0, r5, #51	; 0x33
    1c50:	00000000 	andeq	r0, r0, r0
    1c54:	01099903 	tsteq	r9, r3, lsl #18
    1c58:	09032405 	stmdbeq	r3, {r0, r2, sl, sp}
    1c5c:	4a440558 	bmi	11031c4 <_E_text+0x1101cd8>
    1c60:	054b2105 	strbeq	r2, [fp, #-261]	; 0xfffffefb
    1c64:	06054a3f 			; <UNDEFINED> instruction: 0x06054a3f
    1c68:	0009024d 	andeq	r0, r9, sp, asr #4
    1c6c:	63050101 	movwvs	r0, #20737	; 0x5101
    1c70:	00020500 	andeq	r0, r2, r0, lsl #10
    1c74:	03000000 	movweq	r0, #0
    1c78:	050109a8 	streq	r0, [r1, #-2472]	; 0xfffff658
    1c7c:	0a056818 	beq	15bce4 <_E_text+0x15a7f8>
    1c80:	5861053d 	stmdapl	r1!, {r0, r2, r3, r4, r5, r8, sl}^
    1c84:	053c0a05 	ldreq	r0, [ip, #-2565]!	; 0xfffff5fb
    1c88:	0c054b43 			; <UNDEFINED> instruction: 0x0c054b43
    1c8c:	20430520 	subcs	r0, r3, r0, lsr #10
    1c90:	053c2805 	ldreq	r2, [ip, #-2053]!	; 0xfffff7fb
    1c94:	06052118 			; <UNDEFINED> instruction: 0x06052118
    1c98:	000c023e 	andeq	r0, ip, lr, lsr r2
    1c9c:	65050101 	strvs	r0, [r5, #-257]	; 0xfffffeff
    1ca0:	00020500 	andeq	r0, r2, r0, lsl #10
    1ca4:	03000000 	movweq	r0, #0
    1ca8:	050109b1 	streq	r0, [r1, #-2481]	; 0xfffff64f
    1cac:	0a056818 	beq	15bd14 <_E_text+0x15a828>
    1cb0:	586a053d 	stmdapl	sl!, {r0, r2, r3, r4, r5, r8, sl}^
    1cb4:	053c0a05 	ldreq	r0, [ip, #-2565]!	; 0xfffff5fb
    1cb8:	0c054b4c 			; <UNDEFINED> instruction: 0x0c054b4c
    1cbc:	204c0520 	subcs	r0, ip, r0, lsr #10
    1cc0:	053c3105 	ldreq	r3, [ip, #-261]!	; 0xfffffefb
    1cc4:	06052118 			; <UNDEFINED> instruction: 0x06052118
    1cc8:	000c023e 	andeq	r0, ip, lr, lsr r2
    1ccc:	43050101 	movwmi	r0, #20737	; 0x5101
    1cd0:	00020500 	andeq	r0, r2, r0, lsl #10
    1cd4:	03000000 	movweq	r0, #0
    1cd8:	050109bc 	streq	r0, [r1, #-2492]	; 0xfffff644
    1cdc:	25056809 	strcs	r6, [r5, #-2057]	; 0xfffff7f7
    1ce0:	4a340592 	bmi	d03330 <_E_text+0xd01e44>
    1ce4:	054a0b05 	strbeq	r0, [sl, #-2821]	; 0xfffff4fb
    1ce8:	37053028 	strcc	r3, [r5, -r8, lsr #32]
    1cec:	2e12054a 	cfmac32cs	mvfx0, mvfx2, mvfx10
    1cf0:	052f0d05 	streq	r0, [pc, #-3333]!	; ff3 <GPIO_SetPinDirection+0x77>
    1cf4:	0505220e 	streq	r2, [r5, #-526]	; 0xfffffdf2
    1cf8:	023c1603 	eorseq	r1, ip, #3145728	; 0x300000
    1cfc:	01010009 	tsteq	r1, r9
    1d00:	05005e05 	streq	r5, [r0, #-3589]	; 0xfffff1fb
    1d04:	00000002 	andeq	r0, r0, r2
    1d08:	09e20300 	stmibeq	r2!, {r8, r9}^
    1d0c:	68170501 	ldmdavs	r7, {r0, r8, sl}
    1d10:	05201d05 	streq	r1, [r0, #-3333]!	; 0xfffff2fb
    1d14:	07024b05 	streq	r4, [r2, -r5, lsl #22]
    1d18:	05010100 	streq	r0, [r1, #-256]	; 0xffffff00
    1d1c:	0205005e 	andeq	r0, r5, #94	; 0x5e
    1d20:	00000000 	andeq	r0, r0, r0
    1d24:	0109e803 	tsteq	r9, r3, lsl #16
    1d28:	05681805 	strbeq	r1, [r8, #-2053]!	; 0xfffff7fb
    1d2c:	0505201e 	streq	r2, [r5, #-30]	; 0xffffffe2
    1d30:	0007024b 	andeq	r0, r7, fp, asr #4
    1d34:	5e050101 	adfpls	f0, f5, f1
    1d38:	00020500 	andeq	r0, r2, r0, lsl #10
    1d3c:	03000000 	movweq	r0, #0
    1d40:	050109ed 	streq	r0, [r1, #-2541]	; 0xfffff613
    1d44:	1e056818 	mcrne	8, 0, r6, cr5, cr8, {0}
    1d48:	4b050520 	blmi	1431d0 <_E_text+0x141ce4>
    1d4c:	01000702 	tsteq	r0, r2, lsl #14
    1d50:	005e0501 	subseq	r0, lr, r1, lsl #10
    1d54:	00000205 	andeq	r0, r0, r5, lsl #4
    1d58:	f2030000 	vhadd.s8	d0, d3, d0
    1d5c:	18050109 	stmdane	r5, {r0, r3, r8}
    1d60:	201e0568 	andscs	r0, lr, r8, ror #10
    1d64:	024b0505 	subeq	r0, fp, #20971520	; 0x1400000
    1d68:	01010007 	tsteq	r1, r7
    1d6c:	05005e05 	streq	r5, [r0, #-3589]	; 0xfffff1fb
    1d70:	00000002 	andeq	r0, r0, r2
    1d74:	09f70300 	ldmibeq	r7!, {r8, r9}^
    1d78:	68180501 	ldmdavs	r8, {r0, r8, sl}
    1d7c:	05201e05 	streq	r1, [r0, #-3589]!	; 0xfffff1fb
    1d80:	07024b05 	streq	r4, [r2, -r5, lsl #22]
    1d84:	05010100 	streq	r0, [r1, #-256]	; 0xffffff00
    1d88:	0205005e 	andeq	r0, r5, #94	; 0x5e
    1d8c:	00000000 	andeq	r0, r0, r0
    1d90:	0109fc03 	tsteq	r9, r3, lsl #24	; <UNPREDICTABLE>
    1d94:	05681805 	strbeq	r1, [r8, #-2053]!	; 0xfffff7fb
    1d98:	0505201e 	streq	r2, [r5, #-30]	; 0xffffffe2
    1d9c:	0007024c 	andeq	r0, r7, ip, asr #4
    1da0:	5e050101 	adfpls	f0, f5, f1
    1da4:	00020500 	andeq	r0, r2, r0, lsl #10
    1da8:	03000000 	movweq	r0, #0
    1dac:	05010a81 	streq	r0, [r1, #-2689]	; 0xfffff57f
    1db0:	1e056818 	mcrne	8, 0, r6, cr5, cr8, {0}
    1db4:	4c050520 	cfstr32mi	mvfx0, [r5], {32}
    1db8:	01000702 	tsteq	r0, r2, lsl #14
    1dbc:	005e0501 	subseq	r0, lr, r1, lsl #10
    1dc0:	00000205 	andeq	r0, r0, r5, lsl #4
    1dc4:	86030000 	strhi	r0, [r3], -r0
    1dc8:	1805010a 	stmdane	r5, {r1, r3, r8}
    1dcc:	201e0568 	andscs	r0, lr, r8, ror #10
    1dd0:	024c0505 	subeq	r0, ip, #20971520	; 0x1400000
    1dd4:	01010007 	tsteq	r1, r7
    1dd8:	00000045 	andeq	r0, r0, r5, asr #32
    1ddc:	003f0003 	eorseq	r0, pc, r3
    1de0:	01020000 	mrseq	r0, (UNDEF: 2)
    1de4:	000d0efb 	strdeq	r0, [sp], -fp
    1de8:	01010101 	tsteq	r1, r1, lsl #2
    1dec:	01000000 	mrseq	r0, (UNDEF: 0)
    1df0:	00010000 	andeq	r0, r1, r0
    1df4:	6474736c 	ldrbtvs	r7, [r4], #-876	; 0xfffffc94
    1df8:	0000682e 	andeq	r6, r0, lr, lsr #16
    1dfc:	41550000 	cmpmi	r5, r0
    1e00:	635f5452 	cmpvs	pc, #1375731712	; 0x52000000
    1e04:	69666e6f 	stmdbvs	r6!, {r0, r1, r2, r3, r5, r6, r9, sl, fp, sp, lr}^
    1e08:	00682e67 	rsbeq	r2, r8, r7, ror #28
    1e0c:	55000000 	strpl	r0, [r0, #-0]
    1e10:	5f545241 	svcpl	0x00545241
    1e14:	666e6f63 	strbtvs	r6, [lr], -r3, ror #30
    1e18:	632e6769 			; <UNDEFINED> instruction: 0x632e6769
    1e1c:	00000000 	andeq	r0, r0, r0
	...

Disassembly of section .debug_str:

00000000 <.debug_str>:
       0:	6e616843 	cdpvs	8, 6, cr6, cr1, cr3, {2}
       4:	496c656e 	stmdbmi	ip!, {r1, r2, r3, r5, r6, r8, sl, sp, lr}^
       8:	7265746e 	rsbvc	r7, r5, #1845493760	; 0x6e000000
       c:	74707572 	ldrbtvc	r7, [r0], #-1394	; 0xfffffa8e
      10:	74617453 	strbtvc	r7, [r1], #-1107	; 0xfffffbad
      14:	325f7375 	subscc	r7, pc, #-738197503	; 0xd4000001
      18:	61684300 	cmnvs	r8, r0, lsl #6
      1c:	6c656e6e 	stclvs	14, cr6, [r5], #-440	; 0xfffffe48
      20:	65746e49 	ldrbvs	r6, [r4, #-3657]!	; 0xfffff1b7
      24:	70757272 	rsbsvc	r7, r5, r2, ror r2
      28:	61745374 	cmnvs	r4, r4, ror r3
      2c:	5f737574 	svcpl	0x00737574
      30:	68430033 	stmdavs	r3, {r0, r1, r4, r5}^
      34:	656e6e61 	strbvs	r6, [lr, #-3681]!	; 0xfffff19f
      38:	746e496c 	strbtvc	r4, [lr], #-2412	; 0xfffff694
      3c:	75727265 	ldrbvc	r7, [r2, #-613]!	; 0xfffffd9b
      40:	74537470 	ldrbvc	r7, [r3], #-1136	; 0xfffffb90
      44:	73757461 	cmnvc	r5, #1627389952	; 0x61000000
      48:	4300345f 	movwmi	r3, #1119	; 0x45f
      4c:	6e6e6168 	powvsez	f6, f6, #0.0
      50:	6e496c65 	cdpvs	12, 4, cr6, cr9, cr5, {3}
      54:	72726574 	rsbsvc	r6, r2, #116, 10	; 0x1d000000
      58:	53747075 	cmnpl	r4, #117	; 0x75
      5c:	75746174 	ldrbvc	r6, [r4, #-372]!	; 0xfffffe8c
      60:	00355f73 	eorseq	r5, r5, r3, ror pc
      64:	6e616843 	cdpvs	8, 6, cr6, cr1, cr3, {2}
      68:	496c656e 	stmdbmi	ip!, {r1, r2, r3, r5, r6, r8, sl, sp, lr}^
      6c:	7265746e 	rsbvc	r7, r5, #1845493760	; 0x6e000000
      70:	74707572 	ldrbtvc	r7, [r0], #-1394	; 0xfffffa8e
      74:	74617453 	strbtvc	r7, [r1], #-1107	; 0xfffffbad
      78:	365f7375 			; <UNDEFINED> instruction: 0x365f7375
      7c:	61684300 	cmnvs	r8, r0, lsl #6
      80:	6c656e6e 	stclvs	14, cr6, [r5], #-440	; 0xfffffe48
      84:	65746e49 	ldrbvs	r6, [r4, #-3657]!	; 0xfffff1b7
      88:	70757272 	rsbsvc	r7, r5, r2, ror r2
      8c:	61745374 	cmnvs	r4, r4, ror r3
      90:	5f737574 	svcpl	0x00737574
      94:	68430037 	stmdavs	r3, {r0, r1, r2, r4, r5}^
      98:	656e6e61 	strbvs	r6, [lr, #-3681]!	; 0xfffff19f
      9c:	746e496c 	strbtvc	r4, [lr], #-2412	; 0xfffff694
      a0:	75727265 	ldrbvc	r7, [r2, #-613]!	; 0xfffffd9b
      a4:	74537470 	ldrbvc	r7, [r3], #-1136	; 0xfffffb90
      a8:	73757461 	cmnvc	r5, #1627389952	; 0x61000000
      ac:	4300385f 	movwmi	r3, #2143	; 0x85f
      b0:	6e6e6168 	powvsez	f6, f6, #0.0
      b4:	6e496c65 	cdpvs	12, 4, cr6, cr9, cr5, {3}
      b8:	72726574 	rsbsvc	r6, r2, #116, 10	; 0x1d000000
      bc:	53747075 	cmnpl	r4, #117	; 0x75
      c0:	75746174 	ldrbvc	r6, [r4, #-372]!	; 0xfffffe8c
      c4:	00395f73 	eorseq	r5, r9, r3, ror pc
      c8:	74726f50 	ldrbtvc	r6, [r2], #-3920	; 0xfffff0b0
      cc:	6f500044 	svcvs	0x00500044
      d0:	00457472 	subeq	r7, r5, r2, ror r4
      d4:	74726f50 	ldrbtvc	r6, [r2], #-3920	; 0xfffff0b0
      d8:	53440046 	movtpl	r0, #16454	; 0x4046
      dc:	5a495354 	bpl	1254e34 <_E_text+0x1253948>
      e0:	325f0045 	subscc	r0, pc, #69	; 0x45
      e4:	6172545f 	cmnvs	r2, pc, asr r4
      e8:	6566736e 	strbvs	r7, [r6, #-878]!	; 0xfffffc92
      ec:	45007372 	strmi	r7, [r0, #-882]	; 0xfffffc8e
      f0:	6c62616e 	stfvse	f6, [r2], #-440	; 0xfffffe48
      f4:	746e4965 	strbtvc	r4, [lr], #-2405	; 0xfffff69b
      f8:	75727265 	ldrbvc	r7, [r2, #-613]!	; 0xfffffd9b
      fc:	75007470 	strvc	r7, [r0, #-1136]	; 0xfffffb90
     100:	6f433869 	svcvs	0x00433869
     104:	6f72746e 	svcvs	0x0072746e
     108:	6261546c 	rsbvs	r5, r1, #108, 8	; 0x6c000000
     10c:	5300656c 	movwpl	r6, #1388	; 0x56c
     110:	69487465 	stmdbvs	r8, {r0, r2, r5, r6, sl, ip, sp, lr}^
     114:	72506867 	subsvc	r6, r0, #6750208	; 0x670000
     118:	69726f69 	ldmdbvs	r2!, {r0, r3, r5, r6, r8, r9, sl, fp, sp, lr}^
     11c:	68437974 	stmdavs	r3, {r2, r4, r5, r6, r8, fp, ip, sp, lr}^
     120:	656e6e61 	strbvs	r6, [lr, #-3681]!	; 0xfffff19f
     124:	6c41006c 	mcrrvs	0, 6, r0, r1, cr12
     128:	6e726574 	mrcvs	5, 3, r6, cr2, cr4, {3}
     12c:	4d657461 	cfstrdmi	mvd7, [r5, #-388]!	; 0xfffffe7c
     130:	726f6d65 	rsbvc	r6, pc, #6464	; 0x1940
     134:	61635379 	smcvs	13625	; 0x3539
     138:	72657474 	rsbvc	r7, r5, #116, 8	; 0x74000000
     13c:	68746147 	ldmdavs	r4!, {r0, r1, r2, r6, r8, sp, lr}^
     140:	45007265 	strmi	r7, [r0, #-613]	; 0xfffffd9b
     144:	6c62616e 	stfvse	f6, [r2], #-440	; 0xfffffe48
     148:	666f5365 	strbtvs	r5, [pc], -r5, ror #6
     14c:	72617774 	rsbvc	r7, r1, #116, 14	; 0x1d00000
     150:	71655265 	cmnvc	r5, r5, ror #4
     154:	74736575 	ldrbtvc	r6, [r3], #-1397	; 0xfffffa8b
     158:	71655200 	cmnvc	r5, r0, lsl #4
     15c:	74736575 	ldrbtvc	r6, [r3], #-1397	; 0xfffffa8b
     160:	65646f4d 	strbvs	r6, [r4, #-3917]!	; 0xfffff0b3
     164:	414d4400 	cmpmi	sp, r0, lsl #8
     168:	6168435f 	cmnvs	r8, pc, asr r3
     16c:	6c656e6e 	stclvs	14, cr6, [r5], #-440	; 0xfffffe48
     170:	746e6f43 	strbtvc	r6, [lr], #-3907	; 0xfffff0bd
     174:	536c6f72 	cmnpl	ip, #456	; 0x1c8
     178:	63757274 	cmnvs	r5, #116, 4	; 0x40000007
     17c:	65727574 	ldrbvs	r7, [r2, #-1396]!	; 0xfffffa8c
     180:	00746553 	rsbseq	r6, r4, r3, asr r5
     184:	5f414d44 	svcpl	0x00414d44
     188:	6e616843 	cdpvs	8, 6, cr6, cr1, cr3, {2}
     18c:	416c656e 	cmnmi	ip, lr, ror #10
     190:	7265746c 	rsbvc	r7, r5, #108, 8	; 0x6c000000
     194:	6574616e 	ldrbvs	r6, [r4, #-366]!	; 0xfffffe92
     198:	746e6f43 	strbtvc	r6, [lr], #-3907	; 0xfffff0bd
     19c:	536c6f72 	cmnpl	ip, #456	; 0x1c8
     1a0:	63757274 	cmnvs	r5, #116, 4	; 0x40000007
     1a4:	65727574 	ldrbvs	r7, [r2, #-1396]!	; 0xfffffa8c
     1a8:	00746553 	rsbseq	r6, r4, r3, asr r5
     1ac:	20554e47 	subscs	r4, r5, r7, asr #28
     1b0:	20373143 	eorscs	r3, r7, r3, asr #2
     1b4:	332e3031 			; <UNDEFINED> instruction: 0x332e3031
     1b8:	3220312e 	eorcc	r3, r0, #-2147483637	; 0x8000000b
     1bc:	30313230 	eorscc	r3, r1, r0, lsr r2
     1c0:	20343238 	eorscs	r3, r4, r8, lsr r2
     1c4:	6c657228 	sfmvs	f7, 2, [r5], #-160	; 0xffffff60
     1c8:	65736165 	ldrbvs	r6, [r3, #-357]!	; 0xfffffe9b
     1cc:	6d2d2029 	stcvs	0, cr2, [sp, #-164]!	; 0xffffff5c
     1d0:	3d757063 	ldclcc	0, cr7, [r5, #-396]!	; 0xfffffe74
     1d4:	74726f63 	ldrbtvc	r6, [r2], #-3939	; 0xfffff09d
     1d8:	6d2d7865 	stcvs	8, cr7, [sp, #-404]!	; 0xfffffe6c
     1dc:	6d2d2034 	stcvs	0, cr2, [sp, #-208]!	; 0xffffff30
     1e0:	616f6c66 	cmnvs	pc, r6, ror #24
     1e4:	62612d74 	rsbvs	r2, r1, #116, 26	; 0x1d00
     1e8:	6f733d69 	svcvs	0x00733d69
     1ec:	2d207466 	cfstrscs	mvf7, [r0, #-408]!	; 0xfffffe68
     1f0:	7568746d 	strbvc	r7, [r8, #-1133]!	; 0xfffffb93
     1f4:	2d20626d 	sfmcs	f6, 4, [r0, #-436]!	; 0xfffffe4c
     1f8:	6372616d 	cmnvs	r2, #1073741851	; 0x4000001b
     1fc:	72613d68 	rsbvc	r3, r1, #104, 26	; 0x1a00
     200:	6537766d 	ldrvs	r7, [r7, #-1645]!	; 0xfffff993
     204:	2d206d2d 	stccs	13, cr6, [r0, #-180]!	; 0xffffff4c
     208:	61776467 	cmnvs	r7, r7, ror #8
     20c:	322d6672 	eorcc	r6, sp, #119537664	; 0x7200000
     210:	20672d20 	rsbcs	r2, r7, r0, lsr #26
     214:	20304f2d 	eorscs	r4, r0, sp, lsr #30
     218:	7566662d 	strbvc	r6, [r6, #-1581]!	; 0xfffff9d3
     21c:	6974636e 	ldmdbvs	r4!, {r1, r2, r3, r5, r6, r8, r9, sp, lr}^
     220:	732d6e6f 			; <UNDEFINED> instruction: 0x732d6e6f
     224:	69746365 	ldmdbvs	r4!, {r0, r2, r5, r6, r8, r9, sp, lr}^
     228:	20736e6f 	rsbscs	r6, r3, pc, ror #28
     22c:	6164662d 	cmnvs	r4, sp, lsr #12
     230:	732d6174 			; <UNDEFINED> instruction: 0x732d6174
     234:	69746365 	ldmdbvs	r4!, {r0, r2, r5, r6, r8, r9, sp, lr}^
     238:	00736e6f 	rsbseq	r6, r3, pc, ror #28
     23c:	6e496f4e 	cdpvs	15, 4, cr6, cr9, cr14, {2}
     240:	6d657263 	sfmvs	f7, 2, [r5, #-396]!	; 0xfffffe74
     244:	5f746e65 	svcpl	0x00746e65
     248:	49637273 	stmdbmi	r3!, {r0, r1, r4, r5, r6, r9, ip, sp, lr}^
     24c:	4300636e 	movwmi	r6, #878	; 0x36e
     250:	6e6e6168 	powvsez	f6, f6, #0.0
     254:	6e496c65 	cdpvs	12, 4, cr6, cr9, cr5, {3}
     258:	72726574 	rsbsvc	r6, r2, #116, 10	; 0x1d000000
     25c:	53747075 	cmnpl	r4, #117	; 0x75
     260:	75746174 	ldrbvc	r6, [r4, #-372]!	; 0xfffffe8c
     264:	30315f73 	eorscc	r5, r1, r3, ror pc
     268:	61684300 	cmnvs	r8, r0, lsl #6
     26c:	6c656e6e 	stclvs	14, cr6, [r5], #-440	; 0xfffffe48
     270:	65746e49 	ldrbvs	r6, [r4, #-3657]!	; 0xfffff1b7
     274:	70757272 	rsbsvc	r7, r5, r2, ror r2
     278:	61745374 	cmnvs	r4, r4, ror r3
     27c:	5f737574 	svcpl	0x00737574
     280:	43003131 	movwmi	r3, #305	; 0x131
     284:	6e6e6168 	powvsez	f6, f6, #0.0
     288:	6e496c65 	cdpvs	12, 4, cr6, cr9, cr5, {3}
     28c:	72726574 	rsbsvc	r6, r2, #116, 10	; 0x1d000000
     290:	53747075 	cmnpl	r4, #117	; 0x75
     294:	75746174 	ldrbvc	r6, [r4, #-372]!	; 0xfffffe8c
     298:	32315f73 	eorscc	r5, r1, #460	; 0x1cc
     29c:	61684300 	cmnvs	r8, r0, lsl #6
     2a0:	6c656e6e 	stclvs	14, cr6, [r5], #-440	; 0xfffffe48
     2a4:	65746e49 	ldrbvs	r6, [r4, #-3657]!	; 0xfffff1b7
     2a8:	70757272 	rsbsvc	r7, r5, r2, ror r2
     2ac:	61745374 	cmnvs	r4, r4, ror r3
     2b0:	5f737574 	svcpl	0x00737574
     2b4:	43003331 	movwmi	r3, #817	; 0x331
     2b8:	6e6e6168 	powvsez	f6, f6, #0.0
     2bc:	6e496c65 	cdpvs	12, 4, cr6, cr9, cr5, {3}
     2c0:	72726574 	rsbsvc	r6, r2, #116, 10	; 0x1d000000
     2c4:	53747075 	cmnpl	r4, #117	; 0x75
     2c8:	75746174 	ldrbvc	r6, [r4, #-372]!	; 0xfffffe8c
     2cc:	34315f73 	ldrtcc	r5, [r1], #-3955	; 0xfffff08d
     2d0:	61684300 	cmnvs	r8, r0, lsl #6
     2d4:	6c656e6e 	stclvs	14, cr6, [r5], #-440	; 0xfffffe48
     2d8:	65746e49 	ldrbvs	r6, [r4, #-3657]!	; 0xfffff1b7
     2dc:	70757272 	rsbsvc	r7, r5, r2, ror r2
     2e0:	61745374 	cmnvs	r4, r4, ror r3
     2e4:	5f737574 	svcpl	0x00737574
     2e8:	43003531 	movwmi	r3, #1329	; 0x531
     2ec:	6e6e6168 	powvsez	f6, f6, #0.0
     2f0:	6e496c65 	cdpvs	12, 4, cr6, cr9, cr5, {3}
     2f4:	72726574 	rsbsvc	r6, r2, #116, 10	; 0x1d000000
     2f8:	53747075 	cmnpl	r4, #117	; 0x75
     2fc:	75746174 	ldrbvc	r6, [r4, #-372]!	; 0xfffffe8c
     300:	36315f73 	shsub16cc	r5, r1, r3
     304:	61684300 	cmnvs	r8, r0, lsl #6
     308:	6c656e6e 	stclvs	14, cr6, [r5], #-440	; 0xfffffe48
     30c:	65746e49 	ldrbvs	r6, [r4, #-3657]!	; 0xfffff1b7
     310:	70757272 	rsbsvc	r7, r5, r2, ror r2
     314:	61745374 	cmnvs	r4, r4, ror r3
     318:	5f737574 	svcpl	0x00737574
     31c:	43003731 	movwmi	r3, #1841	; 0x731
     320:	6e6e6168 	powvsez	f6, f6, #0.0
     324:	6e496c65 	cdpvs	12, 4, cr6, cr9, cr5, {3}
     328:	72726574 	rsbsvc	r6, r2, #116, 10	; 0x1d000000
     32c:	53747075 	cmnpl	r4, #117	; 0x75
     330:	75746174 	ldrbvc	r6, [r4, #-372]!	; 0xfffffe8c
     334:	38315f73 	ldmdacc	r1!, {r0, r1, r4, r5, r6, r8, r9, sl, fp, ip, lr}
     338:	61684300 	cmnvs	r8, r0, lsl #6
     33c:	6c656e6e 	stclvs	14, cr6, [r5], #-440	; 0xfffffe48
     340:	65746e49 	ldrbvs	r6, [r4, #-3657]!	; 0xfffff1b7
     344:	70757272 	rsbsvc	r7, r5, r2, ror r2
     348:	61745374 	cmnvs	r4, r4, ror r3
     34c:	5f737574 	svcpl	0x00737574
     350:	44003931 	strmi	r3, [r0], #-2353	; 0xfffff6cf
     354:	6f43414d 	svcvs	0x0043414d
     358:	6769666e 	strbvs	r6, [r9, -lr, ror #12]!
     35c:	50657275 	rsbpl	r7, r5, r5, ror r2
     360:	436f6972 	cmnmi	pc, #1867776	; 0x1c8000
     364:	6e6e6168 	powvsez	f6, f6, #0.0
     368:	745f6c65 	ldrbvc	r6, [pc], #-3173	; 370 <GPIO_InterruptEvent_Registers+0xc>
     36c:	73694400 	cmnvc	r9, #0, 8
     370:	656c6261 	strbvs	r6, [ip, #-609]!	; 0xfffffd9f
     374:	74666f53 	strbtvc	r6, [r6], #-3923	; 0xfffff0ad
     378:	65726177 	ldrbvs	r6, [r2, #-375]!	; 0xfffffe89
     37c:	75716552 	ldrbvc	r6, [r1, #-1362]!	; 0xfffffaae
     380:	00747365 	rsbseq	r7, r4, r5, ror #6
     384:	74616353 	strbtvc	r6, [r1], #-851	; 0xfffffcad
     388:	47726574 			; <UNDEFINED> instruction: 0x47726574
     38c:	65687461 	strbvs	r7, [r8, #-1121]!	; 0xfffffb9f
     390:	616c4672 	smcvs	50274	; 0xc462
     394:	4d440067 	stclmi	0, cr0, [r4, #-412]	; 0xfffffe64
     398:	65525f41 	ldrbvs	r5, [r2, #-3905]	; 0xfffff0bf
     39c:	74736967 	ldrbtvc	r6, [r3], #-2407	; 0xfffff699
     3a0:	61437265 	cmpvs	r3, r5, ror #4
     3a4:	61626c6c 	cmnvs	r2, ip, ror #24
     3a8:	75466b63 	strbvc	r6, [r6, #-2915]	; 0xfffff49d
     3ac:	6974636e 	ldmdbvs	r4!, {r1, r2, r3, r5, r6, r8, r9, sp, lr}^
     3b0:	535f6e6f 	cmppl	pc, #1776	; 0x6f0
     3b4:	7774666f 	ldrbvc	r6, [r4, -pc, ror #12]!
     3b8:	54657261 	strbtpl	r7, [r5], #-609	; 0xfffffd9f
     3bc:	736e6172 	cmnvc	lr, #-2147483620	; 0x8000001c
     3c0:	00726566 	rsbseq	r6, r2, r6, ror #10
     3c4:	53425241 	movtpl	r5, #8769	; 0x2241
     3c8:	00455a49 	subeq	r5, r5, r9, asr #20
     3cc:	74736544 	ldrbtvc	r6, [r3], #-1348	; 0xfffffabc
     3d0:	72646441 	rsbvc	r6, r4, #1090519040	; 0x41000000
     3d4:	49737365 	ldmdbmi	r3!, {r0, r2, r5, r6, r8, r9, ip, sp, lr}^
     3d8:	6572636e 	ldrbvs	r6, [r2, #-878]!	; 0xfffffc92
     3dc:	746e656d 	strbtvc	r6, [lr], #-1389	; 0xfffffa93
     3e0:	6e6f4300 	cdpvs	3, 6, cr4, cr15, cr0, {0}
     3e4:	6c6f7274 	sfmvs	f7, 2, [pc], #-464	; 21c <AlternateDMA_ChannelControlWordRegisters>
     3e8:	64726f57 	ldrbtvs	r6, [r2], #-3927	; 0xfffff0a9
     3ec:	61725400 	cmnvs	r2, r0, lsl #8
     3f0:	6566736e 	strbvs	r7, [r6, #-878]!	; 0xfffffc92
     3f4:	7a695372 	bvc	1a551c4 <_E_text+0x1a53cd8>
     3f8:	68430065 	stmdavs	r3, {r0, r2, r5, r6}^
     3fc:	656e6e61 	strbvs	r6, [lr, #-3681]!	; 0xfffff19f
     400:	746e496c 	strbtvc	r4, [lr], #-2412	; 0xfffff694
     404:	75727265 	ldrbvc	r7, [r2, #-613]!	; 0xfffffd9b
     408:	74537470 	ldrbvc	r7, [r3], #-1136	; 0xfffffb90
     40c:	73757461 	cmnvc	r5, #1627389952	; 0x61000000
     410:	0030325f 	eorseq	r3, r0, pc, asr r2
     414:	6e616843 	cdpvs	8, 6, cr6, cr1, cr3, {2}
     418:	496c656e 	stmdbmi	ip!, {r1, r2, r3, r5, r6, r8, sl, sp, lr}^
     41c:	7265746e 	rsbvc	r7, r5, #1845493760	; 0x6e000000
     420:	74707572 	ldrbtvc	r7, [r0], #-1394	; 0xfffffa8e
     424:	74617453 	strbtvc	r7, [r1], #-1107	; 0xfffffbad
     428:	325f7375 	subscc	r7, pc, #-738197503	; 0xd4000001
     42c:	68430031 	stmdavs	r3, {r0, r4, r5}^
     430:	656e6e61 	strbvs	r6, [lr, #-3681]!	; 0xfffff19f
     434:	746e496c 	strbtvc	r4, [lr], #-2412	; 0xfffff694
     438:	75727265 	ldrbvc	r7, [r2, #-613]!	; 0xfffffd9b
     43c:	74537470 	ldrbvc	r7, [r3], #-1136	; 0xfffffb90
     440:	73757461 	cmnvc	r5, #1627389952	; 0x61000000
     444:	0032325f 	eorseq	r3, r2, pc, asr r2
     448:	6e616843 	cdpvs	8, 6, cr6, cr1, cr3, {2}
     44c:	496c656e 	stmdbmi	ip!, {r1, r2, r3, r5, r6, r8, sl, sp, lr}^
     450:	7265746e 	rsbvc	r7, r5, #1845493760	; 0x6e000000
     454:	74707572 	ldrbtvc	r7, [r0], #-1394	; 0xfffffa8e
     458:	74617453 	strbtvc	r7, [r1], #-1107	; 0xfffffbad
     45c:	325f7375 	subscc	r7, pc, #-738197503	; 0xd4000001
     460:	68430033 	stmdavs	r3, {r0, r1, r4, r5}^
     464:	656e6e61 	strbvs	r6, [lr, #-3681]!	; 0xfffff19f
     468:	746e496c 	strbtvc	r4, [lr], #-2412	; 0xfffff694
     46c:	75727265 	ldrbvc	r7, [r2, #-613]!	; 0xfffffd9b
     470:	74537470 	ldrbvc	r7, [r3], #-1136	; 0xfffffb90
     474:	73757461 	cmnvc	r5, #1627389952	; 0x61000000
     478:	0034325f 	eorseq	r3, r4, pc, asr r2
     47c:	6e616843 	cdpvs	8, 6, cr6, cr1, cr3, {2}
     480:	496c656e 	stmdbmi	ip!, {r1, r2, r3, r5, r6, r8, sl, sp, lr}^
     484:	7265746e 	rsbvc	r7, r5, #1845493760	; 0x6e000000
     488:	74707572 	ldrbtvc	r7, [r0], #-1394	; 0xfffffa8e
     48c:	74617453 	strbtvc	r7, [r1], #-1107	; 0xfffffbad
     490:	325f7375 	subscc	r7, pc, #-738197503	; 0xd4000001
     494:	68430035 	stmdavs	r3, {r0, r2, r4, r5}^
     498:	656e6e61 	strbvs	r6, [lr, #-3681]!	; 0xfffff19f
     49c:	746e496c 	strbtvc	r4, [lr], #-2412	; 0xfffff694
     4a0:	75727265 	ldrbvc	r7, [r2, #-613]!	; 0xfffffd9b
     4a4:	74537470 	ldrbvc	r7, [r3], #-1136	; 0xfffffb90
     4a8:	73757461 	cmnvc	r5, #1627389952	; 0x61000000
     4ac:	0036325f 	eorseq	r3, r6, pc, asr r2
     4b0:	6e616843 	cdpvs	8, 6, cr6, cr1, cr3, {2}
     4b4:	496c656e 	stmdbmi	ip!, {r1, r2, r3, r5, r6, r8, sl, sp, lr}^
     4b8:	7265746e 	rsbvc	r7, r5, #1845493760	; 0x6e000000
     4bc:	74707572 	ldrbtvc	r7, [r0], #-1394	; 0xfffffa8e
     4c0:	74617453 	strbtvc	r7, [r1], #-1107	; 0xfffffbad
     4c4:	325f7375 	subscc	r7, pc, #-738197503	; 0xd4000001
     4c8:	68430037 	stmdavs	r3, {r0, r1, r2, r4, r5}^
     4cc:	656e6e61 	strbvs	r6, [lr, #-3681]!	; 0xfffff19f
     4d0:	746e496c 	strbtvc	r4, [lr], #-2412	; 0xfffff694
     4d4:	75727265 	ldrbvc	r7, [r2, #-613]!	; 0xfffffd9b
     4d8:	74537470 	ldrbvc	r7, [r3], #-1136	; 0xfffffb90
     4dc:	73757461 	cmnvc	r5, #1627389952	; 0x61000000
     4e0:	0038325f 	eorseq	r3, r8, pc, asr r2
     4e4:	6e616843 	cdpvs	8, 6, cr6, cr1, cr3, {2}
     4e8:	496c656e 	stmdbmi	ip!, {r1, r2, r3, r5, r6, r8, sl, sp, lr}^
     4ec:	7265746e 	rsbvc	r7, r5, #1845493760	; 0x6e000000
     4f0:	74707572 	ldrbtvc	r7, [r0], #-1394	; 0xfffffa8e
     4f4:	74617453 	strbtvc	r7, [r1], #-1107	; 0xfffffbad
     4f8:	325f7375 	subscc	r7, pc, #-738197503	; 0xd4000001
     4fc:	65440039 	strbvs	r0, [r4, #-57]	; 0xffffffc7
     500:	64417473 	strbvs	r7, [r1], #-1139	; 0xfffffb8d
     504:	73657264 	cmnvc	r5, #100, 4	; 0x40000006
     508:	6c660073 	stclvs	0, cr0, [r6], #-460	; 0xfffffe34
     50c:	0074616f 	rsbseq	r6, r4, pc, ror #2
     510:	5f414d44 	svcpl	0x00414d44
     514:	65746e49 	ldrbvs	r6, [r4, #-3657]!	; 0xfffff1b7
     518:	70757272 	rsbsvc	r7, r5, r2, ror r2
     51c:	616c4674 	smcvs	50276	; 0xc464
     520:	6f6c0067 	svcvs	0x006c0067
     524:	6c20676e 	stcvs	7, cr6, [r0], #-440	; 0xfffffe48
     528:	20676e6f 	rsbcs	r6, r7, pc, ror #28
     52c:	69736e75 	ldmdbvs	r3!, {r0, r2, r4, r5, r6, r9, sl, fp, sp, lr}^
     530:	64656e67 	strbtvs	r6, [r5], #-3687	; 0xfffff199
     534:	746e6920 	strbtvc	r6, [lr], #-2336	; 0xfffff6e0
     538:	52415500 	subpl	r5, r1, #0, 10
     53c:	414d4454 	cmpmi	sp, r4, asr r4
     540:	4678545f 			; <UNDEFINED> instruction: 0x4678545f
     544:	0067616c 	rsbeq	r6, r7, ip, ror #2
     548:	5f414d44 	svcpl	0x00414d44
     54c:	65746e49 	ldrbvs	r6, [r4, #-3657]!	; 0xfffff1b7
     550:	70757272 	rsbsvc	r7, r5, r2, ror r2
     554:	61745374 	cmnvs	r4, r4, ror r3
     558:	00737574 	rsbseq	r7, r3, r4, ror r5
     55c:	6e616843 	cdpvs	8, 6, cr6, cr1, cr3, {2}
     560:	496c656e 	stmdbmi	ip!, {r1, r2, r3, r5, r6, r8, sl, sp, lr}^
     564:	7265746e 	rsbvc	r7, r5, #1845493760	; 0x6e000000
     568:	74707572 	ldrbtvc	r7, [r0], #-1394	; 0xfffffa8e
     56c:	74617453 	strbtvc	r7, [r1], #-1107	; 0xfffffbad
     570:	335f7375 	cmpcc	pc, #-738197503	; 0xd4000001
     574:	68430030 	stmdavs	r3, {r4, r5}^
     578:	656e6e61 	strbvs	r6, [lr, #-3681]!	; 0xfffff19f
     57c:	746e496c 	strbtvc	r4, [lr], #-2412	; 0xfffff694
     580:	75727265 	ldrbvc	r7, [r2, #-613]!	; 0xfffffd9b
     584:	74537470 	ldrbvc	r7, [r3], #-1136	; 0xfffffb90
     588:	73757461 	cmnvc	r5, #1627389952	; 0x61000000
     58c:	0031335f 	eorseq	r3, r1, pc, asr r3
     590:	5f414d44 	svcpl	0x00414d44
     594:	6e616843 	cdpvs	8, 6, cr6, cr1, cr3, {2}
     598:	4e6c656e 	cdpmi	5, 6, cr6, cr12, cr14, {3}
     59c:	50006d75 	andpl	r6, r0, r5, ror sp
     5a0:	50676e69 	rsbpl	r6, r7, r9, ror #28
     5a4:	00676e6f 	rsbeq	r6, r7, pc, ror #28
     5a8:	6e696f50 	mcrvs	15, 3, r6, cr9, cr0, {2}
     5ac:	5f726574 	svcpl	0x00726574
     5b0:	45747344 	ldrbmi	r7, [r4, #-836]!	; 0xfffffcbc
     5b4:	6441646e 	strbvs	r6, [r1], #-1134	; 0xfffffb92
     5b8:	52007264 	andpl	r7, r0, #100, 4	; 0x40000006
     5bc:	44434743 	strbmi	r4, [r3], #-1859	; 0xfffff8bd
     5c0:	525f414d 	subspl	r4, pc, #1073741843	; 0x40000013
     5c4:	41006765 	tstmi	r0, r5, ror #14
     5c8:	7265746c 	rsbvc	r7, r5, #108, 8	; 0x6c000000
     5cc:	6574616e 	ldrbvs	r6, [r4, #-366]!	; 0xfffffe92
     5d0:	5f414d44 	svcpl	0x00414d44
     5d4:	6e616843 	cdpvs	8, 6, cr6, cr1, cr3, {2}
     5d8:	436c656e 	cmnmi	ip, #461373440	; 0x1b800000
     5dc:	72746e6f 	rsbsvc	r6, r4, #1776	; 0x6f0
     5e0:	6f576c6f 	svcvs	0x00576c6f
     5e4:	65526472 	ldrbvs	r6, [r2, #-1138]	; 0xfffffb8e
     5e8:	74736967 	ldrbtvc	r6, [r3], #-2407	; 0xfffff699
     5ec:	00737265 	rsbseq	r7, r3, r5, ror #4
     5f0:	5554584e 	ldrbpl	r5, [r4, #-2126]	; 0xfffff7b2
     5f4:	55424553 	strbpl	r4, [r2, #-1363]	; 0xfffffaad
     5f8:	00545352 	subseq	r5, r4, r2, asr r3
     5fc:	43414d44 	movtmi	r4, #7492	; 0x1d44
     600:	4c544348 	mrrcmi	3, 4, r4, r4, cr8	; <UNPREDICTABLE>
     604:	6765525f 			; <UNDEFINED> instruction: 0x6765525f
     608:	5f745000 	svcpl	0x00745000
     60c:	43414d44 	movtmi	r4, #7492	; 0x1d44
     610:	6e6e6168 	powvsez	f6, f6, #0.0
     614:	30336c65 	eorscc	r6, r3, r5, ror #24
     618:	6d654d5f 	stclvs	13, cr4, [r5, #-380]!	; 0xfffffe84
     61c:	654d6f54 	strbvs	r6, [sp, #-3924]	; 0xfffff0ac
     620:	7942006d 	stmdbvc	r2, {r0, r2, r3, r5, r6}^
     624:	735f6574 	cmpvc	pc, #116, 10	; 0x1d000000
     628:	6e496372 	mcrvs	3, 2, r6, cr9, cr2, {3}
     62c:	754f0063 	strbvc	r0, [pc, #-99]	; 5d1 <GPTM_Control+0x5>
     630:	74757074 	ldrbtvc	r7, [r5], #-116	; 0xffffff8c
     634:	00776f4c 	rsbseq	r6, r7, ip, asr #30
     638:	5f414d44 	svcpl	0x00414d44
     63c:	666e6f43 	strbtvs	r6, [lr], -r3, asr #30
     640:	72416769 	subvc	r6, r1, #27525120	; 0x1a40000
     644:	53746962 	cmnpl	r4, #1605632	; 0x188000
     648:	5f657a69 	svcpl	0x00657a69
     64c:	4d440074 	stclmi	0, cr0, [r4, #-464]	; 0xfffffe30
     650:	68435f41 	stmdavs	r3, {r0, r6, r8, r9, sl, fp, ip, lr}^
     654:	656e6e61 	strbvs	r6, [lr, #-3681]!	; 0xfffff19f
     658:	70614d6c 	rsbvc	r4, r1, ip, ror #26
     65c:	656c6553 	strbvs	r6, [ip, #-1363]!	; 0xfffffaad
     660:	65527463 	ldrbvs	r7, [r2, #-1123]	; 0xfffffb9d
     664:	74736967 	ldrbtvc	r6, [r3], #-2407	; 0xfffff699
     668:	00737265 	rsbseq	r7, r3, r5, ror #4
     66c:	5f414d44 	svcpl	0x00414d44
     670:	666e6f43 	strbtvs	r6, [lr], -r3, asr #30
     674:	72756769 	rsbsvc	r6, r5, #27525120	; 0x1a40000
     678:	6f697461 	svcvs	0x00697461
     67c:	6168436e 	cmnvs	r8, lr, ror #6
     680:	6c656e6e 	stclvs	14, cr6, [r5], #-440	; 0xfffffe48
     684:	5000745f 	andpl	r7, r0, pc, asr r4
     688:	746e696f 	strbtvc	r6, [lr], #-2415	; 0xfffff691
     68c:	535f7265 	cmppl	pc, #1342177286	; 0x50000006
     690:	6e456372 	mcrvs	3, 2, r6, cr5, cr2, {3}
     694:	64644164 	strbtvs	r4, [r4], #-356	; 0xfffffe9c
     698:	53440072 	movtpl	r0, #16498	; 0x4072
     69c:	434e4954 	movtmi	r4, #59732	; 0xe954
     6a0:	414d4400 	cmpmi	sp, r0, lsl #8
     6a4:	6e6f435f 	mcrvs	3, 3, r4, cr15, cr15, {2}
     6a8:	75676966 	strbvc	r6, [r7, #-2406]!	; 0xfffff69a
     6ac:	65506572 	ldrbvs	r6, [r0, #-1394]	; 0xfffffa8e
     6b0:	68706972 	ldmdavs	r0!, {r1, r4, r5, r6, r8, fp, sp, lr}^
     6b4:	6c617265 	sfmvs	f7, 2, [r1], #-404	; 0xfffffe6c
     6b8:	65746e49 	ldrbvs	r6, [r4, #-3657]!	; 0xfffff1b7
     6bc:	70757272 	rsbsvc	r7, r5, r2, ror r2
     6c0:	4d440074 	stclmi	0, cr0, [r4, #-464]	; 0xfffffe30
     6c4:	654d5f41 	strbvs	r5, [sp, #-3905]	; 0xfffff0bf
     6c8:	79726f6d 	ldmdbvc	r2!, {r0, r2, r3, r5, r6, r8, r9, sl, fp, sp, lr}^
     6cc:	654d6f54 	strbvs	r6, [sp, #-3924]	; 0xfffff0ac
     6d0:	79726f6d 	ldmdbvc	r2!, {r0, r2, r3, r5, r6, r8, r9, sl, fp, sp, lr}^
     6d4:	6172545f 	cmnvs	r2, pc, asr r4
     6d8:	6566736e 	strbvs	r7, [r6, #-878]!	; 0xfffffc92
     6dc:	4d440072 	stclmi	0, cr0, [r4, #-456]	; 0xfffffe38
     6e0:	6f435f41 	svcvs	0x00435f41
     6e4:	6769666e 	strbvs	r6, [r9, -lr, ror #12]!
     6e8:	43657275 	cmnmi	r5, #1342177287	; 0x50000007
     6ec:	6e6e6168 	powvsez	f6, f6, #0.0
     6f0:	52736c65 	rsbspl	r6, r3, #25856	; 0x6500
     6f4:	65757165 	ldrbvs	r7, [r5, #-357]!	; 0xfffffe9b
     6f8:	00737473 	rsbseq	r7, r3, r3, ror r4
     6fc:	5f414d44 	svcpl	0x00414d44
     700:	74666f53 	strbtvc	r6, [r6], #-3923	; 0xfffff0ad
     704:	65726177 	ldrbvs	r6, [r2, #-375]!	; 0xfffffe89
     708:	75716552 	ldrbvc	r6, [r1, #-1362]!	; 0xfffffaae
     70c:	4d747365 	ldclmi	3, cr7, [r4, #-404]!	; 0xfffffe6c
     710:	5f65646f 	svcpl	0x0065646f
     714:	4d440074 	stclmi	0, cr0, [r4, #-464]	; 0xfffffe30
     718:	68435f41 	stmdavs	r3, {r0, r6, r8, r9, sl, fp, ip, lr}^
     71c:	656e6e61 	strbvs	r6, [lr, #-3681]!	; 0xfffff19f
     720:	7265506c 	rsbvc	r5, r5, #108	; 0x6c
     724:	65687069 	strbvs	r7, [r8, #-105]!	; 0xffffff97
     728:	536c6172 	cmnpl	ip, #-2147483620	; 0x8000001c
     72c:	74746163 	ldrbtvc	r6, [r4], #-355	; 0xfffffe9d
     730:	61477265 	cmpvs	r7, r5, ror #4
     734:	72656874 	rsbvc	r6, r5, #116, 16	; 0x740000
     738:	00746553 	rsbseq	r6, r4, r3, asr r5
     73c:	5f34365f 	svcpl	0x0034365f
     740:	6e617254 	mcrvs	2, 3, r7, cr1, cr4, {2}
     744:	72656673 	rsbvc	r6, r5, #120586240	; 0x7300000
     748:	6e550073 	mrcvs	0, 2, r0, cr5, cr3, {3}
     74c:	64657375 	strbtvs	r7, [r5], #-885	; 0xfffffc8b
     750:	414d4400 	cmpmi	sp, r0, lsl #8
     754:	616e455f 	cmnvs	lr, pc, asr r5
     758:	43656c62 	cmnmi	r5, #25088	; 0x6200
     75c:	6e6e6168 	powvsez	f6, f6, #0.0
     760:	74416c65 	strbvc	r6, [r1], #-3173	; 0xfffff39b
     764:	62697274 	rsbvs	r7, r9, #116, 4	; 0x40000007
     768:	73657475 	cmnvc	r5, #1962934272	; 0x75000000
     76c:	636e4500 	cmnvs	lr, #0, 10
     770:	6e69646f 	cdpvs	4, 6, cr6, cr9, cr15, {3}
     774:	6d754e67 	ldclvs	14, cr4, [r5, #-412]!	; 0xfffffe64
     778:	4100335f 	tstmi	r0, pc, asr r3
     77c:	7265746c 	rsbvc	r7, r5, #108, 8	; 0x6c000000
     780:	6574616e 	ldrbvs	r6, [r4, #-366]!	; 0xfffffe92
     784:	69726550 	ldmdbvs	r2!, {r4, r6, r8, sl, sp, lr}^
     788:	72656870 	rsbvc	r6, r5, #112, 16	; 0x700000
     78c:	63536c61 	cmpvs	r3, #24832	; 0x6100
     790:	65747461 	ldrbvs	r7, [r4, #-1121]!	; 0xfffffb9f
     794:	74614772 	strbtvc	r4, [r1], #-1906	; 0xfffff88e
     798:	00726568 	rsbseq	r6, r2, r8, ror #10
     79c:	52454658 	subpl	r4, r5, #88, 12	; 0x5800000
     7a0:	455a4953 	ldrbmi	r4, [sl, #-2387]	; 0xfffff6ad
     7a4:	6c614800 	stclvs	8, cr4, [r1], #-0
     7a8:	726f5766 	rsbvc	r5, pc, #26738688	; 0x1980000
     7ac:	65445f64 	strbvs	r5, [r4, #-3940]	; 0xfffff09c
     7b0:	61447473 	hvcvs	18243	; 0x4743
     7b4:	42006174 	andmi	r6, r0, #116, 2
     7b8:	5f657479 	svcpl	0x00657479
     7bc:	74736544 	ldrbtvc	r6, [r3], #-1348	; 0xfffffabc
     7c0:	00636e49 	rsbeq	r6, r3, r9, asr #28
     7c4:	5f414d44 	svcpl	0x00414d44
     7c8:	6f727245 	svcvs	0x00727245
     7cc:	6e614872 	mcrvs	8, 3, r4, cr1, cr2, {3}
     7d0:	72656c64 	rsbvc	r6, r5, #100, 24	; 0x6400
     7d4:	6c61435f 	stclvs	3, cr4, [r1], #-380	; 0xfffffe84
     7d8:	6361626c 	cmnvs	r1, #108, 4	; 0xc0000006
     7dc:	4d44006b 	stclmi	0, cr0, [r4, #-428]	; 0xfffffe54
     7e0:	6f435f41 	svcvs	0x00435f41
     7e4:	6769666e 	strbvs	r6, [r9, -lr, ror #12]!
     7e8:	43657275 	cmnmi	r5, #1342177287	; 0x50000007
     7ec:	72746e6f 	rsbsvc	r6, r4, #1776	; 0x6f0
     7f0:	61546c6f 	cmpvs	r4, pc, ror #24
     7f4:	42656c62 	rsbmi	r6, r5, #25088	; 0x6200
     7f8:	41657361 	cmnmi	r5, r1, ror #6
     7fc:	65726464 	ldrbvs	r6, [r2, #-1124]!	; 0xfffffb9c
     800:	6c007373 	stcvs	3, cr7, [r0], {115}	; 0x73
     804:	20676e6f 	rsbcs	r6, r7, pc, ror #28
     808:	676e6f6c 	strbvs	r6, [lr, -ip, ror #30]!
     80c:	746e6920 	strbtvc	r6, [lr], #-2336	; 0xfffff6e0
     810:	6c614800 	stclvs	8, cr4, [r1], #-0
     814:	726f5766 	rsbvc	r5, pc, #26738688	; 0x1980000
     818:	65445f64 	strbvs	r5, [r4, #-3940]	; 0xfffff09c
     81c:	6e497473 	mcrvs	4, 2, r7, cr9, cr3, {3}
     820:	68430063 	stmdavs	r3, {r0, r1, r5, r6}^
     824:	656e6e61 	strbvs	r6, [lr, #-3681]!	; 0xfffff19f
     828:	6e6f436c 	cdpvs	3, 6, cr4, cr15, cr12, {3}
     82c:	6c6f7274 	sfmvs	f7, 2, [pc], #-464	; 664 <GPTM_RISRegisters+0x8>
     830:	65736142 	ldrbvs	r6, [r3, #-322]!	; 0xfffffebe
     834:	72646441 	rsbvc	r6, r4, #1090519040	; 0x41000000
     838:	00737365 	rsbseq	r7, r3, r5, ror #6
     83c:	69627241 	stmdbvs	r2!, {r0, r6, r9, ip, sp, lr}^
     840:	7a695374 	bvc	1a55618 <_E_text+0x1a5412c>
     844:	79420065 	stmdbvc	r2, {r0, r2, r5, r6}^
     848:	535f6574 	cmppl	pc, #116, 10	; 0x1d000000
     84c:	61446372 	hvcvs	17970	; 0x4632
     850:	75006174 	strvc	r6, [r0, #-372]	; 0xfffffe8c
     854:	00745f38 	rsbseq	r5, r4, r8, lsr pc
     858:	666e6f43 	strbtvs	r6, [lr], -r3, asr #30
     85c:	72756769 	rsbsvc	r6, r5, #27525120	; 0x1a40000
     860:	69725065 	ldmdbvs	r2!, {r0, r2, r5, r6, ip, lr}^
     864:	6168436f 	cmnvs	r8, pc, ror #6
     868:	6c656e6e 	stclvs	14, cr6, [r5], #-440	; 0xfffffe48
     86c:	496f4e00 	stmdbmi	pc!, {r9, sl, fp, lr}^	; <UNPREDICTABLE>
     870:	6572636e 	ldrbvs	r6, [r2, #-878]!	; 0xfffffc92
     874:	746e656d 	strbtvc	r6, [lr], #-1389	; 0xfffffa93
     878:	7365445f 	cmnvc	r5, #1593835520	; 0x5f000000
     87c:	636e4974 	cmnvs	lr, #116, 18	; 0x1d0000
     880:	5f747000 	svcpl	0x00747000
     884:	6c6c6163 	stfvse	f6, [ip], #-396	; 0xfffffe74
     888:	6b636162 	blvs	18d8e18 <_E_text+0x18d792c>
     88c:	414d4400 	cmpmi	sp, r0, lsl #8
     890:	4165445f 	cmnmi	r5, pc, asr r4
     894:	67697373 			; <UNDEFINED> instruction: 0x67697373
     898:	6168436e 	cmnvs	r8, lr, ror #6
     89c:	6c656e6e 	stclvs	14, cr6, [r5], #-440	; 0xfffffe48
     8a0:	6c614800 	stclvs	8, cr4, [r1], #-0
     8a4:	726f5766 	rsbvc	r5, pc, #26738688	; 0x1980000
     8a8:	72535f64 	subsvc	r5, r3, #100, 30	; 0x190
     8ac:	74614463 	strbtvc	r4, [r1], #-1123	; 0xfffffb9d
     8b0:	4d440061 	stclmi	0, cr0, [r4, #-388]	; 0xfffffe7c
     8b4:	65525f41 	ldrbvs	r5, [r2, #-3905]	; 0xfffff0bf
     8b8:	74736967 	ldrbtvc	r6, [r3], #-2407	; 0xfffff699
     8bc:	61437265 	cmpvs	r3, r5, ror #4
     8c0:	61626c6c 	cmnvs	r2, ip, ror #24
     8c4:	75466b63 	strbvc	r6, [r6, #-2915]	; 0xfffff49d
     8c8:	6974636e 	ldmdbvs	r4!, {r1, r2, r3, r5, r6, r8, r9, sp, lr}^
     8cc:	455f6e6f 	ldrbmi	r6, [pc, #-3695]	; fffffa65 <_E_BSS+0xdfffdc71>
     8d0:	726f7272 	rsbvc	r7, pc, #536870919	; 0x20000007
     8d4:	646e6148 	strbtvs	r6, [lr], #-328	; 0xfffffeb8
     8d8:	0072656c 	rsbseq	r6, r2, ip, ror #10
     8dc:	6e616843 	cdpvs	8, 6, cr6, cr1, cr3, {2}
     8e0:	736c656e 	cmnvc	ip, #461373440	; 0x1b800000
     8e4:	006d754e 	rsbeq	r7, sp, lr, asr #10
     8e8:	54524155 	ldrbpl	r4, [r2], #-341	; 0xfffffeab
     8ec:	5f414d44 	svcpl	0x00414d44
     8f0:	6c467852 	mcrrvs	8, 5, r7, r6, cr2
     8f4:	53006761 	movwpl	r6, #1889	; 0x761
     8f8:	64416372 	strbvs	r6, [r1], #-882	; 0xfffffc8e
     8fc:	73657264 	cmnvc	r5, #100, 4	; 0x40000006
     900:	636e4973 	cmnvs	lr, #1884160	; 0x1cc000
     904:	656d6572 	strbvs	r6, [sp, #-1394]!	; 0xfffffa8e
     908:	4400746e 	strmi	r7, [r0], #-1134	; 0xfffffb92
     90c:	455f414d 	ldrbmi	r4, [pc, #-333]	; 7c7 <UART_FractionalBaudRateDivisorRegisters+0x13>
     910:	6c62616e 	stfvse	f6, [r2], #-440	; 0xfffffe48
     914:	61684365 	cmnvs	r8, r5, ror #6
     918:	6c656e6e 	stclvs	14, cr6, [r5], #-440	; 0xfffffe48
     91c:	74754f00 	ldrbtvc	r4, [r5], #-3840	; 0xfffff100
     920:	48747570 	ldmdami	r4!, {r4, r5, r6, r8, sl, ip, sp, lr}^
     924:	00686769 	rsbeq	r6, r8, r9, ror #14
     928:	5f414d44 	svcpl	0x00414d44
     92c:	746e6f43 	strbtvc	r6, [lr], #-3907	; 0xfffff0bd
     930:	546c6f72 	strbtpl	r6, [ip], #-3954	; 0xfffff08e
     934:	656c6261 	strbvs	r6, [ip, #-609]!	; 0xfffffd9f
     938:	7272415f 	rsbsvc	r4, r2, #-1073741801	; 0xc0000017
     93c:	414d4400 	cmpmi	sp, r0, lsl #8
     940:	4400632e 	strmi	r6, [r0], #-814	; 0xfffffcd2
     944:	435f414d 	cmpmi	pc, #1073741843	; 0x40000013
     948:	69666e6f 	stmdbvs	r6!, {r0, r1, r2, r3, r5, r6, r9, sl, fp, sp, lr}^
     94c:	65727567 	ldrbvs	r7, [r2, #-1383]!	; 0xfffffa99
     950:	6f697250 	svcvs	0x00697250
     954:	79746972 	ldmdbvc	r4!, {r1, r4, r5, r6, r8, fp, sp, lr}^
     958:	756f5300 	strbvc	r5, [pc, #-768]!	; 660 <GPTM_RISRegisters+0x4>
     95c:	41656372 	smcmi	22066	; 0x5632
     960:	65726464 	ldrbvs	r6, [r2, #-1124]!	; 0xfffffb9c
     964:	44007373 	strmi	r7, [r0], #-883	; 0xfffffc8d
     968:	6e45414d 	dvfvssm	f4, f5, #5.0
     96c:	69646f63 	stmdbvs	r4!, {r0, r1, r5, r6, r8, r9, sl, fp, sp, lr}^
     970:	754e676e 	strbvc	r6, [lr, #-1902]	; 0xfffff892
     974:	00745f6d 	rsbseq	r5, r4, sp, ror #30
     978:	6e617254 	mcrvs	2, 3, r7, cr1, cr4, {2}
     97c:	72656673 	rsbvc	r6, r5, #120586240	; 0x7300000
     980:	65646f4d 	strbvs	r6, [r4, #-3917]!	; 0xfffff0b3
     984:	6c614300 	stclvs	3, cr4, [r1], #-0
     988:	6361626c 	cmnvs	r1, #108, 4	; 0xc0000006
     98c:	6e75466b 	cdpvs	6, 7, cr4, cr5, cr11, {3}
     990:	00745f63 	rsbseq	r5, r4, r3, ror #30
     994:	706f7453 	rsbvc	r7, pc, r3, asr r4	; <UNPREDICTABLE>
     998:	65646f4d 	strbvs	r6, [r4, #-3917]!	; 0xfffff0b3
     99c:	414d4400 	cmpmi	sp, r0, lsl #8
     9a0:	424c5443 	submi	r5, ip, #1124073472	; 0x43000000
     9a4:	5f455341 	svcpl	0x00455341
     9a8:	00676552 	rsbeq	r6, r7, r2, asr r5
     9ac:	676e6f6c 	strbvs	r6, [lr, -ip, ror #30]!
     9b0:	756f6420 	strbvc	r6, [pc, #-1056]!	; 598 <GPTM_TimerMode+0x2c>
     9b4:	00656c62 	rsbeq	r6, r5, r2, ror #24
     9b8:	6f636e45 	svcvs	0x00636e45
     9bc:	676e6964 	strbvs	r6, [lr, -r4, ror #18]!
     9c0:	5f6d754e 	svcpl	0x006d754e
     9c4:	6e450030 	mcrvs	0, 2, r0, cr5, cr0, {1}
     9c8:	69646f63 	stmdbvs	r4!, {r0, r1, r5, r6, r8, r9, sl, fp, sp, lr}^
     9cc:	754e676e 	strbvc	r6, [lr, #-1902]	; 0xfffff892
     9d0:	00315f6d 	eorseq	r5, r1, sp, ror #30
     9d4:	6f636e45 	svcvs	0x00636e45
     9d8:	676e6964 	strbvs	r6, [lr, -r4, ror #18]!
     9dc:	5f6d754e 	svcpl	0x006d754e
     9e0:	61480032 	cmpvs	r8, r2, lsr r0
     9e4:	6f57666c 	svcvs	0x0057666c
     9e8:	735f6472 	cmpvc	pc, #1912602624	; 0x72000000
     9ec:	6e496372 	mcrvs	3, 2, r6, cr9, cr2, {3}
     9f0:	6e450063 	cdpvs	0, 4, cr0, cr5, cr3, {3}
     9f4:	69646f63 	stmdbvs	r4!, {r0, r1, r5, r6, r8, r9, sl, fp, sp, lr}^
     9f8:	754e676e 	strbvc	r6, [lr, #-1902]	; 0xfffff892
     9fc:	00345f6d 	eorseq	r5, r4, sp, ror #30
     a00:	5f414d44 	svcpl	0x00414d44
     a04:	41637253 	cmnmi	r3, r3, asr r2
     a08:	65726464 	ldrbvs	r6, [r2, #-1124]!	; 0xfffffb9c
     a0c:	6e497373 	mcrvs	3, 2, r7, cr9, cr3, {3}
     a10:	6d657263 	sfmvs	f7, 2, [r5, #-396]!	; 0xfffffe74
     a14:	5f746e65 	svcpl	0x00746e65
     a18:	75410074 	strbvc	r0, [r1, #-116]	; 0xffffff8c
     a1c:	65526f74 	ldrbvs	r6, [r2, #-3956]	; 0xfffff08c
     a20:	73657571 	cmnvc	r5, #473956352	; 0x1c400000
     a24:	4d440074 	stclmi	0, cr0, [r4, #-464]	; 0xfffffe30
     a28:	73415f41 	movtvc	r5, #8001	; 0x1f41
     a2c:	6e676973 			; <UNDEFINED> instruction: 0x6e676973
     a30:	6e616843 	cdpvs	8, 6, cr6, cr1, cr3, {2}
     a34:	006c656e 	rsbeq	r6, ip, lr, ror #10
     a38:	545f345f 	ldrbpl	r3, [pc], #-1119	; a40 <DMA_ChannelControlStructureSet+0x9c>
     a3c:	736e6172 	cmnvc	lr, #-2147483620	; 0x8000001c
     a40:	73726566 	cmnvc	r2, #427819008	; 0x19800000
     a44:	414d4400 	cmpmi	sp, r0, lsl #8
     a48:	6e6f435f 	mcrvs	3, 3, r4, cr15, cr15, {2}
     a4c:	52676966 	rsbpl	r6, r7, #1671168	; 0x198000
     a50:	65757165 	ldrbvs	r7, [r5, #-357]!	; 0xfffffe9b
     a54:	79547473 	ldmdbvc	r4, {r0, r1, r4, r5, r6, sl, ip, sp, lr}^
     a58:	745f6570 	ldrbvc	r6, [pc], #-1392	; a60 <DMA_ChannelControlStructureSet+0xbc>
     a5c:	32337500 	eorscc	r7, r3, #0, 10
     a60:	7300745f 	movwvc	r7, #1119	; 0x45f
     a64:	74726f68 	ldrbtvc	r6, [r2], #-3944	; 0xfffff098
     a68:	746e6920 	strbtvc	r6, [lr], #-2336	; 0xfffff6e0
     a6c:	414d4400 	cmpmi	sp, r0, lsl #8
     a70:	6168435f 	cmnvs	r8, pc, asr r3
     a74:	6c656e6e 	stclvs	14, cr6, [r5], #-440	; 0xfffffe48
     a78:	74616353 	strbtvc	r6, [r1], #-851	; 0xfffffcad
     a7c:	47726574 			; <UNDEFINED> instruction: 0x47726574
     a80:	65687461 	strbvs	r7, [r8, #-1121]!	; 0xfffffb9f
     a84:	74655372 	strbtvc	r5, [r5], #-882	; 0xfffffc8e
     a88:	414d4400 	cmpmi	sp, r0, lsl #8
     a8c:	7369445f 	cmnvc	r9, #1593835520	; 0x5f000000
     a90:	656c6261 	strbvs	r6, [ip, #-609]!	; 0xfffffd9f
     a94:	6e616843 	cdpvs	8, 6, cr6, cr1, cr3, {2}
     a98:	416c656e 	cmnmi	ip, lr, ror #10
     a9c:	69727474 	ldmdbvs	r2!, {r2, r4, r5, r6, sl, ip, sp, lr}^
     aa0:	65747562 	ldrbvs	r7, [r4, #-1378]!	; 0xfffffa9e
     aa4:	74700073 	ldrbtvc	r0, [r0], #-115	; 0xffffff8d
     aa8:	6e6f4372 	mcrvs	3, 3, r4, cr15, cr2, {3}
     aac:	00676966 	rsbeq	r6, r7, r6, ror #18
     ab0:	65746c41 	ldrbvs	r6, [r4, #-3137]!	; 0xfffff3bf
     ab4:	74616e72 	strbtvc	r6, [r1], #-3698	; 0xfffff18e
     ab8:	73654465 	cmnvc	r5, #1694498816	; 0x65000000
     abc:	616e6974 	smcvs	59028	; 0xe694
     ac0:	6e6f6974 			; <UNDEFINED> instruction: 0x6e6f6974
     ac4:	72646441 	rsbvc	r6, r4, #1090519040	; 0x41000000
     ac8:	50737365 	rsbspl	r7, r3, r5, ror #6
     acc:	746e696f 	strbtvc	r6, [lr], #-2415	; 0xfffff691
     ad0:	65527265 	ldrbvs	r7, [r2, #-613]	; 0xfffffd9b
     ad4:	74736967 	ldrbtvc	r6, [r3], #-2407	; 0xfffff699
     ad8:	00737265 	rsbseq	r7, r3, r5, ror #4
     adc:	5f414d44 	svcpl	0x00414d44
     ae0:	666e6f43 	strbtvs	r6, [lr], -r3, asr #30
     ae4:	72756769 	rsbsvc	r6, r5, #27525120	; 0x1a40000
     ae8:	61684365 	cmnvs	r8, r5, ror #6
     aec:	6c656e6e 	stclvs	14, cr6, [r5], #-440	; 0xfffffe48
     af0:	74666f53 	strbtvc	r6, [r6], #-3923	; 0xfffff0ad
     af4:	65726177 	ldrbvs	r6, [r2, #-375]!	; 0xfffffe89
     af8:	75716552 	ldrbvc	r6, [r1, #-1362]!	; 0xfffffaae
     afc:	00747365 	rsbseq	r7, r4, r5, ror #6
     b00:	5f32335f 	svcpl	0x0032335f
     b04:	6e617254 	mcrvs	2, 3, r7, cr1, cr4, {2}
     b08:	72656673 	rsbvc	r6, r5, #120586240	; 0x7300000
     b0c:	61680073 	smcvs	32771	; 0x8003
     b10:	656c646e 	strbvs	r6, [ip, #-1134]!	; 0xfffffb92
     b14:	756f4372 	strbvc	r4, [pc, #-882]!	; 7aa <UART_IntegerBaudRateDivisorRegisters+0x16>
     b18:	7265746e 	rsbvc	r7, r5, #1845493760	; 0x6e000000
     b1c:	63725300 	cmnvs	r2, #0, 6
     b20:	61746144 	cmnvs	r4, r4, asr #2
     b24:	657a6953 	ldrbvs	r6, [sl, #-2387]!	; 0xfffff6ad
     b28:	414d4400 	cmpmi	sp, r0, lsl #8
     b2c:	6e616843 	cdpvs	8, 6, cr6, cr1, cr3, {2}
     b30:	5f6c656e 	svcpl	0x006c656e
     b34:	44003232 	strmi	r3, [r0], #-562	; 0xfffffdce
     b38:	6843414d 	stmdavs	r3, {r0, r2, r3, r6, r8, lr}^
     b3c:	656e6e61 	strbvs	r6, [lr, #-3681]!	; 0xfffff19f
     b40:	33325f6c 	teqcc	r2, #108, 30	; 0x1b0
     b44:	72745000 	rsbsvc	r5, r4, #0
     b48:	43414d44 	movtmi	r4, #7492	; 0x1d44
     b4c:	69666e6f 	stmdbvs	r6!, {r0, r1, r2, r3, r5, r6, r9, sl, fp, sp, lr}^
     b50:	4d440067 	stclmi	0, cr0, [r4, #-412]	; 0xfffffe64
     b54:	72455f41 	subvc	r5, r5, #260	; 0x104
     b58:	48726f72 	ldmdami	r2!, {r1, r4, r5, r6, r8, r9, sl, fp, sp, lr}^
     b5c:	6c646e61 	stclvs	14, cr6, [r4], #-388	; 0xfffffe7c
     b60:	44007265 	strmi	r7, [r0], #-613	; 0xfffffd9b
     b64:	535f414d 	cmppl	pc, #1073741843	; 0x40000013
     b68:	7774666f 	ldrbvc	r6, [r4, -pc, ror #12]!
     b6c:	54657261 	strbtpl	r7, [r5], #-609	; 0xfffffd9f
     b70:	736e6172 	cmnvc	lr, #-2147483620	; 0x8000001c
     b74:	48726566 	ldmdami	r2!, {r1, r2, r5, r6, r8, sl, sp, lr}^
     b78:	6c646e61 	stclvs	14, cr6, [r4], #-388	; 0xfffffe7c
     b7c:	70007265 	andvc	r7, r0, r5, ror #4
     b80:	6e6f4374 	mcrvs	3, 3, r4, cr15, cr4, {3}
     b84:	6c6f7274 	sfmvs	f7, 2, [pc], #-464	; 9bc <DMA_ChannelControlStructureSet+0x18>
     b88:	6c626154 	stfvse	f6, [r2], #-336	; 0xfffffeb0
     b8c:	4d440065 	stclmi	0, cr0, [r4, #-404]	; 0xfffffe6c
     b90:	6f435f41 	svcvs	0x00435f41
     b94:	6769666e 	strbvs	r6, [r9, -lr, ror #12]!
     b98:	43657275 	cmnmi	r5, #1342177287	; 0x50000007
     b9c:	6e6e6168 	powvsez	f6, f6, #0.0
     ba0:	6e496c65 	cdpvs	12, 4, cr6, cr9, cr5, {3}
     ba4:	72726574 	rsbsvc	r6, r2, #116, 10	; 0x1d000000
     ba8:	00747075 	rsbseq	r7, r4, r5, ror r0
     bac:	65746c41 	ldrbvs	r6, [r4, #-3137]!	; 0xfffff3bf
     bb0:	74616e72 	strbtvc	r6, [r1], #-3698	; 0xfffff18e
     bb4:	756f5365 	strbvc	r5, [pc, #-869]!	; 857 <UART_MaskedInterruptStatusRegisters+0x3>
     bb8:	41656372 	smcmi	22066	; 0x5632
     bbc:	65726464 	ldrbvs	r6, [r2, #-1124]!	; 0xfffffb9c
     bc0:	6f507373 	svcvs	0x00507373
     bc4:	65746e69 	ldrbvs	r6, [r4, #-3689]!	; 0xfffff197
     bc8:	67655272 			; <UNDEFINED> instruction: 0x67655272
     bcc:	65747369 	ldrbvs	r7, [r4, #-873]!	; 0xfffffc97
     bd0:	44007372 	strmi	r7, [r0], #-882	; 0xfffffc8e
     bd4:	6843414d 	stmdavs	r3, {r0, r2, r3, r6, r8, lr}^
     bd8:	656e6e61 	strbvs	r6, [lr, #-3681]!	; 0xfffff19f
     bdc:	30315f6c 	eorscc	r5, r1, ip, ror #30
     be0:	414d4400 	cmpmi	sp, r0, lsl #8
     be4:	6e616843 	cdpvs	8, 6, cr6, cr1, cr3, {2}
     be8:	5f6c656e 	svcpl	0x006c656e
     bec:	44003131 	strmi	r3, [r0], #-305	; 0xfffffecf
     bf0:	6843414d 	stmdavs	r3, {r0, r2, r3, r6, r8, lr}^
     bf4:	656e6e61 	strbvs	r6, [lr, #-3681]!	; 0xfffff19f
     bf8:	32315f6c 	eorscc	r5, r1, #108, 30	; 0x1b0
     bfc:	414d4400 	cmpmi	sp, r0, lsl #8
     c00:	6e616843 	cdpvs	8, 6, cr6, cr1, cr3, {2}
     c04:	5f6c656e 	svcpl	0x006c656e
     c08:	44003331 	strmi	r3, [r0], #-817	; 0xfffffccf
     c0c:	6843414d 	stmdavs	r3, {r0, r2, r3, r6, r8, lr}^
     c10:	656e6e61 	strbvs	r6, [lr, #-3681]!	; 0xfffff19f
     c14:	34315f6c 	ldrtcc	r5, [r1], #-3948	; 0xfffff094
     c18:	414d4400 	cmpmi	sp, r0, lsl #8
     c1c:	6e616843 	cdpvs	8, 6, cr6, cr1, cr3, {2}
     c20:	5f6c656e 	svcpl	0x006c656e
     c24:	44003531 	strmi	r3, [r0], #-1329	; 0xfffffacf
     c28:	6843414d 	stmdavs	r3, {r0, r2, r3, r6, r8, lr}^
     c2c:	656e6e61 	strbvs	r6, [lr, #-3681]!	; 0xfffff19f
     c30:	36315f6c 	ldrtcc	r5, [r1], -ip, ror #30
     c34:	414d4400 	cmpmi	sp, r0, lsl #8
     c38:	6e616843 	cdpvs	8, 6, cr6, cr1, cr3, {2}
     c3c:	5f6c656e 	svcpl	0x006c656e
     c40:	44003731 	strmi	r3, [r0], #-1841	; 0xfffff8cf
     c44:	6843414d 	stmdavs	r3, {r0, r2, r3, r6, r8, lr}^
     c48:	656e6e61 	strbvs	r6, [lr, #-3681]!	; 0xfffff19f
     c4c:	38315f6c 	ldmdacc	r1!, {r2, r3, r5, r6, r8, r9, sl, fp, ip, lr}
     c50:	414d4400 	cmpmi	sp, r0, lsl #8
     c54:	6e616843 	cdpvs	8, 6, cr6, cr1, cr3, {2}
     c58:	5f6c656e 	svcpl	0x006c656e
     c5c:	5f003931 	svcpl	0x00003931
     c60:	545f3631 	ldrbpl	r3, [pc], #-1585	; c68 <DMA_AssignChannel+0x30>
     c64:	736e6172 	cmnvc	lr, #-2147483620	; 0x8000001c
     c68:	73726566 	cmnvc	r2, #427819008	; 0x19800000
     c6c:	74794200 	ldrbtvc	r4, [r9], #-512	; 0xfffffe00
     c70:	65445f65 	strbvs	r5, [r4, #-3941]	; 0xfffff09b
     c74:	61447473 	hvcvs	18243	; 0x4743
     c78:	42006174 	andmi	r6, r0, #116, 2
     c7c:	63697361 	cmnvs	r9, #-2080374783	; 0x84000001
     c80:	65646f4d 	strbvs	r6, [r4, #-3917]!	; 0xfffff0b3
     c84:	414d4400 	cmpmi	sp, r0, lsl #8
     c88:	7265505f 	rsbvc	r5, r5, #95	; 0x5f
     c8c:	65687069 	strbvs	r7, [r8, #-105]!	; 0xffffff97
     c90:	496c6172 	stmdbmi	ip!, {r1, r4, r5, r6, r8, sp, lr}^
     c94:	6974696e 	ldmdbvs	r4!, {r1, r2, r3, r5, r6, r8, fp, sp, lr}^
     c98:	7a696c61 	bvc	1a5be24 <_E_text+0x1a5a938>
     c9c:	6f697461 	svcvs	0x00697461
     ca0:	4d44006e 	stclmi	0, cr0, [r4, #-440]	; 0xfffffe48
     ca4:	72535f41 	subsvc	r5, r3, #260	; 0x104
     ca8:	74614463 	strbtvc	r4, [r1], #-1123	; 0xfffffb9d
     cac:	7a695361 	bvc	1a55a38 <_E_text+0x1a5454c>
     cb0:	00745f65 	rsbseq	r5, r4, r5, ror #30
     cb4:	4d414d44 	stclmi	13, cr4, [r1, #-272]	; 0xfffffef0
     cb8:	6c75646f 	cfldrdvs	mvd6, [r5], #-444	; 0xfffffe44
     cbc:	6e755265 	cdpvs	2, 7, cr5, cr5, cr5, {3}
     cc0:	65646f4d 	strbvs	r6, [r4, #-3917]!	; 0xfffff0b3
     cc4:	636f6c43 	cmnvs	pc, #17152	; 0x4300
     cc8:	7461476b 	strbtvc	r4, [r1], #-1899	; 0xfffff895
     ccc:	43676e69 	cmnmi	r7, #1680	; 0x690
     cd0:	72746e6f 	rsbsvc	r6, r4, #1776	; 0x6f0
     cd4:	5f006c6f 	svcpl	0x00006c6f
     cd8:	5f323135 	svcpl	0x00323135
     cdc:	6e617254 	mcrvs	2, 3, r7, cr1, cr4, {2}
     ce0:	72656673 	rsbvc	r6, r5, #120586240	; 0x7300000
     ce4:	6f500073 	svcvs	0x00500073
     ce8:	00417472 	subeq	r7, r1, r2, ror r4
     cec:	43414d44 	movtmi	r4, #7492	; 0x1d44
     cf0:	6e6e6168 	powvsez	f6, f6, #0.0
     cf4:	325f6c65 	subscc	r6, pc, #25856	; 0x6500
     cf8:	4d440030 	stclmi	0, cr0, [r4, #-192]	; 0xffffff40
     cfc:	61684341 	cmnvs	r8, r1, asr #6
     d00:	6c656e6e 	stclvs	14, cr6, [r5], #-440	; 0xfffffe48
     d04:	0031325f 	eorseq	r3, r1, pc, asr r2
     d08:	43414d44 	movtmi	r4, #7492	; 0x1d44
     d0c:	5f534948 	svcpl	0x00534948
     d10:	00676552 	rsbeq	r6, r7, r2, asr r5
     d14:	69736e75 	ldmdbvs	r3!, {r0, r2, r4, r5, r6, r9, sl, fp, sp, lr}^
     d18:	64656e67 	strbtvs	r6, [r5], #-3687	; 0xfffff199
     d1c:	61686320 	cmnvs	r8, r0, lsr #6
     d20:	4d440072 	stclmi	0, cr0, [r4, #-456]	; 0xfffffe38
     d24:	61684341 	cmnvs	r8, r1, asr #6
     d28:	6c656e6e 	stclvs	14, cr6, [r5], #-440	; 0xfffffe48
     d2c:	0034325f 	eorseq	r3, r4, pc, asr r2
     d30:	43414d44 	movtmi	r4, #7492	; 0x1d44
     d34:	6e6e6168 	powvsez	f6, f6, #0.0
     d38:	325f6c65 	subscc	r6, pc, #25856	; 0x6500
     d3c:	4d440035 	stclmi	0, cr0, [r4, #-212]	; 0xffffff2c
     d40:	61684341 	cmnvs	r8, r1, asr #6
     d44:	6c656e6e 	stclvs	14, cr6, [r5], #-440	; 0xfffffe48
     d48:	0036325f 	eorseq	r3, r6, pc, asr r2
     d4c:	43414d44 	movtmi	r4, #7492	; 0x1d44
     d50:	6e6e6168 	powvsez	f6, f6, #0.0
     d54:	325f6c65 	subscc	r6, pc, #25856	; 0x6500
     d58:	4d440037 	stclmi	0, cr0, [r4, #-220]	; 0xffffff24
     d5c:	61684341 	cmnvs	r8, r1, asr #6
     d60:	6c656e6e 	stclvs	14, cr6, [r5], #-440	; 0xfffffe48
     d64:	0038325f 	eorseq	r3, r8, pc, asr r2
     d68:	43414d44 	movtmi	r4, #7492	; 0x1d44
     d6c:	6e6e6168 	powvsez	f6, f6, #0.0
     d70:	325f6c65 	subscc	r6, pc, #25856	; 0x6500
     d74:	4d440039 	stclmi	0, cr0, [r4, #-228]	; 0xffffff1c
     d78:	61684341 	cmnvs	r8, r1, asr #6
     d7c:	6c656e6e 	stclvs	14, cr6, [r5], #-440	; 0xfffffe48
     d80:	4400305f 	strmi	r3, [r0], #-95	; 0xffffffa1
     d84:	6843414d 	stmdavs	r3, {r0, r2, r3, r6, r8, lr}^
     d88:	656e6e61 	strbvs	r6, [lr, #-3681]!	; 0xfffff19f
     d8c:	00315f6c 	eorseq	r5, r1, ip, ror #30
     d90:	43414d44 	movtmi	r4, #7492	; 0x1d44
     d94:	6e6e6168 	powvsez	f6, f6, #0.0
     d98:	325f6c65 	subscc	r6, pc, #25856	; 0x6500
     d9c:	414d4400 	cmpmi	sp, r0, lsl #8
     da0:	6e616843 	cdpvs	8, 6, cr6, cr1, cr3, {2}
     da4:	5f6c656e 	svcpl	0x006c656e
     da8:	4d440033 	stclmi	0, cr0, [r4, #-204]	; 0xffffff34
     dac:	61684341 	cmnvs	r8, r1, asr #6
     db0:	6c656e6e 	stclvs	14, cr6, [r5], #-440	; 0xfffffe48
     db4:	4400345f 	strmi	r3, [r0], #-1119	; 0xfffffba1
     db8:	6843414d 	stmdavs	r3, {r0, r2, r3, r6, r8, lr}^
     dbc:	656e6e61 	strbvs	r6, [lr, #-3681]!	; 0xfffff19f
     dc0:	00355f6c 	eorseq	r5, r5, ip, ror #30
     dc4:	43414d44 	movtmi	r4, #7492	; 0x1d44
     dc8:	6e6e6168 	powvsez	f6, f6, #0.0
     dcc:	365f6c65 	ldrbcc	r6, [pc], -r5, ror #24
     dd0:	414d4400 	cmpmi	sp, r0, lsl #8
     dd4:	6e616843 	cdpvs	8, 6, cr6, cr1, cr3, {2}
     dd8:	5f6c656e 	svcpl	0x006c656e
     ddc:	4d440037 	stclmi	0, cr0, [r4, #-220]	; 0xffffff24
     de0:	61684341 	cmnvs	r8, r1, asr #6
     de4:	6c656e6e 	stclvs	14, cr6, [r5], #-440	; 0xfffffe48
     de8:	4400385f 	strmi	r3, [r0], #-2143	; 0xfffff7a1
     dec:	6843414d 	stmdavs	r3, {r0, r2, r3, r6, r8, lr}^
     df0:	656e6e61 	strbvs	r6, [lr, #-3681]!	; 0xfffff19f
     df4:	00395f6c 	eorseq	r5, r9, ip, ror #30
     df8:	74726f50 	ldrbtvc	r6, [r2], #-3920	; 0xfffff0b0
     dfc:	646e495f 	strbtvs	r4, [lr], #-2399	; 0xfffff6a1
     e00:	73656369 	cmnvc	r5, #-1543503871	; 0xa4000001
     e04:	414d4400 	cmpmi	sp, r0, lsl #8
     e08:	666f535f 			; <UNDEFINED> instruction: 0x666f535f
     e0c:	72617774 	rsbvc	r7, r1, #116, 14	; 0x1d00000
     e10:	61725465 	cmnvs	r2, r5, ror #8
     e14:	6566736e 	strbvs	r7, [r6, #-878]!	; 0xfffffc92
     e18:	61435f72 	hvcvs	13810	; 0x35f2
     e1c:	61626c6c 	cmnvs	r2, ip, ror #24
     e20:	53006b63 	movwpl	r6, #2915	; 0xb63
     e24:	49534352 	ldmdbmi	r3, {r1, r4, r6, r8, r9, lr}^
     e28:	5f00455a 	svcpl	0x0000455a
     e2c:	34323031 	ldrtcc	r3, [r2], #-49	; 0xffffffcf
     e30:	6172545f 	cmnvs	r2, pc, asr r4
     e34:	6566736e 	strbvs	r7, [r6, #-878]!	; 0xfffffc92
     e38:	44007372 	strmi	r7, [r0], #-882	; 0xfffffc8e
     e3c:	6843414d 	stmdavs	r3, {r0, r2, r3, r6, r8, lr}^
     e40:	656e6e61 	strbvs	r6, [lr, #-3681]!	; 0xfffff19f
     e44:	6d754e6c 	ldclvs	14, cr4, [r5, #-432]!	; 0xfffffe50
     e48:	4400745f 	strmi	r7, [r0], #-1119	; 0xfffffba1
     e4c:	435f414d 	cmpmi	pc, #1073741843	; 0x40000013
     e50:	69666e6f 	stmdbvs	r6!, {r0, r1, r2, r3, r5, r6, r9, sl, fp, sp, lr}^
     e54:	61725467 	cmnvs	r2, r7, ror #8
     e58:	6566736e 	strbvs	r7, [r6, #-878]!	; 0xfffffc92
     e5c:	646f4d72 	strbtvs	r4, [pc], #-3442	; e64 <GPIO_ConfigureDigitalEnable+0x54>
     e60:	00745f65 	rsbseq	r5, r4, r5, ror #30
     e64:	5f414d44 	svcpl	0x00414d44
     e68:	746e6f43 	strbtvc	r6, [lr], #-3907	; 0xfffff0bd
     e6c:	546c6f72 	strbtpl	r6, [ip], #-3954	; 0xfffff08e
     e70:	656c6261 	strbvs	r6, [ip, #-609]!	; 0xfffffd9f
     e74:	7265505f 	rsbvc	r5, r5, #95	; 0x5f
     e78:	65687069 	strbvs	r7, [r8, #-105]!	; 0xffffff97
     e7c:	536c6172 	cmnpl	ip, #-2147483620	; 0x8000001c
     e80:	74746163 	ldrbtvc	r6, [r4], #-355	; 0xfffffe9d
     e84:	61477265 	cmpvs	r7, r5, ror #4
     e88:	72656874 	rsbvc	r6, r5, #116, 16	; 0x740000
     e8c:	00727241 	rsbseq	r7, r2, r1, asr #4
     e90:	43414d44 	movtmi	r4, #7492	; 0x1d44
     e94:	6e6e6168 	powvsez	f6, f6, #0.0
     e98:	335f6c65 	cmpcc	pc, #25856	; 0x6500
     e9c:	4d440030 	stclmi	0, cr0, [r4, #-192]	; 0xffffff40
     ea0:	61684341 	cmnvs	r8, r1, asr #6
     ea4:	6c656e6e 	stclvs	14, cr6, [r5], #-440	; 0xfffffe48
     ea8:	0031335f 	eorseq	r3, r1, pc, asr r3
     eac:	5f414d44 	svcpl	0x00414d44
     eb0:	73727542 	cmnvc	r2, #276824064	; 0x10800000
     eb4:	71655274 	smcvc	21796	; 0x5524
     eb8:	74736575 	ldrbtvc	r6, [r3], #-1397	; 0xfffffa8b
     ebc:	35325f00 	ldrcc	r5, [r2, #-3840]!	; 0xfffff100
     ec0:	72545f36 	subsvc	r5, r4, #54, 30	; 0xd8
     ec4:	66736e61 	ldrbtvs	r6, [r3], -r1, ror #28
     ec8:	00737265 	rsbseq	r7, r3, r5, ror #4
     ecc:	69676552 	stmdbvs	r7!, {r1, r4, r6, r8, sl, sp, lr}^
     ed0:	72657473 	rsbvc	r7, r5, #1929379840	; 0x73000000
     ed4:	006d754e 	rsbeq	r7, sp, lr, asr #10
     ed8:	545f315f 	ldrbpl	r3, [pc], #-351	; ee0 <GPIO_ConfigureCommit+0x40>
     edc:	736e6172 	cmnvc	lr, #-2147483620	; 0x8000001c
     ee0:	00726566 	rsbseq	r6, r2, r6, ror #10
     ee4:	726f6873 	rsbvc	r6, pc, #7536640	; 0x730000
     ee8:	6e752074 	mrcvs	0, 3, r2, cr5, cr4, {3}
     eec:	6e676973 			; <UNDEFINED> instruction: 0x6e676973
     ef0:	69206465 	stmdbvs	r0!, {r0, r2, r5, r6, sl, sp, lr}
     ef4:	5000746e 	andpl	r7, r0, lr, ror #8
     ef8:	4274726f 	rsbsmi	r7, r4, #-268435450	; 0xf0000006
     efc:	726f5000 	rsbvc	r5, pc, #0
     f00:	52004374 	andpl	r4, r0, #116, 6	; 0xd0000001
     f04:	65757165 	ldrbvs	r7, [r5, #-357]!	; 0xfffffe9b
     f08:	79547473 	ldmdbvc	r4, {r0, r1, r4, r5, r6, sl, ip, sp, lr}^
     f0c:	44006570 	strmi	r6, [r0], #-1392	; 0xfffffa90
     f10:	4c5f414d 	ldfmie	f4, [pc], {77}	; 0x4d
     f14:	54747369 	ldrbtpl	r7, [r4], #-873	; 0xfffffc97
     f18:	656c6261 	strbvs	r6, [ip, #-609]!	; 0xfffffd9f
     f1c:	4400745f 	strmi	r7, [r0], #-1119	; 0xfffffba1
     f20:	535f414d 	cmppl	pc, #1073741843	; 0x40000013
     f24:	6c676e69 	stclvs	14, cr6, [r7], #-420	; 0xfffffe5c
     f28:	71655265 	cmnvc	r5, r5, ror #4
     f2c:	74736575 	ldrbtvc	r6, [r3], #-1397	; 0xfffffa8b
     f30:	45465800 	strbmi	r5, [r6, #-2048]	; 0xfffff800
     f34:	444f4d52 	strbmi	r4, [pc], #-3410	; f3c <GPIO_ConfigureOutputPin+0x1c>
     f38:	65530045 	ldrbvs	r0, [r3, #-69]	; 0xffffffbb
     f3c:	66654474 			; <UNDEFINED> instruction: 0x66654474
     f40:	746c7561 	strbtvc	r7, [ip], #-1377	; 0xfffffa9f
     f44:	6f697250 	svcvs	0x00697250
     f48:	79746972 	ldmdbvc	r4!, {r1, r4, r5, r6, r8, fp, sp, lr}^
     f4c:	6e616843 	cdpvs	8, 6, cr6, cr1, cr3, {2}
     f50:	006c656e 	rsbeq	r6, ip, lr, ror #10
     f54:	49435253 	stmdbmi	r3, {r0, r1, r4, r6, r9, ip, lr}^
     f58:	4500434e 	strmi	r4, [r0, #-846]	; 0xfffffcb2
     f5c:	646f636e 	strbtvs	r6, [pc], #-878	; f64 <GPIO_ConfigureOutputPin+0x44>
     f60:	4e676e69 	cdpmi	14, 6, cr6, cr7, cr9, {3}
     f64:	44006d75 	strmi	r6, [r0], #-3445	; 0xfffff28b
     f68:	445f414d 	ldrbmi	r4, [pc], #-333	; f70 <GPIO_ConfigureOutputPin+0x50>
     f6c:	44747365 	ldrbtmi	r7, [r4], #-869	; 0xfffffc9b
     f70:	53617461 	cmnpl	r1, #1627389952	; 0x61000000
     f74:	5f657a69 	svcpl	0x00657a69
     f78:	385f0074 	ldmdacc	pc, {r2, r4, r5, r6}^	; <UNPREDICTABLE>
     f7c:	6172545f 	cmnvs	r2, pc, asr r4
     f80:	6566736e 	strbvs	r7, [r6, #-878]!	; 0xfffffc92
     f84:	44007372 	strmi	r7, [r0], #-882	; 0xfffffc8e
     f88:	445f414d 	ldrbmi	r4, [pc], #-333	; f90 <GPIO_SetPinDirection+0x14>
     f8c:	41747365 	cmnmi	r4, r5, ror #6
     f90:	65726464 	ldrbvs	r6, [r2, #-1124]!	; 0xfffffb9c
     f94:	6e497373 	mcrvs	3, 2, r7, cr9, cr3, {3}
     f98:	6d657263 	sfmvs	f7, 2, [r5, #-396]!	; 0xfffffe74
     f9c:	5f746e65 	svcpl	0x00746e65
     fa0:	65440074 	strbvs	r0, [r4, #-116]	; 0xffffff8c
     fa4:	61447473 	hvcvs	18243	; 0x4743
     fa8:	69536174 	ldmdbvs	r3, {r2, r4, r5, r6, r8, sp, lr}^
     fac:	5f00657a 	svcpl	0x0000657a
     fb0:	5f383231 	svcpl	0x00383231
     fb4:	6e617254 	mcrvs	2, 3, r7, cr1, cr4, {2}
     fb8:	72656673 	rsbvc	r6, r5, #120586240	; 0x7300000
     fbc:	68430073 	stmdavs	r3, {r0, r1, r4, r5, r6}^
     fc0:	656e6e61 	strbvs	r6, [lr, #-3681]!	; 0xfffff19f
     fc4:	746e496c 	strbtvc	r4, [lr], #-2412	; 0xfffff694
     fc8:	75727265 	ldrbvc	r7, [r2, #-613]!	; 0xfffffd9b
     fcc:	74537470 	ldrbvc	r7, [r3], #-1136	; 0xfffffb90
     fd0:	73757461 	cmnvc	r5, #1627389952	; 0x61000000
     fd4:	4300305f 	movwmi	r3, #95	; 0x5f
     fd8:	6e6e6168 	powvsez	f6, f6, #0.0
     fdc:	6e496c65 	cdpvs	12, 4, cr6, cr9, cr5, {3}
     fe0:	72726574 	rsbsvc	r6, r2, #116, 10	; 0x1d000000
     fe4:	53747075 	cmnpl	r4, #117	; 0x75
     fe8:	75746174 	ldrbvc	r6, [r4, #-372]!	; 0xfffffe8c
     fec:	00315f73 	eorseq	r5, r1, r3, ror pc
     ff0:	43414d44 	movtmi	r4, #7492	; 0x1d44
     ff4:	6e6e6168 	powvsez	f6, f6, #0.0
     ff8:	33326c65 	teqcc	r2, #25856	; 0x6500
     ffc:	5241555f 	subpl	r5, r1, #398458880	; 0x17c00000
    1000:	61684354 	cmnvs	r8, r4, asr r3
    1004:	6c656e6e 	stclvs	14, cr6, [r5], #-440	; 0xfffffe48
    1008:	00585432 	subseq	r5, r8, r2, lsr r4
    100c:	5f414d44 	svcpl	0x00414d44
    1010:	666e6f63 	strbtvs	r6, [lr], -r3, ror #30
    1014:	632e6769 			; <UNDEFINED> instruction: 0x632e6769
    1018:	414d4400 	cmpmi	sp, r0, lsl #8
    101c:	6e616843 	cdpvs	8, 6, cr6, cr1, cr3, {2}
    1020:	326c656e 	rsbcc	r6, ip, #461373440	; 0x1b800000
    1024:	654d5f36 	strbvs	r5, [sp, #-3894]	; 0xfffff0ca
    1028:	4d6f546d 	cfstrdmi	mvd5, [pc, #-436]!	; e7c <GPIO_ConfigureDigitalEnable+0x6c>
    102c:	4c006d65 	stcmi	13, cr6, [r0], {101}	; 0x65
    1030:	44747369 	ldrbtmi	r7, [r4], #-873	; 0xfffffc97
    1034:	00747365 	rsbseq	r7, r4, r5, ror #6
    1038:	43414d44 	movtmi	r4, #7492	; 0x1d44
    103c:	6e6e6168 	powvsez	f6, f6, #0.0
    1040:	5f386c65 	svcpl	0x00386c65
    1044:	54524155 	ldrbpl	r4, [r2], #-341	; 0xfffffeab
    1048:	6e616843 	cdpvs	8, 6, cr6, cr1, cr3, {2}
    104c:	306c656e 	rsbcc	r6, ip, lr, ror #10
    1050:	44005852 	strmi	r5, [r0], #-2130	; 0xfffff7ae
    1054:	435f414d 	cmpmi	pc, #1073741843	; 0x40000013
    1058:	6e6e6168 	powvsez	f6, f6, #0.0
    105c:	43736c65 	cmnmi	r3, #25856	; 0x6500
    1060:	69666e6f 	stmdbvs	r6!, {r0, r1, r2, r3, r5, r6, r9, sl, fp, sp, lr}^
    1064:	00585267 	subseq	r5, r8, r7, ror #4
    1068:	43414d44 	movtmi	r4, #7492	; 0x1d44
    106c:	6e6e6168 	powvsez	f6, f6, #0.0
    1070:	36316c65 	ldrtcc	r6, [r1], -r5, ror #24
    1074:	5241555f 	subpl	r5, r1, #398458880	; 0x17c00000
    1078:	61684354 	cmnvs	r8, r4, asr r3
    107c:	6c656e6e 	stclvs	14, cr6, [r5], #-440	; 0xfffffe48
    1080:	00585233 	subseq	r5, r8, r3, lsr r2
    1084:	43414d44 	movtmi	r4, #7492	; 0x1d44
    1088:	6e6e6168 	powvsez	f6, f6, #0.0
    108c:	31326c65 	teqcc	r2, r5, ror #24
    1090:	5241555f 	subpl	r5, r1, #398458880	; 0x17c00000
    1094:	61684354 	cmnvs	r8, r4, asr r3
    1098:	6c656e6e 	stclvs	14, cr6, [r5], #-440	; 0xfffffe48
    109c:	00585437 	subseq	r5, r8, r7, lsr r4
    10a0:	43414d44 	movtmi	r4, #7492	; 0x1d44
    10a4:	6e6e6168 	powvsez	f6, f6, #0.0
    10a8:	38316c65 	ldmdacc	r1!, {r0, r2, r5, r6, sl, fp, sp, lr}
    10ac:	5241555f 	subpl	r5, r1, #398458880	; 0x17c00000
    10b0:	61684354 	cmnvs	r8, r4, asr r3
    10b4:	6c656e6e 	stclvs	14, cr6, [r5], #-440	; 0xfffffe48
    10b8:	00585234 	subseq	r5, r8, r4, lsr r2
    10bc:	7473694c 	ldrbtvc	r6, [r3], #-2380	; 0xfffff6b4
    10c0:	694c0041 	stmdbvs	ip, {r0, r6}^
    10c4:	00437473 	subeq	r7, r3, r3, ror r4
    10c8:	7473694c 	ldrbtvc	r6, [r3], #-2380	; 0xfffff6b4
    10cc:	694c0044 	stmdbvs	ip, {r2, r6}^
    10d0:	00457473 	subeq	r7, r5, r3, ror r4
    10d4:	43414d44 	movtmi	r4, #7492	; 0x1d44
    10d8:	6e6e6168 	powvsez	f6, f6, #0.0
    10dc:	33326c65 	teqcc	r2, #25856	; 0x6500
    10e0:	5241555f 	subpl	r5, r1, #398458880	; 0x17c00000
    10e4:	61684354 	cmnvs	r8, r4, asr r3
    10e8:	6c656e6e 	stclvs	14, cr6, [r5], #-440	; 0xfffffe48
    10ec:	00585431 	subseq	r5, r8, r1, lsr r4
    10f0:	5f414d44 	svcpl	0x00414d44
    10f4:	6e616843 	cdpvs	8, 6, cr6, cr1, cr3, {2}
    10f8:	736c656e 	cmnvc	ip, #461373440	; 0x1b800000
    10fc:	666e6f43 	strbtvs	r6, [lr], -r3, asr #30
    1100:	58546769 	ldmdapl	r4, {r0, r3, r5, r6, r8, r9, sl, sp, lr}^
    1104:	414d4400 	cmpmi	sp, r0, lsl #8
    1108:	6e616843 	cdpvs	8, 6, cr6, cr1, cr3, {2}
    110c:	366c656e 	strbtcc	r6, [ip], -lr, ror #10
    1110:	5241555f 	subpl	r5, r1, #398458880	; 0x17c00000
    1114:	61684354 	cmnvs	r8, r4, asr r3
    1118:	6c656e6e 	stclvs	14, cr6, [r5], #-440	; 0xfffffe48
    111c:	00585235 	subseq	r5, r8, r5, lsr r2
    1120:	43414d44 	movtmi	r4, #7492	; 0x1d44
    1124:	6e6e6168 	powvsez	f6, f6, #0.0
    1128:	30326c65 	eorscc	r6, r2, r5, ror #24
    112c:	5241555f 	subpl	r5, r1, #398458880	; 0x17c00000
    1130:	61684354 	cmnvs	r8, r4, asr r3
    1134:	6c656e6e 	stclvs	14, cr6, [r5], #-440	; 0xfffffe48
    1138:	00585237 	subseq	r5, r8, r7, lsr r2
    113c:	445f7450 	ldrbmi	r7, [pc], #-1104	; 1144 <main+0x4>
    1140:	6843414d 	stmdavs	r3, {r0, r2, r3, r6, r8, lr}^
    1144:	656e6e61 	strbvs	r6, [lr, #-3681]!	; 0xfffff19f
    1148:	4d5f306c 	ldclmi	0, cr3, [pc, #-432]	; fa0 <GPIO_SetPinDirection+0x24>
    114c:	6f546d65 	svcvs	0x00546d65
    1150:	006d654d 	rsbeq	r6, sp, sp, asr #10
    1154:	445f7450 	ldrbmi	r7, [pc], #-1104	; 115c <main+0x1c>
    1158:	6843414d 	stmdavs	r3, {r0, r2, r3, r6, r8, lr}^
    115c:	656e6e61 	strbvs	r6, [lr, #-3681]!	; 0xfffff19f
    1160:	4d5f316c 	ldfmie	f3, [pc, #-432]	; fb8 <GPIO_SetPinDirection+0x3c>
    1164:	6f546d65 	svcvs	0x00546d65
    1168:	006d654d 	rsbeq	r6, sp, sp, asr #10
    116c:	43414d44 	movtmi	r4, #7492	; 0x1d44
    1170:	6e6e6168 	powvsez	f6, f6, #0.0
    1174:	5f306c65 	svcpl	0x00306c65
    1178:	54524155 	ldrbpl	r4, [r2], #-341	; 0xfffffeab
    117c:	6e616843 	cdpvs	8, 6, cr6, cr1, cr3, {2}
    1180:	326c656e 	rsbcc	r6, ip, #461373440	; 0x1b800000
    1184:	4c005852 	stcmi	8, cr5, [r0], {82}	; 0x52
    1188:	42747369 	rsbsmi	r7, r4, #-1543503871	; 0xa4000001
    118c:	73694c00 	cmnvc	r9, #0, 24
    1190:	44004674 	strmi	r4, [r0], #-1652	; 0xfffff98c
    1194:	6843414d 	stmdavs	r3, {r0, r2, r3, r6, r8, lr}^
    1198:	656e6e61 	strbvs	r6, [lr, #-3681]!	; 0xfffff19f
    119c:	555f396c 	ldrbpl	r3, [pc, #-2412]	; 838 <UART_InterruptMaskRegisters+0x4>
    11a0:	43545241 	cmpmi	r4, #268435460	; 0x10000004
    11a4:	6e6e6168 	powvsez	f6, f6, #0.0
    11a8:	54306c65 	ldrtpl	r6, [r0], #-3173	; 0xfffff39b
    11ac:	4d440058 	stclmi	0, cr0, [r4, #-352]	; 0xfffffea0
    11b0:	61684341 	cmnvs	r8, r1, asr #6
    11b4:	6c656e6e 	stclvs	14, cr6, [r5], #-440	; 0xfffffe48
    11b8:	555f3031 	ldrbpl	r3, [pc, #-49]	; 118f <main+0x4f>
    11bc:	43545241 	cmpmi	r4, #268435460	; 0x10000004
    11c0:	6e6e6168 	powvsez	f6, f6, #0.0
    11c4:	52366c65 	eorspl	r6, r6, #25856	; 0x6500
    11c8:	4d440058 	stclmi	0, cr0, [r4, #-352]	; 0xfffffea0
    11cc:	61684341 	cmnvs	r8, r1, asr #6
    11d0:	6c656e6e 	stclvs	14, cr6, [r5], #-440	; 0xfffffe48
    11d4:	555f3731 	ldrbpl	r3, [pc, #-1841]	; aab <DMA_ChannelControlStructureSet+0x107>
    11d8:	43545241 	cmpmi	r4, #268435460	; 0x10000004
    11dc:	6e6e6168 	powvsez	f6, f6, #0.0
    11e0:	54336c65 	ldrtpl	r6, [r3], #-3173	; 0xfffff39b
    11e4:	4d440058 	stclmi	0, cr0, [r4, #-352]	; 0xfffffea0
    11e8:	61684341 	cmnvs	r8, r1, asr #6
    11ec:	6c656e6e 	stclvs	14, cr6, [r5], #-440	; 0xfffffe48
    11f0:	555f3131 	ldrbpl	r3, [pc, #-305]	; 10c7 <GPIO_WriteBitBandBits+0xb>
    11f4:	43545241 	cmpmi	r4, #268435460	; 0x10000004
    11f8:	6e6e6168 	powvsez	f6, f6, #0.0
    11fc:	54366c65 	ldrtpl	r6, [r6], #-3173	; 0xfffff39b
    1200:	4d440058 	stclmi	0, cr0, [r4, #-352]	; 0xfffffea0
    1204:	61684341 	cmnvs	r8, r1, asr #6
    1208:	6c656e6e 	stclvs	14, cr6, [r5], #-440	; 0xfffffe48
    120c:	555f3931 	ldrbpl	r3, [pc, #-2353]	; 8e3 <DMA_PeripheralInitialization+0x2f>
    1210:	43545241 	cmpmi	r4, #268435460	; 0x10000004
    1214:	6e6e6168 	powvsez	f6, f6, #0.0
    1218:	54346c65 	ldrtpl	r6, [r4], #-3173	; 0xfffff39b
    121c:	74500058 	ldrbvc	r0, [r0], #-88	; 0xffffffa8
    1220:	414d445f 	cmpmi	sp, pc, asr r4
    1224:	6e616843 	cdpvs	8, 6, cr6, cr1, cr3, {2}
    1228:	326c656e 	rsbcc	r6, ip, #461373440	; 0x1b800000
    122c:	654d5f38 	strbvs	r5, [sp, #-3896]	; 0xfffff0c8
    1230:	4d6f546d 	cfstrdmi	mvd5, [pc, #-436]!	; 1084 <GPIO_ConfigureInputPin+0x2c>
    1234:	50006d65 	andpl	r6, r0, r5, ror #26
    1238:	4d445f74 	stclmi	15, cr5, [r4, #-464]	; 0xfffffe30
    123c:	61684341 	cmnvs	r8, r1, asr #6
    1240:	6c656e6e 	stclvs	14, cr6, [r5], #-440	; 0xfffffe48
    1244:	4d5f3932 	vldrmi.16	s7, [pc, #-100]	; 11e8 <NVIC_Enable_Interrupt+0x4>	; <UNPREDICTABLE>
    1248:	6f546d65 	svcvs	0x00546d65
    124c:	006d654d 	rsbeq	r6, sp, sp, asr #10
    1250:	43414d44 	movtmi	r4, #7492	; 0x1d44
    1254:	6e6e6168 	powvsez	f6, f6, #0.0
    1258:	32326c65 	eorscc	r6, r2, #25856	; 0x6500
    125c:	5241555f 	subpl	r5, r1, #398458880	; 0x17c00000
    1260:	61684354 	cmnvs	r8, r4, asr r3
    1264:	6c656e6e 	stclvs	14, cr6, [r5], #-440	; 0xfffffe48
    1268:	00585231 	subseq	r5, r8, r1, lsr r2
    126c:	43414d44 	movtmi	r4, #7492	; 0x1d44
    1270:	6e6e6168 	powvsez	f6, f6, #0.0
    1274:	5f376c65 	svcpl	0x00376c65
    1278:	54524155 	ldrbpl	r4, [r2], #-341	; 0xfffffeab
    127c:	6e616843 	cdpvs	8, 6, cr6, cr1, cr3, {2}
    1280:	356c656e 	strbcc	r6, [ip, #-1390]!	; 0xfffffa92
    1284:	64005854 	strvs	r5, [r0], #-2132	; 0xfffff7ac
    1288:	796d6d75 	stmdbvc	sp!, {r0, r2, r4, r5, r6, r8, sl, fp, sp, lr}^
    128c:	6f636d5f 	svcvs	0x00636d5f
    1290:	2e746e75 	mrccs	14, 3, r6, cr4, cr5, {3}
    1294:	5f5f0063 	svcpl	0x005f0063
    1298:	5f756e67 	svcpl	0x00756e67
    129c:	756f636d 	strbvc	r6, [pc, #-877]!	; f37 <GPIO_ConfigureOutputPin+0x17>
    12a0:	6e5f746e 	cdpvs	4, 5, cr7, cr15, cr14, {3}
    12a4:	46410063 	strbmi	r0, [r1], -r3, rrx
    12a8:	4d4c4553 	cfstr64mi	mvdx4, [ip, #-332]	; 0xfffffeb4
    12ac:	0065646f 	rsbeq	r6, r5, pc, ror #8
    12b0:	49545845 	ldmdbmi	r4, {r0, r2, r6, fp, ip, lr}^
    12b4:	746e4944 	strbtvc	r4, [lr], #-2372	; 0xfffff6bc
    12b8:	646e6148 	strbtvs	r6, [lr], #-328	; 0xfffffeb8
    12bc:	0072656c 	rsbseq	r6, r2, ip, ror #10
    12c0:	4f495047 	svcmi	0x00495047
    12c4:	5458455f 	ldrbpl	r4, [r8], #-1375	; 0xfffffaa1
    12c8:	656c4349 	strbvs	r4, [ip, #-841]!	; 0xfffffcb7
    12cc:	6e497261 	cdpvs	2, 4, cr7, cr9, cr1, {3}
    12d0:	72726574 	rsbsvc	r6, r2, #116, 10	; 0x1d000000
    12d4:	00747075 	rsbseq	r7, r4, r5, ror r0
    12d8:	49545845 	ldmdbmi	r4, {r0, r2, r6, fp, ip, lr}^
    12dc:	6c61435f 	stclvs	3, cr4, [r1], #-380	; 0xfffffe84
    12e0:	6361626c 	cmnvs	r1, #108, 4	; 0xc0000006
    12e4:	5047006b 	subpl	r0, r7, fp, rrx
    12e8:	435f4f49 	cmpmi	pc, #292	; 0x124
    12ec:	69666e6f 	stmdbvs	r6!, {r0, r1, r2, r3, r5, r6, r9, sl, fp, sp, lr}^
    12f0:	65727567 	ldrbvs	r7, [r2, #-1383]!	; 0xfffffa99
    12f4:	6d6d6f43 	stclvs	15, cr6, [sp, #-268]!	; 0xfffffef4
    12f8:	70007469 	andvc	r7, r0, r9, ror #8
    12fc:	69545f74 	ldmdbvs	r4, {r2, r4, r5, r6, r8, r9, sl, fp, ip, lr}^
    1300:	4372656d 	cmnmi	r2, #457179136	; 0x1b400000
    1304:	69666e6f 	stmdbvs	r6!, {r0, r1, r2, r3, r5, r6, r9, sl, fp, sp, lr}^
    1308:	61684367 	cmnvs	r8, r7, ror #6
    130c:	6c656e6e 	stclvs	14, cr6, [r5], #-440	; 0xfffffe48
    1310:	49504700 	ldmdbmi	r0, {r8, r9, sl, lr}^
    1314:	69505f4f 	ldmdbvs	r0, {r0, r1, r2, r3, r6, r8, r9, sl, fp, ip, lr}^
    1318:	6174536e 	cmnvs	r4, lr, ror #6
    131c:	745f6574 	ldrbvc	r6, [pc], #-1396	; 1324 <SC_GetOscillatorValue+0x1c>
    1320:	49504700 	ldmdbmi	r0, {r8, r9, sl, lr}^
    1324:	69445f4f 	stmdbvs	r4, {r0, r1, r2, r3, r6, r8, r9, sl, fp, ip, lr}^
    1328:	61746967 	cmnvs	r4, r7, ror #18
    132c:	616e456c 	cmnvs	lr, ip, ror #10
    1330:	5f656c62 	svcpl	0x00656c62
    1334:	00676552 	rsbeq	r6, r7, r2, asr r5
    1338:	4f495047 	svcmi	0x00495047
    133c:	676f545f 			; <UNDEFINED> instruction: 0x676f545f
    1340:	42656c67 	rsbmi	r6, r5, #26368	; 0x6700
    1344:	61427469 	cmpvs	r2, r9, ror #8
    1348:	6942646e 	stmdbvs	r2, {r1, r2, r3, r5, r6, sl, sp, lr}^
    134c:	47007374 	smlsdxmi	r0, r4, r3, r7
    1350:	5f4f4950 	svcpl	0x004f4950
    1354:	62616e45 	rsbvs	r6, r1, #1104	; 0x450
    1358:	4641656c 	strbmi	r6, [r1], -ip, ror #10
    135c:	5f4c4553 	svcpl	0x004c4553
    1360:	54524155 	ldrbpl	r4, [r2], #-341	; 0xfffffeab
    1364:	78754d00 	ldmdavc	r5!, {r8, sl, fp, lr}^
    1368:	756c6156 	strbvc	r6, [ip, #-342]!	; 0xfffffeaa
    136c:	31315f65 	teqcc	r1, r5, ror #30
    1370:	706e4900 	rsbvc	r4, lr, r0, lsl #18
    1374:	6c467475 	cfstrdvs	mvd7, [r6], {117}	; 0x75
    1378:	0074616f 	rsbseq	r6, r4, pc, ror #2
    137c:	65746e49 	ldrbvs	r6, [r4, #-3657]!	; 0xfffff1b7
    1380:	70757272 	rsbsvc	r7, r5, r2, ror r2
    1384:	73614d74 	cmnvc	r1, #116, 26	; 0x1d00
    1388:	616e456b 	cmnvs	lr, fp, ror #10
    138c:	00656c62 	rsbeq	r6, r5, r2, ror #24
    1390:	4f495047 	svcmi	0x00495047
    1394:	6e6f435f 	mcrvs	3, 3, r4, cr15, cr15, {2}
    1398:	75676966 	strbvc	r6, [r7, #-2406]!	; 0xfffff69a
    139c:	69446572 	stmdbvs	r4, {r1, r4, r5, r6, r8, sl, sp, lr}^
    13a0:	61746967 	cmnvs	r4, r7, ror #18
    13a4:	616e456c 	cmnvs	lr, ip, ror #10
    13a8:	00656c62 	rsbeq	r6, r5, r2, ror #24
    13ac:	4f495047 	svcmi	0x00495047
    13b0:	7461445f 	strbtvc	r4, [r1], #-1119	; 0xfffffba1
    13b4:	65525f61 	ldrbvs	r5, [r2, #-3937]	; 0xfffff09f
    13b8:	74736967 	ldrbtvc	r6, [r3], #-2407	; 0xfffff699
    13bc:	00737265 	rsbseq	r7, r3, r5, ror #4
    13c0:	4f495047 	svcmi	0x00495047
    13c4:	676f545f 			; <UNDEFINED> instruction: 0x676f545f
    13c8:	50656c67 	rsbpl	r6, r5, r7, ror #24
    13cc:	61566e69 	cmpvs	r6, r9, ror #28
    13d0:	0065756c 	rsbeq	r7, r5, ip, ror #10
    13d4:	555f7470 	ldrbpl	r7, [pc, #-1136]	; f6c <GPIO_ConfigureOutputPin+0x4c>
    13d8:	43545241 	cmpmi	r4, #268435460	; 0x10000004
    13dc:	69666e6f 	stmdbvs	r6!, {r0, r1, r2, r3, r5, r6, r9, sl, fp, sp, lr}^
    13e0:	61684367 	cmnvs	r8, r7, ror #6
    13e4:	6c656e6e 	stclvs	14, cr6, [r5], #-440	; 0xfffffe48
    13e8:	54584500 	ldrbpl	r4, [r8], #-1280	; 0xfffffb00
    13ec:	6e494249 	cdpvs	2, 4, cr4, cr9, cr9, {2}
    13f0:	6e614874 	mcrvs	8, 3, r4, cr1, cr4, {3}
    13f4:	72656c64 	rsbvc	r6, r5, #100, 24	; 0x6400
    13f8:	616e4500 	cmnvs	lr, r0, lsl #10
    13fc:	5f656c62 	svcpl	0x00656c62
    1400:	45534641 	ldrbmi	r4, [r3, #-1601]	; 0xfffff9bf
    1404:	5047004c 	subpl	r0, r7, ip, asr #32
    1408:	535f4f49 	cmppl	pc, #292	; 0x124
    140c:	61447465 	cmpvs	r4, r5, ror #8
    1410:	47006174 	smlsdxmi	r0, r4, r1, r6
    1414:	5f4f4950 	svcpl	0x004f4950
    1418:	62616e45 	rsbvs	r6, r1, #1104	; 0x450
    141c:	4641656c 	strbmi	r6, [r1], -ip, ror #10
    1420:	5f4c4553 	svcpl	0x004c4553
    1424:	4d545047 	ldclmi	0, cr5, [r4, #-284]	; 0xfffffee4
    1428:	49504700 	ldmdbmi	r0, {r8, r9, sl, lr}^
    142c:	4f4c5f4f 	svcmi	0x004c5f4f
    1430:	525f4b43 	subspl	r4, pc, #68608	; 0x10c00
    1434:	73696765 	cmnvc	r9, #26476544	; 0x1940000
    1438:	73726574 	cmnvc	r2, #116, 10	; 0x1d000000
    143c:	726f5000 	rsbvc	r5, pc, #0
    1440:	6d754e74 	ldclvs	14, cr4, [r5, #-464]!	; 0xfffffe30
    1444:	65646e49 	strbvs	r6, [r4, #-3657]!	; 0xfffff1b7
    1448:	72724178 	rsbsvc	r4, r2, #120, 2
    144c:	49504700 	ldmdbmi	r0, {r8, r9, sl, lr}^
    1450:	6f505f4f 	svcvs	0x00505f4f
    1454:	6f437472 	svcvs	0x00437472
    1458:	6f72746e 	svcvs	0x0072746e
    145c:	65525f6c 	ldrbvs	r5, [r2, #-3948]	; 0xfffff094
    1460:	74736967 	ldrbtvc	r6, [r3], #-2407	; 0xfffff699
    1464:	00737265 	rsbseq	r7, r3, r5, ror #4
    1468:	61736944 	cmnvs	r3, r4, asr #18
    146c:	4c656c62 	stclmi	12, cr6, [r5], #-392	; 0xfffffe78
    1470:	006b636f 	rsbeq	r6, fp, pc, ror #6
    1474:	4f495047 	svcmi	0x00495047
    1478:	7461445f 	strbtvc	r4, [r1], #-1119	; 0xfffffba1
    147c:	65525f61 	ldrbvs	r5, [r2, #-3937]	; 0xfffff09f
    1480:	58450067 	stmdapl	r5, {r0, r1, r2, r5, r6}^
    1484:	49464954 	stmdbmi	r6, {r2, r4, r6, r8, fp, lr}^
    1488:	6148746e 	cmpvs	r8, lr, ror #8
    148c:	656c646e 	strbvs	r6, [ip, #-1134]!	; 0xfffffb92
    1490:	69500072 	ldmdbvs	r0, {r1, r4, r5, r6}^
    1494:	6174536e 	cmnvs	r4, lr, ror #6
    1498:	47006574 	smlsdxmi	r0, r4, r5, r6
    149c:	5f4f4950 	svcpl	0x004f4950
    14a0:	666e6f43 	strbtvs	r6, [lr], -r3, asr #30
    14a4:	72756769 	rsbsvc	r6, r5, #27525120	; 0x1a40000
    14a8:	74754f65 	ldrbtvc	r4, [r5], #-3941	; 0xfffff09b
    14ac:	50747570 	rsbspl	r7, r4, r0, ror r5
    14b0:	47006e69 	strmi	r6, [r0, -r9, ror #28]
    14b4:	5f4f4950 	svcpl	0x004f4950
    14b8:	45534641 	ldrbmi	r4, [r3, #-1601]	; 0xfffff9bf
    14bc:	65525f4c 	ldrbvs	r5, [r2, #-3916]	; 0xfffff0b4
    14c0:	614d0067 	cmpvs	sp, r7, rrx
    14c4:	6d754e78 	ldclvs	14, cr4, [r5, #-480]!	; 0xfffffe20
    14c8:	74617453 	strbtvc	r7, [r1], #-1107	; 0xfffffbad
    14cc:	50470065 	subpl	r0, r7, r5, rrx
    14d0:	415f4f49 	cmpmi	pc, r9, asr #30
    14d4:	4c455346 	mcrrmi	3, 4, r5, r5, cr6
    14d8:	65646f4d 	strbvs	r6, [r4, #-3917]!	; 0xfffff0b3
    14dc:	4700745f 	smlsdmi	r0, pc, r4, r7	; <UNPREDICTABLE>
    14e0:	5f4f4950 	svcpl	0x004f4950
    14e4:	666e6f43 	strbtvs	r6, [lr], -r3, asr #30
    14e8:	72756769 	rsbsvc	r6, r5, #27525120	; 0x1a40000
    14ec:	61684365 	cmnvs	r8, r5, ror #6
    14f0:	6c656e6e 	stclvs	14, cr6, [r5], #-440	; 0xfffffe48
    14f4:	5f6d754e 	svcpl	0x006d754e
    14f8:	50470074 	subpl	r0, r7, r4, ror r0
    14fc:	495f4f49 	ldmdbmi	pc, {r0, r3, r6, r8, r9, sl, fp, lr}^	; <UNPREDICTABLE>
    1500:	7265746e 	rsbvc	r7, r5, #1845493760	; 0x6e000000
    1504:	74707572 	ldrbtvc	r7, [r0], #-1394	; 0xfffffa8e
    1508:	6e657645 	cdpvs	6, 6, cr7, cr5, cr5, {2}
    150c:	65525f74 	ldrbvs	r5, [r2, #-3956]	; 0xfffff08c
    1510:	50470067 	subpl	r0, r7, r7, rrx
    1514:	435f4f49 	cmpmi	pc, #292	; 0x124
    1518:	69666e6f 	stmdbvs	r6!, {r0, r1, r2, r3, r5, r6, r9, sl, fp, sp, lr}^
    151c:	65727567 	ldrbvs	r7, [r2, #-1383]!	; 0xfffffa99
    1520:	6c616e41 	stclvs	14, cr6, [r1], #-260	; 0xfffffefc
    1524:	6f4d676f 	svcvs	0x004d676f
    1528:	65536564 	ldrbvs	r6, [r3, #-1380]	; 0xfffffa9c
    152c:	7463656c 	strbtvc	r6, [r3], #-1388	; 0xfffffa94
    1530:	73657200 	cmnvc	r5, #0, 4
    1534:	65767265 	ldrbvs	r7, [r6, #-613]!	; 0xfffffd9b
    1538:	50470064 	subpl	r0, r7, r4, rrx
    153c:	415f4f49 	cmpmi	pc, r9, asr #30
    1540:	4c45534d 	mcrrmi	3, 4, r5, r5, cr13
    1544:	65646f4d 	strbvs	r6, [r4, #-3917]!	; 0xfffff0b3
    1548:	4500745f 	strmi	r7, [r0, #-1119]	; 0xfffffba1
    154c:	41495458 	cmpmi	r9, r8, asr r4
    1550:	48746e49 	ldmdami	r4!, {r0, r3, r6, r9, sl, fp, sp, lr}^
    1554:	6c646e61 	stclvs	14, cr6, [r4], #-388	; 0xfffffe7c
    1558:	45007265 	strmi	r7, [r0, #-613]	; 0xfffffd9b
    155c:	6c62616e 	stfvse	f6, [r2], #-440	; 0xfffffe48
    1560:	67694465 	strbvs	r4, [r9, -r5, ror #8]!
    1564:	6c617469 	cfstrdvs	mvd7, [r1], #-420	; 0xfffffe5c
    1568:	636e7546 	cmnvs	lr, #293601280	; 0x11800000
    156c:	6e6f6974 			; <UNDEFINED> instruction: 0x6e6f6974
    1570:	746e4900 	strbtvc	r4, [lr], #-2304	; 0xfffff700
    1574:	75727265 	ldrbvc	r7, [r2, #-613]!	; 0xfffffd9b
    1578:	535f7470 	cmppl	pc, #112, 8	; 0x70000000
    157c:	65636e65 	strbvs	r6, [r3, #-3685]!	; 0xfffff19b
    1580:	49504700 	ldmdbmi	r0, {r8, r9, sl, lr}^
    1584:	6e495f4f 	cdpvs	15, 4, cr5, cr9, cr15, {2}
    1588:	72726574 	rsbsvc	r6, r2, #116, 10	; 0x1d000000
    158c:	53747075 	cmnpl	r4, #117	; 0x75
    1590:	65736e65 	ldrbvs	r6, [r3, #-3685]!	; 0xfffff19b
    1594:	6765525f 			; <UNDEFINED> instruction: 0x6765525f
    1598:	6e6f4300 	cdpvs	3, 6, cr4, cr15, cr0, {0}
    159c:	75676966 	strbvc	r6, [r7, #-2406]!	; 0xfffff69a
    15a0:	68436572 	stmdavs	r3, {r1, r4, r5, r6, r8, sl, sp, lr}^
    15a4:	656e6e61 	strbvs	r6, [lr, #-3681]!	; 0xfffff19f
    15a8:	6d754e6c 	ldclvs	14, cr4, [r5, #-432]!	; 0xfffffe50
    15ac:	78754d00 	ldmdavc	r5!, {r8, sl, fp, lr}^
    15b0:	756c6156 	strbvc	r6, [ip, #-342]!	; 0xfffffeaa
    15b4:	30315f65 	eorscc	r5, r1, r5, ror #30
    15b8:	78754d00 	ldmdavc	r5!, {r8, sl, fp, lr}^
    15bc:	756c6156 	strbvc	r6, [ip, #-342]!	; 0xfffffeaa
    15c0:	32315f65 	eorscc	r5, r1, #404	; 0x194
    15c4:	78754d00 	ldmdavc	r5!, {r8, sl, fp, lr}^
    15c8:	756c6156 	strbvc	r6, [ip, #-342]!	; 0xfffffeaa
    15cc:	33315f65 	teqcc	r1, #404	; 0x194
    15d0:	78754d00 	ldmdavc	r5!, {r8, sl, fp, lr}^
    15d4:	756c6156 	strbvc	r6, [ip, #-342]!	; 0xfffffeaa
    15d8:	34315f65 	ldrtcc	r5, [r1], #-3941	; 0xfffff09b
    15dc:	616e4500 	cmnvs	lr, r0, lsl #10
    15e0:	5f656c62 	svcpl	0x00656c62
    15e4:	45534d41 	ldrbmi	r4, [r3, #-3393]	; 0xfffff2bf
    15e8:	6944004c 	stmdbvs	r4, {r2, r3, r6}^
    15ec:	6c626173 	stfvse	f6, [r2], #-460	; 0xfffffe34
    15f0:	67694465 	strbvs	r4, [r9, -r5, ror #8]!
    15f4:	6c617469 	cfstrdvs	mvd7, [r1], #-420	; 0xfffffe5c
    15f8:	636e7546 	cmnvs	lr, #293601280	; 0x11800000
    15fc:	6e6f6974 			; <UNDEFINED> instruction: 0x6e6f6974
    1600:	746e4900 	strbtvc	r4, [lr], #-2304	; 0xfffff700
    1604:	75727265 	ldrbvc	r7, [r2, #-613]!	; 0xfffffd9b
    1608:	76457470 			; <UNDEFINED> instruction: 0x76457470
    160c:	00746e65 	rsbseq	r6, r4, r5, ror #28
    1610:	4f495047 	svcmi	0x00495047
    1614:	7269445f 	rsbvc	r4, r9, #1593835520	; 0x5f000000
    1618:	69746365 	ldmdbvs	r4!, {r0, r2, r5, r6, r8, r9, sp, lr}^
    161c:	525f6e6f 	subspl	r6, pc, #1776	; 0x6f0
    1620:	73696765 	cmnvc	r9, #26476544	; 0x1940000
    1624:	73726574 	cmnvc	r2, #116, 10	; 0x1d000000
    1628:	49504700 	ldmdbmi	r0, {r8, r9, sl, lr}^
    162c:	72575f4f 	subsvc	r5, r7, #316	; 0x13c
    1630:	42657469 	rsbmi	r7, r5, #1761607680	; 0x69000000
    1634:	61427469 	cmpvs	r2, r9, ror #8
    1638:	6942646e 	stmdbvs	r2, {r1, r2, r3, r5, r6, sl, sp, lr}^
    163c:	47007374 	smlsdxmi	r0, r4, r3, r7
    1640:	5f4f4950 	svcpl	0x004f4950
    1644:	65746e49 	ldrbvs	r6, [r4, #-3657]!	; 0xfffff1b7
    1648:	70757272 	rsbsvc	r7, r5, r2, ror r2
    164c:	656c4374 	strbvs	r4, [ip, #-884]!	; 0xfffffc8c
    1650:	525f7261 	subspl	r7, pc, #268435462	; 0x10000006
    1654:	73696765 	cmnvc	r9, #26476544	; 0x1940000
    1658:	73726574 	cmnvc	r2, #116, 10	; 0x1d000000
    165c:	49504700 	ldmdbmi	r0, {r8, r9, sl, lr}^
    1660:	69445f4f 	stmdbvs	r4, {r0, r1, r2, r3, r6, r8, r9, sl, fp, ip, lr}^
    1664:	61746967 	cmnvs	r4, r7, ror #18
    1668:	646f4d6c 	strbtvs	r4, [pc], #-3436	; 1670 <_E_text+0x184>
    166c:	00745f65 	rsbseq	r5, r4, r5, ror #30
    1670:	4f495047 	svcmi	0x00495047
    1674:	6769445f 			; <UNDEFINED> instruction: 0x6769445f
    1678:	6c617469 	cfstrdvs	mvd7, [r1], #-420	; 0xfffffe5c
    167c:	62616e45 	rsbvs	r6, r1, #1104	; 0x450
    1680:	525f656c 	subspl	r6, pc, #108, 10	; 0x1b000000
    1684:	73696765 	cmnvc	r9, #26476544	; 0x1940000
    1688:	73726574 	cmnvc	r2, #116, 10	; 0x1d000000
    168c:	49504700 	ldmdbmi	r0, {r8, r9, sl, lr}^
    1690:	754f5f4f 	strbvc	r5, [pc, #-3919]	; 749 <UART_DataRegisters+0x15>
    1694:	74757074 	ldrbtvc	r7, [r5], #-116	; 0xffffff8c
    1698:	756c6156 	strbvc	r6, [ip, #-342]!	; 0xfffffeaa
    169c:	00745f65 	rsbseq	r5, r4, r5, ror #30
    16a0:	6e616843 	cdpvs	8, 6, cr6, cr1, cr3, {2}
    16a4:	4e6c656e 	cdpmi	5, 6, cr6, cr12, cr14, {3}
    16a8:	78526d75 	ldmdavc	r2, {r0, r2, r4, r5, r6, r8, sl, fp, sp, lr}^
    16ac:	6e6f4300 	cdpvs	3, 6, cr4, cr15, cr0, {0}
    16b0:	75676966 	strbvc	r6, [r7, #-2406]!	; 0xfffff69a
    16b4:	754d6572 	strbvc	r6, [sp, #-1394]	; 0xfffffa8e
    16b8:	6c615678 	stclvs	6, cr5, [r1], #-480	; 0xfffffe20
    16bc:	47006575 	smlsdxmi	r0, r5, r5, r6
    16c0:	5f4f4950 	svcpl	0x004f4950
    16c4:	65746e49 	ldrbvs	r6, [r4, #-3657]!	; 0xfffff1b7
    16c8:	70757272 	rsbsvc	r7, r5, r2, ror r2
    16cc:	73614d74 	cmnvc	r1, #116, 26	; 0x1d00
    16d0:	65525f6b 	ldrbvs	r5, [r2, #-3947]	; 0xfffff095
    16d4:	74736967 	ldrbtvc	r6, [r3], #-2407	; 0xfffff699
    16d8:	00737265 	rsbseq	r7, r3, r5, ror #4
    16dc:	4f495047 	svcmi	0x00495047
    16e0:	726f505f 	rsbvc	r5, pc, #95	; 0x5f
    16e4:	6f435f74 	svcvs	0x00435f74
    16e8:	74696d6d 	strbtvc	r6, [r9], #-3437	; 0xfffff293
    16ec:	49504700 	ldmdbmi	r0, {r8, r9, sl, lr}^
    16f0:	6f435f4f 	svcvs	0x00435f4f
    16f4:	6769666e 	strbvs	r6, [r9, -lr, ror #12]!
    16f8:	41657275 	smcmi	22309	; 0x5725
    16fc:	7265746c 	rsbvc	r7, r5, #108, 8	; 0x6c000000
    1700:	6574616e 	ldrbvs	r6, [r4, #-366]!	; 0xfffffe92
    1704:	636e7546 	cmnvs	lr, #293601280	; 0x11800000
    1708:	6e6f6974 			; <UNDEFINED> instruction: 0x6e6f6974
    170c:	656c6553 	strbvs	r6, [ip, #-1363]!	; 0xfffffaad
    1710:	47007463 	strmi	r7, [r0, -r3, ror #8]
    1714:	5f4f4950 	svcpl	0x004f4950
    1718:	62616e45 	rsbvs	r6, r1, #1104	; 0x450
    171c:	7552656c 	ldrbvc	r6, [r2, #-1388]	; 0xfffffa94
    1720:	646f4d6e 	strbtvs	r4, [pc], #-3438	; 1728 <_E_text+0x23c>
    1724:	6f6c4365 	svcvs	0x006c4365
    1728:	61476b63 	cmpvs	r7, r3, ror #22
    172c:	6f436574 	svcvs	0x00436574
    1730:	6f72746e 	svcvs	0x0072746e
    1734:	6944006c 	stmdbvs	r4, {r2, r3, r5, r6}^
    1738:	6c626173 	stfvse	f6, [r2], #-460	; 0xfffffe34
    173c:	6e495f65 	cdpvs	15, 4, cr5, cr9, cr5, {3}
    1740:	72726574 	rsbsvc	r6, r2, #116, 10	; 0x1d000000
    1744:	4d747075 	ldclmi	0, cr7, [r4, #-468]!	; 0xfffffe2c
    1748:	006b7361 	rsbeq	r7, fp, r1, ror #6
    174c:	4f495047 	svcmi	0x00495047
    1750:	6e6f435f 	mcrvs	3, 3, r4, cr15, cr15, {2}
    1754:	75676966 	strbvc	r6, [r7, #-2406]!	; 0xfffff69a
    1758:	754d6572 	strbvc	r6, [sp, #-1394]	; 0xfffffa8e
    175c:	6c615678 	stclvs	6, cr5, [r1], #-480	; 0xfffffe20
    1760:	745f6575 	ldrbvc	r6, [pc], #-1397	; 1768 <_E_text+0x27c>
    1764:	636f4c00 	cmnvs	pc, #0, 24
    1768:	646f4d6b 	strbtvs	r4, [pc], #-3435	; 1770 <_E_text+0x284>
    176c:	58450065 	stmdapl	r5, {r0, r2, r5, r6}^
    1770:	49434954 	stmdbmi	r3, {r2, r4, r6, r8, fp, lr}^
    1774:	6148746e 	cmpvs	r8, lr, ror #8
    1778:	656c646e 	strbvs	r6, [ip, #-1134]!	; 0xfffffb92
    177c:	50470072 	subpl	r0, r7, r2, ror r0
    1780:	505f4f49 	subspl	r4, pc, r9, asr #30
    1784:	4e74726f 	cdpmi	2, 7, cr7, cr4, cr15, {3}
    1788:	6e496d75 	mcrvs	13, 2, r6, cr9, cr5, {3}
    178c:	41786564 	cmnmi	r8, r4, ror #10
    1790:	745f7272 	ldrbvc	r7, [pc], #-626	; 1798 <_E_text+0x2ac>
    1794:	49504700 	ldmdbmi	r0, {r8, r9, sl, lr}^
    1798:	6e495f4f 	cdpvs	15, 4, cr5, cr9, cr15, {2}
    179c:	72726574 	rsbsvc	r6, r2, #116, 10	; 0x1d000000
    17a0:	53747075 	cmnpl	r4, #117	; 0x75
    17a4:	65736e65 	ldrbvs	r6, [r3, #-3685]!	; 0xfffff19b
    17a8:	6765525f 			; <UNDEFINED> instruction: 0x6765525f
    17ac:	65747369 	ldrbvs	r7, [r4, #-873]!	; 0xfffffc97
    17b0:	4f007372 	svcmi	0x00007372
    17b4:	75707475 	ldrbvc	r7, [r0, #-1141]!	; 0xfffffb8b
    17b8:	6c615674 	stclvs	6, cr5, [r1], #-464	; 0xfffffe30
    17bc:	47006575 	smlsdxmi	r0, r5, r5, r6
    17c0:	2e4f4950 			; <UNDEFINED> instruction: 0x2e4f4950
    17c4:	50470063 	subpl	r0, r7, r3, rrx
    17c8:	55504f49 	ldrbpl	r4, [r0, #-3913]	; 0xfffff0b7
    17cc:	65525f52 	ldrbvs	r5, [r2, #-3922]	; 0xfffff0ae
    17d0:	6e450067 	cdpvs	0, 4, cr0, cr5, cr7, {3}
    17d4:	656c6261 	strbvs	r6, [ip, #-609]!	; 0xfffffd9f
    17d8:	6b636f4c 	blvs	18dd510 <_E_text+0x18dc024>
    17dc:	49504700 	ldmdbmi	r0, {r8, r9, sl, lr}^
    17e0:	6e495f4f 	cdpvs	15, 4, cr5, cr9, cr15, {2}
    17e4:	72726574 	rsbsvc	r6, r2, #116, 10	; 0x1d000000
    17e8:	4d747075 	ldclmi	0, cr7, [r4, #-468]!	; 0xfffffe2c
    17ec:	5f6b7361 	svcpl	0x006b7361
    17f0:	00676552 	rsbeq	r6, r7, r2, asr r5
    17f4:	4f495047 	svcmi	0x00495047
    17f8:	6e6f435f 	mcrvs	3, 3, r4, cr15, cr15, {2}
    17fc:	75676966 	strbvc	r6, [r7, #-2406]!	; 0xfffff69a
    1800:	6e496572 	mcrvs	5, 2, r6, cr9, cr2, {3}
    1804:	72726574 	rsbsvc	r6, r2, #116, 10	; 0x1d000000
    1808:	4d747075 	ldclmi	0, cr7, [r4, #-468]!	; 0xfffffe2c
    180c:	006b7361 	rsbeq	r7, fp, r1, ror #6
    1810:	4f495047 	svcmi	0x00495047
    1814:	7269445f 	rsbvc	r4, r9, #1593835520	; 0x5f000000
    1818:	69746365 	ldmdbvs	r4!, {r0, r2, r5, r6, r8, r9, sp, lr}^
    181c:	525f6e6f 	subspl	r6, pc, #1776	; 0x6f0
    1820:	47006765 	strmi	r6, [r0, -r5, ror #14]
    1824:	5f4f4950 	svcpl	0x004f4950
    1828:	49746553 	ldmdbmi	r4!, {r0, r1, r4, r6, r8, sl, sp, lr}^
    182c:	7475706e 	ldrbtvc	r7, [r5], #-110	; 0xffffff92
    1830:	74617453 	strbtvc	r7, [r1], #-1107	; 0xfffffbad
    1834:	63007375 	movwvs	r7, #885	; 0x375
    1838:	696d6d6f 	stmdbvs	sp!, {r0, r1, r2, r3, r5, r6, r8, sl, fp, sp, lr}^
    183c:	50470074 	subpl	r0, r7, r4, ror r0
    1840:	495f4f49 	ldmdbmi	pc, {r0, r3, r6, r8, r9, sl, fp, lr}^	; <UNPREDICTABLE>
    1844:	7265746e 	rsbvc	r7, r5, #1845493760	; 0x6e000000
    1848:	74707572 	ldrbtvc	r7, [r0], #-1394	; 0xfffffa8e
    184c:	6e657645 	cdpvs	6, 6, cr7, cr5, cr5, {2}
    1850:	65525f74 	ldrbvs	r5, [r2, #-3956]	; 0xfffff08c
    1854:	74736967 	ldrbtvc	r6, [r3], #-2407	; 0xfffff699
    1858:	00737265 	rsbseq	r7, r3, r5, ror #4
    185c:	5678754d 	ldrbtpl	r7, [r8], -sp, asr #10
    1860:	65756c61 	ldrbvs	r6, [r5, #-3169]!	; 0xfffff39f
    1864:	4d00305f 	stcmi	0, cr3, [r0, #-380]	; 0xfffffe84
    1868:	61567875 	cmpvs	r6, r5, ror r8
    186c:	5f65756c 	svcpl	0x0065756c
    1870:	754d0031 	strbvc	r0, [sp, #-49]	; 0xffffffcf
    1874:	6c615678 	stclvs	6, cr5, [r1], #-480	; 0xfffffe20
    1878:	325f6575 	subscc	r6, pc, #490733568	; 0x1d400000
    187c:	78754d00 	ldmdavc	r5!, {r8, sl, fp, lr}^
    1880:	756c6156 	strbvc	r6, [ip, #-342]!	; 0xfffffeaa
    1884:	00335f65 	eorseq	r5, r3, r5, ror #30
    1888:	5678754d 	ldrbtpl	r7, [r8], -sp, asr #10
    188c:	65756c61 	ldrbvs	r6, [r5, #-3169]!	; 0xfffff39f
    1890:	4d00345f 	cfstrsmi	mvf3, [r0, #-380]	; 0xfffffe84
    1894:	61567875 	cmpvs	r6, r5, ror r8
    1898:	5f65756c 	svcpl	0x0065756c
    189c:	754d0035 	strbvc	r0, [sp, #-53]	; 0xffffffcb
    18a0:	6c615678 	stclvs	6, cr5, [r1], #-480	; 0xfffffe20
    18a4:	365f6575 			; <UNDEFINED> instruction: 0x365f6575
    18a8:	78754d00 	ldmdavc	r5!, {r8, sl, fp, lr}^
    18ac:	756c6156 	strbvc	r6, [ip, #-342]!	; 0xfffffeaa
    18b0:	00375f65 	eorseq	r5, r7, r5, ror #30
    18b4:	5678754d 	ldrbtpl	r7, [r8], -sp, asr #10
    18b8:	65756c61 	ldrbvs	r6, [r5, #-3169]!	; 0xfffff39f
    18bc:	4d00385f 	stcmi	8, cr3, [r0, #-380]	; 0xfffffe84
    18c0:	61567875 	cmpvs	r6, r5, ror r8
    18c4:	5f65756c 	svcpl	0x0065756c
    18c8:	50470039 	subpl	r0, r7, r9, lsr r0
    18cc:	435f4f49 	cmpmi	pc, #292	; 0x124
    18d0:	69666e6f 	stmdbvs	r6!, {r0, r1, r2, r3, r5, r6, r9, sl, fp, sp, lr}^
    18d4:	65727567 	ldrbvs	r7, [r2, #-1383]!	; 0xfffffa99
    18d8:	75706e49 	ldrbvc	r6, [r0, #-3657]!	; 0xfffff1b7
    18dc:	6e695074 	mcrvs	0, 3, r5, cr9, cr4, {3}
    18e0:	67694400 	strbvs	r4, [r9, -r0, lsl #8]!
    18e4:	6c617469 	cfstrdvs	mvd7, [r1], #-420	; 0xfffffe5c
    18e8:	65646f4d 	strbvs	r6, [r4, #-3917]!	; 0xfffff0b3
    18ec:	73694400 	cmnvc	r9, #0, 8
    18f0:	656c6261 	strbvs	r6, [ip, #-609]!	; 0xfffffd9f
    18f4:	5346415f 	movtpl	r4, #24927	; 0x615f
    18f8:	70004c45 	andvc	r4, r0, r5, asr #24
    18fc:	6f435f74 	svcvs	0x00435f74
    1900:	6769666e 	strbvs	r6, [r9, -lr, ror #12]!
    1904:	50657275 	rsbpl	r7, r5, r5, ror r2
    1908:	50006e69 	andpl	r6, r0, r9, ror #28
    190c:	556c6c75 	strbpl	r6, [ip, #-3189]!	; 0xfffff38b
    1910:	616e4570 	smcvs	58448	; 0xe450
    1914:	00656c62 	rsbeq	r6, r5, r2, ror #24
    1918:	6e616843 	cdpvs	8, 6, cr6, cr1, cr3, {2}
    191c:	4e6c656e 	cdpmi	5, 6, cr6, cr12, cr14, {3}
    1920:	78546d75 	ldmdavc	r4, {r0, r2, r4, r5, r6, r8, sl, fp, sp, lr}^
    1924:	49504700 	ldmdbmi	r0, {r8, r9, sl, lr}^
    1928:	41555f4f 	cmpmi	r5, pc, asr #30
    192c:	6f435452 	svcvs	0x00435452
    1930:	6769666e 	strbvs	r6, [r9, -lr, ror #12]!
    1934:	6e616843 	cdpvs	8, 6, cr6, cr1, cr3, {2}
    1938:	5f6c656e 	svcpl	0x006c656e
    193c:	58450074 	stmdapl	r5, {r2, r4, r5, r6}^
    1940:	49454954 	stmdbmi	r5, {r2, r4, r6, r8, fp, lr}^
    1944:	6148746e 	cmpvs	r8, lr, ror #8
    1948:	656c646e 	strbvs	r6, [ip, #-1134]!	; 0xfffffb92
    194c:	694d0072 	stmdbvs	sp, {r1, r4, r5, r6}^
    1950:	6d754e6e 	ldclvs	14, cr4, [r5, #-440]!	; 0xfffffe48
    1954:	74617453 	strbtvc	r7, [r1], #-1107	; 0xfffffbad
    1958:	50470065 	subpl	r0, r7, r5, rrx
    195c:	435f4f49 	cmpmi	pc, #292	; 0x124
    1960:	69666e6f 	stmdbvs	r6!, {r0, r1, r2, r3, r5, r6, r9, sl, fp, sp, lr}^
    1964:	65727567 	ldrbvs	r7, [r2, #-1383]!	; 0xfffffa99
    1968:	5f6e6950 	svcpl	0x006e6950
    196c:	50470074 	subpl	r0, r7, r4, ror r0
    1970:	4c5f4f49 	mrrcmi	15, 4, r4, pc, cr9	; <UNPREDICTABLE>
    1974:	4d6b636f 	stclmi	3, cr6, [fp, #-444]!	; 0xfffffe44
    1978:	5f65646f 	svcpl	0x0065646f
    197c:	6e450074 	mcrvs	0, 2, r0, cr5, cr4, {3}
    1980:	656c6261 	strbvs	r6, [ip, #-609]!	; 0xfffffd9f
    1984:	746e495f 	strbtvc	r4, [lr], #-2399	; 0xfffff6a1
    1988:	75727265 	ldrbvc	r7, [r2, #-613]!	; 0xfffffd9b
    198c:	614d7470 	hvcvs	55104	; 0xd740
    1990:	47006b73 	smlsdxmi	r0, r3, fp, r6
    1994:	5f4f4950 	svcpl	0x004f4950
    1998:	65746c41 	ldrbvs	r6, [r4, #-3137]!	; 0xfffff3bf
    199c:	74616e72 	strbtvc	r6, [r1], #-3698	; 0xfffff18e
    19a0:	6e754665 	cdpvs	6, 7, cr4, cr5, cr5, {3}
    19a4:	6f697463 	svcvs	0x00697463
    19a8:	6c65536e 	stclvs	3, cr5, [r5], #-440	; 0xfffffe48
    19ac:	5f746365 	svcpl	0x00746365
    19b0:	69676552 	stmdbvs	r7!, {r1, r4, r6, r8, sl, sp, lr}^
    19b4:	72657473 	rsbvc	r7, r5, #1929379840	; 0x73000000
    19b8:	50470073 	subpl	r0, r7, r3, ror r0
    19bc:	525f4f49 	subspl	r4, pc, #292	; 0x124
    19c0:	42646165 	rsbmi	r6, r4, #1073741849	; 0x40000019
    19c4:	61427469 	cmpvs	r2, r9, ror #8
    19c8:	6942646e 	stmdbvs	r2, {r1, r2, r3, r5, r6, sl, sp, lr}^
    19cc:	4d007374 	stcmi	3, cr7, [r0, #-464]	; 0xfffffe30
    19d0:	61567875 	cmpvs	r6, r5, ror r8
    19d4:	5f65756c 	svcpl	0x0065756c
    19d8:	47003531 	smladxmi	r0, r1, r5, r3
    19dc:	5f4f4950 	svcpl	0x004f4950
    19e0:	5f544942 	svcpl	0x00544942
    19e4:	444e4142 	strbmi	r4, [lr], #-322	; 0xfffffebe
    19e8:	6765525f 			; <UNDEFINED> instruction: 0x6765525f
    19ec:	65747369 	ldrbvs	r7, [r4, #-873]!	; 0xfffffc97
    19f0:	50007372 	andpl	r7, r0, r2, ror r3
    19f4:	545f4d57 	ldrbpl	r4, [pc], #-3415	; 19fc <_E_text+0x510>
    19f8:	72656d69 	rsbvc	r6, r5, #6720	; 0x1a40
    19fc:	646e495f 	strbtvs	r4, [lr], #-2399	; 0xfffff6a1
    1a00:	72417865 	subvc	r7, r1, #6619136	; 0x650000
    1a04:	50470072 	subpl	r0, r7, r2, ror r0
    1a08:	535f4f49 	cmppl	pc, #292	; 0x124
    1a0c:	69507465 	ldmdbvs	r0, {r0, r2, r5, r6, sl, ip, sp, lr}^
    1a10:	6174536e 	cmnvs	r4, lr, ror #6
    1a14:	00737574 	rsbseq	r7, r3, r4, ror r5
    1a18:	65746e49 	ldrbvs	r6, [r4, #-3657]!	; 0xfffff1b7
    1a1c:	70757272 	rsbsvc	r7, r5, r2, ror r2
    1a20:	73614d74 	cmnvc	r1, #116, 26	; 0x1d00
    1a24:	646f4d6b 	strbtvs	r4, [pc], #-3435	; 1a2c <_E_text+0x540>
    1a28:	4d410065 	stclmi	0, cr0, [r1, #-404]	; 0xfffffe6c
    1a2c:	4d4c4553 	cfstr64mi	mvdx4, [ip, #-332]	; 0xfffffeb4
    1a30:	0065646f 	rsbeq	r6, r5, pc, ror #8
    1a34:	4f495047 	svcmi	0x00495047
    1a38:	746e495f 	strbtvc	r4, [lr], #-2399	; 0xfffff6a1
    1a3c:	75727265 	ldrbvc	r7, [r2, #-613]!	; 0xfffffd9b
    1a40:	614d7470 	hvcvs	55104	; 0xd740
    1a44:	6f4d6b73 	svcvs	0x004d6b73
    1a48:	745f6564 	ldrbvc	r6, [pc], #-1380	; 1a50 <_E_text+0x564>
    1a4c:	49504700 	ldmdbmi	r0, {r8, r9, sl, lr}^
    1a50:	52435f4f 	subpl	r5, r3, #316	; 0x13c
    1a54:	6765525f 			; <UNDEFINED> instruction: 0x6765525f
    1a58:	47435200 	strbmi	r5, [r3, -r0, lsl #4]
    1a5c:	49504743 	ldmdbmi	r0, {r0, r1, r6, r8, r9, sl, lr}^
    1a60:	65525f4f 	ldrbvs	r5, [r2, #-3919]	; 0xfffff0b1
    1a64:	50470067 	subpl	r0, r7, r7, rrx
    1a68:	495f4f49 	ldmdbmi	pc, {r0, r3, r6, r8, r9, sl, fp, lr}^	; <UNPREDICTABLE>
    1a6c:	525f5243 	subspl	r5, pc, #805306372	; 0x30000004
    1a70:	47006765 	strmi	r6, [r0, -r5, ror #14]
    1a74:	5f4f4950 	svcpl	0x004f4950
    1a78:	6c6c7550 	cfstr64vs	mvdx7, [ip], #-320	; 0xfffffec0
    1a7c:	525f7055 	subspl	r7, pc, #85	; 0x55
    1a80:	73696765 	cmnvc	r9, #26476544	; 0x1940000
    1a84:	73726574 	cmnvc	r2, #116, 10	; 0x1d000000
    1a88:	73694400 	cmnvc	r9, #0, 8
    1a8c:	656c6261 	strbvs	r6, [ip, #-609]!	; 0xfffffd9f
    1a90:	534d415f 	movtpl	r4, #53599	; 0xd15f
    1a94:	47004c45 	strmi	r4, [r0, -r5, asr #24]
    1a98:	5f4f4950 	svcpl	0x004f4950
    1a9c:	666e6f43 	strbtvs	r6, [lr], -r3, asr #30
    1aa0:	72756769 	rsbsvc	r6, r5, #27525120	; 0x1a40000
    1aa4:	726f5065 	rsbvc	r5, pc, #101	; 0x65
    1aa8:	6e6f4374 	mcrvs	3, 3, r4, cr15, cr4, {3}
    1aac:	6c6f7274 	sfmvs	f7, 2, [pc], #-464	; 18e4 <_E_text+0x3f8>
    1ab0:	49504700 	ldmdbmi	r0, {r8, r9, sl, lr}^
    1ab4:	69545f4f 	ldmdbvs	r4, {r0, r1, r2, r3, r6, r8, r9, sl, fp, ip, lr}^
    1ab8:	4372656d 	cmnmi	r2, #457179136	; 0x1b400000
    1abc:	69666e6f 	stmdbvs	r6!, {r0, r1, r2, r3, r5, r6, r9, sl, fp, sp, lr}^
    1ac0:	61684367 	cmnvs	r8, r7, ror #6
    1ac4:	6c656e6e 	stclvs	14, cr6, [r5], #-440	; 0xfffffe48
    1ac8:	4700745f 	smlsdmi	r0, pc, r4, r7	; <UNPREDICTABLE>
    1acc:	504f4950 	subpl	r4, pc, r0, asr r9	; <UNPREDICTABLE>
    1ad0:	5274726f 	rsbspl	r7, r4, #-268435450	; 0xf0000006
    1ad4:	6f4d6e75 	svcvs	0x004d6e75
    1ad8:	6c436564 	cfstr64vs	mvdx6, [r3], {100}	; 0x64
    1adc:	476b636f 	strbmi	r6, [fp, -pc, ror #6]!
    1ae0:	6e697461 	cdpvs	4, 6, cr7, cr9, cr1, {3}
    1ae4:	6e6f4367 	cdpvs	3, 6, cr4, cr15, cr7, {3}
    1ae8:	6c6f7274 	sfmvs	f7, 2, [pc], #-464	; 1920 <_E_text+0x434>
    1aec:	49504700 	ldmdbmi	r0, {r8, r9, sl, lr}^
    1af0:	65535f4f 	ldrbvs	r5, [r3, #-3919]	; 0xfffff0b1
    1af4:	6e695074 	mcrvs	0, 3, r5, cr9, cr4, {3}
    1af8:	65726944 	ldrbvs	r6, [r2, #-2372]!	; 0xfffff6bc
    1afc:	6f697463 	svcvs	0x00697463
    1b00:	6954006e 	ldmdbvs	r4, {r1, r2, r3, r5, r6}^
    1b04:	3172656d 	cmncc	r2, sp, ror #10
    1b08:	32335f41 	eorscc	r5, r3, #260	; 0x104
    1b0c:	4234365f 	eorsmi	r3, r4, #99614720	; 0x5f00000
    1b10:	54007469 	strpl	r7, [r0], #-1129	; 0xfffffb97
    1b14:	72656d69 	rsbvc	r6, r5, #6720	; 0x1a40
    1b18:	335f4130 	cmpcc	pc, #48, 2
    1b1c:	34365f32 	ldrtcc	r5, [r6], #-3890	; 0xfffff0ce
    1b20:	00746942 	rsbseq	r6, r4, r2, asr #18
    1b24:	656d6954 	strbvs	r6, [sp, #-2388]!	; 0xfffff6ac
    1b28:	5f413472 	svcpl	0x00413472
    1b2c:	365f3233 			; <UNDEFINED> instruction: 0x365f3233
    1b30:	74694234 	strbtvc	r4, [r9], #-564	; 0xfffffdcc
    1b34:	52415500 	subpl	r5, r1, #0, 10
    1b38:	415f3754 	cmpmi	pc, r4, asr r7	; <UNPREDICTABLE>
    1b3c:	4c455346 	mcrrmi	3, 4, r5, r5, cr6
    1b40:	666e6f43 	strbtvs	r6, [lr], -r3, asr #30
    1b44:	54006769 	strpl	r6, [r0], #-1897	; 0xfffff897
    1b48:	72656d69 	rsbvc	r6, r5, #6720	; 0x1a40
    1b4c:	335f4133 	cmpcc	pc, #-1073741812	; 0xc000000c
    1b50:	34365f32 	ldrtcc	r5, [r6], #-3890	; 0xfffff0ce
    1b54:	00746942 	rsbseq	r6, r4, r2, asr #18
    1b58:	54524155 	ldrbpl	r4, [r2], #-341	; 0xfffffeab
    1b5c:	46415f30 			; <UNDEFINED> instruction: 0x46415f30
    1b60:	434c4553 	movtmi	r4, #50515	; 0xc553
    1b64:	69666e6f 	stmdbvs	r6!, {r0, r1, r2, r3, r5, r6, r9, sl, fp, sp, lr}^
    1b68:	41550067 	cmpmi	r5, r7, rrx
    1b6c:	5f355452 	svcpl	0x00355452
    1b70:	45534641 	ldrbmi	r4, [r3, #-1601]	; 0xfffff9bf
    1b74:	6e6f434c 	cdpvs	3, 6, cr4, cr15, cr12, {2}
    1b78:	00676966 	rsbeq	r6, r7, r6, ror #18
    1b7c:	656d6954 	strbvs	r6, [sp, #-2388]!	; 0xfffff6ac
    1b80:	5f423172 	svcpl	0x00423172
    1b84:	365f3233 			; <UNDEFINED> instruction: 0x365f3233
    1b88:	74694234 	strbtvc	r4, [r9], #-564	; 0xfffffdcc
    1b8c:	52415500 	subpl	r5, r1, #0, 10
    1b90:	415f3454 	cmpmi	pc, r4, asr r4	; <UNPREDICTABLE>
    1b94:	4c455346 	mcrrmi	3, 4, r5, r5, cr6
    1b98:	666e6f43 	strbtvs	r6, [lr], -r3, asr #30
    1b9c:	55006769 	strpl	r6, [r0, #-1897]	; 0xfffff897
    1ba0:	36545241 	ldrbcc	r5, [r4], -r1, asr #4
    1ba4:	5346415f 	movtpl	r4, #24927	; 0x615f
    1ba8:	6f434c45 	svcvs	0x00434c45
    1bac:	6769666e 	strbvs	r6, [r9, -lr, ror #12]!
    1bb0:	6d695400 	cfstrdvs	mvd5, [r9, #-0]
    1bb4:	42307265 	eorsmi	r7, r0, #1342177286	; 0x50000006
    1bb8:	5f32335f 	svcpl	0x0032335f
    1bbc:	69423436 	stmdbvs	r2, {r1, r2, r4, r5, sl, ip, sp}^
    1bc0:	69540074 	ldmdbvs	r4, {r2, r4, r5, r6}^
    1bc4:	3272656d 	rsbscc	r6, r2, #457179136	; 0x1b400000
    1bc8:	32335f41 	eorscc	r5, r3, #260	; 0x104
    1bcc:	4234365f 	eorsmi	r3, r4, #99614720	; 0x5f00000
    1bd0:	54007469 	strpl	r7, [r0], #-1129	; 0xfffffb97
    1bd4:	72656d69 	rsbvc	r6, r5, #6720	; 0x1a40
    1bd8:	335f4235 	cmpcc	pc, #1342177283	; 0x50000003
    1bdc:	34365f32 	ldrtcc	r5, [r6], #-3890	; 0xfffff0ce
    1be0:	00746942 	rsbseq	r6, r4, r2, asr #18
    1be4:	656d6954 	strbvs	r6, [sp, #-2388]!	; 0xfffff6ac
    1be8:	5f423472 	svcpl	0x00423472
    1bec:	365f3233 			; <UNDEFINED> instruction: 0x365f3233
    1bf0:	74694234 	strbtvc	r4, [r9], #-564	; 0xfffffdcc
    1bf4:	6d695400 	cfstrdvs	mvd5, [r9, #-0]
    1bf8:	41357265 	teqmi	r5, r5, ror #4
    1bfc:	5f32335f 	svcpl	0x0032335f
    1c00:	69423436 	stmdbvs	r2, {r1, r2, r4, r5, sl, ip, sp}^
    1c04:	41550074 	cmpmi	r5, r4, ror r0
    1c08:	5f315452 	svcpl	0x00315452
    1c0c:	45534641 	ldrbmi	r4, [r3, #-1601]	; 0xfffff9bf
    1c10:	6e6f434c 	cdpvs	3, 6, cr4, cr15, cr12, {2}
    1c14:	00676966 	rsbeq	r6, r7, r6, ror #18
    1c18:	54524155 	ldrbpl	r4, [r2], #-341	; 0xfffffeab
    1c1c:	46415f33 			; <UNDEFINED> instruction: 0x46415f33
    1c20:	434c4553 	movtmi	r4, #50515	; 0xc553
    1c24:	69666e6f 	stmdbvs	r6!, {r0, r1, r2, r3, r5, r6, r9, sl, fp, sp, lr}^
    1c28:	50470067 	subpl	r0, r7, r7, rrx
    1c2c:	635f4f49 	cmpvs	pc, #292	; 0x124
    1c30:	69666e6f 	stmdbvs	r6!, {r0, r1, r2, r3, r5, r6, r9, sl, fp, sp, lr}^
    1c34:	00632e67 	rsbeq	r2, r3, r7, ror #28
    1c38:	656d6954 	strbvs	r6, [sp, #-2388]!	; 0xfffff6ac
    1c3c:	5f423372 	svcpl	0x00423372
    1c40:	365f3233 			; <UNDEFINED> instruction: 0x365f3233
    1c44:	74694234 	strbtvc	r4, [r9], #-564	; 0xfffffdcc
    1c48:	49504700 	ldmdbmi	r0, {r8, r9, sl, lr}^
    1c4c:	69545f4f 	ldmdbvs	r4, {r0, r1, r2, r3, r6, r8, r9, sl, fp, ip, lr}^
    1c50:	4172656d 	cmnmi	r2, sp, ror #10
    1c54:	4c455346 	mcrrmi	3, 4, r5, r5, cr6
    1c58:	666e6f43 	strbtvs	r6, [lr], -r3, asr #30
    1c5c:	415f6769 	cmpmi	pc, r9, ror #14
    1c60:	74507272 	ldrbvc	r7, [r0], #-626	; 0xfffffd8e
    1c64:	72745372 	rsbsvc	r5, r4, #-939524095	; 0xc8000001
    1c68:	00746375 	rsbseq	r6, r4, r5, ror r3
    1c6c:	656d6954 	strbvs	r6, [sp, #-2388]!	; 0xfffff6ac
    1c70:	5f423272 	svcpl	0x00423272
    1c74:	365f3233 			; <UNDEFINED> instruction: 0x365f3233
    1c78:	74694234 	strbtvc	r4, [r9], #-564	; 0xfffffdcc
    1c7c:	49504700 	ldmdbmi	r0, {r8, r9, sl, lr}^
    1c80:	46415f4f 	strbmi	r5, [r1], -pc, asr #30
    1c84:	554c4553 	strbpl	r4, [ip, #-1363]	; 0xfffffaad
    1c88:	43545241 	cmpmi	r4, #268435460	; 0x10000004
    1c8c:	69666e6f 	stmdbvs	r6!, {r0, r1, r2, r3, r5, r6, r9, sl, fp, sp, lr}^
    1c90:	72415f67 	subvc	r5, r1, #412	; 0x19c
    1c94:	72745072 	rsbsvc	r5, r4, #114	; 0x72
    1c98:	75727453 	ldrbvc	r7, [r2, #-1107]!	; 0xfffffbad
    1c9c:	47007463 	strmi	r7, [r0, -r3, ror #8]
    1ca0:	5f4f4950 	svcpl	0x004f4950
    1ca4:	666e6f43 	strbtvs	r6, [lr], -r3, asr #30
    1ca8:	72756769 	rsbsvc	r6, r5, #27525120	; 0x1a40000
    1cac:	6e695065 	cdpvs	0, 6, cr5, cr9, cr5, {3}
    1cb0:	3046505f 	subcc	r5, r6, pc, asr r0
    1cb4:	49504700 	ldmdbmi	r0, {r8, r9, sl, lr}^
    1cb8:	6f435f4f 	svcvs	0x00435f4f
    1cbc:	6769666e 	strbvs	r6, [r9, -lr, ror #12]!
    1cc0:	50657275 	rsbpl	r7, r5, r5, ror r2
    1cc4:	505f6e69 	subspl	r6, pc, r9, ror #28
    1cc8:	47003146 	strmi	r3, [r0, -r6, asr #2]
    1ccc:	5f4f4950 	svcpl	0x004f4950
    1cd0:	666e6f43 	strbtvs	r6, [lr], -r3, asr #30
    1cd4:	72756769 	rsbsvc	r6, r5, #27525120	; 0x1a40000
    1cd8:	6e695065 	cdpvs	0, 6, cr5, cr9, cr5, {3}
    1cdc:	3246505f 	subcc	r5, r6, #95	; 0x5f
    1ce0:	49504700 	ldmdbmi	r0, {r8, r9, sl, lr}^
    1ce4:	6f435f4f 	svcvs	0x00435f4f
    1ce8:	6769666e 	strbvs	r6, [r9, -lr, ror #12]!
    1cec:	50657275 	rsbpl	r7, r5, r5, ror r2
    1cf0:	505f6e69 	subspl	r6, pc, r9, ror #28
    1cf4:	47003346 	strmi	r3, [r0, -r6, asr #6]
    1cf8:	5f4f4950 	svcpl	0x004f4950
    1cfc:	666e6f43 	strbtvs	r6, [lr], -r3, asr #30
    1d00:	72756769 	rsbsvc	r6, r5, #27525120	; 0x1a40000
    1d04:	6e695065 	cdpvs	0, 6, cr5, cr9, cr5, {3}
    1d08:	3446505f 	strbcc	r5, [r6], #-95	; 0xffffffa1
    1d0c:	52415500 	subpl	r5, r1, #0, 10
    1d10:	415f3254 	cmpmi	pc, r4, asr r2	; <UNPREDICTABLE>
    1d14:	4c455346 	mcrrmi	3, 4, r5, r5, cr6
    1d18:	666e6f43 	strbtvs	r6, [lr], -r3, asr #30
    1d1c:	54006769 	strpl	r6, [r0], #-1897	; 0xfffff897
    1d20:	72656d69 	rsbvc	r6, r5, #6720	; 0x1a40
    1d24:	74696157 	strbtvc	r6, [r9], #-343	; 0xfffffea9
    1d28:	72546e4f 	subsvc	r6, r4, #1264	; 0x4f0
    1d2c:	65676769 	strbvs	r6, [r7, #-1897]!	; 0xfffff897
    1d30:	69540072 	ldmdbvs	r4, {r1, r4, r5, r6}^
    1d34:	3072656d 	rsbscc	r6, r2, sp, ror #10
    1d38:	6d695400 	cfstrdvs	mvd5, [r9, #-0]
    1d3c:	00317265 	eorseq	r7, r1, r5, ror #4
    1d40:	656d6954 	strbvs	r6, [sp, #-2388]!	; 0xfffff6ac
    1d44:	54003272 	strpl	r3, [r0], #-626	; 0xfffffd8e
    1d48:	72656d69 	rsbvc	r6, r5, #6720	; 0x1a40
    1d4c:	69540033 	ldmdbvs	r4, {r0, r1, r4, r5}^
    1d50:	3472656d 	ldrbtcc	r6, [r2], #-1389	; 0xfffffa93
    1d54:	6d695400 	cfstrdvs	mvd5, [r9, #-0]
    1d58:	00357265 	eorseq	r7, r5, r5, ror #4
    1d5c:	5f36315f 	svcpl	0x0036315f
    1d60:	69423233 	stmdbvs	r2, {r0, r1, r4, r5, r9, ip, sp}^
    1d64:	6d695474 	cfstrdvs	mvd5, [r9, #-464]!	; 0xfffffe30
    1d68:	495f7265 	ldmdbmi	pc, {r0, r2, r5, r6, r9, ip, sp, lr}^	; <UNPREDICTABLE>
    1d6c:	4f69646e 	svcmi	0x0069646e
    1d70:	6e6f4372 	mcrvs	3, 3, r4, cr15, cr2, {3}
    1d74:	00746163 	rsbseq	r6, r4, r3, ror #2
    1d78:	656d6954 	strbvs	r6, [sp, #-2388]!	; 0xfffff6ac
    1d7c:	61684372 	smcvs	33842	; 0x8432
    1d80:	6c656e6e 	stclvs	14, cr6, [r5], #-440	; 0xfffffe48
    1d84:	646e495f 	strbtvs	r4, [lr], #-2399	; 0xfffff6a1
    1d88:	73656369 	cmnvc	r5, #-1543503871	; 0xa4000001
    1d8c:	54504700 	ldrbpl	r4, [r0], #-1792	; 0xfffff900
    1d90:	6e495f4d 	cdpvs	15, 4, cr5, cr9, cr13, {2}
    1d94:	61697469 	cmnvs	r9, r9, ror #8
    1d98:	657a696c 	ldrbvs	r6, [sl, #-2412]!	; 0xfffff694
    1d9c:	616c6544 	cmnvs	ip, r4, asr #10
    1da0:	646f4d79 	strbtvs	r4, [pc], #-3449	; 1da8 <_E_text+0x8bc>
    1da4:	69540065 	ldmdbvs	r4, {r0, r2, r5, r6}^
    1da8:	4172656d 	cmnmi	r2, sp, ror #10
    1dac:	6576455f 	ldrbvs	r4, [r6, #-1375]!	; 0xfffffaa1
    1db0:	6f4d746e 	svcvs	0x004d746e
    1db4:	50006564 	andpl	r6, r0, r4, ror #10
    1db8:	4f5f4d57 	svcmi	0x005f4d57
    1dbc:	75707475 	ldrbvc	r7, [r0, #-1141]!	; 0xfffffb8b
    1dc0:	746f4e74 	strbtvc	r4, [pc], #-3700	; 1dc8 <_E_text+0x8dc>
    1dc4:	65766e49 	ldrbvs	r6, [r6, #-3657]!	; 0xfffff1b7
    1dc8:	64657472 	strbtvs	r7, [r5], #-1138	; 0xfffffb8e
    1dcc:	6d695400 	cfstrdvs	mvd5, [r9, #-0]
    1dd0:	614d7265 	cmpvs	sp, r5, ror #4
    1dd4:	52686374 	rsbpl	r6, r8, #116, 6	; 0xd0000001
    1dd8:	73696765 	cmnvc	r9, #26476544	; 0x1940000
    1ddc:	55726574 	ldrbpl	r6, [r2, #-1396]!	; 0xfffffa8c
    1de0:	74616470 	strbtvc	r6, [r1], #-1136	; 0xfffffb90
    1de4:	74700065 	ldrbtvc	r0, [r0], #-101	; 0xffffff9b
    1de8:	4950475f 	ldmdbmi	r0, {r0, r1, r2, r3, r4, r6, r8, r9, sl, lr}^
    1dec:	6d69544f 	cfstrdvs	mvd5, [r9, #-316]!	; 0xfffffec4
    1df0:	6f437265 	svcvs	0x00437265
    1df4:	6769666e 	strbvs	r6, [r9, -lr, ror #12]!
    1df8:	6e616843 	cdpvs	8, 6, cr6, cr1, cr3, {2}
    1dfc:	006c656e 	rsbeq	r6, ip, lr, ror #10
    1e00:	5f32335f 	svcpl	0x0032335f
    1e04:	69423436 	stmdbvs	r2, {r1, r2, r4, r5, sl, ip, sp}^
    1e08:	6d695474 	cfstrdvs	mvd5, [r9, #-464]!	; 0xfffffe30
    1e0c:	495f7265 	ldmdbmi	pc, {r0, r2, r5, r6, r9, ip, sp, lr}^	; <UNPREDICTABLE>
    1e10:	4f69646e 	svcmi	0x0069646e
    1e14:	6e6f4372 	mcrvs	3, 3, r4, cr15, cr2, {3}
    1e18:	00746163 	rsbseq	r6, r4, r3, ror #2
    1e1c:	69726550 	ldmdbvs	r2!, {r4, r6, r8, sl, sp, lr}^
    1e20:	6369646f 	cmnvs	r9, #1862270976	; 0x6f000000
    1e24:	65646f4d 	strbvs	r6, [r4, #-3917]!	; 0xfffff0b3
    1e28:	70614300 	rsbvc	r4, r1, r0, lsl #6
    1e2c:	65727574 	ldrbvs	r7, [r2, #-1396]!	; 0xfffffa8c
    1e30:	65646f4d 	strbvs	r6, [r4, #-3917]!	; 0xfffff0b3
    1e34:	6764455f 			; <UNDEFINED> instruction: 0x6764455f
    1e38:	756f4365 	strbvc	r4, [pc, #-869]!	; 1adb <_E_text+0x5ef>
    1e3c:	6f4d746e 	svcvs	0x004d746e
    1e40:	43006564 	movwmi	r6, #1380	; 0x564
    1e44:	49434542 	stmdbmi	r3, {r1, r6, r8, sl, lr}^
    1e48:	5400544e 	strpl	r5, [r0], #-1102	; 0xfffffbb2
    1e4c:	49524d42 	ldmdbmi	r2, {r1, r6, r8, sl, fp, lr}^
    1e50:	50470053 	subpl	r0, r7, r3, asr r0
    1e54:	435f4d54 	cmpmi	pc, #84, 26	; 0x1500
    1e58:	69666e6f 	stmdbvs	r6!, {r0, r1, r2, r3, r5, r6, r9, sl, fp, sp, lr}^
    1e5c:	61727567 	cmnvs	r2, r7, ror #10
    1e60:	6e6f6974 			; <UNDEFINED> instruction: 0x6e6f6974
    1e64:	69676552 	stmdbvs	r7!, {r1, r4, r6, r8, sl, sp, lr}^
    1e68:	72657473 	rsbvc	r7, r5, #1929379840	; 0x73000000
    1e6c:	50470073 	subpl	r0, r7, r3, ror r0
    1e70:	54434d54 	strbpl	r4, [r3], #-3412	; 0xfffff2ac
    1e74:	65725f4c 	ldrbvs	r5, [r2, #-3916]!	; 0xfffff0b4
    1e78:	42540067 	subsmi	r0, r4, #103	; 0x67
    1e7c:	4e49434d 	cdpmi	3, 4, cr4, cr9, cr13, {2}
    1e80:	50470054 	subpl	r0, r7, r4, asr r0
    1e84:	335f4d54 	cmpcc	pc, #84, 26	; 0x1500
    1e88:	34365f32 	ldrtcc	r5, [r6], #-3890	; 0xfffff0ce
    1e8c:	7469425f 	strbtvc	r4, [r9], #-607	; 0xfffffda1
    1e90:	656d6954 	strbvs	r6, [sp, #-2388]!	; 0xfffff6ac
    1e94:	4d5f4172 	ldfmie	f4, [pc, #-456]	; 1cd4 <_E_text+0x7e8>
    1e98:	68637461 	stmdavs	r3!, {r0, r5, r6, sl, ip, sp, lr}^
    1e9c:	6d695400 	cfstrdvs	mvd5, [r9, #-0]
    1ea0:	5f417265 	svcpl	0x00417265
    1ea4:	4f4d5750 	svcmi	0x004d5750
    1ea8:	75707475 	ldrbvc	r7, [r0, #-1141]!	; 0xfffffb8b
    1eac:	76654c74 			; <UNDEFINED> instruction: 0x76654c74
    1eb0:	54006c65 	strpl	r6, [r0], #-3173	; 0xfffff39b
    1eb4:	72656d69 	rsbvc	r6, r5, #6720	; 0x1a40
    1eb8:	494d5750 	stmdbmi	sp, {r4, r6, r8, r9, sl, ip, lr}^
    1ebc:	7265746e 	rsbvc	r7, r5, #1845493760	; 0x6e000000
    1ec0:	74707572 	ldrbtvc	r7, [r0], #-1394	; 0xfffffa8e
    1ec4:	62616e45 	rsbvs	r6, r1, #1104	; 0x450
    1ec8:	4300656c 	movwmi	r6, #1388	; 0x56c
    1ecc:	6e6e6168 	powvsez	f6, f6, #0.0
    1ed0:	6e496c65 	cdpvs	12, 4, cr6, cr9, cr5, {3}
    1ed4:	41786564 	cmnmi	r8, r4, ror #10
    1ed8:	47007272 	smlsdxmi	r0, r2, r2, r7
    1edc:	494d5450 	stmdbmi	sp, {r4, r6, sl, ip, lr}^
    1ee0:	525f5243 	subspl	r5, pc, #805306372	; 0x30000004
    1ee4:	47006765 	strmi	r6, [r0, -r5, ror #14]
    1ee8:	5f4d5450 	svcpl	0x004d5450
    1eec:	6e616843 	cdpvs	8, 6, cr6, cr1, cr3, {2}
    1ef0:	496c656e 	stmdbmi	ip!, {r1, r2, r3, r5, r6, r8, sl, sp, lr}^
    1ef4:	7865646e 	stmdavc	r5!, {r1, r2, r3, r5, r6, sl, sp, lr}^
    1ef8:	5f727241 	svcpl	0x00727241
    1efc:	54520074 	ldrbpl	r0, [r2], #-116	; 0xffffff8c
    1f00:	53495243 	movtpl	r5, #37443	; 0x9243
    1f04:	54504700 	ldrbpl	r4, [r0], #-1792	; 0xfffff900
    1f08:	49525f4d 	ldmdbmi	r2, {r0, r2, r3, r6, r8, r9, sl, fp, ip, lr}^
    1f0c:	67655253 			; <UNDEFINED> instruction: 0x67655253
    1f10:	65747369 	ldrbvs	r7, [r4, #-873]!	; 0xfffffc97
    1f14:	70007372 	andvc	r7, r0, r2, ror r3
    1f18:	505f7274 	subspl	r7, pc, r4, ror r2	; <UNPREDICTABLE>
    1f1c:	6f434d57 	svcvs	0x00434d57
    1f20:	6769666e 	strbvs	r6, [r9, -lr, ror #12]!
    1f24:	6e616843 	cdpvs	8, 6, cr6, cr1, cr3, {2}
    1f28:	006c656e 	rsbeq	r6, ip, lr, ror #10
    1f2c:	4d545047 	ldclmi	0, cr5, [r4, #-284]	; 0xfffffee4
    1f30:	5f524d54 	svcpl	0x00524d54
    1f34:	00676552 	rsbeq	r6, r7, r2, asr r5
    1f38:	4d545047 	ldclmi	0, cr5, [r4, #-284]	; 0xfffffee4
    1f3c:	7369445f 	cmnvc	r9, #1593835520	; 0x5f000000
    1f40:	656c6261 	strbvs	r6, [ip, #-609]!	; 0xfffffd9f
    1f44:	656d6954 	strbvs	r6, [sp, #-2388]!	; 0xfffff6ac
    1f48:	50470072 	subpl	r0, r7, r2, ror r0
    1f4c:	495f4d54 	ldmdbmi	pc, {r2, r4, r6, r8, sl, fp, lr}^	; <UNPREDICTABLE>
    1f50:	65525243 	ldrbvs	r5, [r2, #-579]	; 0xfffffdbd
    1f54:	74736967 	ldrbtvc	r6, [r3], #-2407	; 0xfffff699
    1f58:	00737265 	rsbseq	r7, r3, r5, ror #4
    1f5c:	656d6954 	strbvs	r6, [sp, #-2388]!	; 0xfffff6ac
    1f60:	4f5f4272 	svcmi	0x005f4272
    1f64:	75707475 	ldrbvc	r7, [r0, #-1141]!	; 0xfffffb8b
    1f68:	69725474 	ldmdbvs	r2!, {r2, r4, r5, r6, sl, ip, lr}^
    1f6c:	72656767 	rsbvc	r6, r5, #27000832	; 0x19c0000
    1f70:	62616e45 	rsbvs	r6, r1, #1104	; 0x450
    1f74:	5400656c 	strpl	r6, [r0], #-1388	; 0xfffffa94
    1f78:	72656d69 	rsbvc	r6, r5, #6720	; 0x1a40
    1f7c:	70616e53 	rsbvc	r6, r1, r3, asr lr
    1f80:	746f6853 	strbtvc	r6, [pc], #-2131	; 1f88 <_E_text+0xa9c>
    1f84:	65646f4d 	strbvs	r6, [r4, #-3917]!	; 0xfffff0b3
    1f88:	646e4900 	strbtvs	r4, [lr], #-2304	; 0xfffff700
    1f8c:	64697669 	strbtvs	r7, [r9], #-1641	; 0xfffff997
    1f90:	4d6c6175 	stfmie	f6, [ip, #-468]!	; 0xfffffe2c
    1f94:	0065646f 	rsbeq	r6, r5, pc, ror #8
    1f98:	5f4d5750 	svcpl	0x004d5750
    1f9c:	7074754f 	rsbsvc	r7, r4, pc, asr #10
    1fa0:	6e497475 	mcrvs	4, 2, r7, cr9, cr5, {3}
    1fa4:	74726576 	ldrbtvc	r6, [r2], #-1398	; 0xfffffa8a
    1fa8:	47006465 	strmi	r6, [r0, -r5, ror #8]
    1fac:	5f4d5450 	svcpl	0x004d5450
    1fb0:	666e6f43 	strbtvs	r6, [lr], -r3, asr #30
    1fb4:	72756769 	rsbsvc	r6, r5, #27525120	; 0x1a40000
    1fb8:	6d695465 	cfstrdvs	mvd5, [r9, #-404]!	; 0xfffffe6c
    1fbc:	614e7265 	cmpvs	lr, r5, ror #4
    1fc0:	745f656d 	ldrbvc	r6, [pc], #-1389	; 1fc8 <_E_text+0xadc>
    1fc4:	43545200 	cmpmi	r4, #0, 4
    1fc8:	6174535f 	cmnvs	r4, pc, asr r3
    1fcc:	6e456c6c 	cdpvs	12, 4, cr6, cr5, cr12, {3}
    1fd0:	656c6261 	strbvs	r6, [ip, #-609]!	; 0xfffffd9f
    1fd4:	45424300 	strbmi	r4, [r2, #-768]	; 0xfffffd00
    1fd8:	00534952 	subseq	r4, r3, r2, asr r9
    1fdc:	656d6954 	strbvs	r6, [sp, #-2388]!	; 0xfffff6ac
    1fe0:	7a695372 	bvc	1a56db0 <_E_text+0x1a558c4>
    1fe4:	6d614e65 	stclvs	14, cr4, [r1, #-404]!	; 0xfffffe6c
    1fe8:	6e495f65 	cdpvs	15, 4, cr5, cr9, cr5, {3}
    1fec:	65636964 	strbvs	r6, [r3, #-2404]!	; 0xfffff69c
    1ff0:	50470073 	subpl	r0, r7, r3, ror r0
    1ff4:	335f4d54 	cmpcc	pc, #84, 26	; 0x1500
    1ff8:	74694232 	strbtvc	r4, [r9], #-562	; 0xfffffdce
    1ffc:	656d6954 	strbvs	r6, [sp, #-2388]!	; 0xfffff6ac
    2000:	4d5f4272 	lfmmi	f4, 2, [pc, #-456]	; 1e40 <_E_text+0x954>
    2004:	68637461 	stmdavs	r3!, {r0, r5, r6, sl, ip, sp, lr}^
    2008:	746f5400 	strbtvc	r5, [pc], #-1024	; 2010 <_E_text+0xb24>
    200c:	69546c61 	ldmdbvs	r4, {r0, r5, r6, sl, fp, sp, lr}^
    2010:	754e6b63 	strbvc	r6, [lr, #-2915]	; 0xfffff49d
    2014:	4254006d 	subsmi	r0, r4, #109	; 0x6d
    2018:	49434f54 	stmdbmi	r3, {r2, r4, r6, r8, r9, sl, fp, lr}^
    201c:	4300544e 	movwmi	r5, #1102	; 0x44e
    2020:	61636e6f 	cmnvs	r3, pc, ror #28
    2024:	616e6574 	smcvs	58964	; 0xe654
    2028:	4d646574 	cfstr64mi	mvdx6, [r4, #-464]!	; 0xfffffe30
    202c:	0065646f 	rsbeq	r6, r5, pc, ror #8
    2030:	4d545047 	ldclmi	0, cr5, [r4, #-284]	; 0xfffffee4
    2034:	6e65475f 	mcrvs	7, 3, r4, cr5, cr15, {2}
    2038:	74617265 	strbtvc	r7, [r1], #-613	; 0xfffffd9b
    203c:	6c654465 	cfstrdvs	mvd4, [r5], #-404	; 0xfffffe6c
    2040:	54007961 	strpl	r7, [r0], #-2401	; 0xfffff69f
    2044:	72656d69 	rsbvc	r6, r5, #6720	; 0x1a40
    2048:	76455f42 	strbvc	r5, [r5], -r2, asr #30
    204c:	4d746e65 	ldclmi	14, cr6, [r4, #-404]!	; 0xfffffe6c
    2050:	0065646f 	rsbeq	r6, r5, pc, ror #8
    2054:	524d4154 	subpl	r4, sp, #84, 2
    2058:	54005349 	strpl	r5, [r0], #-841	; 0xfffffcb7
    205c:	72656d69 	rsbvc	r6, r5, #6720	; 0x1a40
    2060:	657a6953 	ldrbvs	r6, [sl, #-2387]!	; 0xfffff6ad
    2064:	656d614e 	strbvs	r6, [sp, #-334]!	; 0xfffffeb2
    2068:	65646e49 	strbvs	r6, [r4, #-3657]!	; 0xfffff1b7
    206c:	72724178 	rsbsvc	r4, r2, #120, 2
    2070:	54504700 	ldrbpl	r4, [r0], #-1792	; 0xfffff900
    2074:	36315f4d 	ldrtcc	r5, [r1], -sp, asr #30
    2078:	5f32335f 	svcpl	0x0032335f
    207c:	54746942 	ldrbtpl	r6, [r4], #-2370	; 0xfffff6be
    2080:	72656d69 	rsbvc	r6, r5, #6720	; 0x1a40
    2084:	6e495f41 	cdpvs	15, 4, cr5, cr9, cr1, {2}
    2088:	76726574 			; <UNDEFINED> instruction: 0x76726574
    208c:	6f4c6c61 	svcvs	0x004c6c61
    2090:	54006461 	strpl	r6, [r0], #-1121	; 0xfffffb9f
    2094:	72656d69 	rsbvc	r6, r5, #6720	; 0x1a40
    2098:	657a6953 	ldrbvs	r6, [sl, #-2387]!	; 0xfffff6ad
    209c:	646e495f 	strbtvs	r4, [lr], #-2399	; 0xfffff6a1
    20a0:	73656369 	cmnvc	r5, #-1543503871	; 0xa4000001
    20a4:	74754400 	ldrbtvc	r4, [r5], #-1024	; 0xfffffc00
    20a8:	63794379 	cmnvs	r9, #-469762047	; 0xe4000001
    20ac:	4300656c 	movwmi	r6, #1388	; 0x56c
    20b0:	49524d42 	ldmdbmi	r2, {r1, r6, r8, sl, fp, lr}^
    20b4:	335f0053 	cmpcc	pc, #83	; 0x53
    20b8:	34365f32 	ldrtcc	r5, [r6], #-3890	; 0xfffff0ce
    20bc:	54746942 	ldrbtpl	r6, [r4], #-2370	; 0xfffff6be
    20c0:	72656d69 	rsbvc	r6, r5, #6720	; 0x1a40
    20c4:	41540042 	cmpmi	r4, r2, asr #32
    20c8:	49524f54 	ldmdbmi	r2, {r2, r4, r6, r8, r9, sl, fp, lr}^
    20cc:	50470053 	subpl	r0, r7, r3, asr r0
    20d0:	335f4d54 	cmpcc	pc, #84, 26	; 0x1500
    20d4:	74694232 	strbtvc	r4, [r9], #-562	; 0xfffffdce
    20d8:	656d6954 	strbvs	r6, [sp, #-2388]!	; 0xfffff6ac
    20dc:	495f4272 	ldmdbmi	pc, {r1, r4, r5, r6, r9, lr}^	; <UNPREDICTABLE>
    20e0:	7265746e 	rsbvc	r7, r5, #1845493760	; 0x6e000000
    20e4:	4c6c6176 	stfmie	f6, [ip], #-472	; 0xfffffe28
    20e8:	0064616f 	rsbeq	r6, r4, pc, ror #2
    20ec:	656d6954 	strbvs	r6, [sp, #-2388]!	; 0xfffff6ac
    20f0:	535f4172 	cmppl	pc, #-2147483620	; 0x8000001c
    20f4:	6c6c6174 	stfvse	f6, [ip], #-464	; 0xfffffe30
    20f8:	62616e45 	rsbvs	r6, r1, #1104	; 0x450
    20fc:	4e00656c 	cfsh32mi	mvfx6, mvfx0, #60
    2100:	65446d75 	strbvs	r6, [r4, #-3445]	; 0xfffff28b
    2104:	5579616c 	ldrbpl	r6, [r9, #-364]!	; 0xfffffe94
    2108:	0074696e 	rsbseq	r6, r4, lr, ror #18
    210c:	43435452 	movtmi	r5, #13394	; 0x3452
    2110:	00544e49 	subseq	r4, r4, r9, asr #28
    2114:	4d545047 	ldclmi	0, cr5, [r4, #-284]	; 0xfffffee4
    2118:	6e6f435f 	mcrvs	3, 3, r4, cr15, cr15, {2}
    211c:	75676966 	strbvc	r6, [r7, #-2406]!	; 0xfffff69a
    2120:	69746172 	ldmdbvs	r4!, {r1, r4, r5, r6, r8, sp, lr}^
    2124:	68436e6f 	stmdavs	r3, {r0, r1, r2, r3, r5, r6, r9, sl, fp, sp, lr}^
    2128:	656e6e61 	strbvs	r6, [lr, #-3681]!	; 0xfffff19f
    212c:	00745f6c 	rsbseq	r5, r4, ip, ror #30
    2130:	656d6954 	strbvs	r6, [sp, #-2388]!	; 0xfffff6ac
    2134:	74614d72 	strbtvc	r4, [r1], #-3442	; 0xfffff28e
    2138:	6e496863 	cdpvs	8, 4, cr6, cr9, cr3, {3}
    213c:	72726574 	rsbsvc	r6, r2, #116, 10	; 0x1d000000
    2140:	45747075 	ldrbmi	r7, [r4, #-117]!	; 0xffffff8b
    2144:	6c62616e 	stfvse	f6, [r2], #-440	; 0xfffffe48
    2148:	50470065 	subpl	r0, r7, r5, rrx
    214c:	46434d54 			; <UNDEFINED> instruction: 0x46434d54
    2150:	65525f47 	ldrbvs	r5, [r2, #-3911]	; 0xfffff0b9
    2154:	6e4f0067 	cdpvs	0, 4, cr0, cr15, cr7, {3}
    2158:	6f685365 	svcvs	0x00685365
    215c:	646f4d74 	strbtvs	r4, [pc], #-3444	; 2164 <_E_text+0xc78>
    2160:	55570065 	ldrbpl	r0, [r7, #-101]	; 0xffffff9b
    2164:	53495245 	movtpl	r5, #37445	; 0x9245
    2168:	54504700 	ldrbpl	r4, [r0], #-1792	; 0xfffff900
    216c:	69545f4d 	ldmdbvs	r4, {r0, r2, r3, r6, r8, r9, sl, fp, ip, lr}^
    2170:	4d72656d 	cfldr64mi	mvdx6, [r2, #-436]!	; 0xfffffe4c
    2174:	0065646f 	rsbeq	r6, r5, pc, ror #8
    2178:	656d6954 	strbvs	r6, [sp, #-2388]!	; 0xfffff6ac
    217c:	455f4272 	ldrbmi	r4, [pc, #-626]	; 1f12 <_E_text+0xa26>
    2180:	6c62616e 	stfvse	f6, [r2], #-440	; 0xfffffe48
    2184:	50470065 	subpl	r0, r7, r5, rrx
    2188:	445f4d54 	ldrbmi	r4, [pc], #-3412	; 2190 <_E_text+0xca4>
    218c:	79616c65 	stmdbvc	r1!, {r0, r2, r5, r6, sl, fp, sp, lr}^
    2190:	74696e55 	strbtvc	r6, [r9], #-3669	; 0xfffff1ab
    2194:	4700745f 	smlsdmi	r0, pc, r4, r7	; <UNPREDICTABLE>
    2198:	5f4d5450 	svcpl	0x004d5450
    219c:	656d6954 	strbvs	r6, [sp, #-2388]!	; 0xfffff6ac
    21a0:	7a695372 	bvc	1a56f70 <_E_text+0x1a55a84>
    21a4:	646e4965 	strbtvs	r4, [lr], #-2405	; 0xfffff69b
    21a8:	72417865 	subvc	r7, r1, #6619136	; 0x650000
    21ac:	00745f72 	rsbseq	r5, r4, r2, ror pc
    21b0:	505f7470 	subspl	r7, pc, r0, ror r4	; <UNPREDICTABLE>
    21b4:	6f434d57 	svcvs	0x00434d57
    21b8:	6769666e 	strbvs	r6, [r9, -lr, ror #12]!
    21bc:	45534641 	ldrbmi	r4, [r3, #-1601]	; 0xfffff9bf
    21c0:	6954004c 	ldmdbvs	r4, {r2, r3, r6}^
    21c4:	4372656d 	cmnmi	r2, #457179136	; 0x1b400000
    21c8:	746e756f 	strbtvc	r7, [lr], #-1391	; 0xfffffa91
    21cc:	65726944 	ldrbvs	r6, [r2, #-2372]!	; 0xfffff6bc
    21d0:	6f697463 	svcvs	0x00697463
    21d4:	3675006e 	ldrbtcc	r0, [r5], -lr, rrx
    21d8:	00745f34 	rsbseq	r5, r4, r4, lsr pc
    21dc:	7263696d 	rsbvc	r6, r3, #1785856	; 0x1b4000
    21e0:	65535f6f 	ldrbvs	r5, [r3, #-3951]	; 0xfffff091
    21e4:	50470063 	subpl	r0, r7, r3, rrx
    21e8:	475f4d54 			; <UNDEFINED> instruction: 0x475f4d54
    21ec:	72656e65 	rsbvc	r6, r5, #1616	; 0x650
    21f0:	50657461 	rsbpl	r7, r5, r1, ror #8
    21f4:	47004d57 	smlsdmi	r0, r7, sp, r4
    21f8:	5f4d5450 	svcpl	0x004d5450
    21fc:	62616e45 	rsbvs	r6, r1, #1104	; 0x450
    2200:	6c43656c 	cfstr64vs	mvdx6, [r3], {108}	; 0x6c
    2204:	6d69546b 	cfstrdvs	mvd5, [r9, #-428]!	; 0xfffffe54
    2208:	43007265 	movwmi	r7, #613	; 0x265
    220c:	49434541 	stmdbmi	r3, {r0, r6, r8, sl, lr}^
    2210:	4700544e 	strmi	r5, [r0, -lr, asr #8]
    2214:	5f4d5450 	svcpl	0x004d5450
    2218:	69423631 	stmdbvs	r2, {r0, r4, r5, r9, sl, ip, sp}^
    221c:	6d695474 	cfstrdvs	mvd5, [r9, #-464]!	; 0xfffffe30
    2220:	5f427265 	svcpl	0x00427265
    2224:	65746e49 	ldrbvs	r6, [r4, #-3657]!	; 0xfffff1b7
    2228:	6c617672 	stclvs	6, cr7, [r1], #-456	; 0xfffffe38
    222c:	64616f4c 	strbtvs	r6, [r1], #-3916	; 0xfffff0b4
    2230:	6d754e00 	ldclvs	14, cr4, [r5, #-0]
    2234:	616c6544 	cmnvs	ip, r4, asr #10
    2238:	696e5579 	stmdbvs	lr!, {r0, r3, r4, r5, r6, r8, sl, ip, lr}^
    223c:	6f435f74 	svcvs	0x00435f74
    2240:	65746e75 	ldrbvs	r6, [r4, #-3701]!	; 0xfffff18b
    2244:	69540072 	ldmdbvs	r4, {r1, r4, r5, r6}^
    2248:	4972656d 	ldmdbmi	r2!, {r0, r2, r3, r5, r6, r8, sl, sp, lr}^
    224c:	7265746e 	rsbvc	r7, r5, #1845493760	; 0x6e000000
    2250:	4c6c6176 	stfmie	f6, [ip], #-472	; 0xfffffe28
    2254:	5764616f 	strbpl	r6, [r4, -pc, ror #2]!
    2258:	65746972 	ldrbvs	r6, [r4, #-2418]!	; 0xfffff68e
    225c:	4d414300 	stclmi	3, cr4, [r1, #-0]
    2260:	544e4943 	strbpl	r4, [lr], #-2371	; 0xfffff6bd
    2264:	54504700 	ldrbpl	r4, [r0], #-1792	; 0xfffff900
    2268:	6f435f4d 	svcvs	0x00435f4d
    226c:	6f72746e 	svcvs	0x0072746e
    2270:	335f006c 	cmpcc	pc, #108	; 0x6c
    2274:	34365f32 	ldrtcc	r5, [r6], #-3890	; 0xfffff0ce
    2278:	54746942 	ldrbtpl	r6, [r4], #-2370	; 0xfffff6be
    227c:	72656d69 	rsbvc	r6, r5, #6720	; 0x1a40
    2280:	50470041 	subpl	r0, r7, r1, asr #32
    2284:	455f4d54 	ldrbmi	r4, [pc, #-3412]	; 1538 <_E_text+0x4c>
    2288:	6c62616e 	stfvse	f6, [r2], #-440	; 0xfffffe48
    228c:	6d695465 	cfstrdvs	mvd5, [r9, #-404]!	; 0xfffffe6c
    2290:	54007265 	strpl	r7, [r0], #-613	; 0xfffffd9b
    2294:	72656d69 	rsbvc	r6, r5, #6720	; 0x1a40
    2298:	69546e4f 	ldmdbvs	r4, {r0, r1, r2, r3, r6, r9, sl, fp, sp, lr}^
    229c:	754e6b63 	strbvc	r6, [lr, #-2915]	; 0xfffff49d
    22a0:	5047006d 	subpl	r0, r7, sp, rrx
    22a4:	632e4d54 			; <UNDEFINED> instruction: 0x632e4d54
    22a8:	6d695400 	cfstrdvs	mvd5, [r9, #-0]
    22ac:	6c417265 	sfmvs	f7, 2, [r1], {101}	; 0x65
    22b0:	6e726574 	mrcvs	5, 3, r6, cr2, cr4, {3}
    22b4:	4d657461 	cfstrdmi	mvd7, [r5, #-388]!	; 0xfffffe7c
    22b8:	5365646f 	cmnpl	r5, #1862270976	; 0x6f000000
    22bc:	63656c65 	cmnvs	r5, #25856	; 0x6500
    22c0:	41540074 	cmpmi	r4, r4, ror r0
    22c4:	4e49434d 	cdpmi	3, 4, cr4, cr9, cr13, {2}
    22c8:	315f0054 	cmpcc	pc, r4, asr r0	; <UNPREDICTABLE>
    22cc:	32335f36 	eorscc	r5, r3, #54, 30	; 0xd8
    22d0:	54746942 	ldrbtpl	r6, [r4], #-2370	; 0xfffff6be
    22d4:	72656d69 	rsbvc	r6, r5, #6720	; 0x1a40
    22d8:	315f0041 	cmpcc	pc, r1, asr #32
    22dc:	32335f36 	eorscc	r5, r3, #54, 30	; 0xd8
    22e0:	54746942 	ldrbtpl	r6, [r4], #-2370	; 0xfffff6be
    22e4:	72656d69 	rsbvc	r6, r5, #6720	; 0x1a40
    22e8:	41430042 	cmpmi	r3, r2, asr #32
    22ec:	53495245 	movtpl	r5, #37445	; 0x9245
    22f0:	6d695400 	cfstrdvs	mvd5, [r9, #-0]
    22f4:	57507265 	ldrbpl	r7, [r0, -r5, ror #4]
    22f8:	67654c4d 	strbvs	r4, [r5, -sp, asr #24]!
    22fc:	4f796361 	svcmi	0x00796361
    2300:	61726570 	cmnvs	r2, r0, ror r5
    2304:	6e6f6974 			; <UNDEFINED> instruction: 0x6e6f6974
    2308:	54504700 	ldrbpl	r4, [r0], #-1792	; 0xfffff900
    230c:	6e495f4d 	cdpvs	15, 4, cr5, cr9, cr13, {2}
    2310:	61697469 	cmnvs	r9, r9, ror #8
    2314:	657a696c 	ldrbvs	r6, [sl, #-2412]!	; 0xfffff694
    2318:	004d5750 	subeq	r5, sp, r0, asr r7
    231c:	434d4243 	movtmi	r4, #53827	; 0xd243
    2320:	00544e49 	subseq	r4, r4, r9, asr #28
    2324:	656d6954 	strbvs	r6, [sp, #-2388]!	; 0xfffff6ac
    2328:	535f4272 	cmppl	pc, #536870919	; 0x20000007
    232c:	6c6c6174 	stfvse	f6, [ip], #-464	; 0xfffffe30
    2330:	62616e45 	rsbvs	r6, r1, #1104	; 0x450
    2334:	6d00656c 	cfstr32vs	mvfx6, [r0, #-432]	; 0xfffffe50
    2338:	696c6c69 	stmdbvs	ip!, {r0, r3, r5, r6, sl, fp, sp, lr}^
    233c:	6365535f 	cmnvs	r5, #2080374785	; 0x7c000001
    2340:	54504700 	ldrbpl	r4, [r0], #-1792	; 0xfffff900
    2344:	5349524d 	movtpl	r5, #37453	; 0x924d
    2348:	6765525f 			; <UNDEFINED> instruction: 0x6765525f
    234c:	45555700 	ldrbmi	r5, [r5, #-1792]	; 0xfffff900
    2350:	544e4943 	strbpl	r4, [lr], #-2371	; 0xfffff6bd
    2354:	36317500 	ldrtcc	r7, [r1], -r0, lsl #10
    2358:	4700745f 	smlsdmi	r0, pc, r4, r7	; <UNPREDICTABLE>
    235c:	5f4d5450 	svcpl	0x004d5450
    2360:	656d6954 	strbvs	r6, [sp, #-2388]!	; 0xfffff6ac
    2364:	7a695372 	bvc	1a57134 <_E_text+0x1a55c48>
    2368:	6d614e65 	stclvs	14, cr4, [r1, #-404]!	; 0xfffffe6c
    236c:	646e4965 	strbtvs	r4, [lr], #-2405	; 0xfffff69b
    2370:	72417865 	subvc	r7, r1, #6619136	; 0x650000
    2374:	00745f72 	rsbseq	r5, r4, r2, ror pc
    2378:	74737953 	ldrbtvc	r7, [r3], #-2387	; 0xfffff6ad
    237c:	6c436d65 	mcrrvs	13, 6, r6, r3, cr5
    2380:	6572466b 	ldrbvs	r4, [r2, #-1643]!	; 0xfffff995
    2384:	69540071 	ldmdbvs	r4, {r0, r4, r5, r6}^
    2388:	4372656d 	cmnmi	r2, #457179136	; 0x1b400000
    238c:	75747061 	ldrbvc	r7, [r4, #-97]!	; 0xffffff9f
    2390:	6f4d6572 	svcvs	0x004d6572
    2394:	43006564 	movwmi	r6, #1380	; 0x564
    2398:	75747061 	ldrbvc	r7, [r4, #-97]!	; 0xffffff9f
    239c:	6f4d6572 	svcvs	0x004d6572
    23a0:	455f6564 	ldrbmi	r6, [pc, #-1380]	; 1e44 <_E_text+0x958>
    23a4:	54656764 	strbtpl	r6, [r5], #-1892	; 0xfffff89c
    23a8:	4d656d69 	stclmi	13, cr6, [r5, #-420]!	; 0xfffffe5c
    23ac:	0065646f 	rsbeq	r6, r5, pc, ror #8
    23b0:	5f32335f 	svcpl	0x0032335f
    23b4:	69423436 	stmdbvs	r2, {r1, r2, r4, r5, sl, ip, sp}^
    23b8:	43545274 	cmpmi	r4, #116, 4	; 0x40000007
    23bc:	4d414300 	stclmi	3, cr4, [r1, #-0]
    23c0:	00534952 	subseq	r4, r3, r2, asr r9
    23c4:	656d6954 	strbvs	r6, [sp, #-2388]!	; 0xfffff6ac
    23c8:	455f4172 	ldrbmi	r4, [pc, #-370]	; 225e <_E_text+0xd72>
    23cc:	6c62616e 	stfvse	f6, [r2], #-440	; 0xfffffe48
    23d0:	69540065 	ldmdbvs	r4, {r0, r2, r5, r6}^
    23d4:	4172656d 	cmnmi	r2, sp, ror #10
    23d8:	74754f5f 	ldrbtvc	r4, [r5], #-3935	; 0xfffff0a1
    23dc:	54747570 	ldrbtpl	r7, [r4], #-1392	; 0xfffffa90
    23e0:	67676972 			; <UNDEFINED> instruction: 0x67676972
    23e4:	6e457265 	cdpvs	2, 4, cr7, cr5, cr5, {3}
    23e8:	656c6261 	strbvs	r6, [ip, #-609]!	; 0xfffffd9f
    23ec:	54415400 	strbpl	r5, [r1], #-1024	; 0xfffffc00
    23f0:	4e49434f 	cdpmi	3, 4, cr4, cr9, cr15, {2}
    23f4:	50470054 	subpl	r0, r7, r4, asr r0
    23f8:	335f4d54 	cmpcc	pc, #84, 26	; 0x1500
    23fc:	34365f32 	ldrtcc	r5, [r6], #-3890	; 0xfffff0ce
    2400:	7469425f 	strbtvc	r4, [r9], #-607	; 0xfffffda1
    2404:	656d6954 	strbvs	r6, [sp, #-2388]!	; 0xfffff6ac
    2408:	495f4172 	ldmdbmi	pc, {r1, r4, r5, r6, r8, lr}^	; <UNPREDICTABLE>
    240c:	7265746e 	rsbvc	r7, r5, #1845493760	; 0x6e000000
    2410:	4c6c6176 	stfmie	f6, [ip], #-472	; 0xfffffe28
    2414:	0064616f 	rsbeq	r6, r4, pc, ror #2
    2418:	656d6954 	strbvs	r6, [sp, #-2388]!	; 0xfffff6ac
    241c:	7a695372 	bvc	1a571ec <_E_text+0x1a55d00>
    2420:	646e4965 	strbtvs	r4, [lr], #-2405	; 0xfffff69b
    2424:	72417865 	subvc	r7, r1, #6619136	; 0x650000
    2428:	6f430072 	svcvs	0x00430072
    242c:	6769666e 	strbvs	r6, [r9, -lr, ror #12]!
    2430:	54657275 	strbtpl	r7, [r5], #-629	; 0xfffffd8b
    2434:	72656d69 	rsbvc	r6, r5, #6720	; 0x1a40
    2438:	656d614e 	strbvs	r6, [sp, #-334]!	; 0xfffffeb2
    243c:	6d695400 	cfstrdvs	mvd5, [r9, #-0]
    2440:	5f427265 	svcpl	0x00427265
    2444:	4f4d5750 	svcmi	0x004d5750
    2448:	75707475 	ldrbvc	r7, [r0, #-1141]!	; 0xfffffb8b
    244c:	76654c74 			; <UNDEFINED> instruction: 0x76654c74
    2450:	54006c65 	strpl	r6, [r0], #-3173	; 0xfffff39b
    2454:	524f5442 	subpl	r5, pc, #1107296256	; 0x42000000
    2458:	47005349 	strmi	r5, [r0, -r9, asr #6]
    245c:	5f4d5450 	svcpl	0x004d5450
    2460:	666e6f43 	strbtvs	r6, [lr], -r3, asr #30
    2464:	335f6769 	cmpcc	pc, #27525120	; 0x1a40000
    2468:	74694232 	strbtvc	r4, [r9], #-562	; 0xfffffdce
    246c:	656d6954 	strbvs	r6, [sp, #-2388]!	; 0xfffff6ac
    2470:	00413172 	subeq	r3, r1, r2, ror r1
    2474:	4d545047 	ldclmi	0, cr5, [r4, #-284]	; 0xfffffee4
    2478:	6e6f435f 	mcrvs	3, 3, r4, cr15, cr15, {2}
    247c:	5f676966 	svcpl	0x00676966
    2480:	69423233 	stmdbvs	r2, {r0, r1, r4, r5, r9, ip, sp}^
    2484:	6d695474 	cfstrdvs	mvd5, [r9, #-464]!	; 0xfffffe30
    2488:	42317265 	eorsmi	r7, r1, #1342177286	; 0x50000006
    248c:	54504700 	ldrbpl	r4, [r0], #-1792	; 0xfffff900
    2490:	6f435f4d 	svcvs	0x00435f4d
    2494:	6769666e 	strbvs	r6, [r9, -lr, ror #12]!
    2498:	4232335f 	eorsmi	r3, r2, #2080374785	; 0x7c000001
    249c:	69547469 	ldmdbvs	r4, {r0, r3, r5, r6, sl, ip, sp, lr}^
    24a0:	3572656d 	ldrbcc	r6, [r2, #-1389]!	; 0xfffffa93
    24a4:	50470041 	subpl	r0, r7, r1, asr #32
    24a8:	435f4d54 	cmpmi	pc, #84, 26	; 0x1500
    24ac:	69666e6f 	stmdbvs	r6!, {r0, r1, r2, r3, r5, r6, r9, sl, fp, sp, lr}^
    24b0:	32335f67 	eorscc	r5, r3, #412	; 0x19c
    24b4:	54746942 	ldrbtpl	r6, [r4], #-2370	; 0xfffff6be
    24b8:	72656d69 	rsbvc	r6, r5, #6720	; 0x1a40
    24bc:	47004235 	smladxmi	r0, r5, r2, r4
    24c0:	5f4d5450 	svcpl	0x004d5450
    24c4:	666e6f43 	strbtvs	r6, [lr], -r3, asr #30
    24c8:	335f6769 	cmpcc	pc, #27525120	; 0x1a40000
    24cc:	74694232 	strbtvc	r4, [r9], #-562	; 0xfffffdce
    24d0:	656d6954 	strbvs	r6, [sp, #-2388]!	; 0xfffff6ac
    24d4:	00413272 	subeq	r3, r1, r2, ror r2
    24d8:	4d545047 	ldclmi	0, cr5, [r4, #-284]	; 0xfffffee4
    24dc:	6e6f435f 	mcrvs	3, 3, r4, cr15, cr15, {2}
    24e0:	5f676966 	svcpl	0x00676966
    24e4:	69423233 	stmdbvs	r2, {r0, r1, r4, r5, r9, ip, sp}^
    24e8:	6d695474 	cfstrdvs	mvd5, [r9, #-464]!	; 0xfffffe30
    24ec:	42327265 	eorsmi	r7, r2, #1342177286	; 0x50000006
    24f0:	54504700 	ldrbpl	r4, [r0], #-1792	; 0xfffff900
    24f4:	6f435f4d 	svcvs	0x00435f4d
    24f8:	6769666e 	strbvs	r6, [r9, -lr, ror #12]!
    24fc:	7272415f 	rsbsvc	r4, r2, #-1073741801	; 0xc0000017
    2500:	53727450 	cmnpl	r2, #80, 8	; 0x50000000
    2504:	63757274 	cmnvs	r5, #116, 4	; 0x40000007
    2508:	50470074 	subpl	r0, r7, r4, ror r0
    250c:	435f4d54 	cmpmi	pc, #84, 26	; 0x1500
    2510:	69666e6f 	stmdbvs	r6!, {r0, r1, r2, r3, r5, r6, r9, sl, fp, sp, lr}^
    2514:	32335f67 	eorscc	r5, r3, #412	; 0x19c
    2518:	54746942 	ldrbtpl	r6, [r4], #-2370	; 0xfffff6be
    251c:	72656d69 	rsbvc	r6, r5, #6720	; 0x1a40
    2520:	47004133 	smladxmi	r0, r3, r1, r4
    2524:	5f4d5450 	svcpl	0x004d5450
    2528:	666e6f43 	strbtvs	r6, [lr], -r3, asr #30
    252c:	335f6769 	cmpcc	pc, #27525120	; 0x1a40000
    2530:	74694232 	strbtvc	r4, [r9], #-562	; 0xfffffdce
    2534:	656d6954 	strbvs	r6, [sp, #-2388]!	; 0xfffff6ac
    2538:	00423372 	subeq	r3, r2, r2, ror r3
    253c:	4d545047 	ldclmi	0, cr5, [r4, #-284]	; 0xfffffee4
    2540:	6e6f635f 	mcrvs	3, 3, r6, cr15, cr15, {2}
    2544:	2e676966 	vnmulcs.f16	s13, s14, s13	; <UNPREDICTABLE>
    2548:	50470063 	subpl	r0, r7, r3, rrx
    254c:	435f4d54 	cmpmi	pc, #84, 26	; 0x1500
    2550:	69666e6f 	stmdbvs	r6!, {r0, r1, r2, r3, r5, r6, r9, sl, fp, sp, lr}^
    2554:	32335f67 	eorscc	r5, r3, #412	; 0x19c
    2558:	54746942 	ldrbtpl	r6, [r4], #-2370	; 0xfffff6be
    255c:	72656d69 	rsbvc	r6, r5, #6720	; 0x1a40
    2560:	47004130 	smladxmi	r0, r0, r1, r4
    2564:	5f4d5450 	svcpl	0x004d5450
    2568:	666e6f43 	strbtvs	r6, [lr], -r3, asr #30
    256c:	335f6769 	cmpcc	pc, #27525120	; 0x1a40000
    2570:	74694232 	strbtvc	r4, [r9], #-562	; 0xfffffdce
    2574:	656d6954 	strbvs	r6, [sp, #-2388]!	; 0xfffff6ac
    2578:	00423072 	subeq	r3, r2, r2, ror r0
    257c:	4d545047 	ldclmi	0, cr5, [r4, #-284]	; 0xfffffee4
    2580:	6e6f435f 	mcrvs	3, 3, r4, cr15, cr15, {2}
    2584:	5f676966 	svcpl	0x00676966
    2588:	69423233 	stmdbvs	r2, {r0, r1, r4, r5, r9, ip, sp}^
    258c:	6d695474 	cfstrdvs	mvd5, [r9, #-464]!	; 0xfffffe30
    2590:	41347265 	teqmi	r4, r5, ror #4
    2594:	54504700 	ldrbpl	r4, [r0], #-1792	; 0xfffff900
    2598:	6f435f4d 	svcvs	0x00435f4d
    259c:	6769666e 	strbvs	r6, [r9, -lr, ror #12]!
    25a0:	4232335f 	eorsmi	r3, r2, #2080374785	; 0x7c000001
    25a4:	69547469 	ldmdbvs	r4, {r0, r3, r5, r6, sl, ip, sp, lr}^
    25a8:	3472656d 	ldrbtcc	r6, [r2], #-1389	; 0xfffffa93
    25ac:	43480042 	movtmi	r0, #32834	; 0x8042
    25b0:	525f3530 	subspl	r3, pc, #48, 10	; 0xc000000
    25b4:	69656365 	stmdbvs	r5!, {r0, r2, r5, r6, r8, r9, sp, lr}^
    25b8:	74536576 	ldrbvc	r6, [r3], #-1398	; 0xfffffa8a
    25bc:	676e6972 			; <UNDEFINED> instruction: 0x676e6972
    25c0:	414d445f 	cmpmi	sp, pc, asr r4
    25c4:	62375f00 	eorsvs	r5, r7, #0, 30
    25c8:	00737469 	rsbseq	r7, r3, r9, ror #8
    25cc:	54524155 	ldrbpl	r4, [r2], #-341	; 0xfffffeab
    25d0:	6e616843 	cdpvs	8, 6, cr6, cr1, cr3, {2}
    25d4:	316c656e 	cmncc	ip, lr, ror #10
    25d8:	6e6f435f 	mcrvs	3, 3, r4, cr15, cr15, {2}
    25dc:	00676966 	rsbeq	r6, r7, r6, ror #18
    25e0:	42785270 	rsbsmi	r5, r8, #112, 4
    25e4:	65666675 	strbvs	r6, [r6, #-1653]!	; 0xfffff98b
    25e8:	54700072 	ldrbtpl	r0, [r0], #-114	; 0xffffff8e
    25ec:	66754278 			; <UNDEFINED> instruction: 0x66754278
    25f0:	00726566 	rsbseq	r6, r2, r6, ror #10
    25f4:	64726f57 	ldrbtvs	r6, [r2], #-3927	; 0xfffff0a9
    25f8:	676e654c 	strbvs	r6, [lr, -ip, asr #10]!
    25fc:	55007468 	strpl	r7, [r0, #-1128]	; 0xfffffb98
    2600:	5f545241 	svcpl	0x00545241
    2604:	636f6c43 	cmnvs	pc, #17152	; 0x4300
    2608:	756f536b 	strbvc	r5, [pc, #-875]!	; 22a5 <_E_text+0xdb9>
    260c:	5f656372 	svcpl	0x00656372
    2610:	43480074 	movtmi	r0, #32884	; 0x8074
    2614:	2e35302d 	cdpcs	0, 3, cr3, cr5, cr13, {1}
    2618:	41550063 	cmpmi	r5, r3, rrx
    261c:	435f5452 	cmpmi	pc, #1375731712	; 0x52000000
    2620:	6e6e6168 	powvsez	f6, f6, #0.0
    2624:	00306c65 	eorseq	r6, r0, r5, ror #24
    2628:	54524155 	ldrbpl	r4, [r2], #-341	; 0xfffffeab
    262c:	6168435f 	cmnvs	r8, pc, asr r3
    2630:	6c656e6e 	stclvs	14, cr6, [r5], #-440	; 0xfffffe48
    2634:	41550031 	cmpmi	r5, r1, lsr r0
    2638:	435f5452 	cmpmi	pc, #1375731712	; 0x52000000
    263c:	6e6e6168 	powvsez	f6, f6, #0.0
    2640:	00326c65 	eorseq	r6, r2, r5, ror #24
    2644:	54524155 	ldrbpl	r4, [r2], #-341	; 0xfffffeab
    2648:	6168435f 	cmnvs	r8, pc, asr r3
    264c:	6c656e6e 	stclvs	14, cr6, [r5], #-440	; 0xfffffe48
    2650:	41550033 	cmpmi	r5, r3, lsr r0
    2654:	435f5452 	cmpmi	pc, #1375731712	; 0x52000000
    2658:	6e6e6168 	powvsez	f6, f6, #0.0
    265c:	00346c65 	eorseq	r6, r4, r5, ror #24
    2660:	54524155 	ldrbpl	r4, [r2], #-341	; 0xfffffeab
    2664:	6168435f 	cmnvs	r8, pc, asr r3
    2668:	6c656e6e 	stclvs	14, cr6, [r5], #-440	; 0xfffffe48
    266c:	41550035 	cmpmi	r5, r5, lsr r0
    2670:	435f5452 	cmpmi	pc, #1375731712	; 0x52000000
    2674:	6e6e6168 	powvsez	f6, f6, #0.0
    2678:	00366c65 	eorseq	r6, r6, r5, ror #24
    267c:	54524155 	ldrbpl	r4, [r2], #-341	; 0xfffffeab
    2680:	6168435f 	cmnvs	r8, pc, asr r3
    2684:	6c656e6e 	stclvs	14, cr6, [r5], #-440	; 0xfffffe48
    2688:	365f0037 			; <UNDEFINED> instruction: 0x365f0037
    268c:	73746962 	cmnvc	r4, #1605632	; 0x188000
    2690:	52415500 	subpl	r5, r1, #0, 10
    2694:	68435f54 	stmdavs	r3, {r2, r4, r6, r8, r9, sl, fp, ip, lr}^
    2698:	656e6e61 	strbvs	r6, [lr, #-3681]!	; 0xfffff19f
    269c:	00745f6c 	rsbseq	r5, r4, ip, ror #30
    26a0:	35304348 	ldrcc	r4, [r0, #-840]!	; 0xfffffcb8
    26a4:	6972575f 	ldmdbvs	r2!, {r0, r1, r2, r3, r4, r6, r8, r9, sl, ip, lr}^
    26a8:	74536574 	ldrbvc	r6, [r3], #-1396	; 0xfffffa8c
    26ac:	676e6972 			; <UNDEFINED> instruction: 0x676e6972
    26b0:	52415500 	subpl	r5, r1, #0, 10
    26b4:	6f435f54 	svcvs	0x00435f54
    26b8:	6769666e 	strbvs	r6, [r9, -lr, ror #12]!
    26bc:	4800745f 	stmdami	r0, {r0, r1, r2, r3, r4, r6, sl, ip, sp, lr}
    26c0:	5f353043 	svcpl	0x00353043
    26c4:	64616552 	strbtvs	r6, [r1], #-1362	; 0xfffffaae
    26c8:	72616843 	rsbvc	r6, r1, #4390912	; 0x430000
    26cc:	61684300 	cmnvs	r8, r0, lsl #6
    26d0:	74636172 	strbtvc	r6, [r3], #-370	; 0xfffffe8e
    26d4:	65527265 	ldrbvs	r7, [r2, #-613]	; 0xfffffd9b
    26d8:	48006461 	stmdami	r0, {r0, r5, r6, sl, sp, lr}
    26dc:	5f353043 	svcpl	0x00353043
    26e0:	646e6553 	strbtvs	r6, [lr], #-1363	; 0xfffffaad
    26e4:	69727453 	ldmdbvs	r2!, {r0, r1, r4, r6, sl, ip, sp, lr}^
    26e8:	445f676e 	ldrbmi	r6, [pc], #-1902	; 26f0 <_E_text+0x1204>
    26ec:	5f00414d 	svcpl	0x0000414d
    26f0:	74696238 	strbtvc	r6, [r9], #-568	; 0xfffffdc8
    26f4:	43480073 	movtmi	r0, #32883	; 0x8073
    26f8:	495f3530 	ldmdbmi	pc, {r4, r5, r8, sl, ip, sp}^	; <UNPREDICTABLE>
    26fc:	6974696e 	ldmdbvs	r4!, {r1, r2, r3, r5, r6, r8, fp, sp, lr}^
    2700:	7a696c61 	bvc	1a5d88c <_E_text+0x1a5c3a0>
    2704:	6f697461 	svcvs	0x00697461
    2708:	6370006e 	cmnvs	r0, #110	; 0x6e
    270c:	55006b6c 	strpl	r6, [r0, #-2924]	; 0xfffff494
    2710:	5f545241 	svcpl	0x00545241
    2714:	64726f57 	ldrbtvs	r6, [r2], #-3927	; 0xfffff0a9
    2718:	676e654c 	strbvs	r6, [lr, -ip, asr #10]!
    271c:	745f7468 	ldrbvc	r7, [pc], #-1128	; 2724 <_E_text+0x1238>
    2720:	75616200 	strbvc	r6, [r1, #-512]!	; 0xfffffe00
    2724:	355f0064 	ldrbcc	r0, [pc, #-100]	; 26c8 <_E_text+0x11dc>
    2728:	73746962 	cmnvc	r4, #1605632	; 0x188000
    272c:	30434800 	subcc	r4, r3, r0, lsl #16
    2730:	6e495f35 	mcrvs	15, 2, r5, cr9, cr5, {1}
    2734:	61697469 	cmnvs	r9, r9, ror #8
    2738:	617a696c 	cmnvs	sl, ip, ror #18
    273c:	6e6f6974 			; <UNDEFINED> instruction: 0x6e6f6974
    2740:	414d445f 	cmpmi	sp, pc, asr r4
    2744:	30434800 	subcc	r4, r3, r0, lsl #16
    2748:	72575f35 	subsvc	r5, r7, #53, 30	; 0xd4
    274c:	43657469 	cmnmi	r5, #1761607680	; 0x69000000
    2750:	00726168 	rsbseq	r6, r2, r8, ror #2
    2754:	636f6c43 	cmnvs	pc, #17152	; 0x4300
    2758:	756f736b 	strbvc	r7, [pc, #-875]!	; 23f5 <_E_text+0xf09>
    275c:	00656372 	rsbeq	r6, r5, r2, ror r3
    2760:	434f4950 	movtmi	r4, #63824	; 0xf950
    2764:	69616d00 	stmdbvs	r1!, {r8, sl, fp, sp, lr}^
    2768:	00632e6e 	rsbeq	r2, r3, lr, ror #28
    276c:	5f727470 	svcpl	0x00727470
    2770:	72616863 	rsbvc	r6, r1, #6488064	; 0x630000
    2774:	72657461 	rsbvc	r7, r5, #1627389952	; 0x61000000
    2778:	6f530031 	svcvs	0x00530031
    277c:	65637275 	strbvs	r7, [r3, #-629]!	; 0xfffffd8b
    2780:	66667542 	strbtvs	r7, [r6], -r2, asr #10
    2784:	445f7265 	ldrbmi	r7, [pc], #-613	; 278c <_E_text+0x12a0>
    2788:	6900414d 	stmdbvs	r0, {r0, r2, r3, r6, r8, lr}
    278c:	7865646e 	stmdavc	r5!, {r1, r2, r3, r5, r6, sl, sp, lr}^
    2790:	6e756f43 	cdpvs	15, 7, cr6, cr5, cr3, {2}
    2794:	00726574 	rsbseq	r6, r2, r4, ror r5
    2798:	65646e49 	strbvs	r6, [r4, #-3657]!	; 0xfffff1b7
    279c:	756f4378 	strbvc	r4, [pc, #-888]!	; 242c <_E_text+0xf40>
    27a0:	7265746e 	rsbvc	r7, r5, #1845493760	; 0x6e000000
    27a4:	6c644900 			; <UNDEFINED> instruction: 0x6c644900
    27a8:	6f6f4c65 	svcvs	0x006f4c65
    27ac:	756f4370 	strbvc	r4, [pc, #-880]!	; 2444 <_E_text+0xf58>
    27b0:	7265746e 	rsbvc	r7, r5, #1845493760	; 0x6e000000
    27b4:	53794d00 	cmnpl	r9, #0, 26
    27b8:	65747379 	ldrbvs	r7, [r4, #-889]!	; 0xfffffc87
    27bc:	6f6c436d 	svcvs	0x006c436d
    27c0:	50006b63 	andpl	r6, r0, r3, ror #22
    27c4:	43534f49 	cmpmi	r3, #292	; 0x124
    27c8:	7669445f 			; <UNDEFINED> instruction: 0x7669445f
    27cc:	6e490034 	mcrvs	0, 2, r0, cr9, cr4, {1}
    27d0:	63786564 	cmnvs	r8, #100, 10	; 0x19000000
    27d4:	746e756f 	strbtvc	r7, [lr], #-1391	; 0xfffffa91
    27d8:	73007265 	movwvc	r7, #613	; 0x265
    27dc:	745f3233 	ldrbvc	r3, [pc], #-563	; 27e4 <_E_text+0x12f8>
    27e0:	756e7500 	strbvc	r7, [lr, #-1280]!	; 0xfffffb00
    27e4:	5f646573 	svcpl	0x00646573
    27e8:	32726176 	rsbscc	r6, r2, #-2147483619	; 0x8000001d
    27ec:	756f5300 	strbvc	r5, [pc, #-768]!	; 24f4 <_E_text+0x1008>
    27f0:	42656372 	rsbmi	r6, r5, #-939524095	; 0xc8000001
    27f4:	65666675 	strbvs	r6, [r6, #-1653]!	; 0xfffff98b
    27f8:	52415572 	subpl	r5, r1, #478150656	; 0x1c800000
    27fc:	65440054 	strbvs	r0, [r4, #-84]	; 0xffffffac
    2800:	75427473 	strbvc	r7, [r2, #-1139]	; 0xfffffb8d
    2804:	72656666 	rsbvc	r6, r5, #106954752	; 0x6600000
    2808:	65440041 	strbvs	r0, [r4, #-65]	; 0xffffffbf
    280c:	75427473 	strbvc	r7, [r2, #-1139]	; 0xfffffb8d
    2810:	72656666 	rsbvc	r6, r5, #106954752	; 0x6600000
    2814:	65440042 	strbvs	r0, [r4, #-66]	; 0xffffffbe
    2818:	72417473 	subvc	r7, r1, #1929379840	; 0x73000000
    281c:	35796172 	ldrbcc	r6, [r9, #-370]!	; 0xfffffe8e
    2820:	55003231 	strpl	r3, [r0, #-561]	; 0xfffffdcf
    2824:	6573756e 	ldrbvs	r7, [r3, #-1390]!	; 0xfffffa92
    2828:	6e754664 	cdpvs	6, 7, cr4, cr5, cr4, {3}
    282c:	44003163 	strmi	r3, [r0], #-355	; 0xfffffe9d
    2830:	42747365 	rsbsmi	r7, r4, #-1811939327	; 0x94000001
    2834:	65666675 	strbvs	r6, [r6, #-1653]!	; 0xfffff98b
    2838:	4d445f72 	stclmi	15, cr5, [r4, #-456]	; 0xfffffe38
    283c:	6f6c0041 	svcvs	0x006c0041
    2840:	5f6c6163 	svcpl	0x006c6163
    2844:	00726176 	rsbseq	r6, r2, r6, ror r1
    2848:	72756f53 	rsbsvc	r6, r5, #332	; 0x14c
    284c:	6e496563 	cdpvs	5, 4, cr6, cr9, cr3, {3}
    2850:	43786564 	cmnmi	r8, #100, 10	; 0x19000000
    2854:	746e756f 	strbtvc	r7, [lr], #-1391	; 0xfffffa91
    2858:	4d447265 	sfmmi	f7, 2, [r4, #-404]	; 0xfffffe6c
    285c:	6e750041 	cdpvs	0, 7, cr0, cr5, cr1, {2}
    2860:	64657375 	strbtvs	r7, [r5], #-885	; 0xfffffc8b
    2864:	7261765f 	rsbvc	r7, r1, #99614720	; 0x5f00000
    2868:	6e750031 	mrcvs	0, 3, r0, cr5, cr1, {1}
    286c:	64657375 	strbtvs	r7, [r5], #-885	; 0xfffffc8b
    2870:	7261765f 	rsbvc	r7, r1, #99614720	; 0x5f00000
    2874:	6e750033 	mrcvs	0, 3, r0, cr5, cr3, {1}
    2878:	64657375 	strbtvs	r7, [r5], #-885	; 0xfffffc8b
    287c:	7261765f 	rsbvc	r7, r1, #99614720	; 0x5f00000
    2880:	74730034 	ldrbtvc	r0, [r3], #-52	; 0xffffffcc
    2884:	63697461 	cmnvs	r9, #1627389952	; 0x61000000
    2888:	7261765f 	rsbvc	r7, r1, #99614720	; 0x5f00000
    288c:	73795300 	cmnvc	r9, #0, 6
    2890:	006b6c43 	rsbeq	r6, fp, r3, asr #24
    2894:	6e69616d 	powvsez	f6, f1, #5.0
    2898:	756f5300 	strbvc	r5, [pc, #-768]!	; 25a0 <_E_text+0x10b4>
    289c:	49656372 	stmdbmi	r5!, {r1, r4, r5, r6, r8, r9, sp, lr}^
    28a0:	7865646e 	stmdavc	r5!, {r1, r2, r3, r5, r6, sl, sp, lr}^
    28a4:	6e756f43 	cdpvs	15, 7, cr6, cr5, cr3, {2}
    28a8:	44726574 	ldrbtmi	r6, [r2], #-1396	; 0xfffffa8c
    28ac:	3533414d 	ldrcc	r4, [r3, #-333]!	; 0xfffffeb3
    28b0:	6f530036 	svcvs	0x00530036
    28b4:	65637275 	strbvs	r7, [r3, #-629]!	; 0xfffffd8b
    28b8:	61727241 	cmnvs	r2, r1, asr #4
    28bc:	32313579 	eorscc	r3, r1, #507510784	; 0x1e400000
    28c0:	6f724700 	svcvs	0x00724700
    28c4:	72507075 	subsvc	r7, r0, #117	; 0x75
    28c8:	69726f69 	ldmdbvs	r2!, {r0, r3, r5, r6, r8, r9, sl, fp, sp, lr}^
    28cc:	4e007974 			; <UNDEFINED> instruction: 0x4e007974
    28d0:	5f434956 	svcpl	0x00434956
    28d4:	6f697250 	svcvs	0x00697250
    28d8:	79746972 	ldmdbvc	r4!, {r1, r4, r5, r6, r8, fp, sp, lr}^
    28dc:	756f7247 	strbvc	r7, [pc, #-583]!	; 269d <_E_text+0x11b1>
    28e0:	74655370 	strbtvc	r5, [r5], #-880	; 0xfffffc90
    28e4:	4500745f 	strmi	r7, [r0, #-1119]	; 0xfffffba1
    28e8:	4149444e 	cmpmi	r9, lr, asr #8
    28ec:	0053454e 	subseq	r4, r3, lr, asr #10
    28f0:	4349564e 	movtmi	r5, #38478	; 0x964e
    28f4:	656c435f 	strbvs	r4, [ip, #-863]!	; 0xfffffca1
    28f8:	505f7261 	subspl	r7, pc, r1, ror #4
    28fc:	69646e65 	stmdbvs	r4!, {r0, r2, r5, r6, r9, sl, fp, sp, lr}^
    2900:	4e00676e 	cdpmi	7, 0, cr6, cr0, cr14, {3}
    2904:	5f434956 	svcpl	0x00434956
    2908:	61656c43 	cmnvs	r5, r3, asr #24
    290c:	6e495f72 	mcrvs	15, 2, r5, cr9, cr2, {3}
    2910:	72726574 	rsbsvc	r6, r2, #116, 10	; 0x1d000000
    2914:	00747075 	rsbseq	r7, r4, r5, ror r0
    2918:	50627553 	rsbpl	r7, r2, r3, asr r5
    291c:	726f6972 	rsbvc	r6, pc, #1867776	; 0x1c8000
    2920:	00797469 	rsbseq	r7, r9, r9, ror #8
    2924:	5f387561 	svcpl	0x00387561
    2928:	4e676552 	mcrmi	5, 3, r6, cr7, cr2, {2}
    292c:	50006d75 	andpl	r6, r0, r5, ror sp
    2930:	625f4952 	subsvs	r4, pc, #1343488	; 0x148000
    2934:	00737469 	rsbseq	r7, r3, r9, ror #8
    2938:	54434556 	strbpl	r4, [r3], #-1366	; 0xfffffaaa
    293c:	0059454b 	subseq	r4, r9, fp, asr #10
    2940:	47627553 			; <UNDEFINED> instruction: 0x47627553
    2944:	70756f72 	rsbsvc	r6, r5, r2, ror pc
    2948:	6f697250 	svcvs	0x00697250
    294c:	79746972 	ldmdbvc	r4!, {r1, r4, r5, r6, r8, fp, sp, lr}^
    2950:	75530035 	ldrbvc	r0, [r3, #-53]	; 0xffffffcb
    2954:	6f724762 	svcvs	0x00724762
    2958:	72507075 	subsvc	r7, r0, #117	; 0x75
    295c:	69726f69 	ldmdbvs	r2!, {r0, r3, r5, r6, r8, r9, sl, fp, sp, lr}^
    2960:	00337974 	eorseq	r7, r3, r4, ror r9
    2964:	47627553 			; <UNDEFINED> instruction: 0x47627553
    2968:	70756f72 	rsbsvc	r6, r5, r2, ror pc
    296c:	6f697250 	svcvs	0x00697250
    2970:	79746972 	ldmdbvc	r4!, {r1, r4, r5, r6, r8, fp, sp, lr}^
    2974:	72470037 	subvc	r0, r7, #55	; 0x37
    2978:	5070756f 	rsbspl	r7, r0, pc, ror #10
    297c:	726f6972 	rsbvc	r6, pc, #1867776	; 0x1c8000
    2980:	31797469 	cmncc	r9, r9, ror #8
    2984:	6275535f 	rsbsvs	r5, r5, #2080374785	; 0x7c000001
    2988:	564e0038 			; <UNDEFINED> instruction: 0x564e0038
    298c:	535f4349 	cmppl	pc, #603979777	; 0x24000001
    2990:	72507465 	subsvc	r7, r0, #1694498816	; 0x65000000
    2994:	69726f69 	ldmdbvs	r2!, {r0, r3, r5, r6, r8, r9, sl, fp, sp, lr}^
    2998:	72477974 	subvc	r7, r7, #116, 18	; 0x1d0000
    299c:	6970756f 	ldmdbvs	r0!, {r0, r1, r2, r3, r5, r6, r8, sl, ip, sp, lr}^
    29a0:	5300676e 	movwpl	r6, #1902	; 0x76e
    29a4:	72476275 	subvc	r6, r7, #1342177287	; 0x50000007
    29a8:	5070756f 	rsbspl	r7, r0, pc, ror #10
    29ac:	726f6972 	rsbvc	r6, pc, #1867776	; 0x1c8000
    29b0:	36797469 	ldrbtcc	r7, [r9], -r9, ror #8
    29b4:	746e4900 	strbtvc	r4, [lr], #-2304	; 0xfffff700
    29b8:	75727265 	ldrbvc	r7, [r2, #-613]!	; 0xfffffd9b
    29bc:	435f7470 	cmpmi	pc, #112, 8	; 0x70000000
    29c0:	7261656c 	rsbvc	r6, r1, #108, 10	; 0x1b000000
    29c4:	6765525f 			; <UNDEFINED> instruction: 0x6765525f
    29c8:	65747369 	ldrbvs	r7, [r4, #-873]!	; 0xfffffc97
    29cc:	4e007372 	mcrmi	3, 0, r7, cr0, cr2, {3}
    29d0:	5f434956 	svcpl	0x00434956
    29d4:	69737341 	ldmdbvs	r3!, {r0, r6, r8, r9, ip, sp, lr}^
    29d8:	72506e67 	subsvc	r6, r0, #1648	; 0x670
    29dc:	69726f69 	ldmdbvs	r2!, {r0, r3, r5, r6, r8, r9, sl, fp, sp, lr}^
    29e0:	53007974 	movwpl	r7, #2420	; 0x974
    29e4:	505f7465 	subspl	r7, pc, r5, ror #8
    29e8:	69646e65 	stmdbvs	r4!, {r0, r2, r5, r6, r9, sl, fp, sp, lr}^
    29ec:	525f676e 	subspl	r6, pc, #28835840	; 0x1b80000
    29f0:	73696765 	cmnvc	r9, #26476544	; 0x1940000
    29f4:	00726574 	rsbseq	r6, r2, r4, ror r5
    29f8:	47495250 	smlsldmi	r5, r9, r0, r2
    29fc:	50554f52 	subspl	r4, r5, r2, asr pc
    2a00:	746e4900 	strbtvc	r4, [lr], #-2304	; 0xfffff700
    2a04:	75727265 	ldrbvc	r7, [r2, #-613]!	; 0xfffffd9b
    2a08:	455f7470 	ldrbmi	r7, [pc, #-1136]	; 25a0 <_E_text+0x10b4>
    2a0c:	6c62616e 	stfvse	f6, [r2], #-440	; 0xfffffe48
    2a10:	65525f65 	ldrbvs	r5, [r2, #-3941]	; 0xfffff09b
    2a14:	74736967 	ldrbtvc	r6, [r3], #-2407	; 0xfffff699
    2a18:	00737265 	rsbseq	r7, r3, r5, ror #4
    2a1c:	756f7247 	strbvc	r7, [pc, #-583]!	; 27dd <_E_text+0x12f1>
    2a20:	69725070 	ldmdbvs	r2!, {r4, r5, r6, ip, lr}^
    2a24:	7469726f 	strbtvc	r7, [r9], #-623	; 0xfffffd91
    2a28:	535f3879 	cmppl	pc, #7929856	; 0x790000
    2a2c:	00316275 	eorseq	r6, r1, r5, ror r2
    2a30:	65746e49 	ldrbvs	r6, [r4, #-3657]!	; 0xfffff1b7
    2a34:	70757272 	rsbsvc	r7, r5, r2, ror r2
    2a38:	72505f74 	subsvc	r5, r0, #116, 30	; 0x1d0
    2a3c:	69726f69 	ldmdbvs	r2!, {r0, r3, r5, r6, r8, r9, sl, fp, sp, lr}^
    2a40:	525f7974 	subspl	r7, pc, #116, 18	; 0x1d0000
    2a44:	73696765 	cmnvc	r9, #26476544	; 0x1940000
    2a48:	00726574 	rsbseq	r6, r2, r4, ror r5
    2a4c:	4349564e 	movtmi	r5, #38478	; 0x964e
    2a50:	616e455f 	cmnvs	lr, pc, asr r5
    2a54:	5f656c62 	svcpl	0x00656c62
    2a58:	65746e49 	ldrbvs	r6, [r4, #-3657]!	; 0xfffff1b7
    2a5c:	70757272 	rsbsvc	r7, r5, r2, ror r2
    2a60:	564e0074 			; <UNDEFINED> instruction: 0x564e0074
    2a64:	632e4349 			; <UNDEFINED> instruction: 0x632e4349
    2a68:	69727000 	ldmdbvs	r2!, {ip, sp, lr}^
    2a6c:	7469726f 	strbtvc	r7, [r9], #-623	; 0xfffffd91
    2a70:	6f724779 	svcvs	0x00724779
    2a74:	41007075 	tstmi	r0, r5, ror r0
    2a78:	544e4950 	strbpl	r4, [lr], #-2384	; 0xfffff6b0
    2a7c:	7469625f 	strbtvc	r6, [r9], #-607	; 0xfffffda1
    2a80:	72470073 	subvc	r0, r7, #115	; 0x73
    2a84:	5070756f 	rsbspl	r7, r0, pc, ror #10
    2a88:	726f6972 	rsbvc	r6, pc, #1867776	; 0x1c8000
    2a8c:	32797469 	rsbscc	r7, r9, #1761607680	; 0x69000000
    2a90:	6275535f 	rsbsvs	r5, r5, #2080374785	; 0x7c000001
    2a94:	75610034 	strbvc	r0, [r1, #-52]!	; 0xffffffcc
    2a98:	495f3233 	ldmdbmi	pc, {r0, r1, r4, r5, r9, ip, sp}^	; <UNPREDICTABLE>
    2a9c:	7265746e 	rsbvc	r7, r5, #1845493760	; 0x6e000000
    2aa0:	74707572 	ldrbtvc	r7, [r0], #-1394	; 0xfffffa8e
    2aa4:	006d754e 	rsbeq	r7, sp, lr, asr #10
    2aa8:	47627553 			; <UNDEFINED> instruction: 0x47627553
    2aac:	70756f72 	rsbsvc	r6, r5, r2, ror pc
    2ab0:	6f697250 	svcvs	0x00697250
    2ab4:	79746972 	ldmdbvc	r4!, {r1, r4, r5, r6, r8, fp, sp, lr}^
    2ab8:	75530030 	ldrbvc	r0, [r3, #-48]	; 0xffffffd0
    2abc:	6f724762 	svcvs	0x00724762
    2ac0:	72507075 	subsvc	r7, r0, #117	; 0x75
    2ac4:	69726f69 	ldmdbvs	r2!, {r0, r3, r5, r6, r8, r9, sl, fp, sp, lr}^
    2ac8:	00317974 	eorseq	r7, r1, r4, ror r9
    2acc:	47627553 			; <UNDEFINED> instruction: 0x47627553
    2ad0:	70756f72 	rsbsvc	r6, r5, r2, ror pc
    2ad4:	6f697250 	svcvs	0x00697250
    2ad8:	79746972 	ldmdbvc	r4!, {r1, r4, r5, r6, r8, fp, sp, lr}^
    2adc:	4e490032 	mcrmi	0, 2, r0, cr9, cr2, {1}
    2ae0:	49004154 	stmdbmi	r0, {r2, r4, r6, r8, lr}
    2ae4:	0042544e 	subeq	r5, r2, lr, asr #8
    2ae8:	43544e49 	cmpmi	r4, #1168	; 0x490
    2aec:	544e4900 	strbpl	r4, [lr], #-2304	; 0xfffff700
    2af0:	564e0044 	strbpl	r0, [lr], -r4, asr #32
    2af4:	535f4349 	cmppl	pc, #603979777	; 0x24000001
    2af8:	505f7465 	subspl	r7, pc, r5, ror #8
    2afc:	69646e65 	stmdbvs	r4!, {r0, r2, r5, r6, r9, sl, fp, sp, lr}^
    2b00:	6100676e 	tstvs	r0, lr, ror #14
    2b04:	425f3875 	subsmi	r3, pc, #7667712	; 0x750000
    2b08:	754e7469 	strbvc	r7, [lr, #-1129]	; 0xfffffb97
    2b0c:	7553006d 	ldrbvc	r0, [r3, #-109]	; 0xffffff93
    2b10:	6f724762 	svcvs	0x00724762
    2b14:	72507075 	subsvc	r7, r0, #117	; 0x75
    2b18:	69726f69 	ldmdbvs	r2!, {r0, r3, r5, r6, r8, r9, sl, fp, sp, lr}^
    2b1c:	00347974 	eorseq	r7, r4, r4, ror r9
    2b20:	47495250 	smlsldmi	r5, r9, r0, r2
    2b24:	50554f52 	subspl	r4, r5, r2, asr pc
    2b28:	7469625f 	strbtvc	r6, [r9], #-607	; 0xfffffda1
    2b2c:	75530073 	ldrbvc	r0, [r3, #-115]	; 0xffffff8d
    2b30:	6f724762 	svcvs	0x00724762
    2b34:	72507075 	subsvc	r7, r0, #117	; 0x75
    2b38:	69726f69 	ldmdbvs	r2!, {r0, r3, r5, r6, r8, r9, sl, fp, sp, lr}^
    2b3c:	00387974 	eorseq	r7, r8, r4, ror r9
    2b40:	61656c43 	cmnvs	r5, r3, asr #24
    2b44:	65505f72 	ldrbvs	r5, [r0, #-3954]	; 0xfffff08e
    2b48:	6e69646e 	cdpvs	4, 6, cr6, cr9, cr14, {3}
    2b4c:	65525f67 	ldrbvs	r5, [r2, #-3943]	; 0xfffff099
    2b50:	74736967 	ldrbtvc	r6, [r3], #-2407	; 0xfffff699
    2b54:	4e007265 	cdpmi	2, 0, cr7, cr0, cr5, {3}
    2b58:	5f434956 	svcpl	0x00434956
    2b5c:	50627553 	rsbpl	r7, r2, r3, asr r5
    2b60:	726f6972 	rsbvc	r6, pc, #1867776	; 0x1c8000
    2b64:	47797469 	ldrbmi	r7, [r9, -r9, ror #8]!
    2b68:	70756f72 	rsbsvc	r6, r5, r2, ror pc
    2b6c:	5f746553 	svcpl	0x00746553
    2b70:	72470074 	subvc	r0, r7, #116	; 0x74
    2b74:	5070756f 	rsbspl	r7, r0, pc, ror #10
    2b78:	726f6972 	rsbvc	r6, pc, #1867776	; 0x1c8000
    2b7c:	34797469 	ldrbtcc	r7, [r9], #-1129	; 0xfffffb97
    2b80:	6275535f 	rsbsvs	r5, r5, #2080374785	; 0x7c000001
    2b84:	74730032 	ldrbtvc	r0, [r3], #-50	; 0xffffffce
    2b88:	75747261 	ldrbvc	r7, [r4, #-609]!	; 0xfffffd9f
    2b8c:	00632e70 	rsbeq	r2, r3, r0, ror lr
    2b90:	41544144 	cmpmi	r4, r4, asr #2
    2b94:	7a69735f 	bvc	1a5f918 <_E_text+0x1a5e42c>
    2b98:	74530065 	ldrbvc	r0, [r3], #-101	; 0xffffff9b
    2b9c:	5f6b6361 	svcpl	0x006b6361
    2ba0:	00706f74 	rsbseq	r6, r0, r4, ror pc
    2ba4:	65736552 	ldrbvs	r6, [r3, #-1362]!	; 0xfffffaae
    2ba8:	61485f74 	hvcvs	34292	; 0x85f4
    2bac:	656c646e 	strbvs	r6, [ip, #-1134]!	; 0xfffffb92
    2bb0:	5f700072 	svcpl	0x00700072
    2bb4:	00637273 	rsbeq	r7, r3, r3, ror r2
    2bb8:	445f455f 	ldrbmi	r4, [pc], #-1375	; 2bc0 <_E_text+0x16d4>
    2bbc:	00415441 	subeq	r5, r1, r1, asr #8
    2bc0:	425f455f 	subsmi	r4, pc, #398458880	; 0x17c00000
    2bc4:	5f005353 	svcpl	0x00005353
    2bc8:	65745f45 	ldrbvs	r5, [r4, #-3909]!	; 0xfffff0bb
    2bcc:	70007478 	andvc	r7, r0, r8, ror r4
    2bd0:	7473645f 	ldrbtvc	r6, [r3], #-1119	; 0xfffffba1
    2bd4:	53534200 	cmppl	r3, #0, 4
    2bd8:	7a69735f 	bvc	1a5f95c <_E_text+0x1a5e470>
    2bdc:	65440065 	strbvs	r0, [r4, #-101]	; 0xffffff9b
    2be0:	6c756166 	ldfvse	f6, [r5], #-408	; 0xfffffe68
    2be4:	61485f74 	hvcvs	34292	; 0x85f4
    2be8:	656c646e 	strbvs	r6, [ip, #-1134]!	; 0xfffffb92
    2bec:	535f0072 	cmppl	pc, #114	; 0x72
    2bf0:	5441445f 	strbpl	r4, [r1], #-1119	; 0xfffffba1
    2bf4:	70670041 	rsbvc	r0, r7, r1, asr #32
    2bf8:	5f6e665f 	svcpl	0x006e665f
    2bfc:	74636576 	strbtvc	r6, [r3], #-1398	; 0xfffffa8a
    2c00:	0073726f 	rsbseq	r7, r3, pc, ror #4
    2c04:	425f535f 	subsmi	r5, pc, #2080374785	; 0x7c000001
    2c08:	5f005353 	svcpl	0x00005353
    2c0c:	7a484d35 	bvc	12160e8 <_E_text+0x1214bfc>
    2c10:	4253555f 	subsmi	r5, r3, #398458880	; 0x17c00000
    2c14:	5f435300 	svcpl	0x00435300
    2c18:	4f746547 	svcmi	0x00746547
    2c1c:	6c696373 	stclvs	3, cr6, [r9], #-460	; 0xfffffe34
    2c20:	6f74616c 	svcvs	0x0074616c
    2c24:	6c615672 	stclvs	6, cr5, [r1], #-456	; 0xfffffe38
    2c28:	50006575 	andpl	r6, r0, r5, ror r5
    2c2c:	6f4d4d57 	svcvs	0x004d4d57
    2c30:	656c7564 	strbvs	r7, [ip, #-1380]!	; 0xfffffa9c
    2c34:	57500030 	smmlarpl	r0, r0, r0, r0
    2c38:	646f4d4d 	strbtvs	r4, [pc], #-3405	; 2c40 <_E_text+0x1754>
    2c3c:	31656c75 	smccc	22213	; 0x56c5
    2c40:	4d575000 	ldclmi	0, cr5, [r7, #-0]
    2c44:	74696e55 	strbtvc	r6, [r9], #-3669	; 0xfffff1ab
    2c48:	636f6c43 	cmnvs	pc, #17152	; 0x4300
    2c4c:	7669446b 	strbtvc	r4, [r9], -fp, ror #8
    2c50:	726f7369 	rsbvc	r7, pc, #-1543503871	; 0xa4000001
    2c54:	5f435300 	svcpl	0x00435300
    2c58:	444d5750 	strbmi	r5, [sp], #-1872	; 0xfffff8b0
    2c5c:	45005649 	strmi	r5, [r0, #-1609]	; 0xfffff9b7
    2c60:	6c62616e 	stfvse	f6, [r2], #-440	; 0xfffffe48
    2c64:	4d575065 	ldclmi	0, cr5, [r7, #-404]	; 0xfffffe6c
    2c68:	446b6c43 	strbtmi	r6, [fp], #-3139	; 0xfffff3bd
    2c6c:	50007669 	andpl	r7, r0, r9, ror #12
    2c70:	445f4d57 	ldrbmi	r4, [pc], #-3415	; 2c78 <_E_text+0x178c>
    2c74:	34367669 	ldrtcc	r7, [r6], #-1641	; 0xfffff997
    2c78:	616e4500 	cmnvs	lr, r0, lsl #10
    2c7c:	53656c62 	cmnpl	r5, #25088	; 0x6200
    2c80:	65747379 	ldrbvs	r7, [r4, #-889]!	; 0xfffffc87
    2c84:	6f6c436d 	svcvs	0x006c436d
    2c88:	69446b63 	stmdbvs	r4, {r0, r1, r5, r6, r8, r9, fp, sp, lr}^
    2c8c:	65646976 	strbvs	r6, [r4, #-2422]!	; 0xfffff68a
    2c90:	43530072 	cmpmi	r3, #114	; 0x72
    2c94:	6e6f435f 	mcrvs	3, 3, r4, cr15, cr15, {2}
    2c98:	75676966 	strbvc	r6, [r7, #-2406]!	; 0xfffff69a
    2c9c:	734f6572 	movtvc	r6, #62834	; 0xf572
    2ca0:	756f5363 	strbvc	r5, [pc, #-867]!	; 2945 <_E_text+0x1459>
    2ca4:	5f656372 	svcpl	0x00656372
    2ca8:	4f420074 	svcmi	0x00420074
    2cac:	49523152 	ldmdbmi	r2, {r1, r4, r6, r8, ip, sp}^
    2cb0:	43530053 	cmpmi	r3, #83	; 0x53
    2cb4:	616e455f 	cmnvs	lr, pc, asr r5
    2cb8:	52656c62 	rsbpl	r6, r5, #25088	; 0x6200
    2cbc:	6f4d6e75 	svcvs	0x004d6e75
    2cc0:	6c436564 	cfstr64vs	mvdx6, [r3], {100}	; 0x64
    2cc4:	506b636f 	rsbpl	r6, fp, pc, ror #6
    2cc8:	55004d57 	strpl	r4, [r0, #-3415]	; 0xfffff2a9
    2ccc:	4c504253 	lfmmi	f4, 2, [r0], {83}	; 0x53
    2cd0:	636f4c4c 	cmnvs	pc, #76, 24	; 0x4c00
    2cd4:	7761526b 	strbvc	r5, [r1, -fp, ror #4]!
    2cd8:	65746e49 	ldrbvs	r6, [r4, #-3657]!	; 0xfffff1b7
    2cdc:	70757272 	rsbsvc	r7, r5, r2, ror r2
    2ce0:	61745374 	cmnvs	r4, r4, ror r3
    2ce4:	00737574 	rsbseq	r7, r3, r4, ror r5
    2ce8:	63657250 	cmnvs	r5, #80, 4
    2cec:	6f697369 	svcvs	0x00697369
    2cf0:	746e496e 	strbtvc	r4, [lr], #-2414	; 0xfffff692
    2cf4:	734f7265 	movtvc	r7, #62053	; 0xf265
    2cf8:	6c6c6963 			; <UNDEFINED> instruction: 0x6c6c6963
    2cfc:	726f7461 	rsbvc	r7, pc, #1627389952	; 0x61000000
    2d00:	6e6f4300 	cdpvs	3, 6, cr4, cr15, cr0, {0}
    2d04:	4f676966 	svcmi	0x00676966
    2d08:	6f536373 	svcvs	0x00536373
    2d0c:	65637275 	strbvs	r7, [r3, #-629]!	; 0xfffffd8b
    2d10:	6e6f4300 	cdpvs	3, 6, cr4, cr15, cr0, {0}
    2d14:	43676966 	cmnmi	r7, #1671168	; 0x198000
    2d18:	74737972 	ldrbtvc	r7, [r3], #-2418	; 0xfffff68e
    2d1c:	61566c61 	cmpvs	r6, r1, ror #24
    2d20:	0065756c 	rsbeq	r7, r5, ip, ror #10
    2d24:	335f375f 	cmpcc	pc, #24903680	; 0x17c0000
    2d28:	4d383237 	lfmmi	f3, 4, [r8, #-220]!	; 0xffffff24
    2d2c:	53007a48 	movwpl	r7, #2632	; 0xa48
    2d30:	6c437379 	mcrrvs	3, 7, r7, r3, cr9
    2d34:	6572466b 	ldrbvs	r4, [r2, #-1643]!	; 0xfffff995
    2d38:	6e450071 	mcrvs	0, 2, r0, cr5, cr1, {3}
    2d3c:	656c6261 	strbvs	r6, [ip, #-609]!	; 0xfffffd9f
    2d40:	44737953 	ldrbtmi	r7, [r3], #-2387	; 0xfffff6ad
    2d44:	41007669 	tstmi	r0, r9, ror #12
    2d48:	436f7475 	cmnmi	pc, #1962934272	; 0x75000000
    2d4c:	6b636f6c 	blvs	18deb04 <_E_text+0x18dd618>
    2d50:	69746147 	ldmdbvs	r4!, {r0, r1, r2, r6, r8, sp, lr}^
    2d54:	4300676e 	movwmi	r6, #1902	; 0x76e
    2d58:	69666e6f 	stmdbvs	r6!, {r0, r1, r2, r3, r5, r6, r9, sl, fp, sp, lr}^
    2d5c:	65727567 	ldrbvs	r7, [r2, #-1383]!	; 0xfffffa99
    2d60:	44737953 	ldrbtmi	r7, [r3], #-2387	; 0xfffff6ad
    2d64:	50007669 	andpl	r7, r0, r9, ror #12
    2d68:	445f4d57 	ldrbmi	r4, [pc], #-3415	; 2d70 <_E_text+0x1884>
    2d6c:	32337669 	eorscc	r7, r3, #110100480	; 0x6900000
    2d70:	5f747000 	svcpl	0x00747000
    2d74:	434d5750 	movtmi	r5, #55120	; 0xd750
    2d78:	69666e6f 	stmdbvs	r6!, {r0, r1, r2, r3, r5, r6, r9, sl, fp, sp, lr}^
    2d7c:	61727567 	cmnvs	r2, r7, ror #10
    2d80:	6e6f6974 			; <UNDEFINED> instruction: 0x6e6f6974
    2d84:	63734f00 	cmnvs	r3, #0, 30
    2d88:	616c6c69 	cmnvs	ip, r9, ror #24
    2d8c:	53726f74 	cmnpl	r2, #116, 30	; 0x1d0
    2d90:	6372756f 	cmnvs	r2, #465567744	; 0x1bc00000
    2d94:	43530065 	cmpmi	r3, #101	; 0x65
    2d98:	7465475f 	strbtvc	r4, [r5], #-1887	; 0xfffff8a1
    2d9c:	74737953 	ldrbtvc	r7, [r3], #-2387	; 0xfffff6ad
    2da0:	6c436d65 	mcrrvs	13, 6, r6, r3, cr5
    2da4:	006b636f 	rsbeq	r6, fp, pc, ror #6
    2da8:	535f4353 	cmppl	pc, #1275068417	; 0x4c000001
    2dac:	49445359 	stmdbmi	r4, {r0, r3, r4, r6, r8, r9, ip, lr}^
    2db0:	43520056 	cmpmi	r2, #86	; 0x56
    2db4:	525f3243 	subspl	r3, pc, #805306372	; 0x30000004
    2db8:	42006765 	andmi	r6, r0, #26476544	; 0x1940000
    2dbc:	73617079 	cmnvc	r1, #121	; 0x79
    2dc0:	6c615673 	stclvs	6, cr5, [r1], #-460	; 0xfffffe34
    2dc4:	4f5f6575 	svcmi	0x005f6575
    2dc8:	75707475 	ldrbvc	r7, [r0, #-1141]!	; 0xfffffb8b
    2dcc:	756f5374 	strbvc	r5, [pc, #-884]!	; 2a60 <_E_text+0x1574>
    2dd0:	5f656372 	svcpl	0x00656372
    2dd4:	534f0074 	movtpl	r0, #61556	; 0xf074
    2dd8:	6c61765f 	stclvs	6, cr7, [r1], #-380	; 0xfffffe84
    2ddc:	70006575 	andvc	r6, r0, r5, ror r5
    2de0:	6e6f4374 	mcrvs	3, 3, r4, cr15, cr4, {3}
    2de4:	00676966 	rsbeq	r6, r7, r6, ror #18
    2de8:	435f4353 	cmpmi	pc, #1275068417	; 0x4c000001
    2dec:	69666e6f 	stmdbvs	r6!, {r0, r1, r2, r3, r5, r6, r9, sl, fp, sp, lr}^
    2df0:	65727567 	ldrbvs	r7, [r2, #-1383]!	; 0xfffffa99
    2df4:	73797243 	cmnvc	r9, #805306372	; 0x30000004
    2df8:	566c6174 			; <UNDEFINED> instruction: 0x566c6174
    2dfc:	65756c61 	ldrbvs	r6, [r5, #-3169]!	; 0xfffff39f
    2e00:	5f00745f 	svcpl	0x0000745f
    2e04:	7a484d36 	bvc	12162e4 <_E_text+0x1214df8>
    2e08:	4253555f 	subsmi	r5, r3, #398458880	; 0x17c00000
    2e0c:	4d575000 	ldclmi	0, cr5, [r7, #-0]
    2e10:	71657246 	cmnvc	r5, r6, asr #4
    2e14:	4d575000 	ldclmi	0, cr5, [r7, #-0]
    2e18:	7669445f 			; <UNDEFINED> instruction: 0x7669445f
    2e1c:	43530038 	cmpmi	r3, #56	; 0x38
    2e20:	4344415f 	movtmi	r4, #16735	; 0x415f
    2e24:	6b6c435f 	blvs	1b13ba8 <_E_text+0x1b126bc>
    2e28:	69746e49 	ldmdbvs	r4!, {r0, r3, r6, r9, sl, fp, sp, lr}^
    2e2c:	7a696c61 	bvc	1a5dfb8 <_E_text+0x1a5cacc>
    2e30:	6f697461 	svcvs	0x00697461
    2e34:	6f4d006e 	svcvs	0x004d006e
    2e38:	656c7564 	strbvs	r7, [ip, #-1380]!	; 0xfffffa9c
    2e3c:	4d575030 	ldclmi	0, cr5, [r7, #-192]	; 0xffffff40
    2e40:	5f435300 	svcpl	0x00435300
    2e44:	666e6f43 	strbtvs	r6, [lr], -r3, asr #30
    2e48:	72756769 	rsbsvc	r6, r5, #27525120	; 0x1a40000
    2e4c:	73795365 	cmnvc	r9, #-1811939327	; 0x94000001
    2e50:	4d766944 			; <UNDEFINED> instruction: 0x4d766944
    2e54:	5f65646f 	svcpl	0x0065646f
    2e58:	6f430074 	svcvs	0x00430074
    2e5c:	6769666e 	strbvs	r6, [r9, -lr, ror #12]!
    2e60:	6d4d5750 	stclvs	7, cr5, [sp, #-320]	; 0xfffffec0
    2e64:	6c75646f 	cfldrdvs	mvd6, [r5], #-444	; 0xfffffe44
    2e68:	6d754e65 	ldclvs	14, cr4, [r5, #-404]!	; 0xfffffe6c
    2e6c:	776f4c00 	strbvc	r4, [pc, -r0, lsl #24]!
    2e70:	71657246 	cmnvc	r5, r6, asr #4
    2e74:	65746e49 	ldrbvs	r6, [r4, #-3657]!	; 0xfffff1b7
    2e78:	63734f72 	cmnvs	r3, #456	; 0x1c8
    2e7c:	616c6c69 	cmnvs	ip, r9, ror #24
    2e80:	00726f74 	rsbseq	r6, r2, r4, ror pc
    2e84:	666e6f43 	strbtvs	r6, [lr], -r3, asr #30
    2e88:	72756769 	rsbsvc	r6, r5, #27525120	; 0x1a40000
    2e8c:	4d575065 	ldclmi	0, cr5, [r7, #-404]	; 0xfffffe6c
    2e90:	4d766944 			; <UNDEFINED> instruction: 0x4d766944
    2e94:	0065646f 	rsbeq	r6, r5, pc, ror #8
    2e98:	65776f50 	ldrbvs	r6, [r7, #-3920]!	; 0xfffff0b0
    2e9c:	776f4472 			; <UNDEFINED> instruction: 0x776f4472
    2ea0:	4253556e 	subsmi	r5, r3, #461373440	; 0x1b800000
    2ea4:	004c4c50 	subeq	r4, ip, r0, asr ip
    2ea8:	44535953 	ldrbmi	r5, [r3], #-2387	; 0xfffff6ad
    2eac:	4c325649 	ldcmi	6, cr5, [r2], #-292	; 0xfffffedc
    2eb0:	53004253 	movwpl	r4, #595	; 0x253
    2eb4:	57505f43 	ldrbpl	r5, [r0, -r3, asr #30]
    2eb8:	6b6c434d 	blvs	1b13bf4 <_E_text+0x1b12708>
    2ebc:	69746e49 	ldmdbvs	r4!, {r0, r3, r6, r9, sl, fp, sp, lr}^
    2ec0:	7a696c61 	bvc	1a5e04c <_E_text+0x1a5cb60>
    2ec4:	6f697461 	svcvs	0x00697461
    2ec8:	614d006e 	cmpvs	sp, lr, rrx
    2ecc:	734f6e69 	movtvc	r6, #65129	; 0xfe69
    2ed0:	6c6c6963 			; <UNDEFINED> instruction: 0x6c6c6963
    2ed4:	726f7461 	rsbvc	r7, pc, #1627389952	; 0x61000000
    2ed8:	47435200 	strbmi	r5, [r3, -r0, lsl #4]
    2edc:	4d575043 	ldclmi	0, cr5, [r7, #-268]	; 0xfffffef4
    2ee0:	6765525f 			; <UNDEFINED> instruction: 0x6765525f
    2ee4:	4d575000 	ldclmi	0, cr5, [r7, #-0]
    2ee8:	7669445f 			; <UNDEFINED> instruction: 0x7669445f
    2eec:	4c500032 	mrrcmi	0, 3, r0, r0, cr2	; <UNPREDICTABLE>
    2ef0:	754f5f4c 	strbvc	r5, [pc, #-3916]	; 1fac <_E_text+0xac0>
    2ef4:	74757074 	ldrbtvc	r7, [r5], #-116	; 0xffffff8c
    2ef8:	43435200 	movtmi	r5, #12800	; 0x3200
    2efc:	6765525f 			; <UNDEFINED> instruction: 0x6765525f
    2f00:	4d575000 	ldclmi	0, cr5, [r7, #-0]
    2f04:	7669445f 			; <UNDEFINED> instruction: 0x7669445f
    2f08:	59530034 	ldmdbpl	r3, {r2, r4, r5}^
    2f0c:	49445f53 	stmdbmi	r4, {r0, r1, r4, r6, r8, r9, sl, fp, ip, lr}^
    2f10:	53003156 	movwpl	r3, #342	; 0x156
    2f14:	445f5359 	ldrbmi	r5, [pc], #-857	; 2f1c <_E_text+0x1a30>
    2f18:	00325649 	eorseq	r5, r2, r9, asr #12
    2f1c:	43534f4d 	cmpmi	r3, #308	; 0x134
    2f20:	65776f50 	ldrbvs	r6, [r7, #-3920]!	; 0xfffff0b0
    2f24:	52705572 	rsbspl	r5, r0, #478150656	; 0x1c800000
    2f28:	6e497761 	cdpvs	7, 4, cr7, cr9, cr1, {3}
    2f2c:	72726574 	rsbsvc	r6, r2, #116, 10	; 0x1d000000
    2f30:	53747075 	cmnpl	r4, #117	; 0x75
    2f34:	75746174 	ldrbvc	r6, [r4, #-372]!	; 0xfffffe8c
    2f38:	4c500073 	mrrcmi	0, 7, r0, r0, cr3	; <UNPREDICTABLE>
    2f3c:	776f504c 	strbvc	r5, [pc, -ip, asr #32]!
    2f40:	6f447265 	svcvs	0x00447265
    2f44:	53006e77 	movwpl	r6, #3703	; 0xe77
    2f48:	445f5359 	ldrbmi	r5, [pc], #-857	; 2f50 <_E_text+0x1a64>
    2f4c:	00355649 	eorseq	r5, r5, r9, asr #12
    2f50:	52657355 	rsbpl	r7, r5, #1409286145	; 0x54000001
    2f54:	00324343 	eorseq	r4, r2, r3, asr #6
    2f58:	5f535953 	svcpl	0x00535953
    2f5c:	37564944 	ldrbcc	r4, [r6, -r4, asr #18]
    2f60:	776f5000 	strbvc	r5, [pc, -r0]!
    2f64:	6f447265 	svcvs	0x00447265
    2f68:	4c506e77 	mrrcmi	14, 7, r6, r0, cr7
    2f6c:	5953004c 	ldmdbpl	r3, {r2, r3, r6}^
    2f70:	49445f53 	stmdbmi	r4, {r0, r1, r4, r6, r8, r9, sl, fp, ip, lr}^
    2f74:	53003956 	movwpl	r3, #2390	; 0x956
    2f78:	6f435f43 	svcvs	0x00435f43
    2f7c:	6769666e 	strbvs	r6, [r9, -lr, ror #12]!
    2f80:	50657275 	rsbpl	r7, r5, r5, ror r2
    2f84:	69444d57 	stmdbvs	r4, {r0, r1, r2, r4, r6, r8, sl, fp, lr}^
    2f88:	646f4d76 	strbtvs	r4, [pc], #-3446	; 2f90 <_E_text+0x1aa4>
    2f8c:	00745f65 	rsbseq	r5, r4, r5, ror #30
    2f90:	435f4353 	cmpmi	pc, #1275068417	; 0x4c000001
    2f94:	69666e6f 	stmdbvs	r6!, {r0, r1, r2, r3, r5, r6, r9, sl, fp, sp, lr}^
    2f98:	65727567 	ldrbvs	r7, [r2, #-1383]!	; 0xfffffa99
    2f9c:	44737953 	ldrbtmi	r7, [r3], #-2387	; 0xfffff6ad
    2fa0:	745f7669 	ldrbvc	r7, [pc], #-1641	; 2fa8 <_E_text+0x1abc>
    2fa4:	73795300 	cmnvc	r9, #0, 6
    2fa8:	436d6574 	cmnmi	sp, #116, 10	; 0x1d000000
    2fac:	6b636f6c 	blvs	18ded64 <_E_text+0x18dd878>
    2fb0:	69766944 	ldmdbvs	r6!, {r2, r6, r8, fp, sp, lr}^
    2fb4:	00726f73 	rsbseq	r6, r2, r3, ror pc
    2fb8:	495f4353 	ldmdbmi	pc, {r0, r1, r4, r6, r8, r9, lr}^	; <UNPREDICTABLE>
    2fbc:	6974696e 	ldmdbvs	r4!, {r1, r2, r3, r5, r6, r8, fp, sp, lr}^
    2fc0:	7a696c61 	bvc	1a5e14c <_E_text+0x1a5cc60>
    2fc4:	6f697461 	svcvs	0x00697461
    2fc8:	6f4d006e 	svcvs	0x004d006e
    2fcc:	656c7564 	strbvs	r7, [ip, #-1380]!	; 0xfffffa9c
    2fd0:	4d575031 	ldclmi	0, cr5, [r7, #-196]	; 0xffffff3c
    2fd4:	53595300 	cmppl	r9, #0, 6
    2fd8:	5649445f 			; <UNDEFINED> instruction: 0x5649445f
    2fdc:	53003031 	movwpl	r3, #49	; 0x31
    2fe0:	445f5359 	ldrbmi	r5, [pc], #-857	; 2fe8 <_E_text+0x1afc>
    2fe4:	31315649 	teqcc	r1, r9, asr #12
    2fe8:	53595300 	cmppl	r9, #0, 6
    2fec:	5649445f 			; <UNDEFINED> instruction: 0x5649445f
    2ff0:	53003231 	movwpl	r3, #561	; 0x231
    2ff4:	445f5359 	ldrbmi	r5, [pc], #-857	; 2ffc <_E_text+0x1b10>
    2ff8:	33315649 	teqcc	r1, #76546048	; 0x4900000
    2ffc:	53595300 	cmppl	r9, #0, 6
    3000:	5649445f 			; <UNDEFINED> instruction: 0x5649445f
    3004:	53003431 	movwpl	r3, #1073	; 0x431
    3008:	445f5359 	ldrbmi	r5, [pc], #-857	; 3010 <_E_text+0x1b24>
    300c:	35315649 	ldrcc	r5, [r1, #-1609]!	; 0xfffff9b7
    3010:	53595300 	cmppl	r9, #0, 6
    3014:	5649445f 			; <UNDEFINED> instruction: 0x5649445f
    3018:	53003631 	movwpl	r3, #1585	; 0x631
    301c:	65747379 	ldrbvs	r7, [r4, #-889]!	; 0xfffffc87
    3020:	6f6c436d 	svcvs	0x006c436d
    3024:	69446b63 	stmdbvs	r4, {r0, r1, r5, r6, r8, r9, fp, sp, lr}^
    3028:	6f736976 	svcvs	0x00736976
    302c:	43003272 	movwmi	r3, #626	; 0x272
    3030:	69666e6f 	stmdbvs	r6!, {r0, r1, r2, r3, r5, r6, r9, sl, fp, sp, lr}^
    3034:	4d575067 	ldclmi	0, cr5, [r7, #-412]	; 0xfffffe64
    3038:	75646f6d 	strbvc	r6, [r4, #-3949]!	; 0xfffff093
    303c:	7355656c 	cmpvc	r5, #108, 10	; 0x1b000000
    3040:	53006465 	movwpl	r6, #1125	; 0x465
    3044:	57505f43 	ldrbpl	r5, [r0, -r3, asr #30]
    3048:	6e6f434d 	cdpvs	3, 6, cr4, cr15, cr13, {2}
    304c:	75676966 	strbvc	r6, [r7, #-2406]!	; 0xfffff69a
    3050:	69746172 	ldmdbvs	r4!, {r1, r4, r5, r6, r8, sp, lr}^
    3054:	745f6e6f 	ldrbvc	r6, [pc], #-3695	; 305c <_E_text+0x1b70>
    3058:	616e4500 	cmnvs	lr, r0, lsl #10
    305c:	50656c62 	rsbpl	r6, r5, r2, ror #24
    3060:	6c434d57 	mcrrvs	13, 5, r4, r3, cr7
    3064:	446b636f 	strbtmi	r6, [fp], #-879	; 0xfffffc91
    3068:	73697669 	cmnvc	r9, #110100480	; 0x6900000
    306c:	5300726f 	movwpl	r7, #623	; 0x26f
    3070:	65747379 	ldrbvs	r7, [r4, #-889]!	; 0xfffffc87
    3074:	6e6f436d 	cdpvs	3, 6, cr4, cr15, cr13, {3}
    3078:	6c6f7274 	sfmvs	f7, 2, [pc], #-464	; 2eb0 <_E_text+0x19c4>
    307c:	666e6f43 	strbtvs	r6, [lr], -r3, asr #30
    3080:	745f6769 	ldrbvc	r6, [pc], #-1897	; 3088 <_E_text+0x1b9c>
    3084:	4c4c5000 	marmi	acc0, r5, ip
    3088:	61707942 	cmnvs	r0, r2, asr #18
    308c:	00327373 	eorseq	r7, r2, r3, ror r3
    3090:	5f4d5750 	svcpl	0x004d5750
    3094:	31766944 	cmncc	r6, r4, asr #18
    3098:	49440036 	stmdbmi	r4, {r1, r2, r4, r5}^
    309c:	30303456 	eorscc	r3, r0, r6, asr r4
    30a0:	53595300 	cmppl	r9, #0, 6
    30a4:	5649445f 			; <UNDEFINED> instruction: 0x5649445f
    30a8:	59530033 	ldmdbpl	r3, {r0, r1, r4, r5}^
    30ac:	49445f53 	stmdbmi	r4, {r0, r1, r4, r6, r8, r9, sl, fp, ip, lr}^
    30b0:	53003456 	movwpl	r3, #1110	; 0x456
    30b4:	65475f43 	strbvs	r5, [r7, #-3907]	; 0xfffff0bd
    30b8:	4d575074 	ldclmi	0, cr5, [r7, #-464]	; 0xfffffe30
    30bc:	71657246 	cmnvc	r5, r6, asr #4
    30c0:	636e6575 	cmnvs	lr, #490733568	; 0x1d400000
    30c4:	43530079 	cmpmi	r3, #121	; 0x79
    30c8:	6e6f435f 	mcrvs	3, 3, r4, cr15, cr15, {2}
    30cc:	50676966 	rsbpl	r6, r7, r6, ror #18
    30d0:	6f6d4d57 	svcvs	0x006d4d57
    30d4:	656c7564 	strbvs	r7, [ip, #-1380]!	; 0xfffffa9c
    30d8:	5f6d754e 	svcpl	0x006d754e
    30dc:	59530074 	ldmdbpl	r3, {r2, r4, r5, r6}^
    30e0:	49445f53 	stmdbmi	r4, {r0, r1, r4, r6, r8, r9, sl, fp, ip, lr}^
    30e4:	4f003856 	svcmi	0x00003856
    30e8:	75707475 	ldrbvc	r7, [r0, #-1141]!	; 0xfffffb8b
    30ec:	756f5374 	strbvc	r5, [pc, #-884]!	; 2d80 <_E_text+0x1894>
    30f0:	00656372 	rsbeq	r6, r5, r2, ror r3
    30f4:	424c4c50 	submi	r4, ip, #80, 24	; 0x5000
    30f8:	73617079 	cmnvc	r1, #121	; 0x79
    30fc:	534f0073 	movtpl	r0, #61555	; 0xf073
    3100:	754f5f43 	strbvc	r5, [pc, #-3907]	; 21c5 <_E_text+0xcd9>
    3104:	74757074 	ldrbtvc	r7, [r5], #-116	; 0xffffff8c
    3108:	65725000 	ldrbvs	r5, [r2, #-0]!
    310c:	69736963 	ldmdbvs	r3!, {r0, r1, r5, r6, r8, fp, sp, lr}^
    3110:	6e496e6f 	cdpvs	14, 4, cr6, cr9, cr15, {3}
    3114:	4f726574 	svcmi	0x00726574
    3118:	6c696373 	stclvs	3, cr6, [r9], #-460	; 0xfffffe34
    311c:	6f74616c 	svcvs	0x0074616c
    3120:	56494472 			; <UNDEFINED> instruction: 0x56494472
    3124:	4f420034 	svcmi	0x00420034
    3128:	49523052 	ldmdbmi	r2, {r1, r4, r6, ip, sp}^
    312c:	385f0053 	ldmdacc	pc, {r0, r1, r4, r6}^	; <UNPREDICTABLE>
    3130:	5f7a484d 	svcpl	0x007a484d
    3134:	00425355 	subeq	r5, r2, r5, asr r3
    3138:	74737953 	ldrbtvc	r7, [r3], #-2387	; 0xfffff6ad
    313c:	6f436d65 	svcvs	0x00436d65
    3140:	6f72746e 	svcvs	0x0072746e
    3144:	00632e6c 	rsbeq	r2, r3, ip, ror #28
    3148:	6963734f 	stmdbvs	r3!, {r0, r1, r2, r3, r6, r8, r9, ip, sp, lr}^
    314c:	74616c6c 	strbtvc	r6, [r1], #-3180	; 0xfffff394
    3150:	6f53726f 	svcvs	0x0053726f
    3154:	65637275 	strbvs	r7, [r3, #-629]!	; 0xfffffd8b
    3158:	614d0032 	cmpvs	sp, r2, lsr r0
    315c:	734f6e69 	movtvc	r6, #65129	; 0xfe69
    3160:	6c6c6963 			; <UNDEFINED> instruction: 0x6c6c6963
    3164:	726f7461 	rsbvc	r7, pc, #1627389952	; 0x61000000
    3168:	61736944 	cmnvs	r3, r4, asr #18
    316c:	00656c62 	rsbeq	r6, r5, r2, ror #24
    3170:	435f4353 	cmpmi	pc, #1275068417	; 0x4c000001
    3174:	69666e6f 	stmdbvs	r6!, {r0, r1, r2, r3, r5, r6, r9, sl, fp, sp, lr}^
    3178:	65727567 	ldrbvs	r7, [r2, #-1383]!	; 0xfffffa99
    317c:	444d5750 	strbmi	r5, [sp], #-1872	; 0xfffff8b0
    3180:	745f7669 	ldrbvc	r7, [pc], #-1641	; 3188 <_E_text+0x1c9c>
    3184:	30315f00 	eorscc	r5, r1, r0, lsl #30
    3188:	5f7a484d 	svcpl	0x007a484d
    318c:	00425355 	subeq	r5, r2, r5, asr r3
    3190:	5f535953 	svcpl	0x00535953
    3194:	36564944 	ldrbcc	r4, [r6], -r4, asr #18
    3198:	73694400 	cmnvc	r9, #0, 8
    319c:	656c6261 	strbvs	r6, [ip, #-609]!	; 0xfffffd9f
    31a0:	44737953 	ldrbtmi	r7, [r3], #-2387	; 0xfffff6ad
    31a4:	56007669 	strpl	r7, [r0], -r9, ror #12
    31a8:	52414444 	subpl	r4, r1, #68, 8	; 0x44000000
    31ac:	4d005349 	stcmi	3, cr5, [r0, #-292]	; 0xfffffedc
    31b0:	4952464f 	ldmdbmi	r2, {r0, r1, r2, r3, r6, r9, sl, lr}^
    31b4:	6f430053 	svcvs	0x00430053
    31b8:	6769666e 	strbvs	r6, [r9, -lr, ror #12]!
    31bc:	50657275 	rsbpl	r7, r5, r5, ror r2
    31c0:	69444d57 	stmdbvs	r4, {r0, r1, r2, r4, r6, r8, sl, fp, lr}^
    31c4:	6f430076 	svcvs	0x00430076
    31c8:	6769666e 	strbvs	r6, [r9, -lr, ror #12]!
    31cc:	53657275 	cmnpl	r5, #1342177287	; 0x50000007
    31d0:	69447379 	stmdbvs	r4, {r0, r3, r4, r5, r6, r8, r9, ip, sp, lr}^
    31d4:	646f4d76 	strbtvs	r4, [pc], #-3446	; 31dc <_E_text+0x1cf0>
    31d8:	69440065 	stmdbvs	r4, {r0, r2, r5, r6}^
    31dc:	6c626173 	stfvse	f6, [r2], #-460	; 0xfffffe34
    31e0:	4d575065 	ldclmi	0, cr5, [r7, #-404]	; 0xfffffe6c
    31e4:	446b6c43 	strbtmi	r6, [fp], #-3139	; 0xfffff3bd
    31e8:	53007669 	movwpl	r7, #1641	; 0x669
    31ec:	65747379 	ldrbvs	r7, [r4, #-889]!	; 0xfffffc87
    31f0:	6e6f436d 	cdpvs	3, 6, cr4, cr15, cr13, {3}
    31f4:	6c6f7274 	sfmvs	f7, 2, [pc], #-464	; 302c <_E_text+0x1b40>
    31f8:	6e6f435f 	mcrvs	3, 3, r4, cr15, cr15, {2}
    31fc:	2e676966 	vnmulcs.f16	s13, s14, s13	; <UNPREDICTABLE>
    3200:	6f430063 	svcvs	0x00430063
    3204:	6769666e 	strbvs	r6, [r9, -lr, ror #12]!
    3208:	74737953 	ldrbtvc	r7, [r3], #-2387	; 0xfffff6ad
    320c:	72536d65 	subsvc	r6, r3, #6464	; 0x1940
    3210:	72505f63 	subsvc	r5, r0, #396	; 0x18c
    3214:	73696365 	cmnvc	r9, #-1811939327	; 0x94000001
    3218:	496e6f69 	stmdbmi	lr!, {r0, r3, r5, r6, r8, r9, sl, fp, sp, lr}^
    321c:	7265746e 	rsbvc	r7, r5, #1845493760	; 0x6e000000
    3220:	4f6c616e 	svcmi	0x006c616e
    3224:	445f4353 	ldrbmi	r4, [pc], #-851	; 322c <_E_text+0x1d40>
    3228:	00345649 	eorseq	r5, r4, r9, asr #12
    322c:	666e6f43 	strbtvs	r6, [lr], -r3, asr #30
    3230:	79536769 	ldmdbvc	r3, {r0, r3, r5, r6, r8, r9, sl, sp, lr}^
    3234:	6d657473 	cfstrdvs	mvd7, [r5, #-460]!	; 0xfffffe34
    3238:	5f637253 	svcpl	0x00637253
    323c:	63657250 	cmnvs	r5, #80, 4
    3240:	6f697369 	svcvs	0x00697369
    3244:	746e496e 	strbtvc	r4, [lr], #-2414	; 0xfffff692
    3248:	616e7265 	cmnvs	lr, r5, ror #4
    324c:	43534f6c 	cmpmi	r3, #108, 30	; 0x1b0
    3250:	4d575000 	ldclmi	0, cr5, [r7, #-0]
    3254:	646f4d5f 	strbtvs	r4, [pc], #-3423	; 325c <_E_text+0x1d70>
    3258:	30656c75 	rsbcc	r6, r5, r5, ror ip
    325c:	6e6f4300 	cdpvs	3, 6, cr4, cr15, cr0, {0}
    3260:	53676966 	cmnpl	r7, #1671168	; 0x198000
    3264:	65747379 	ldrbvs	r7, [r4, #-889]!	; 0xfffffc87
    3268:	6372536d 	cmnvs	r2, #-1275068415	; 0xb4000001
    326c:	4c4c505f 	mcrrmi	0, 5, r5, ip, cr15
    3270:	52545300 	subspl	r5, r4, #0, 6
    3274:	414f4c45 	cmpmi	pc, r5, asr #24
    3278:	65525f44 	ldrbvs	r5, [r2, #-3908]	; 0xfffff0bc
    327c:	4f430067 	svcmi	0x00430067
    3280:	00544e55 	subseq	r4, r4, r5, asr lr
    3284:	74737953 	ldrbtvc	r7, [r3], #-2387	; 0xfffff6ad
    3288:	436b6369 	cmnmi	fp, #-1543503871	; 0xa4000001
    328c:	6f536b6c 	svcvs	0x00536b6c
    3290:	65637275 	strbvs	r7, [r3, #-629]!	; 0xfffffd8b
    3294:	6572465f 	ldrbvs	r4, [r2, #-1631]!	; 0xfffff9a1
    3298:	6c615671 	stclvs	6, cr5, [r1], #-452	; 0xfffffe3c
    329c:	61655200 	cmnvs	r5, r0, lsl #4
    32a0:	616c4664 	cmnvs	ip, r4, ror #12
    32a4:	4e490067 	cdpmi	0, 4, cr0, cr9, cr7, {3}
    32a8:	004e4554 	subeq	r4, lr, r4, asr r5
    32ac:	74737953 	ldrbtvc	r7, [r3], #-2387	; 0xfffff6ad
    32b0:	486b6369 	stmdami	fp!, {r0, r3, r5, r6, r8, r9, sp, lr}^
    32b4:	6c646e61 	stclvs	14, cr6, [r4], #-388	; 0xfffffe7c
    32b8:	53007265 	movwpl	r7, #613	; 0x265
    32bc:	69547379 	ldmdbvs	r4, {r0, r3, r4, r5, r6, r8, r9, ip, sp, lr}^
    32c0:	65476b63 	strbvs	r6, [r7, #-2915]	; 0xfffff49d
    32c4:	6172656e 	cmnvs	r2, lr, ror #10
    32c8:	65446574 	strbvs	r6, [r4, #-1396]	; 0xfffffa8c
    32cc:	5f79616c 	svcpl	0x0079616c
    32d0:	6c6c6f50 	stclvs	15, cr6, [ip], #-320	; 0xfffffec0
    32d4:	00676e69 	rsbeq	r6, r7, r9, ror #28
    32d8:	74737953 	ldrbtvc	r7, [r3], #-2387	; 0xfffff6ad
    32dc:	5f6b6369 	svcpl	0x006b6369
    32e0:	6c6c6143 	stfvse	f6, [ip], #-268	; 0xfffffef4
    32e4:	6b636162 	blvs	18db874 <_E_text+0x18da388>
    32e8:	4c455200 	sfmmi	f5, 2, [r5], {-0}
    32ec:	0044414f 	subeq	r4, r4, pc, asr #2
    32f0:	5f4b4c43 	svcpl	0x004b4c43
    32f4:	00435253 	subeq	r5, r3, r3, asr r2
    32f8:	54737953 	ldrbtpl	r7, [r3], #-2387	; 0xfffff6ad
    32fc:	466b6369 	strbtmi	r6, [fp], -r9, ror #6
    3300:	75716572 	ldrbvc	r6, [r1, #-1394]!	; 0xfffffa8e
    3304:	79636e65 	stmdbvc	r3!, {r0, r2, r5, r6, r9, sl, fp, sp, lr}^
    3308:	00746547 	rsbseq	r6, r4, r7, asr #10
    330c:	54737953 	ldrbtpl	r7, [r3], #-2387	; 0xfffff6ad
    3310:	456b6369 	strbmi	r6, [fp, #-873]!	; 0xfffffc97
    3314:	6c62616e 	stfvse	f6, [r2], #-440	; 0xfffffe48
    3318:	4e450065 	cdpmi	0, 4, cr0, cr5, cr5, {3}
    331c:	454c4241 	strbmi	r4, [ip, #-577]	; 0xfffffdbf
    3320:	73795300 	cmnvc	r9, #0, 6
    3324:	6b636974 	blvs	18dd8fc <_E_text+0x18dc410>
    3328:	656d6954 	strbvs	r6, [sp, #-2388]!	; 0xfffff6ac
    332c:	00632e72 	rsbeq	r2, r3, r2, ror lr
    3330:	54737953 	ldrbtpl	r7, [r3], #-2387	; 0xfffff6ad
    3334:	436b6369 	cmnmi	fp, #-1543503871	; 0xa4000001
    3338:	69666e6f 	stmdbvs	r6!, {r0, r1, r2, r3, r5, r6, r9, sl, fp, sp, lr}^
    333c:	65727567 	ldrbvs	r7, [r2, #-1383]!	; 0xfffffa99
    3340:	636f6c43 	cmnvs	pc, #17152	; 0x4300
    3344:	756f536b 	strbvc	r5, [pc, #-875]!	; 2fe1 <_E_text+0x1af5>
    3348:	00656372 	rsbeq	r6, r5, r2, ror r3
    334c:	54737953 	ldrbtpl	r7, [r3], #-2387	; 0xfffff6ad
    3350:	446b6369 	strbtmi	r6, [fp], #-873	; 0xfffffc97
    3354:	62617369 	rsbvs	r7, r1, #-1543503871	; 0xa4000001
    3358:	5300656c 	movwpl	r6, #1388	; 0x56c
    335c:	69747379 	ldmdbvs	r4!, {r0, r3, r4, r5, r6, r8, r9, ip, sp, lr}^
    3360:	435f6b63 	cmpmi	pc, #101376	; 0x18c00
    3364:	7261656c 	rsbvc	r6, r1, #108, 10	; 0x1b000000
    3368:	67616c46 	strbvs	r6, [r1, -r6, asr #24]!
    336c:	73795300 	cmnvc	r9, #0, 6
    3370:	6b636974 	blvs	18dd948 <_E_text+0x18dc45c>
    3374:	6765525f 			; <UNDEFINED> instruction: 0x6765525f
    3378:	65747369 	ldrbvs	r7, [r4, #-873]!	; 0xfffffc97
    337c:	6c614372 	stclvs	3, cr4, [r1], #-456	; 0xfffffe38
    3380:	6361626c 	cmnvs	r1, #108, 4	; 0xc0000006
    3384:	6e75466b 	cdpvs	6, 7, cr4, cr5, cr11, {3}
    3388:	6f697463 	svcvs	0x00697463
    338c:	5453006e 	ldrbpl	r0, [r3], #-110	; 0xffffff92
    3390:	4c525443 	cfldrdmi	mvd5, [r2], {67}	; 0x43
    3394:	6765525f 			; <UNDEFINED> instruction: 0x6765525f
    3398:	73795300 	cmnvc	r9, #0, 6
    339c:	6b636974 	blvs	18dd974 <_E_text+0x18dc488>
    33a0:	6b6c435f 	blvs	1b14124 <_E_text+0x1b12c38>
    33a4:	72756f53 	rsbsvc	r6, r5, #332	; 0x14c
    33a8:	53006563 	movwpl	r6, #1379	; 0x563
    33ac:	69547379 	ldmdbvs	r4, {r0, r3, r4, r5, r6, r8, r9, ip, sp, lr}^
    33b0:	65476b63 	strbvs	r6, [r7, #-2915]	; 0xfffff49d
    33b4:	6172656e 	cmnvs	r2, lr, ror #10
    33b8:	65446574 	strbvs	r6, [r4, #-1396]	; 0xfffffa8c
    33bc:	5f79616c 	svcpl	0x0079616c
    33c0:	65746e49 	ldrbvs	r6, [r4, #-3657]!	; 0xfffff1b7
    33c4:	70757272 	rsbsvc	r7, r5, r2, ror r2
    33c8:	61500074 	cmpvs	r0, r4, ror r0
    33cc:	79746972 	ldmdbvc	r4!, {r1, r4, r5, r6, r8, fp, sp, lr}^
    33d0:	6f727245 	svcvs	0x00727245
    33d4:	746e4972 	strbtvc	r4, [lr], #-2418	; 0xfffff68e
    33d8:	75727265 	ldrbvc	r7, [r2, #-613]!	; 0xfffffd9b
    33dc:	6c437470 	cfstrdvs	mvd7, [r3], {112}	; 0x70
    33e0:	00726165 	rsbseq	r6, r2, r5, ror #2
    33e4:	536f7754 	cmnpl	pc, #84, 14	; 0x1500000
    33e8:	42706f74 	rsbsmi	r6, r0, #116, 30	; 0x1d0
    33ec:	53737469 	cmnpl	r3, #1761607680	; 0x69000000
    33f0:	63656c65 	cmnvs	r5, #25856	; 0x6500
    33f4:	41550074 	cmpmi	r5, r4, ror r0
    33f8:	5f375452 	svcpl	0x00375452
    33fc:	48746e49 	ldmdami	r4!, {r0, r3, r6, r9, sl, fp, sp, lr}^
    3400:	6c646e61 	stclvs	14, cr6, [r4], #-388	; 0xfffffe7c
    3404:	52007265 	andpl	r7, r0, #1342177286	; 0x50000006
    3408:	55434743 	strbpl	r4, [r3, #-1859]	; 0xfffff8bd
    340c:	5f545241 	svcpl	0x00545241
    3410:	00676552 	rsbeq	r6, r7, r2, asr r5
    3414:	445f315f 	ldrbmi	r3, [pc], #-351	; 341c <_E_text+0x1f30>
    3418:	385f5649 	ldmdacc	pc, {r0, r3, r6, r9, sl, ip, lr}^	; <UNPREDICTABLE>
    341c:	706d455f 	rsbvc	r4, sp, pc, asr r5
    3420:	55007974 	strpl	r7, [r0, #-2420]	; 0xfffff68c
    3424:	44545241 	ldrbmi	r5, [r4], #-577	; 0xfffffdbf
    3428:	65525f52 	ldrbvs	r5, [r2, #-3922]	; 0xfffff0ae
    342c:	41550067 	cmpmi	r5, r7, rrx
    3430:	445f5452 	ldrbmi	r5, [pc], #-1106	; 3438 <_E_text+0x1f4c>
    3434:	525f414d 	subspl	r4, pc, #1073741843	; 0x40000013
    3438:	616f6c65 	cmnvs	pc, r5, ror #24
    343c:	72505f64 	subsvc	r5, r0, #100, 30	; 0x190
    3440:	72616d69 	rsbvc	r6, r1, #6720	; 0x1a40
    3444:	6e6f4379 	mcrvs	3, 3, r4, cr15, cr9, {3}
    3448:	6c6f7274 	sfmvs	f7, 2, [pc], #-464	; 3280 <_E_text+0x1d94>
    344c:	75727453 	ldrbvc	r7, [r2, #-1107]!	; 0xfffffbad
    3450:	72757463 	rsbsvc	r7, r5, #1660944384	; 0x63000000
    3454:	72540065 	subsvc	r0, r4, #101	; 0x65
    3458:	6d736e61 	ldclvs	14, cr6, [r3, #-388]!	; 0xfffffe7c
    345c:	49467469 	stmdbmi	r6, {r0, r3, r5, r6, sl, ip, sp, lr}^
    3460:	6d454f46 	stclvs	15, cr4, [r5, #-280]	; 0xfffffee8
    3464:	00797470 	rsbseq	r7, r9, r0, ror r4
    3468:	4d535443 	cfldrdmi	mvd5, [r3, #-268]	; 0xfffffef4
    346c:	70004349 	andvc	r4, r0, r9, asr #6
    3470:	6f435f74 	svcvs	0x00435f74
    3474:	6769666e 	strbvs	r6, [r9, -lr, ror #12]!
    3478:	63655200 	cmnvs	r5, #0, 4
    347c:	65766965 	ldrbvs	r6, [r6, #-2405]!	; 0xfffff69b
    3480:	656d6954 	strbvs	r6, [sp, #-2388]!	; 0xfffff6ac
    3484:	4d74754f 	cfldr64mi	mvdx7, [r4, #-316]!	; 0xfffffec4
    3488:	656b7361 	strbvs	r7, [fp, #-865]!	; 0xfffffc9f
    348c:	746e4964 	strbtvc	r4, [lr], #-2404	; 0xfffff69c
    3490:	75727265 	ldrbvc	r7, [r2, #-613]!	; 0xfffffd9b
    3494:	74537470 	ldrbvc	r7, [r3], #-1136	; 0xfffffb90
    3498:	73757461 	cmnvc	r5, #1627389952	; 0x61000000
    349c:	53544300 	cmppl	r4, #0, 6
    34a0:	0053494d 	subseq	r4, r3, sp, asr #18
    34a4:	54524155 	ldrbpl	r4, [r2], #-341	; 0xfffffeab
    34a8:	61435f34 	cmpvs	r3, r4, lsr pc
    34ac:	61626c6c 	cmnvs	r2, ip, ror #24
    34b0:	55006b63 	strpl	r6, [r0, #-2915]	; 0xfffff49d
    34b4:	49545241 	ldmdbmi	r4, {r0, r6, r9, ip, lr}^
    34b8:	65525f4d 	ldrbvs	r5, [r2, #-3917]	; 0xfffff0b3
    34bc:	41550067 	cmpmi	r5, r7, rrx
    34c0:	6e455452 	mcrvs	4, 2, r5, cr5, cr2, {2}
    34c4:	656c6261 	strbvs	r6, [ip, #-609]!	; 0xfffffd9f
    34c8:	726f5700 	rsbvc	r5, pc, #0, 14
    34cc:	6e654c64 	cdpvs	12, 6, cr4, cr5, cr4, {3}
    34d0:	00687467 	rsbeq	r7, r8, r7, ror #8
    34d4:	74736564 	ldrbtvc	r6, [r3], #-1380	; 0xfffffa9c
    34d8:	72646441 	rsbvc	r6, r4, #1090519040	; 0x41000000
    34dc:	42737365 	rsbsmi	r7, r3, #-1811939327	; 0x94000001
    34e0:	65666675 	strbvs	r6, [r6, #-1653]!	; 0xfffff98b
    34e4:	6e450072 	mcrvs	0, 2, r0, cr5, cr2, {3}
    34e8:	656c6261 	strbvs	r6, [ip, #-609]!	; 0xfffffd9f
    34ec:	75716552 	ldrbvc	r6, [r1, #-1362]!	; 0xfffffaae
    34f0:	54747365 	ldrbtpl	r7, [r4], #-869	; 0xfffffc9b
    34f4:	6e65536f 	cdpvs	3, 6, cr5, cr5, cr15, {3}
    34f8:	74530064 	ldrbvc	r0, [r3], #-100	; 0xffffff9c
    34fc:	506b6369 	rsbpl	r6, fp, r9, ror #6
    3500:	74697261 	strbtvc	r7, [r9], #-609	; 0xfffffd9f
    3504:	6c655379 	stclvs	3, cr5, [r5], #-484	; 0xfffffe1c
    3508:	00746365 	rsbseq	r6, r4, r5, ror #6
    350c:	54524155 	ldrbpl	r4, [r2], #-341	; 0xfffffeab
    3510:	5500632e 	strpl	r6, [r0, #-814]	; 0xfffffcd2
    3514:	5f545241 	svcpl	0x00545241
    3518:	65636552 	strbvs	r6, [r3, #-1362]!	; 0xfffffaae
    351c:	5f657669 	svcpl	0x00657669
    3520:	00414d44 	subeq	r4, r1, r4, asr #26
    3524:	54524155 	ldrbpl	r4, [r2], #-341	; 0xfffffeab
    3528:	746e495f 	strbtvc	r4, [lr], #-2399	; 0xfffff6a1
    352c:	75727265 	ldrbvc	r7, [r2, #-613]!	; 0xfffffd9b
    3530:	614d7470 	hvcvs	55104	; 0xd740
    3534:	6f436b73 	svcvs	0x00436b73
    3538:	6769666e 	strbvs	r6, [r9, -lr, ror #12]!
    353c:	4200745f 	andmi	r7, r0, #1593835520	; 0x5f000000
    3540:	6b616572 	blvs	185cb10 <_E_text+0x185b624>
    3544:	6f727245 	svcvs	0x00727245
    3548:	73614d72 	cmnvc	r1, #7296	; 0x1c80
    354c:	4964656b 	stmdbmi	r4!, {r0, r1, r3, r5, r6, r8, sl, sp, lr}^
    3550:	7265746e 	rsbvc	r7, r5, #1845493760	; 0x6e000000
    3554:	74707572 	ldrbtvc	r7, [r0], #-1394	; 0xfffffa8e
    3558:	74617453 	strbtvc	r7, [r1], #-1107	; 0xfffffbad
    355c:	55007375 	strpl	r7, [r0, #-885]	; 0xfffffc8b
    3560:	33545241 	cmpcc	r4, #268435460	; 0x10000004
    3564:	6765525f 			; <UNDEFINED> instruction: 0x6765525f
    3568:	65747369 	ldrbvs	r7, [r4, #-873]!	; 0xfffffc97
    356c:	6c614372 	stclvs	3, cr4, [r1], #-456	; 0xfffffe38
    3570:	6361626c 	cmnvs	r1, #108, 4	; 0xc0000006
    3574:	6e75466b 	cdpvs	6, 7, cr4, cr5, cr11, {3}
    3578:	6f697463 	svcvs	0x00697463
    357c:	6150006e 	cmpvs	r0, lr, rrx
    3580:	79746972 	ldmdbvc	r4!, {r1, r4, r5, r6, r8, fp, sp, lr}^
    3584:	6f727245 	svcvs	0x00727245
    3588:	54430072 	strbpl	r0, [r3], #-114	; 0xffffff8e
    358c:	004d4953 	subeq	r4, sp, r3, asr r9
    3590:	52414d53 	subpl	r4, r1, #5312	; 0x14c0
    3594:	41550054 	cmpmi	r5, r4, asr r0
    3598:	5f335452 	svcpl	0x00335452
    359c:	6c6c6143 	stfvse	f6, [ip], #-268	; 0xfffffef4
    35a0:	6b636162 	blvs	18dbb30 <_E_text+0x18da644>
    35a4:	52415500 	subpl	r5, r1, #0, 10
    35a8:	435f3254 	cmpmi	pc, #84, 4	; 0x40000005
    35ac:	626c6c61 	rsbvs	r6, ip, #24832	; 0x6100
    35b0:	006b6361 	rsbeq	r6, fp, r1, ror #6
    35b4:	69726150 	ldmdbvs	r2!, {r4, r6, r8, sp, lr}^
    35b8:	72457974 	subvc	r7, r5, #116, 18	; 0x1d0000
    35bc:	4d726f72 	ldclmi	15, cr6, [r2, #-456]!	; 0xfffffe38
    35c0:	656b7361 	strbvs	r7, [fp, #-865]!	; 0xfffffc9f
    35c4:	746e4964 	strbtvc	r4, [lr], #-2404	; 0xfffff69c
    35c8:	75727265 	ldrbvc	r7, [r2, #-613]!	; 0xfffffd9b
    35cc:	74537470 	ldrbvc	r7, [r3], #-1136	; 0xfffffb90
    35d0:	73757461 	cmnvc	r5, #1627389952	; 0x61000000
    35d4:	414d4400 	cmpmi	sp, r0, lsl #8
    35d8:	72456e4f 	subvc	r6, r5, #1264	; 0x4f0
    35dc:	00726f72 	rsbseq	r6, r2, r2, ror pc
    35e0:	54524155 	ldrbpl	r4, [r2], #-341	; 0xfffffeab
    35e4:	61435f36 	cmpvs	r3, r6, lsr pc
    35e8:	61626c6c 	cmnvs	r2, ip, ror #24
    35ec:	52006b63 	andpl	r6, r0, #101376	; 0x18c00
    35f0:	69656365 	stmdbvs	r5!, {r0, r2, r5, r6, r8, r9, sp, lr}^
    35f4:	4d446576 	cfstr64mi	mvdx6, [r4, #-472]	; 0xfffffe28
    35f8:	616e4541 	cmnvs	lr, r1, asr #10
    35fc:	00656c62 	rsbeq	r6, r5, r2, ror #24
    3600:	54524155 	ldrbpl	r4, [r2], #-341	; 0xfffffeab
    3604:	65525f32 	ldrbvs	r5, [r2, #-3890]	; 0xfffff0ce
    3608:	74736967 	ldrbtvc	r6, [r3], #-2407	; 0xfffff699
    360c:	61437265 	cmpvs	r3, r5, ror #4
    3610:	61626c6c 	cmnvs	r2, ip, ror #24
    3614:	75466b63 	strbvc	r6, [r6, #-2915]	; 0xfffff49d
    3618:	6974636e 	ldmdbvs	r4!, {r1, r2, r3, r5, r6, r8, r9, sp, lr}^
    361c:	55006e6f 	strpl	r6, [r0, #-3695]	; 0xfffff191
    3620:	5f545241 	svcpl	0x00545241
    3624:	67616c46 	strbvs	r6, [r1, -r6, asr #24]!
    3628:	69676552 	stmdbvs	r7!, {r1, r4, r6, r8, sl, sp, lr}^
    362c:	72657473 	rsbvc	r7, r5, #1929379840	; 0x73000000
    3630:	72460073 	subvc	r0, r6, #115	; 0x73
    3634:	6e696d61 	cdpvs	13, 6, cr6, cr9, cr1, {3}
    3638:	72724567 	rsbsvc	r4, r2, #432013312	; 0x19c00000
    363c:	6e49726f 	cdpvs	2, 4, cr7, cr9, cr15, {3}
    3640:	72726574 	rsbsvc	r6, r2, #116, 10	; 0x1d000000
    3644:	4d747075 	ldclmi	0, cr7, [r4, #-468]!	; 0xfffffe2c
    3648:	006b7361 	rsbeq	r7, fp, r1, ror #6
    364c:	706f6f4c 	rsbvc	r6, pc, ip, asr #30
    3650:	6b636142 	blvs	18dbb60 <_E_text+0x18da674>
    3654:	62616e45 	rsbvs	r6, r1, #1104	; 0x450
    3658:	5400656c 	strpl	r6, [r0], #-1388	; 0xfffffa94
    365c:	4c464958 	mcrrmi	9, 5, r4, r6, cr8	; <UNPREDICTABLE>
    3660:	004c4553 	subeq	r4, ip, r3, asr r5
    3664:	54524155 	ldrbpl	r4, [r2], #-341	; 0xfffffeab
    3668:	73614d5f 	cmnvc	r1, #6080	; 0x17c0
    366c:	4964656b 	stmdbmi	r4!, {r0, r1, r3, r5, r6, r8, sl, sp, lr}^
    3670:	7265746e 	rsbvc	r7, r5, #1845493760	; 0x6e000000
    3674:	74707572 	ldrbtvc	r7, [r0], #-1394	; 0xfffffa8e
    3678:	74617453 	strbtvc	r7, [r1], #-1107	; 0xfffffbad
    367c:	65527375 	ldrbvs	r7, [r2, #-885]	; 0xfffffc8b
    3680:	74736967 	ldrbtvc	r6, [r3], #-2407	; 0xfffff699
    3684:	00737265 	rsbseq	r7, r3, r5, ror #4
    3688:	65746e49 	ldrbvs	r6, [r4, #-3657]!	; 0xfffff1b7
    368c:	42726567 	rsbsmi	r6, r2, #432013312	; 0x19c00000
    3690:	52647561 	rsbpl	r7, r4, #406847488	; 0x18400000
    3694:	44657461 	strbtmi	r7, [r5], #-1121	; 0xfffffb9f
    3698:	73697669 	cmnvc	r9, #110100480	; 0x6900000
    369c:	5200726f 	andpl	r7, r0, #-268435450	; 0xf0000006
    36a0:	69656365 	stmdbvs	r5!, {r0, r2, r5, r6, r8, r9, sp, lr}^
    36a4:	49466576 	stmdbmi	r6, {r1, r2, r4, r5, r6, r8, sl, sp, lr}^
    36a8:	75464f46 	strbvc	r4, [r6, #-3910]	; 0xfffff0ba
    36ac:	55006c6c 	strpl	r6, [r0, #-3180]	; 0xfffff394
    36b0:	5f545241 	svcpl	0x00545241
    36b4:	5f515249 	svcpl	0x00515249
    36b8:	55004546 	strpl	r4, [r0, #-1350]	; 0xfffffaba
    36bc:	35545241 	ldrbcc	r5, [r4, #-577]	; 0xfffffdbf
    36c0:	746e495f 	strbtvc	r4, [lr], #-2399	; 0xfffff6a1
    36c4:	646e6148 	strbtvs	r6, [lr], #-328	; 0xfffffeb8
    36c8:	0072656c 	rsbseq	r6, r2, ip, ror #10
    36cc:	68676948 	stmdavs	r7!, {r3, r6, r8, fp, sp, lr}^
    36d0:	65657053 	strbvs	r7, [r5, #-83]!	; 0xffffffad
    36d4:	616e4564 	cmnvs	lr, r4, ror #10
    36d8:	00656c62 	rsbeq	r6, r5, r2, ror #24
    36dc:	54524155 	ldrbpl	r4, [r2], #-341	; 0xfffffeab
    36e0:	6f6c435f 	svcvs	0x006c435f
    36e4:	6f436b63 	svcvs	0x00436b63
    36e8:	6769666e 	strbvs	r6, [r9, -lr, ror #12]!
    36ec:	74617275 	strbtvc	r7, [r1], #-629	; 0xfffffd8b
    36f0:	526e6f69 	rsbpl	r6, lr, #420	; 0x1a4
    36f4:	73696765 	cmnvc	r9, #26476544	; 0x1940000
    36f8:	73726574 	cmnvc	r2, #116, 10	; 0x1d000000
    36fc:	52415500 	subpl	r5, r1, #0, 10
    3700:	4c464954 	mcrrmi	9, 5, r4, r6, cr4	; <UNPREDICTABLE>
    3704:	65525f53 	ldrbvs	r5, [r2, #-3923]	; 0xfffff0ad
    3708:	65520067 	ldrbvs	r0, [r2, #-103]	; 0xffffff99
    370c:	76696563 	strbtvc	r6, [r9], -r3, ror #10
    3710:	6d695465 	cfstrdvs	mvd5, [r9, #-404]!	; 0xfffffe6c
    3714:	74754f65 	ldrbtvc	r4, [r5], #-3941	; 0xfffff09b
    3718:	65746e49 	ldrbvs	r6, [r4, #-3657]!	; 0xfffff1b7
    371c:	70757272 	rsbsvc	r7, r5, r2, ror r2
    3720:	656c4374 	strbvs	r4, [ip, #-884]!	; 0xfffffc8c
    3724:	5f007261 	svcpl	0x00007261
    3728:	74694239 	strbtvc	r4, [r9], #-569	; 0xfffffdc7
    372c:	65646f4d 	strbvs	r6, [r4, #-3917]!	; 0xfffff0b3
    3730:	6b73614d 	blvs	1cdbc6c <_E_text+0x1cda780>
    3734:	6e496465 	cdpvs	4, 4, cr6, cr9, cr5, {3}
    3738:	72726574 	rsbsvc	r6, r2, #116, 10	; 0x1d000000
    373c:	53747075 	cmnpl	r4, #117	; 0x75
    3740:	75746174 	ldrbvc	r6, [r4, #-372]!	; 0xfffffe8c
    3744:	41550073 	cmpmi	r5, r3, ror r0
    3748:	495f5452 	ldmdbmi	pc, {r1, r4, r6, sl, ip, lr}^	; <UNPREDICTABLE>
    374c:	7265746e 	rsbvc	r7, r5, #1845493760	; 0x6e000000
    3750:	74707572 	ldrbtvc	r7, [r0], #-1394	; 0xfffffa8e
    3754:	61656c43 	cmnvs	r5, r3, asr #24
    3758:	67655272 			; <UNDEFINED> instruction: 0x67655272
    375c:	65747369 	ldrbvs	r7, [r4, #-873]!	; 0xfffffc97
    3760:	46007372 			; <UNDEFINED> instruction: 0x46007372
    3764:	74636172 	strbtvc	r6, [r3], #-370	; 0xfffffe8e
    3768:	616e6f69 	cmnvs	lr, r9, ror #30
    376c:	7561426c 	strbvc	r4, [r1, #-620]!	; 0xfffffd94
    3770:	74615264 	strbtvc	r5, [r1], #-612	; 0xfffffd9c
    3774:	76694465 	strbtvc	r4, [r9], -r5, ror #8
    3778:	726f7369 	rsbvc	r7, pc, #-1543503871	; 0xa4000001
    377c:	52415500 	subpl	r5, r1, #0, 10
    3780:	72545f54 	subsvc	r5, r4, #84, 30	; 0x150
    3784:	6d736e61 	ldclvs	14, cr6, [r3, #-388]!	; 0xfffffe7c
    3788:	68437469 	stmdavs	r3, {r0, r3, r5, r6, sl, ip, sp, lr}^
    378c:	505f7261 	subspl	r7, pc, r1, ror #4
    3790:	696c6c6f 	stmdbvs	ip!, {r0, r1, r2, r3, r5, r6, sl, fp, sp, lr}^
    3794:	4f00676e 	svcmi	0x0000676e
    3798:	72726576 	rsbsvc	r6, r2, #494927872	; 0x1d800000
    379c:	72456e75 	subvc	r6, r5, #1872	; 0x750
    37a0:	4d726f72 	ldclmi	15, cr6, [r2, #-456]!	; 0xfffffe38
    37a4:	656b7361 	strbvs	r7, [fp, #-865]!	; 0xfffffc9f
    37a8:	746e4964 	strbtvc	r4, [lr], #-2404	; 0xfffff69c
    37ac:	75727265 	ldrbvc	r7, [r2, #-613]!	; 0xfffffd9b
    37b0:	74537470 	ldrbvc	r7, [r3], #-1136	; 0xfffffb90
    37b4:	73757461 	cmnvc	r5, #1627389952	; 0x61000000
    37b8:	52415500 	subpl	r5, r1, #0, 10
    37bc:	72545f54 	subsvc	r5, r4, #84, 30	; 0x150
    37c0:	6d736e61 	ldclvs	14, cr6, [r3, #-388]!	; 0xfffffe7c
    37c4:	68437469 	stmdavs	r3, {r0, r3, r5, r6, sl, ip, sp, lr}^
    37c8:	495f7261 	ldmdbmi	pc, {r0, r5, r6, r9, ip, sp, lr}^	; <UNPREDICTABLE>
    37cc:	7265746e 	rsbvc	r7, r5, #1845493760	; 0x6e000000
    37d0:	74707572 	ldrbtvc	r7, [r0], #-1394	; 0xfffffa8e
    37d4:	65764f00 	ldrbvs	r4, [r6, #-3840]!	; 0xfffff100
    37d8:	6e757272 	mrcvs	2, 3, r7, cr5, cr2, {3}
    37dc:	6f727245 	svcvs	0x00727245
    37e0:	746e4972 	strbtvc	r4, [lr], #-2418	; 0xfffff68e
    37e4:	75727265 	ldrbvc	r7, [r2, #-613]!	; 0xfffffd9b
    37e8:	614d7470 	hvcvs	55104	; 0xd740
    37ec:	55006b73 	strpl	r6, [r0, #-2931]	; 0xfffff48d
    37f0:	5f545241 	svcpl	0x00545241
    37f4:	746e6f43 	strbtvc	r6, [lr], #-3907	; 0xfffff0bd
    37f8:	526c6f72 	rsbpl	r6, ip, #456	; 0x1c8
    37fc:	73696765 	cmnvc	r9, #26476544	; 0x1940000
    3800:	73726574 	cmnvc	r2, #116, 10	; 0x1d000000
    3804:	6e694e00 	cdpvs	14, 6, cr4, cr9, cr0, {0}
    3808:	54494265 	strbpl	r4, [r9], #-613	; 0xfffffd9b
    380c:	46004349 	strmi	r4, [r0], -r9, asr #6
    3810:	696d6172 	stmdbvs	sp!, {r1, r4, r5, r6, r8, sp, lr}^
    3814:	7245676e 	subvc	r6, r5, #28835840	; 0x1b80000
    3818:	4d726f72 	ldclmi	15, cr6, [r2, #-456]!	; 0xfffffe38
    381c:	656b7361 	strbvs	r7, [fp, #-865]!	; 0xfffffc9f
    3820:	746e4964 	strbtvc	r4, [lr], #-2404	; 0xfffff69c
    3824:	75727265 	ldrbvc	r7, [r2, #-613]!	; 0xfffffd9b
    3828:	74537470 	ldrbvc	r7, [r3], #-1136	; 0xfffffb90
    382c:	73757461 	cmnvc	r5, #1627389952	; 0x61000000
    3830:	52415500 	subpl	r5, r1, #0, 10
    3834:	52434954 	subpl	r4, r3, #84, 18	; 0x150000
    3838:	6765525f 			; <UNDEFINED> instruction: 0x6765525f
    383c:	616c6600 	cmnvs	ip, r0, lsl #12
    3840:	315f0067 	cmpcc	pc, r7, rrx
    3844:	5649445f 			; <UNDEFINED> instruction: 0x5649445f
    3848:	455f325f 	ldrbmi	r3, [pc, #-607]	; 35f1 <_E_text+0x2105>
    384c:	7974706d 	ldmdbvc	r4!, {r0, r2, r3, r5, r6, ip, sp, lr}^
    3850:	52415500 	subpl	r5, r1, #0, 10
    3854:	525f3154 	subspl	r3, pc, #84, 2
    3858:	73696765 	cmnvc	r9, #26476544	; 0x1940000
    385c:	43726574 	cmnmi	r2, #116, 10	; 0x1d000000
    3860:	626c6c61 	rsbvs	r6, ip, #24832	; 0x6100
    3864:	466b6361 	strbtmi	r6, [fp], -r1, ror #6
    3868:	74636e75 	strbtvc	r6, [r3], #-3701	; 0xfffff18b
    386c:	006e6f69 	rsbeq	r6, lr, r9, ror #30
    3870:	54524155 	ldrbpl	r4, [r2], #-341	; 0xfffffeab
    3874:	746e495f 	strbtvc	r4, [lr], #-2399	; 0xfffff6a1
    3878:	75727265 	ldrbvc	r7, [r2, #-613]!	; 0xfffffd9b
    387c:	49467470 	stmdbmi	r6, {r4, r5, r6, sl, ip, sp, lr}^
    3880:	654c4f46 	strbvs	r4, [ip, #-3910]	; 0xfffff0ba
    3884:	536c6576 	cmnpl	ip, #494927872	; 0x1d800000
    3888:	63656c65 	cmnvs	r5, #25856	; 0x6500
    388c:	41550074 	cmpmi	r5, r4, ror r0
    3890:	43435452 	movtmi	r5, #13394	; 0x3452
    3894:	6765525f 			; <UNDEFINED> instruction: 0x6765525f
    3898:	74616400 	strbtvc	r6, [r1], #-1024	; 0xfffffc00
    389c:	41550061 	cmpmi	r5, r1, rrx
    38a0:	5f345452 	svcpl	0x00345452
    38a4:	69676552 	stmdbvs	r7!, {r1, r4, r6, r8, sl, sp, lr}^
    38a8:	72657473 	rsbvc	r7, r5, #1929379840	; 0x73000000
    38ac:	6c6c6143 	stfvse	f6, [ip], #-268	; 0xfffffef4
    38b0:	6b636162 	blvs	18dbe40 <_E_text+0x18da954>
    38b4:	636e7546 	cmnvs	lr, #293601280	; 0x11800000
    38b8:	6e6f6974 			; <UNDEFINED> instruction: 0x6e6f6974
    38bc:	63655200 	cmnvs	r5, #0, 4
    38c0:	65766965 	ldrbvs	r6, [r6, #-2405]!	; 0xfffff69b
    38c4:	65746e49 	ldrbvs	r6, [r4, #-3657]!	; 0xfffff1b7
    38c8:	70757272 	rsbsvc	r7, r5, r2, ror r2
    38cc:	656c4374 	strbvs	r4, [ip, #-884]!	; 0xfffffc8c
    38d0:	54007261 	strpl	r7, [r0], #-609	; 0xfffffd9f
    38d4:	736e6172 	cmnvc	lr, #-2147483620	; 0x8000001c
    38d8:	4674696d 	ldrbtmi	r6, [r4], -sp, ror #18
    38dc:	464f4649 	strbmi	r4, [pc], -r9, asr #12
    38e0:	006c6c75 	rsbeq	r6, ip, r5, ror ip
    38e4:	65636552 	strbvs	r6, [r3, #-1362]!	; 0xfffffaae
    38e8:	46657669 	strbtmi	r7, [r5], -r9, ror #12
    38ec:	454f4649 	strbmi	r4, [pc, #-1609]	; 32ab <_E_text+0x1dbf>
    38f0:	7974706d 	ldmdbvc	r4!, {r0, r2, r3, r5, r6, ip, sp, lr}^
    38f4:	52415500 	subpl	r5, r1, #0, 10
    38f8:	525f3054 	subspl	r3, pc, #84	; 0x54
    38fc:	73696765 	cmnvc	r9, #26476544	; 0x1940000
    3900:	43726574 	cmnmi	r2, #116, 10	; 0x1d000000
    3904:	626c6c61 	rsbvs	r6, ip, #24832	; 0x6100
    3908:	466b6361 	strbtmi	r6, [fp], -r1, ror #6
    390c:	74636e75 	strbtvc	r6, [r3], #-3701	; 0xfffff18b
    3910:	006e6f69 	rsbeq	r6, lr, r9, ror #30
    3914:	54524155 	ldrbpl	r4, [r2], #-341	; 0xfffffeab
    3918:	6172465f 	cmnvs	r2, pc, asr r6
    391c:	6f697463 	svcvs	0x00697463
    3920:	426c616e 	rsbmi	r6, ip, #-2147483621	; 0x8000001b
    3924:	52647561 	rsbpl	r7, r4, #406847488	; 0x18400000
    3928:	44657461 	strbtmi	r7, [r5], #-1121	; 0xfffffb9f
    392c:	73697669 	cmnvc	r9, #110100480	; 0x6900000
    3930:	6552726f 	ldrbvs	r7, [r2, #-623]	; 0xfffffd91
    3934:	74736967 	ldrbtvc	r6, [r3], #-2407	; 0xfffff699
    3938:	00737265 	rsbseq	r7, r3, r5, ror #4
    393c:	54524155 	ldrbpl	r4, [r2], #-341	; 0xfffffeab
    3940:	7461445f 	strbtvc	r4, [r1], #-1119	; 0xfffffba1
    3944:	67655261 	strbvs	r5, [r5, -r1, ror #4]!
    3948:	65747369 	ldrbvs	r7, [r4, #-873]!	; 0xfffffc97
    394c:	50007372 	andpl	r7, r0, r2, ror r3
    3950:	74697261 	strbtvc	r7, [r9], #-609	; 0xfffffd9f
    3954:	72724579 	rsbsvc	r4, r2, #507510784	; 0x1e400000
    3958:	6e49726f 	cdpvs	2, 4, cr7, cr9, cr15, {3}
    395c:	72726574 	rsbsvc	r6, r2, #116, 10	; 0x1d000000
    3960:	4d747075 	ldclmi	0, cr7, [r4, #-468]!	; 0xfffffe2c
    3964:	006b7361 	rsbeq	r7, fp, r1, ror #6
    3968:	54524155 	ldrbpl	r4, [r2], #-341	; 0xfffffeab
    396c:	6e495f30 	mcrvs	15, 2, r5, cr9, cr0, {1}
    3970:	6e614874 	mcrvs	8, 3, r4, cr1, cr4, {3}
    3974:	72656c64 	rsbvc	r6, r5, #100, 24	; 0x6400
    3978:	72615000 	rsbvc	r5, r1, #0
    397c:	45797469 	ldrbmi	r7, [r9, #-1129]!	; 0xfffffb97
    3980:	6c62616e 	stfvse	f6, [r2], #-440	; 0xfffffe48
    3984:	61420065 	cmpvs	r2, r5, rrx
    3988:	6c436475 	cfstrdvs	mvd6, [r3], {117}	; 0x75
    398c:	536b636f 	cmnpl	fp, #-1140850687	; 0xbc000001
    3990:	6372756f 	cmnvs	r2, #465567744	; 0x1bc00000
    3994:	41550065 	cmpmi	r5, r5, rrx
    3998:	6f4d5452 	svcvs	0x004d5452
    399c:	656c7564 	strbvs	r7, [ip, #-1380]!	; 0xfffffa9c
    39a0:	6e75525f 	mrcvs	2, 3, r5, cr5, cr15, {2}
    39a4:	65646f4d 	strbvs	r6, [r4, #-3917]!	; 0xfffff0b3
    39a8:	636f6c43 	cmnvs	pc, #17152	; 0x4300
    39ac:	7461476b 	strbtvc	r4, [r1], #-1899	; 0xfffff895
    39b0:	43676e69 	cmnmi	r7, #1680	; 0x690
    39b4:	72746e6f 	rsbsvc	r6, r4, #1776	; 0x6f0
    39b8:	42006c6f 	andmi	r6, r0, #28416	; 0x6f00
    39bc:	6b616572 	blvs	185cf8c <_E_text+0x185baa0>
    39c0:	6f727245 	svcvs	0x00727245
    39c4:	4d440072 	stclmi	0, cr0, [r4, #-456]	; 0xfffffe38
    39c8:	61684341 	cmnvs	r8, r1, asr #6
    39cc:	6c656e6e 	stclvs	14, cr6, [r5], #-440	; 0xfffffe48
    39d0:	006d754e 	rsbeq	r7, sp, lr, asr #10
    39d4:	54524155 	ldrbpl	r4, [r2], #-341	; 0xfffffeab
    39d8:	525f5246 	subspl	r5, pc, #1610612740	; 0x60000004
    39dc:	5f006765 	svcpl	0x00006765
    39e0:	49445f31 	stmdbmi	r4, {r0, r4, r5, r8, r9, sl, fp, ip, lr}^
    39e4:	5f345f56 	svcpl	0x00345f56
    39e8:	74706d45 	ldrbtvc	r6, [r0], #-3397	; 0xfffff2bb
    39ec:	72540079 	subsvc	r0, r4, #121	; 0x79
    39f0:	6d736e61 	ldclvs	14, cr6, [r3, #-388]!	; 0xfffffe7c
    39f4:	6e497469 	cdpvs	4, 4, cr7, cr9, cr9, {3}
    39f8:	72726574 	rsbsvc	r6, r2, #116, 10	; 0x1d000000
    39fc:	4d747075 	ldclmi	0, cr7, [r4, #-468]!	; 0xfffffe2c
    3a00:	006b7361 	rsbeq	r7, fp, r1, ror #6
    3a04:	6f646e45 	svcvs	0x00646e45
    3a08:	61725466 	cmnvs	r2, r6, ror #8
    3a0c:	696d736e 	stmdbvs	sp!, {r1, r2, r3, r5, r6, r8, r9, ip, sp, lr}^
    3a10:	6f697373 	svcvs	0x00697373
    3a14:	5852006e 	ldmdapl	r2, {r1, r2, r3, r5, r6}^
    3a18:	534c4649 	movtpl	r4, #50761	; 0xc649
    3a1c:	55004c45 	strpl	r4, [r0, #-3141]	; 0xfffff3bb
    3a20:	4d545241 	lfmmi	f5, 2, [r4, #-260]	; 0xfffffefc
    3a24:	525f5349 	subspl	r5, pc, #603979777	; 0x24000001
    3a28:	45006765 	strmi	r6, [r0, #-1893]	; 0xfffff89b
    3a2c:	6c62616e 	stfvse	f6, [r2], #-440	; 0xfffffe48
    3a30:	46494665 	strbmi	r4, [r9], -r5, ror #12
    3a34:	5500734f 	strpl	r7, [r0, #-847]	; 0xfffffcb1
    3a38:	36545241 	ldrbcc	r5, [r4], -r1, asr #4
    3a3c:	746e495f 	strbtvc	r4, [lr], #-2399	; 0xfffff6a1
    3a40:	646e6148 	strbtvs	r6, [lr], #-328	; 0xfffffeb8
    3a44:	0072656c 	rsbseq	r6, r2, ip, ror #10
    3a48:	61657242 	cmnvs	r5, r2, asr #4
    3a4c:	7272456b 	rsbsvc	r4, r2, #448790528	; 0x1ac00000
    3a50:	6e49726f 	cdpvs	2, 4, cr7, cr9, cr15, {3}
    3a54:	72726574 	rsbsvc	r6, r2, #116, 10	; 0x1d000000
    3a58:	4d747075 	ldclmi	0, cr7, [r4, #-468]!	; 0xfffffe2c
    3a5c:	006b7361 	rsbeq	r7, fp, r1, ror #6
    3a60:	54524155 	ldrbpl	r4, [r2], #-341	; 0xfffffeab
    3a64:	6172545f 	cmnvs	r2, pc, asr r4
    3a68:	696d736e 	stmdbvs	sp!, {r1, r2, r3, r5, r6, r8, r9, ip, sp, lr}^
    3a6c:	4d445f74 	stclmi	15, cr5, [r4, #-464]	; 0xfffffe30
    3a70:	72460041 	subvc	r0, r6, #65	; 0x41
    3a74:	6e696d61 	cdpvs	13, 6, cr6, cr9, cr1, {3}
    3a78:	72724567 	rsbsvc	r4, r2, #432013312	; 0x19c00000
    3a7c:	6e49726f 	cdpvs	2, 4, cr7, cr9, cr15, {3}
    3a80:	72726574 	rsbsvc	r6, r2, #116, 10	; 0x1d000000
    3a84:	43747075 	cmnmi	r4, #117	; 0x75
    3a88:	7261656c 	rsbvc	r6, r1, #108, 10	; 0x1b000000
    3a8c:	52415500 	subpl	r5, r1, #0, 10
    3a90:	495f3354 	ldmdbmi	pc, {r2, r4, r6, r8, r9, ip, sp}^	; <UNPREDICTABLE>
    3a94:	6148746e 	cmpvs	r8, lr, ror #8
    3a98:	656c646e 	strbvs	r6, [ip, #-1134]!	; 0xfffffb92
    3a9c:	41550072 	cmpmi	r5, r2, ror r0
    3aa0:	445f5452 	ldrbmi	r5, [pc], #-1106	; 3aa8 <_E_text+0x25bc>
    3aa4:	6f43414d 	svcvs	0x0043414d
    3aa8:	6f72746e 	svcvs	0x0072746e
    3aac:	6765526c 	strbvs	r5, [r5, -ip, ror #4]!
    3ab0:	65747369 	ldrbvs	r7, [r4, #-873]!	; 0xfffffc97
    3ab4:	53007372 	movwpl	r7, #882	; 0x372
    3ab8:	616e5249 	cmnvs	lr, r9, asr #4
    3abc:	00656c62 	rsbeq	r6, r5, r2, ror #24
    3ac0:	445f335f 	ldrbmi	r3, [pc], #-863	; 3ac8 <_E_text+0x25dc>
    3ac4:	345f5649 	ldrbcc	r5, [pc], #-1609	; 3acc <_E_text+0x25e0>
    3ac8:	706d455f 	rsbvc	r4, sp, pc, asr r5
    3acc:	55007974 	strpl	r7, [r0, #-2420]	; 0xfffff68c
    3ad0:	5f545241 	svcpl	0x00545241
    3ad4:	65746e49 	ldrbvs	r6, [r4, #-3657]!	; 0xfffff1b7
    3ad8:	70757272 	rsbsvc	r7, r5, r2, ror r2
    3adc:	73614d74 	cmnvc	r1, #116, 26	; 0x1d00
    3ae0:	6765526b 	strbvs	r5, [r5, -fp, ror #4]!
    3ae4:	65747369 	ldrbvs	r7, [r4, #-873]!	; 0xfffffc97
    3ae8:	42007372 	andmi	r7, r0, #-939524095	; 0xc8000001
    3aec:	6b616572 	blvs	185d0bc <_E_text+0x185bbd0>
    3af0:	6f727245 	svcvs	0x00727245
    3af4:	746e4972 	strbtvc	r4, [lr], #-2418	; 0xfffff68e
    3af8:	75727265 	ldrbvc	r7, [r2, #-613]!	; 0xfffffd9b
    3afc:	6c437470 	cfstrdvs	mvd7, [r3], {112}	; 0x70
    3b00:	00726165 	rsbseq	r6, r2, r5, ror #2
    3b04:	54524155 	ldrbpl	r4, [r2], #-341	; 0xfffffeab
    3b08:	6e694c5f 	mcrvs	12, 3, r4, cr9, cr15, {2}
    3b0c:	6e6f4365 	cdpvs	3, 6, cr4, cr15, cr5, {3}
    3b10:	6c6f7274 	sfmvs	f7, 2, [pc], #-464	; 3948 <_E_text+0x245c>
    3b14:	69676552 	stmdbvs	r7!, {r1, r4, r6, r8, sl, sp, lr}^
    3b18:	72657473 	rsbvc	r7, r5, #1929379840	; 0x73000000
    3b1c:	65520073 	ldrbvs	r0, [r2, #-115]	; 0xffffff8d
    3b20:	76696563 	strbtvc	r6, [r9], -r3, ror #10
    3b24:	746e4965 	strbtvc	r4, [lr], #-2405	; 0xfffff69b
    3b28:	75727265 	ldrbvc	r7, [r2, #-613]!	; 0xfffffd9b
    3b2c:	614d7470 	hvcvs	55104	; 0xd740
    3b30:	63006b73 	movwvs	r6, #2931	; 0xb73
    3b34:	6e6e6168 	powvsez	f6, f6, #0.0
    3b38:	52006c65 	andpl	r6, r0, #25856	; 0x6500
    3b3c:	69656365 	stmdbvs	r5!, {r0, r2, r5, r6, r8, r9, sp, lr}^
    3b40:	614d6576 	hvcvs	54870	; 0xd656
    3b44:	64656b73 	strbtvs	r6, [r5], #-2931	; 0xfffff48d
    3b48:	65746e49 	ldrbvs	r6, [r4, #-3657]!	; 0xfffff1b7
    3b4c:	70757272 	rsbsvc	r7, r5, r2, ror r2
    3b50:	61745374 	cmnvs	r4, r4, ror r3
    3b54:	00737574 	rsbseq	r7, r3, r4, ror r5
    3b58:	6e617254 	mcrvs	2, 3, r7, cr1, cr4, {2}
    3b5c:	74696d73 	strbtvc	r6, [r9], #-3443	; 0xfffff28d
    3b60:	65746e49 	ldrbvs	r6, [r4, #-3657]!	; 0xfffff1b7
    3b64:	70757272 	rsbsvc	r7, r5, r2, ror r2
    3b68:	656c4374 	strbvs	r4, [ip, #-884]!	; 0xfffffc8c
    3b6c:	55007261 	strpl	r7, [r0, #-609]	; 0xfffffd9f
    3b70:	5f545241 	svcpl	0x00545241
    3b74:	5f515249 	svcpl	0x00515249
    3b78:	0045524f 	subeq	r5, r5, pc, asr #4
    3b7c:	6e617254 	mcrvs	2, 3, r7, cr1, cr4, {2}
    3b80:	74696d73 	strbtvc	r6, [r9], #-3443	; 0xfffff28d
    3b84:	62616e45 	rsbvs	r6, r1, #1104	; 0x450
    3b88:	5500656c 	strpl	r6, [r0, #-1388]	; 0xfffffa94
    3b8c:	5f545241 	svcpl	0x00545241
    3b90:	5f515249 	svcpl	0x00515249
    3b94:	6e657645 	cdpvs	6, 6, cr7, cr5, cr5, {2}
    3b98:	41550074 	cmpmi	r5, r4, ror r0
    3b9c:	5f375452 	svcpl	0x00375452
    3ba0:	6c6c6143 	stfvse	f6, [ip], #-268	; 0xfffffef4
    3ba4:	6b636162 	blvs	18dc134 <_E_text+0x18dac48>
    3ba8:	52415500 	subpl	r5, r1, #0, 10
    3bac:	495f3254 	ldmdbmi	pc, {r2, r4, r6, r9, ip, sp}^	; <UNPREDICTABLE>
    3bb0:	6148746e 	cmpvs	r8, lr, ror #8
    3bb4:	656c646e 	strbvs	r6, [ip, #-1134]!	; 0xfffffb92
    3bb8:	65530072 	ldrbvs	r0, [r3, #-114]	; 0xffffff8e
    3bbc:	7242646e 	subvc	r6, r2, #1845493760	; 0x6e000000
    3bc0:	006b6165 	rsbeq	r6, fp, r5, ror #2
    3bc4:	54524155 	ldrbpl	r4, [r2], #-341	; 0xfffffeab
    3bc8:	414d445f 	cmpmi	sp, pc, asr r4
    3bcc:	6c65525f 	sfmvs	f5, 2, [r5], #-380	; 0xfffffe84
    3bd0:	5f64616f 	svcpl	0x0064616f
    3bd4:	65746c41 	ldrbvs	r6, [r4, #-3137]!	; 0xfffff3bf
    3bd8:	74616e72 	strbtvc	r6, [r1], #-3698	; 0xfffff18e
    3bdc:	6e6f4365 	cdpvs	3, 6, cr4, cr15, cr5, {3}
    3be0:	6c6f7274 	sfmvs	f7, 2, [pc], #-464	; 3a18 <_E_text+0x252c>
    3be4:	75727453 	ldrbvc	r7, [r2, #-1107]!	; 0xfffffbad
    3be8:	72757463 	rsbsvc	r7, r5, #1660944384	; 0x63000000
    3bec:	41550065 	cmpmi	r5, r5, rrx
    3bf0:	5f305452 	svcpl	0x00305452
    3bf4:	6c6c6143 	stfvse	f6, [ip], #-268	; 0xfffffef4
    3bf8:	6b636162 	blvs	18dc188 <_E_text+0x18dac9c>
    3bfc:	61724600 	cmnvs	r2, r0, lsl #12
    3c00:	676e696d 	strbvs	r6, [lr, -sp, ror #18]!
    3c04:	6f727245 	svcvs	0x00727245
    3c08:	41550072 	cmpmi	r5, r2, ror r0
    3c0c:	4d445452 	cfstrdmi	mvd5, [r4, #-328]	; 0xfffffeb8
    3c10:	4c544341 	mrrcmi	3, 4, r4, r4, cr1	; <UNPREDICTABLE>
    3c14:	73754200 	cmnvc	r5, #0, 4
    3c18:	764f0079 			; <UNDEFINED> instruction: 0x764f0079
    3c1c:	75727265 	ldrbvc	r7, [r2, #-613]!	; 0xfffffd9b
    3c20:	7272456e 	rsbsvc	r4, r2, #461373440	; 0x1b800000
    3c24:	4900726f 	stmdbmi	r0, {r0, r1, r2, r3, r5, r6, r9, ip, sp, lr}
    3c28:	7265746e 	rsbvc	r7, r5, #1845493760	; 0x6e000000
    3c2c:	74707572 	ldrbtvc	r7, [r0], #-1394	; 0xfffffa8e
    3c30:	6b73614d 	blvs	1cdc16c <_E_text+0x1cdac80>
    3c34:	666e6f43 	strbtvs	r6, [lr], -r3, asr #30
    3c38:	5f006769 	svcpl	0x00006769
    3c3c:	74694239 	strbtvc	r4, [r9], #-569	; 0xfffffdc7
    3c40:	65746e49 	ldrbvs	r6, [r4, #-3657]!	; 0xfffff1b7
    3c44:	70757272 	rsbsvc	r7, r5, r2, ror r2
    3c48:	73614d74 	cmnvc	r1, #116, 26	; 0x1d00
    3c4c:	4155006b 	cmpmi	r5, fp, rrx
    3c50:	42495452 	submi	r5, r9, #1375731712	; 0x52000000
    3c54:	525f4452 	subspl	r4, pc, #1375731712	; 0x52000000
    3c58:	53006765 	movwpl	r6, #1893	; 0x765
    3c5c:	504c5249 	subpl	r5, ip, r9, asr #4
    3c60:	756f5300 	strbvc	r5, [pc, #-768]!	; 3968 <_E_text+0x247c>
    3c64:	41656372 	smcmi	22066	; 0x5632
    3c68:	65726464 	ldrbvs	r6, [r2, #-1124]!	; 0xfffffb9c
    3c6c:	75427373 	strbvc	r7, [r2, #-883]	; 0xfffffc8d
    3c70:	72656666 	rsbvc	r6, r5, #106954752	; 0x6600000
    3c74:	52415500 	subpl	r5, r1, #0, 10
    3c78:	6f435f54 	svcvs	0x00435f54
    3c7c:	6769666e 	strbvs	r6, [r9, -lr, ror #12]!
    3c80:	49657275 	stmdbmi	r5!, {r0, r2, r4, r5, r6, r9, ip, sp, lr}^
    3c84:	7265746e 	rsbvc	r7, r5, #1845493760	; 0x6e000000
    3c88:	74707572 	ldrbtvc	r7, [r0], #-1394	; 0xfffffa8e
    3c8c:	72756f53 	rsbsvc	r6, r5, #332	; 0x14c
    3c90:	55006563 	strpl	r6, [r0, #-1379]	; 0xfffffa9d
    3c94:	5f545241 	svcpl	0x00545241
    3c98:	69636552 	stmdbvs	r3!, {r1, r4, r6, r8, sl, sp, lr}^
    3c9c:	43657665 	cmnmi	r5, #105906176	; 0x6500000
    3ca0:	5f726168 	svcpl	0x00726168
    3ca4:	6c6c6f50 	stclvs	15, cr6, [ip], #-320	; 0xfffffec0
    3ca8:	00676e69 	rsbeq	r6, r7, r9, ror #28
    3cac:	54524155 	ldrbpl	r4, [r2], #-341	; 0xfffffeab
    3cb0:	65525f37 	ldrbvs	r5, [r2, #-3895]	; 0xfffff0c9
    3cb4:	74736967 	ldrbtvc	r6, [r3], #-2407	; 0xfffff699
    3cb8:	61437265 	cmpvs	r3, r5, ror #4
    3cbc:	61626c6c 	cmnvs	r2, ip, ror #24
    3cc0:	75466b63 	strbvc	r6, [r6, #-2915]	; 0xfffff49d
    3cc4:	6974636e 	ldmdbvs	r4!, {r1, r2, r3, r5, r6, r8, r9, sp, lr}^
    3cc8:	5f006e6f 	svcpl	0x00006e6f
    3ccc:	49445f37 	stmdbmi	r4, {r0, r1, r2, r4, r5, r8, r9, sl, fp, ip, lr}^
    3cd0:	5f385f56 	svcpl	0x00385f56
    3cd4:	74706d45 	ldrbtvc	r6, [r0], #-3397	; 0xfffff2bb
    3cd8:	6e450079 	mcrvs	0, 2, r0, cr5, cr9, {3}
    3cdc:	656c6261 	strbvs	r6, [ip, #-609]!	; 0xfffffd9f
    3ce0:	61656c43 	cmnvs	r5, r3, asr #24
    3ce4:	536f5472 	cmnpl	pc, #1912602624	; 0x72000000
    3ce8:	00646e65 	rsbeq	r6, r4, r5, ror #28
    3cec:	6e617254 	mcrvs	2, 3, r7, cr1, cr4, {2}
    3cf0:	74696d73 	strbtvc	r6, [r9], #-3443	; 0xfffff28d
    3cf4:	6b73614d 	blvs	1cdc230 <_E_text+0x1cdad44>
    3cf8:	6e496465 	cdpvs	4, 4, cr6, cr9, cr5, {3}
    3cfc:	72726574 	rsbsvc	r6, r2, #116, 10	; 0x1d000000
    3d00:	53747075 	cmnpl	r4, #117	; 0x75
    3d04:	75746174 	ldrbvc	r6, [r4, #-372]!	; 0xfffffe8c
    3d08:	72540073 	subsvc	r0, r4, #115	; 0x73
    3d0c:	6d736e61 	ldclvs	14, cr6, [r3, #-388]!	; 0xfffffe7c
    3d10:	4d447469 	cfstrdmi	mvd7, [r4, #-420]	; 0xfffffe5c
    3d14:	616e4541 	cmnvs	lr, r1, asr #10
    3d18:	00656c62 	rsbeq	r6, r5, r2, ror #24
    3d1c:	54524155 	ldrbpl	r4, [r2], #-341	; 0xfffffeab
    3d20:	65525f36 	ldrbvs	r5, [r2, #-3894]	; 0xfffff0ca
    3d24:	74736967 	ldrbtvc	r6, [r3], #-2407	; 0xfffff699
    3d28:	61437265 	cmpvs	r3, r5, ror #4
    3d2c:	61626c6c 	cmnvs	r2, ip, ror #24
    3d30:	75466b63 	strbvc	r6, [r6, #-2915]	; 0xfffff49d
    3d34:	6974636e 	ldmdbvs	r4!, {r1, r2, r3, r5, r6, r8, r9, sp, lr}^
    3d38:	55006e6f 	strpl	r6, [r0, #-3695]	; 0xfffff191
    3d3c:	46545241 	ldrbmi	r5, [r4], -r1, asr #4
    3d40:	5f445242 	svcpl	0x00445242
    3d44:	00676552 	rsbeq	r6, r7, r2, asr r5
    3d48:	54524155 	ldrbpl	r4, [r2], #-341	; 0xfffffeab
    3d4c:	6e495f34 	mcrvs	15, 2, r5, cr9, cr4, {1}
    3d50:	6e614874 	mcrvs	8, 3, r4, cr1, cr4, {3}
    3d54:	72656c64 	rsbvc	r6, r5, #100, 24	; 0x6400
    3d58:	52415500 	subpl	r5, r1, #0, 10
    3d5c:	495f3154 	ldmdbmi	pc, {r2, r4, r6, r8, ip, sp}^	; <UNPREDICTABLE>
    3d60:	6148746e 	cmpvs	r8, lr, ror #8
    3d64:	656c646e 	strbvs	r6, [ip, #-1134]!	; 0xfffffb92
    3d68:	41550072 	cmpmi	r5, r2, ror r0
    3d6c:	495f5452 	ldmdbmi	pc, {r1, r4, r6, sl, ip, lr}^	; <UNPREDICTABLE>
    3d70:	525f5152 	subspl	r5, pc, #-2147483628	; 0x80000014
    3d74:	00454e58 	subeq	r4, r5, r8, asr lr
    3d78:	54524155 	ldrbpl	r4, [r2], #-341	; 0xfffffeab
    3d7c:	746e495f 	strbtvc	r4, [lr], #-2399	; 0xfffff6a1
    3d80:	72656765 	rsbvc	r6, r5, #26476544	; 0x1940000
    3d84:	64756142 	ldrbtvs	r6, [r5], #-322	; 0xfffffebe
    3d88:	65746152 	ldrbvs	r6, [r4, #-338]!	; 0xfffffeae
    3d8c:	69766944 	ldmdbvs	r6!, {r2, r6, r8, fp, sp, lr}^
    3d90:	52726f73 	rsbspl	r6, r2, #460	; 0x1cc
    3d94:	73696765 	cmnvc	r9, #26476544	; 0x1940000
    3d98:	73726574 	cmnvc	r2, #116, 10	; 0x1d000000
    3d9c:	52415500 	subpl	r5, r1, #0, 10
    3da0:	6e495f54 	mcrvs	15, 2, r5, cr9, cr4, {2}
    3da4:	61697469 	cmnvs	r9, r9, ror #8
    3da8:	617a696c 	cmnvs	sl, ip, ror #18
    3dac:	6e6f6974 			; <UNDEFINED> instruction: 0x6e6f6974
    3db0:	63655200 	cmnvs	r5, #0, 4
    3db4:	65766965 	ldrbvs	r6, [r6, #-2405]!	; 0xfffff69b
    3db8:	62616e45 	rsbvs	r6, r1, #1104	; 0x450
    3dbc:	5500656c 	strpl	r6, [r0, #-1388]	; 0xfffffa94
    3dc0:	5f545241 	svcpl	0x00545241
    3dc4:	43636552 	cmnmi	r3, #343932928	; 0x14800000
    3dc8:	77726168 	ldrbvc	r6, [r2, -r8, ror #2]!
    3dcc:	656d6954 	strbvs	r6, [sp, #-2388]!	; 0xfffff6ac
    3dd0:	0074754f 	rsbseq	r7, r4, pc, asr #10
    3dd4:	54524155 	ldrbpl	r4, [r2], #-341	; 0xfffffeab
    3dd8:	5152495f 	cmppl	r2, pc, asr r9
    3ddc:	0045505f 	subeq	r5, r5, pc, asr r0
    3de0:	61736944 	cmnvs	r3, r4, asr #18
    3de4:	49656c62 	stmdbmi	r5!, {r1, r5, r6, sl, fp, sp, lr}^
    3de8:	7265746e 	rsbvc	r7, r5, #1845493760	; 0x6e000000
    3dec:	74707572 	ldrbtvc	r7, [r0], #-1394	; 0xfffffa8e
    3df0:	6b73614d 	blvs	1cdc32c <_E_text+0x1cdae40>
    3df4:	52415500 	subpl	r5, r1, #0, 10
    3df8:	52434c54 	subpl	r4, r3, #84, 24	; 0x5400
    3dfc:	65525f48 	ldrbvs	r5, [r2, #-3912]	; 0xfffff0b8
    3e00:	65520067 	ldrbvs	r0, [r2, #-103]	; 0xffffff99
    3e04:	76696563 	strbtvc	r6, [r9], -r3, ror #10
    3e08:	6d695465 	cfstrdvs	mvd5, [r9, #-404]!	; 0xfffffe6c
    3e0c:	74754f65 	ldrbtvc	r4, [r5], #-3941	; 0xfffff09b
    3e10:	65746e49 	ldrbvs	r6, [r4, #-3657]!	; 0xfffff1b7
    3e14:	70757272 	rsbsvc	r7, r5, r2, ror r2
    3e18:	73614d74 	cmnvc	r1, #116, 26	; 0x1d00
    3e1c:	4155006b 	cmpmi	r5, fp, rrx
    3e20:	5f315452 	svcpl	0x00315452
    3e24:	6c6c6143 	stfvse	f6, [ip], #-268	; 0xfffffef4
    3e28:	6b636162 	blvs	18dc3b8 <_E_text+0x18daecc>
    3e2c:	52415500 	subpl	r5, r1, #0, 10
    3e30:	525f3554 	subspl	r3, pc, #84, 10	; 0x15000000
    3e34:	73696765 	cmnvc	r9, #26476544	; 0x1940000
    3e38:	43726574 	cmnmi	r2, #116, 10	; 0x1d000000
    3e3c:	626c6c61 	rsbvs	r6, ip, #24832	; 0x6100
    3e40:	466b6361 	strbtmi	r6, [fp], -r1, ror #6
    3e44:	74636e75 	strbtvc	r6, [r3], #-3701	; 0xfffff18b
    3e48:	006e6f69 	rsbeq	r6, lr, r9, ror #30
    3e4c:	54524155 	ldrbpl	r4, [r2], #-341	; 0xfffffeab
    3e50:	5f4c5443 	svcpl	0x004c5443
    3e54:	00676552 	rsbeq	r6, r7, r2, asr r5
    3e58:	54524155 	ldrbpl	r4, [r2], #-341	; 0xfffffeab
    3e5c:	61435f35 	cmpvs	r3, r5, lsr pc
    3e60:	61626c6c 	cmnvs	r2, ip, ror #24
    3e64:	4f006b63 	svcmi	0x00006b63
    3e68:	72726576 	rsbsvc	r6, r2, #494927872	; 0x1d800000
    3e6c:	72456e75 	subvc	r6, r5, #1872	; 0x750
    3e70:	49726f72 	ldmdbmi	r2!, {r1, r4, r5, r6, r8, r9, sl, fp, sp, lr}^
    3e74:	7265746e 	rsbvc	r7, r5, #1845493760	; 0x6e000000
    3e78:	43707572 	cmnmi	r0, #478150656	; 0x1c800000
    3e7c:	7261656c 	rsbvc	r6, r1, #108, 10	; 0x1b000000
    3e80:	616e4500 	cmnvs	lr, r0, lsl #10
    3e84:	49656c62 	stmdbmi	r5!, {r1, r5, r6, sl, fp, sp, lr}^
    3e88:	7265746e 	rsbvc	r7, r5, #1845493760	; 0x6e000000
    3e8c:	74707572 	ldrbtvc	r7, [r0], #-1394	; 0xfffffa8e
    3e90:	6b73614d 	blvs	1cdc3cc <_E_text+0x1cdaee0>
    3e94:	52415500 	subpl	r5, r1, #0, 10
    3e98:	6e495f54 	mcrvs	15, 2, r5, cr9, cr4, {2}
    3e9c:	72726574 	rsbsvc	r6, r2, #116, 10	; 0x1d000000
    3ea0:	4e747075 	mrcmi	0, 3, r7, cr4, cr5, {3}
    3ea4:	415f6d75 	cmpmi	pc, r5, ror sp	; <UNPREDICTABLE>
    3ea8:	45007272 	strmi	r7, [r0, #-626]	; 0xfffffd8e
    3eac:	506e6576 	rsbpl	r6, lr, r6, ror r5
    3eb0:	74697261 	strbtvc	r7, [r9], #-609	; 0xfffffd9f
    3eb4:	6c655379 	stclvs	3, cr5, [r5], #-484	; 0xfffffe1c
    3eb8:	00746365 	rsbseq	r6, r4, r5, ror #6
    3ebc:	54524155 	ldrbpl	r4, [r2], #-341	; 0xfffffeab
    3ec0:	6365525f 	cmnvs	r5, #-268435451	; 0xf0000005
    3ec4:	65766569 	ldrbvs	r6, [r6, #-1385]!	; 0xfffffa97
    3ec8:	72616843 	rsbvc	r6, r1, #4390912	; 0x430000
    3ecc:	746e495f 	strbtvc	r4, [lr], #-2399	; 0xfffff6a1
    3ed0:	75727265 	ldrbvc	r7, [r2, #-613]!	; 0xfffffd9b
    3ed4:	55007470 	strpl	r7, [r0, #-1136]	; 0xfffffb90
    3ed8:	5f545241 	svcpl	0x00545241
    3edc:	5f515249 	svcpl	0x00515249
    3ee0:	464e5854 			; <UNDEFINED> instruction: 0x464e5854
    3ee4:	52415500 	subpl	r5, r1, #0, 10
    3ee8:	6f635f54 	svcvs	0x00635f54
    3eec:	6769666e 	strbvs	r6, [r9, -lr, ror #12]!
    3ef0:	Address 0x00003ef0 is out of bounds.


Disassembly of section .comment:

00000000 <.comment>:
   0:	3a434347 	bcc	10d0d24 <_E_text+0x10cf838>
   4:	4e472820 	cdpmi	8, 4, cr2, cr7, cr0, {1}
   8:	72412055 	subvc	r2, r1, #85	; 0x55
   c:	6d45206d 	stclvs	0, cr2, [r5, #-436]	; 0xfffffe4c
  10:	64646562 	strbtvs	r6, [r4], #-1378	; 0xfffffa9e
  14:	54206465 	strtpl	r6, [r0], #-1125	; 0xfffffb9b
  18:	636c6f6f 	cmnvs	ip, #444	; 0x1bc
  1c:	6e696168 	powvsez	f6, f1, #0.0
  20:	2e303120 	rsfcssp	f3, f0, f0
  24:	30322d33 	eorscc	r2, r2, r3, lsr sp
  28:	312e3132 			; <UNDEFINED> instruction: 0x312e3132
  2c:	31202930 			; <UNDEFINED> instruction: 0x31202930
  30:	2e332e30 	mrccs	14, 1, r2, cr3, cr0, {1}
  34:	30322031 	eorscc	r2, r2, r1, lsr r0
  38:	38303132 	ldmdacc	r0!, {r1, r4, r5, r8, ip, sp}
  3c:	28203432 	stmdacs	r0!, {r1, r4, r5, sl, ip, sp}
  40:	656c6572 	strbvs	r6, [ip, #-1394]!	; 0xfffffa8e
  44:	29657361 	stmdbcs	r5!, {r0, r5, r6, r8, r9, ip, sp, lr}^
	...

Disassembly of section .ARM.attributes:

00000000 <.ARM.attributes>:
   0:	00002d41 	andeq	r2, r0, r1, asr #26
   4:	61656100 	cmnvs	r5, r0, lsl #2
   8:	01006962 	tsteq	r0, r2, ror #18
   c:	00000023 	andeq	r0, r0, r3, lsr #32
  10:	2d453705 	stclcs	7, cr3, [r5, #-20]	; 0xffffffec
  14:	0d06004d 	stceq	0, cr0, [r6, #-308]	; 0xfffffecc
  18:	02094d07 	andeq	r4, r9, #448	; 0x1c0
  1c:	01140412 	tsteq	r4, r2, lsl r4
  20:	03170115 	tsteq	r7, #1073741829	; 0x40000005
  24:	01190118 	tsteq	r9, r8, lsl r1
  28:	061e011a 			; <UNDEFINED> instruction: 0x061e011a
  2c:	Address 0x0000002c is out of bounds.


Disassembly of section .debug_frame:

00000000 <.debug_frame>:
       0:	0000000c 	andeq	r0, r0, ip
       4:	ffffffff 			; <UNDEFINED> instruction: 0xffffffff
       8:	7c020001 	stcvc	0, cr0, [r2], {1}
       c:	000d0c0e 	andeq	r0, sp, lr, lsl #24
      10:	0000001c 	andeq	r0, r0, ip, lsl r0
	...
      1c:	00000020 	andeq	r0, r0, r0, lsr #32
      20:	87040e41 	strhi	r0, [r4, -r1, asr #28]
      24:	070d4101 	streq	r4, [sp, -r1, lsl #2]
      28:	410d0d49 	tstmi	sp, r9, asr #26
      2c:	00000ec7 	andeq	r0, r0, r7, asr #29
      30:	00000018 	andeq	r0, r0, r8, lsl r0
	...
      3c:	00000024 	andeq	r0, r0, r4, lsr #32
      40:	87080e41 	strhi	r0, [r8, -r1, asr #28]
      44:	41018e02 	tstmi	r1, r2, lsl #28
      48:	0000070d 	andeq	r0, r0, sp, lsl #14
      4c:	0000001c 	andeq	r0, r0, ip, lsl r0
      50:	00000000 	andeq	r0, r0, r0
      54:	000008b4 			; <UNDEFINED> instruction: 0x000008b4
      58:	00000038 	andeq	r0, r0, r8, lsr r0
      5c:	87040e41 	strhi	r0, [r4, -r1, asr #28]
      60:	070d4101 	streq	r4, [sp, -r1, lsl #2]
      64:	410d0d50 	tstmi	sp, r0, asr sp
      68:	00000ec7 	andeq	r0, r0, r7, asr #29
      6c:	00000020 	andeq	r0, r0, r0, lsr #32
      70:	00000000 	andeq	r0, r0, r0
      74:	000008ec 	andeq	r0, r0, ip, ror #17
      78:	0000008c 	andeq	r0, r0, ip, lsl #1
      7c:	87080e41 	strhi	r0, [r8, -r1, asr #28]
      80:	41018e02 	tstmi	r1, r2, lsl #28
      84:	0d41100e 	stcleq	0, cr1, [r1, #-56]	; 0xffffffc8
      88:	080e7a07 	stmdaeq	lr, {r0, r1, r2, r9, fp, ip, sp, lr}
      8c:	000d0d41 	andeq	r0, sp, r1, asr #26
      90:	00000024 	andeq	r0, r0, r4, lsr #32
	...
      9c:	00000070 	andeq	r0, r0, r0, ror r0
      a0:	87040e41 	strhi	r0, [r4, -r1, asr #28]
      a4:	100e4101 	andne	r4, lr, r1, lsl #2
      a8:	6c070d41 	stcvs	13, cr0, [r7], {65}	; 0x41
      ac:	0d41040e 	cfstrdeq	mvd0, [r1, #-56]	; 0xffffffc8
      b0:	0ec7410d 	poleqs	f4, f7, #5.0
      b4:	00000000 	andeq	r0, r0, r0
      b8:	00000024 	andeq	r0, r0, r4, lsr #32
	...
      c4:	00000028 	andeq	r0, r0, r8, lsr #32
      c8:	87040e41 	strhi	r0, [r4, -r1, asr #28]
      cc:	100e4101 	andne	r4, lr, r1, lsl #2
      d0:	4b070d41 	blmi	1c35dc <_E_text+0x1c20f0>
      d4:	0d41040e 	cfstrdeq	mvd0, [r1, #-56]	; 0xffffffc8
      d8:	0ec7410d 	poleqs	f4, f7, #5.0
      dc:	00000000 	andeq	r0, r0, r0
      e0:	00000024 	andeq	r0, r0, r4, lsr #32
      e4:	00000000 	andeq	r0, r0, r0
      e8:	00000978 	andeq	r0, r0, r8, ror r9
      ec:	0000002c 	andeq	r0, r0, ip, lsr #32
      f0:	87040e41 	strhi	r0, [r4, -r1, asr #28]
      f4:	100e4101 	andne	r4, lr, r1, lsl #2
      f8:	4e070d41 	cdpmi	13, 0, cr0, cr7, cr1, {2}
      fc:	0d41040e 	cfstrdeq	mvd0, [r1, #-56]	; 0xffffffc8
     100:	0ec7410d 	poleqs	f4, f7, #5.0
     104:	00000000 	andeq	r0, r0, r0
     108:	00000024 	andeq	r0, r0, r4, lsr #32
     10c:	00000000 	andeq	r0, r0, r0
     110:	000009a4 	andeq	r0, r0, r4, lsr #19
     114:	00000158 	andeq	r0, r0, r8, asr r1
     118:	87040e41 	strhi	r0, [r4, -r1, asr #28]
     11c:	180e4101 	stmdane	lr, {r0, r8, lr}
     120:	02070d41 	andeq	r0, r7, #4160	; 0x1040
     124:	41040e99 			; <UNDEFINED> instruction: 0x41040e99
     128:	c7410d0d 	strbgt	r0, [r1, -sp, lsl #26]
     12c:	0000000e 	andeq	r0, r0, lr
     130:	00000024 	andeq	r0, r0, r4, lsr #32
	...
     13c:	00000158 	andeq	r0, r0, r8, asr r1
     140:	87040e41 	strhi	r0, [r4, -r1, asr #28]
     144:	180e4101 	stmdane	lr, {r0, r8, lr}
     148:	02070d41 	andeq	r0, r7, #4160	; 0x1040
     14c:	41040e99 			; <UNDEFINED> instruction: 0x41040e99
     150:	c7410d0d 	strbgt	r0, [r1, -sp, lsl #26]
     154:	0000000e 	andeq	r0, r0, lr
     158:	00000024 	andeq	r0, r0, r4, lsr #32
     15c:	00000000 	andeq	r0, r0, r0
     160:	00000afc 	strdeq	r0, [r0], -ip
     164:	00000058 	andeq	r0, r0, r8, asr r0
     168:	87040e41 	strhi	r0, [r4, -r1, asr #28]
     16c:	100e4101 	andne	r4, lr, r1, lsl #2
     170:	64070d41 	strvs	r0, [r7], #-3393	; 0xfffff2bf
     174:	0d41040e 	cfstrdeq	mvd0, [r1, #-56]	; 0xffffffc8
     178:	0ec7410d 	poleqs	f4, f7, #5.0
     17c:	00000000 	andeq	r0, r0, r0
     180:	00000024 	andeq	r0, r0, r4, lsr #32
	...
     18c:	00000024 	andeq	r0, r0, r4, lsr #32
     190:	87040e41 	strhi	r0, [r4, -r1, asr #28]
     194:	100e4101 	andne	r4, lr, r1, lsl #2
     198:	49070d41 	stmdbmi	r7, {r0, r6, r8, sl, fp}
     19c:	0d41040e 	cfstrdeq	mvd0, [r1, #-56]	; 0xffffffc8
     1a0:	0ec7410d 	poleqs	f4, f7, #5.0
     1a4:	00000000 	andeq	r0, r0, r0
     1a8:	00000020 	andeq	r0, r0, r0, lsr #32
     1ac:	00000000 	andeq	r0, r0, r0
     1b0:	00000b54 	andeq	r0, r0, r4, asr fp
     1b4:	00000038 	andeq	r0, r0, r8, lsr r0
     1b8:	87080e41 	strhi	r0, [r8, -r1, asr #28]
     1bc:	41018e02 	tstmi	r1, r2, lsl #28
     1c0:	0d41100e 	stcleq	0, cr1, [r1, #-56]	; 0xffffffc8
     1c4:	080e5707 	stmdaeq	lr, {r0, r1, r2, r8, r9, sl, ip, lr}
     1c8:	000d0d41 	andeq	r0, sp, r1, asr #26
     1cc:	00000024 	andeq	r0, r0, r4, lsr #32
     1d0:	00000000 	andeq	r0, r0, r0
     1d4:	00000b8c 	andeq	r0, r0, ip, lsl #23
     1d8:	00000054 	andeq	r0, r0, r4, asr r0
     1dc:	87040e41 	strhi	r0, [r4, -r1, asr #28]
     1e0:	100e4101 	andne	r4, lr, r1, lsl #2
     1e4:	62070d41 	andvs	r0, r7, #4160	; 0x1040
     1e8:	0d41040e 	cfstrdeq	mvd0, [r1, #-56]	; 0xffffffc8
     1ec:	0ec7410d 	poleqs	f4, f7, #5.0
     1f0:	00000000 	andeq	r0, r0, r0
     1f4:	00000024 	andeq	r0, r0, r4, lsr #32
     1f8:	00000000 	andeq	r0, r0, r0
     1fc:	00000be0 	andeq	r0, r0, r0, ror #23
     200:	00000058 	andeq	r0, r0, r8, asr r0
     204:	87040e41 	strhi	r0, [r4, -r1, asr #28]
     208:	100e4101 	andne	r4, lr, r1, lsl #2
     20c:	64070d41 	strvs	r0, [r7], #-3393	; 0xfffff2bf
     210:	0d41040e 	cfstrdeq	mvd0, [r1, #-56]	; 0xffffffc8
     214:	0ec7410d 	poleqs	f4, f7, #5.0
     218:	00000000 	andeq	r0, r0, r0
     21c:	00000024 	andeq	r0, r0, r4, lsr #32
     220:	00000000 	andeq	r0, r0, r0
     224:	00000c38 	andeq	r0, r0, r8, lsr ip
     228:	00000058 	andeq	r0, r0, r8, asr r0
     22c:	87040e41 	strhi	r0, [r4, -r1, asr #28]
     230:	180e4101 	stmdane	lr, {r0, r8, lr}
     234:	64070d41 	strvs	r0, [r7], #-3393	; 0xfffff2bf
     238:	0d41040e 	cfstrdeq	mvd0, [r1, #-56]	; 0xffffffc8
     23c:	0ec7410d 	poleqs	f4, f7, #5.0
     240:	00000000 	andeq	r0, r0, r0
     244:	00000024 	andeq	r0, r0, r4, lsr #32
	...
     250:	0000005c 	andeq	r0, r0, ip, asr r0
     254:	87040e41 	strhi	r0, [r4, -r1, asr #28]
     258:	180e4101 	stmdane	lr, {r0, r8, lr}
     25c:	65070d41 	strvs	r0, [r7, #-3393]	; 0xfffff2bf
     260:	0d41040e 	cfstrdeq	mvd0, [r1, #-56]	; 0xffffffc8
     264:	0ec7410d 	poleqs	f4, f7, #5.0
     268:	00000000 	andeq	r0, r0, r0
     26c:	00000020 	andeq	r0, r0, r0, lsr #32
	...
     278:	00000034 	andeq	r0, r0, r4, lsr r0
     27c:	87080e41 	strhi	r0, [r8, -r1, asr #28]
     280:	41018e02 	tstmi	r1, r2, lsl #28
     284:	0d41100e 	stcleq	0, cr1, [r1, #-56]	; 0xffffffc8
     288:	080e5207 	stmdaeq	lr, {r0, r1, r2, r9, ip, lr}
     28c:	000d0d41 	andeq	r0, sp, r1, asr #26
     290:	00000020 	andeq	r0, r0, r0, lsr #32
	...
     29c:	00000060 	andeq	r0, r0, r0, rrx
     2a0:	87080e41 	strhi	r0, [r8, -r1, asr #28]
     2a4:	41018e02 	tstmi	r1, r2, lsl #28
     2a8:	0d41100e 	stcleq	0, cr1, [r1, #-56]	; 0xffffffc8
     2ac:	080e5f07 	stmdaeq	lr, {r0, r1, r2, r8, r9, sl, fp, ip, lr}
     2b0:	000d0d41 	andeq	r0, sp, r1, asr #26
     2b4:	00000020 	andeq	r0, r0, r0, lsr #32
	...
     2c0:	00000060 	andeq	r0, r0, r0, rrx
     2c4:	87080e41 	strhi	r0, [r8, -r1, asr #28]
     2c8:	41018e02 	tstmi	r1, r2, lsl #28
     2cc:	0d41100e 	stcleq	0, cr1, [r1, #-56]	; 0xffffffc8
     2d0:	080e5f07 	stmdaeq	lr, {r0, r1, r2, r8, r9, sl, fp, ip, lr}
     2d4:	000d0d41 	andeq	r0, sp, r1, asr #26
     2d8:	00000024 	andeq	r0, r0, r4, lsr #32
	...
     2e4:	00000024 	andeq	r0, r0, r4, lsr #32
     2e8:	87040e41 	strhi	r0, [r4, -r1, asr #28]
     2ec:	100e4101 	andne	r4, lr, r1, lsl #2
     2f0:	4a070d41 	bmi	1c37fc <_E_text+0x1c2310>
     2f4:	0d41040e 	cfstrdeq	mvd0, [r1, #-56]	; 0xffffffc8
     2f8:	0ec7410d 	poleqs	f4, f7, #5.0
     2fc:	00000000 	andeq	r0, r0, r0
     300:	00000024 	andeq	r0, r0, r4, lsr #32
	...
     30c:	00000024 	andeq	r0, r0, r4, lsr #32
     310:	87040e41 	strhi	r0, [r4, -r1, asr #28]
     314:	100e4101 	andne	r4, lr, r1, lsl #2
     318:	4a070d41 	bmi	1c3824 <_E_text+0x1c2338>
     31c:	0d41040e 	cfstrdeq	mvd0, [r1, #-56]	; 0xffffffc8
     320:	0ec7410d 	poleqs	f4, f7, #5.0
     324:	00000000 	andeq	r0, r0, r0
     328:	0000000c 	andeq	r0, r0, ip
     32c:	ffffffff 			; <UNDEFINED> instruction: 0xffffffff
     330:	7c020001 	stcvc	0, cr0, [r2], {1}
     334:	000d0c0e 	andeq	r0, sp, lr, lsl #24
     338:	0000001c 	andeq	r0, r0, ip, lsl r0
     33c:	00000328 	andeq	r0, r0, r8, lsr #6
     340:	00000000 	andeq	r0, r0, r0
     344:	0000000c 	andeq	r0, r0, ip
     348:	87040e41 	strhi	r0, [r4, -r1, asr #28]
     34c:	070d4101 	streq	r4, [sp, -r1, lsl #2]
     350:	410d0d42 	tstmi	sp, r2, asr #26
     354:	00000ec7 	andeq	r0, r0, r7, asr #29
     358:	0000000c 	andeq	r0, r0, ip
     35c:	ffffffff 			; <UNDEFINED> instruction: 0xffffffff
     360:	7c020001 	stcvc	0, cr0, [r2], {1}
     364:	000d0c0e 	andeq	r0, sp, lr, lsl #24
     368:	00000018 	andeq	r0, r0, r8, lsl r0
     36c:	00000358 	andeq	r0, r0, r8, asr r3
     370:	00000000 	andeq	r0, r0, r0
     374:	0000001c 	andeq	r0, r0, ip, lsl r0
     378:	87080e41 	strhi	r0, [r8, -r1, asr #28]
     37c:	41018e02 	tstmi	r1, r2, lsl #28
     380:	0000070d 	andeq	r0, r0, sp, lsl #14
     384:	00000018 	andeq	r0, r0, r8, lsl r0
     388:	00000358 	andeq	r0, r0, r8, asr r3
     38c:	00000000 	andeq	r0, r0, r0
     390:	0000001c 	andeq	r0, r0, ip, lsl r0
     394:	87080e41 	strhi	r0, [r8, -r1, asr #28]
     398:	41018e02 	tstmi	r1, r2, lsl #28
     39c:	0000070d 	andeq	r0, r0, sp, lsl #14
     3a0:	00000018 	andeq	r0, r0, r8, lsl r0
     3a4:	00000358 	andeq	r0, r0, r8, asr r3
     3a8:	00000000 	andeq	r0, r0, r0
     3ac:	0000001c 	andeq	r0, r0, ip, lsl r0
     3b0:	87080e41 	strhi	r0, [r8, -r1, asr #28]
     3b4:	41018e02 	tstmi	r1, r2, lsl #28
     3b8:	0000070d 	andeq	r0, r0, sp, lsl #14
     3bc:	00000018 	andeq	r0, r0, r8, lsl r0
     3c0:	00000358 	andeq	r0, r0, r8, asr r3
     3c4:	00000000 	andeq	r0, r0, r0
     3c8:	0000001c 	andeq	r0, r0, ip, lsl r0
     3cc:	87080e41 	strhi	r0, [r8, -r1, asr #28]
     3d0:	41018e02 	tstmi	r1, r2, lsl #28
     3d4:	0000070d 	andeq	r0, r0, sp, lsl #14
     3d8:	00000018 	andeq	r0, r0, r8, lsl r0
     3dc:	00000358 	andeq	r0, r0, r8, asr r3
     3e0:	00000000 	andeq	r0, r0, r0
     3e4:	0000001c 	andeq	r0, r0, ip, lsl r0
     3e8:	87080e41 	strhi	r0, [r8, -r1, asr #28]
     3ec:	41018e02 	tstmi	r1, r2, lsl #28
     3f0:	0000070d 	andeq	r0, r0, sp, lsl #14
     3f4:	00000018 	andeq	r0, r0, r8, lsl r0
     3f8:	00000358 	andeq	r0, r0, r8, asr r3
     3fc:	00000000 	andeq	r0, r0, r0
     400:	0000001c 	andeq	r0, r0, ip, lsl r0
     404:	87080e41 	strhi	r0, [r8, -r1, asr #28]
     408:	41018e02 	tstmi	r1, r2, lsl #28
     40c:	0000070d 	andeq	r0, r0, sp, lsl #14
     410:	00000024 	andeq	r0, r0, r4, lsr #32
     414:	00000358 	andeq	r0, r0, r8, asr r3
     418:	00000c90 	muleq	r0, r0, ip
     41c:	00000060 	andeq	r0, r0, r0, rrx
     420:	87040e41 	strhi	r0, [r4, -r1, asr #28]
     424:	100e4101 	andne	r4, lr, r1, lsl #2
     428:	68070d41 	stmdavs	r7, {r0, r6, r8, sl, fp}
     42c:	0d41040e 	cfstrdeq	mvd0, [r1, #-56]	; 0xffffffc8
     430:	0ec7410d 	poleqs	f4, f7, #5.0
     434:	00000000 	andeq	r0, r0, r0
     438:	00000024 	andeq	r0, r0, r4, lsr #32
     43c:	00000358 	andeq	r0, r0, r8, asr r3
     440:	00000cf0 	strdeq	r0, [r0], -r0	; <UNPREDICTABLE>
     444:	00000090 	muleq	r0, r0, r0
     448:	87040e41 	strhi	r0, [r4, -r1, asr #28]
     44c:	100e4101 	andne	r4, lr, r1, lsl #2
     450:	02070d41 	andeq	r0, r7, #4160	; 0x1040
     454:	41040e40 	tstmi	r4, r0, asr #28
     458:	c7410d0d 	strbgt	r0, [r1, -sp, lsl #26]
     45c:	0000000e 	andeq	r0, r0, lr
     460:	00000024 	andeq	r0, r0, r4, lsr #32
     464:	00000358 	andeq	r0, r0, r8, asr r3
     468:	00000d80 	andeq	r0, r0, r0, lsl #27
     46c:	00000090 	muleq	r0, r0, r0
     470:	87040e41 	strhi	r0, [r4, -r1, asr #28]
     474:	100e4101 	andne	r4, lr, r1, lsl #2
     478:	02070d41 	andeq	r0, r7, #4160	; 0x1040
     47c:	41040e40 	tstmi	r4, r0, asr #28
     480:	c7410d0d 	strbgt	r0, [r1, -sp, lsl #26]
     484:	0000000e 	andeq	r0, r0, lr
     488:	00000024 	andeq	r0, r0, r4, lsr #32
     48c:	00000358 	andeq	r0, r0, r8, asr r3
     490:	00000000 	andeq	r0, r0, r0
     494:	0000004c 	andeq	r0, r0, ip, asr #32
     498:	87040e41 	strhi	r0, [r4, -r1, asr #28]
     49c:	100e4101 	andne	r4, lr, r1, lsl #2
     4a0:	5e070d41 	cdppl	13, 0, cr0, cr7, cr1, {2}
     4a4:	0d41040e 	cfstrdeq	mvd0, [r1, #-56]	; 0xffffffc8
     4a8:	0ec7410d 	poleqs	f4, f7, #5.0
     4ac:	00000000 	andeq	r0, r0, r0
     4b0:	00000024 	andeq	r0, r0, r4, lsr #32
     4b4:	00000358 	andeq	r0, r0, r8, asr r3
     4b8:	00000000 	andeq	r0, r0, r0
     4bc:	00000090 	muleq	r0, r0, r0
     4c0:	87040e41 	strhi	r0, [r4, -r1, asr #28]
     4c4:	100e4101 	andne	r4, lr, r1, lsl #2
     4c8:	02070d41 	andeq	r0, r7, #4160	; 0x1040
     4cc:	41040e40 	tstmi	r4, r0, asr #28
     4d0:	c7410d0d 	strbgt	r0, [r1, -sp, lsl #26]
     4d4:	0000000e 	andeq	r0, r0, lr
     4d8:	00000024 	andeq	r0, r0, r4, lsr #32
     4dc:	00000358 	andeq	r0, r0, r8, asr r3
     4e0:	00000000 	andeq	r0, r0, r0
     4e4:	00000028 	andeq	r0, r0, r8, lsr #32
     4e8:	87040e41 	strhi	r0, [r4, -r1, asr #28]
     4ec:	100e4101 	andne	r4, lr, r1, lsl #2
     4f0:	4e070d41 	cdpmi	13, 0, cr0, cr7, cr1, {2}
     4f4:	0d41040e 	cfstrdeq	mvd0, [r1, #-56]	; 0xffffffc8
     4f8:	0ec7410d 	poleqs	f4, f7, #5.0
     4fc:	00000000 	andeq	r0, r0, r0
     500:	00000024 	andeq	r0, r0, r4, lsr #32
     504:	00000358 	andeq	r0, r0, r8, asr r3
     508:	00000000 	andeq	r0, r0, r0
     50c:	00000060 	andeq	r0, r0, r0, rrx
     510:	87040e41 	strhi	r0, [r4, -r1, asr #28]
     514:	100e4101 	andne	r4, lr, r1, lsl #2
     518:	68070d41 	stmdavs	r7, {r0, r6, r8, sl, fp}
     51c:	0d41040e 	cfstrdeq	mvd0, [r1, #-56]	; 0xffffffc8
     520:	0ec7410d 	poleqs	f4, f7, #5.0
     524:	00000000 	andeq	r0, r0, r0
     528:	00000024 	andeq	r0, r0, r4, lsr #32
     52c:	00000358 	andeq	r0, r0, r8, asr r3
     530:	00000e10 	andeq	r0, r0, r0, lsl lr
     534:	00000090 	muleq	r0, r0, r0
     538:	87040e41 	strhi	r0, [r4, -r1, asr #28]
     53c:	100e4101 	andne	r4, lr, r1, lsl #2
     540:	02070d41 	andeq	r0, r7, #4160	; 0x1040
     544:	41040e40 	tstmi	r4, r0, asr #28
     548:	c7410d0d 	strbgt	r0, [r1, -sp, lsl #26]
     54c:	0000000e 	andeq	r0, r0, lr
     550:	00000024 	andeq	r0, r0, r4, lsr #32
     554:	00000358 	andeq	r0, r0, r8, asr r3
     558:	00000ea0 	andeq	r0, r0, r0, lsr #29
     55c:	00000080 	andeq	r0, r0, r0, lsl #1
     560:	87040e41 	strhi	r0, [r4, -r1, asr #28]
     564:	100e4101 	andne	r4, lr, r1, lsl #2
     568:	73070d41 	movwvc	r0, #32065	; 0x7d41
     56c:	0d41040e 	cfstrdeq	mvd0, [r1, #-56]	; 0xffffffc8
     570:	0ec7410d 	poleqs	f4, f7, #5.0
     574:	00000000 	andeq	r0, r0, r0
     578:	00000024 	andeq	r0, r0, r4, lsr #32
     57c:	00000358 	andeq	r0, r0, r8, asr r3
     580:	00000000 	andeq	r0, r0, r0
     584:	0000004c 	andeq	r0, r0, ip, asr #32
     588:	87040e41 	strhi	r0, [r4, -r1, asr #28]
     58c:	100e4101 	andne	r4, lr, r1, lsl #2
     590:	5e070d41 	cdppl	13, 0, cr0, cr7, cr1, {2}
     594:	0d41040e 	cfstrdeq	mvd0, [r1, #-56]	; 0xffffffc8
     598:	0ec7410d 	poleqs	f4, f7, #5.0
     59c:	00000000 	andeq	r0, r0, r0
     5a0:	00000024 	andeq	r0, r0, r4, lsr #32
     5a4:	00000358 	andeq	r0, r0, r8, asr r3
     5a8:	00000000 	andeq	r0, r0, r0
     5ac:	00000090 	muleq	r0, r0, r0
     5b0:	87040e41 	strhi	r0, [r4, -r1, asr #28]
     5b4:	100e4101 	andne	r4, lr, r1, lsl #2
     5b8:	02070d41 	andeq	r0, r7, #4160	; 0x1040
     5bc:	41040e40 	tstmi	r4, r0, asr #28
     5c0:	c7410d0d 	strbgt	r0, [r1, -sp, lsl #26]
     5c4:	0000000e 	andeq	r0, r0, lr
     5c8:	00000020 	andeq	r0, r0, r0, lsr #32
     5cc:	00000358 	andeq	r0, r0, r8, asr r3
     5d0:	00000f20 	andeq	r0, r0, r0, lsr #30
     5d4:	0000005a 	andeq	r0, r0, sl, asr r0
     5d8:	87080e41 	strhi	r0, [r8, -r1, asr #28]
     5dc:	41018e02 	tstmi	r1, r2, lsl #28
     5e0:	0d41100e 	stcleq	0, cr1, [r1, #-56]	; 0xffffffc8
     5e4:	080e6807 	stmdaeq	lr, {r0, r1, r2, fp, sp, lr}
     5e8:	000d0d41 	andeq	r0, sp, r1, asr #26
     5ec:	00000024 	andeq	r0, r0, r4, lsr #32
     5f0:	00000358 	andeq	r0, r0, r8, asr r3
     5f4:	00000f7c 	andeq	r0, r0, ip, ror pc
     5f8:	00000090 	muleq	r0, r0, r0
     5fc:	87040e41 	strhi	r0, [r4, -r1, asr #28]
     600:	100e4101 	andne	r4, lr, r1, lsl #2
     604:	02070d41 	andeq	r0, r7, #4160	; 0x1040
     608:	41040e40 	tstmi	r4, r0, asr #28
     60c:	c7410d0d 	strbgt	r0, [r1, -sp, lsl #26]
     610:	0000000e 	andeq	r0, r0, lr
     614:	00000024 	andeq	r0, r0, r4, lsr #32
     618:	00000358 	andeq	r0, r0, r8, asr r3
     61c:	0000100c 	andeq	r1, r0, ip
     620:	0000004c 	andeq	r0, r0, ip, asr #32
     624:	87040e41 	strhi	r0, [r4, -r1, asr #28]
     628:	100e4101 	andne	r4, lr, r1, lsl #2
     62c:	5e070d41 	cdppl	13, 0, cr0, cr7, cr1, {2}
     630:	0d41040e 	cfstrdeq	mvd0, [r1, #-56]	; 0xffffffc8
     634:	0ec7410d 	poleqs	f4, f7, #5.0
     638:	00000000 	andeq	r0, r0, r0
     63c:	00000020 	andeq	r0, r0, r0, lsr #32
     640:	00000358 	andeq	r0, r0, r8, asr r3
     644:	00001058 	andeq	r1, r0, r8, asr r0
     648:	00000064 	andeq	r0, r0, r4, rrx
     64c:	87080e41 	strhi	r0, [r8, -r1, asr #28]
     650:	41018e02 	tstmi	r1, r2, lsl #28
     654:	0d41100e 	stcleq	0, cr1, [r1, #-56]	; 0xffffffc8
     658:	080e6d07 	stmdaeq	lr, {r0, r1, r2, r8, sl, fp, sp, lr}
     65c:	000d0d41 	andeq	r0, sp, r1, asr #26
     660:	00000024 	andeq	r0, r0, r4, lsr #32
     664:	00000358 	andeq	r0, r0, r8, asr r3
     668:	00000000 	andeq	r0, r0, r0
     66c:	00000054 	andeq	r0, r0, r4, asr r0
     670:	84080e41 	strhi	r0, [r8], #-3649	; 0xfffff1bf
     674:	41018702 	tstmi	r1, r2, lsl #14
     678:	0d41100e 	stcleq	0, cr1, [r1, #-56]	; 0xffffffc8
     67c:	080e6107 	stmdaeq	lr, {r0, r1, r2, r8, sp, lr}
     680:	410d0d41 	tstmi	sp, r1, asr #26
     684:	000ec4c7 	andeq	ip, lr, r7, asr #9
     688:	00000024 	andeq	r0, r0, r4, lsr #32
     68c:	00000358 	andeq	r0, r0, r8, asr r3
     690:	00000000 	andeq	r0, r0, r0
     694:	00000034 	andeq	r0, r0, r4, lsr r0
     698:	87040e41 	strhi	r0, [r4, -r1, asr #28]
     69c:	100e4101 	andne	r4, lr, r1, lsl #2
     6a0:	52070d41 	andpl	r0, r7, #4160	; 0x1040
     6a4:	0d41040e 	cfstrdeq	mvd0, [r1, #-56]	; 0xffffffc8
     6a8:	0ec7410d 	poleqs	f4, f7, #5.0
     6ac:	00000000 	andeq	r0, r0, r0
     6b0:	00000024 	andeq	r0, r0, r4, lsr #32
     6b4:	00000358 	andeq	r0, r0, r8, asr r3
     6b8:	000010bc 	strheq	r1, [r0], -ip
     6bc:	00000084 	andeq	r0, r0, r4, lsl #1
     6c0:	84080e41 	strhi	r0, [r8], #-3649	; 0xfffff1bf
     6c4:	41018702 	tstmi	r1, r2, lsl #14
     6c8:	0d41100e 	stcleq	0, cr1, [r1, #-56]	; 0xffffffc8
     6cc:	080e7a07 	stmdaeq	lr, {r0, r1, r2, r9, fp, ip, sp, lr}
     6d0:	410d0d41 	tstmi	sp, r1, asr #26
     6d4:	000ec4c7 	andeq	ip, lr, r7, asr #9
     6d8:	00000020 	andeq	r0, r0, r0, lsr #32
     6dc:	00000358 	andeq	r0, r0, r8, asr r3
     6e0:	00000000 	andeq	r0, r0, r0
     6e4:	0000005a 	andeq	r0, r0, sl, asr r0
     6e8:	87080e41 	strhi	r0, [r8, -r1, asr #28]
     6ec:	41018e02 	tstmi	r1, r2, lsl #28
     6f0:	0d41100e 	stcleq	0, cr1, [r1, #-56]	; 0xffffffc8
     6f4:	080e6807 	stmdaeq	lr, {r0, r1, r2, fp, sp, lr}
     6f8:	000d0d41 	andeq	r0, sp, r1, asr #26
     6fc:	00000020 	andeq	r0, r0, r0, lsr #32
     700:	00000358 	andeq	r0, r0, r8, asr r3
     704:	00000000 	andeq	r0, r0, r0
     708:	0000007a 	andeq	r0, r0, sl, ror r0
     70c:	87080e41 	strhi	r0, [r8, -r1, asr #28]
     710:	41018e02 	tstmi	r1, r2, lsl #28
     714:	0d41100e 	stcleq	0, cr1, [r1, #-56]	; 0xffffffc8
     718:	080e7807 	stmdaeq	lr, {r0, r1, r2, fp, ip, sp, lr}
     71c:	000d0d41 	andeq	r0, sp, r1, asr #26
     720:	00000024 	andeq	r0, r0, r4, lsr #32
     724:	00000358 	andeq	r0, r0, r8, asr r3
     728:	00000000 	andeq	r0, r0, r0
     72c:	00000024 	andeq	r0, r0, r4, lsr #32
     730:	87040e41 	strhi	r0, [r4, -r1, asr #28]
     734:	100e4101 	andne	r4, lr, r1, lsl #2
     738:	4a070d41 	bmi	1c3c44 <_E_text+0x1c2758>
     73c:	0d41040e 	cfstrdeq	mvd0, [r1, #-56]	; 0xffffffc8
     740:	0ec7410d 	poleqs	f4, f7, #5.0
     744:	00000000 	andeq	r0, r0, r0
     748:	0000000c 	andeq	r0, r0, ip
     74c:	ffffffff 			; <UNDEFINED> instruction: 0xffffffff
     750:	7c020001 	stcvc	0, cr0, [r2], {1}
     754:	000d0c0e 	andeq	r0, sp, lr, lsl #24
     758:	00000024 	andeq	r0, r0, r4, lsr #32
     75c:	00000748 	andeq	r0, r0, r8, asr #14
     760:	00000000 	andeq	r0, r0, r0
     764:	00000080 	andeq	r0, r0, r0, lsl #1
     768:	87040e41 	strhi	r0, [r4, -r1, asr #28]
     76c:	100e4101 	andne	r4, lr, r1, lsl #2
     770:	76070d41 	strvc	r0, [r7], -r1, asr #26
     774:	0d41040e 	cfstrdeq	mvd0, [r1, #-56]	; 0xffffffc8
     778:	0ec7410d 	poleqs	f4, f7, #5.0
     77c:	00000000 	andeq	r0, r0, r0
     780:	00000028 	andeq	r0, r0, r8, lsr #32
     784:	00000748 	andeq	r0, r0, r8, asr #14
     788:	00000000 	andeq	r0, r0, r0
     78c:	0000005c 	andeq	r0, r0, ip, asr r0
     790:	840c0e41 	strhi	r0, [ip], #-3649	; 0xfffff1bf
     794:	87028503 	strhi	r8, [r2, -r3, lsl #10]
     798:	180e4101 	stmdane	lr, {r0, r8, lr}
     79c:	65070d41 	strvs	r0, [r7, #-3393]	; 0xfffff2bf
     7a0:	0d410c0e 	stcleq	12, cr0, [r1, #-56]	; 0xffffffc8
     7a4:	c5c7410d 	strbgt	r4, [r7, #269]	; 0x10d
     7a8:	00000ec4 	andeq	r0, r0, r4, asr #29
     7ac:	00000028 	andeq	r0, r0, r8, lsr #32
     7b0:	00000748 	andeq	r0, r0, r8, asr #14
     7b4:	00000000 	andeq	r0, r0, r0
     7b8:	0000005c 	andeq	r0, r0, ip, asr r0
     7bc:	840c0e41 	strhi	r0, [ip], #-3649	; 0xfffff1bf
     7c0:	87028503 	strhi	r8, [r2, -r3, lsl #10]
     7c4:	180e4101 	stmdane	lr, {r0, r8, lr}
     7c8:	66070d41 	strvs	r0, [r7], -r1, asr #26
     7cc:	0d410c0e 	stcleq	12, cr0, [r1, #-56]	; 0xffffffc8
     7d0:	c5c7410d 	strbgt	r4, [r7, #269]	; 0x10d
     7d4:	00000ec4 	andeq	r0, r0, r4, asr #29
     7d8:	00000020 	andeq	r0, r0, r0, lsr #32
     7dc:	00000748 	andeq	r0, r0, r8, asr #14
     7e0:	00000000 	andeq	r0, r0, r0
     7e4:	00000124 	andeq	r0, r0, r4, lsr #2
     7e8:	87080e41 	strhi	r0, [r8, -r1, asr #28]
     7ec:	41018e02 	tstmi	r1, r2, lsl #28
     7f0:	0d41100e 	stcleq	0, cr1, [r1, #-56]	; 0xffffffc8
     7f4:	0e860207 	cdpeq	2, 8, cr0, cr6, cr7, {0}
     7f8:	0d0d4108 	stfeqs	f4, [sp, #-32]	; 0xffffffe0
     7fc:	00000020 	andeq	r0, r0, r0, lsr #32
     800:	00000748 	andeq	r0, r0, r8, asr #14
     804:	00000000 	andeq	r0, r0, r0
     808:	000000b0 	strheq	r0, [r0], -r0	; <UNPREDICTABLE>
     80c:	87080e41 	strhi	r0, [r8, -r1, asr #28]
     810:	41018e02 	tstmi	r1, r2, lsl #28
     814:	0d41280e 	stcleq	8, cr2, [r1, #-56]	; 0xffffffc8
     818:	0e4b0207 	cdpeq	2, 4, cr0, cr11, cr7, {0}
     81c:	0d0d4108 	stfeqs	f4, [sp, #-32]	; 0xffffffe0
     820:	00000020 	andeq	r0, r0, r0, lsr #32
     824:	00000748 	andeq	r0, r0, r8, asr #14
     828:	00000000 	andeq	r0, r0, r0
     82c:	000000b4 	strheq	r0, [r0], -r4
     830:	87080e41 	strhi	r0, [r8, -r1, asr #28]
     834:	41018e02 	tstmi	r1, r2, lsl #28
     838:	0d41100e 	stcleq	0, cr1, [r1, #-56]	; 0xffffffc8
     83c:	0e500207 	cdpeq	2, 5, cr0, cr0, cr7, {0}
     840:	0d0d4108 	stfeqs	f4, [sp, #-32]	; 0xffffffe0
     844:	00000020 	andeq	r0, r0, r0, lsr #32
     848:	00000748 	andeq	r0, r0, r8, asr #14
     84c:	00000000 	andeq	r0, r0, r0
     850:	000000cc 	andeq	r0, r0, ip, asr #1
     854:	87080e41 	strhi	r0, [r8, -r1, asr #28]
     858:	41018e02 	tstmi	r1, r2, lsl #28
     85c:	0d41300e 	stcleq	0, cr3, [r1, #-56]	; 0xffffffc8
     860:	0e580207 	cdpeq	2, 5, cr0, cr8, cr7, {0}
     864:	0d0d4108 	stfeqs	f4, [sp, #-32]	; 0xffffffe0
     868:	0000000c 	andeq	r0, r0, ip
     86c:	ffffffff 			; <UNDEFINED> instruction: 0xffffffff
     870:	7c020001 	stcvc	0, cr0, [r2], {1}
     874:	000d0c0e 	andeq	r0, sp, lr, lsl #24
     878:	00000018 	andeq	r0, r0, r8, lsl r0
     87c:	00000868 	andeq	r0, r0, r8, ror #16
     880:	00000000 	andeq	r0, r0, r0
     884:	0000001c 	andeq	r0, r0, ip, lsl r0
     888:	87080e41 	strhi	r0, [r8, -r1, asr #28]
     88c:	41018e02 	tstmi	r1, r2, lsl #28
     890:	0000070d 	andeq	r0, r0, sp, lsl #14
     894:	00000018 	andeq	r0, r0, r8, lsl r0
     898:	00000868 	andeq	r0, r0, r8, ror #16
     89c:	00000000 	andeq	r0, r0, r0
     8a0:	00000020 	andeq	r0, r0, r0, lsr #32
     8a4:	87080e41 	strhi	r0, [r8, -r1, asr #28]
     8a8:	41018e02 	tstmi	r1, r2, lsl #28
     8ac:	0000070d 	andeq	r0, r0, sp, lsl #14
     8b0:	00000020 	andeq	r0, r0, r0, lsr #32
     8b4:	00000868 	andeq	r0, r0, r8, ror #16
     8b8:	00000000 	andeq	r0, r0, r0
     8bc:	00000026 	andeq	r0, r0, r6, lsr #32
     8c0:	87080e41 	strhi	r0, [r8, -r1, asr #28]
     8c4:	41018e02 	tstmi	r1, r2, lsl #28
     8c8:	0d41100e 	stcleq	0, cr1, [r1, #-56]	; 0xffffffc8
     8cc:	080e4e07 	stmdaeq	lr, {r0, r1, r2, r9, sl, fp, lr}
     8d0:	000d0d41 	andeq	r0, sp, r1, asr #26
     8d4:	00000020 	andeq	r0, r0, r0, lsr #32
     8d8:	00000868 	andeq	r0, r0, r8, ror #16
     8dc:	00000000 	andeq	r0, r0, r0
     8e0:	00000026 	andeq	r0, r0, r6, lsr #32
     8e4:	87080e41 	strhi	r0, [r8, -r1, asr #28]
     8e8:	41018e02 	tstmi	r1, r2, lsl #28
     8ec:	0d41100e 	stcleq	0, cr1, [r1, #-56]	; 0xffffffc8
     8f0:	080e4e07 	stmdaeq	lr, {r0, r1, r2, r9, sl, fp, lr}
     8f4:	000d0d41 	andeq	r0, sp, r1, asr #26
     8f8:	00000020 	andeq	r0, r0, r0, lsr #32
     8fc:	00000868 	andeq	r0, r0, r8, ror #16
     900:	00000000 	andeq	r0, r0, r0
     904:	00000018 	andeq	r0, r0, r8, lsl r0
     908:	87080e41 	strhi	r0, [r8, -r1, asr #28]
     90c:	41018e02 	tstmi	r1, r2, lsl #28
     910:	0d41100e 	stcleq	0, cr1, [r1, #-56]	; 0xffffffc8
     914:	080e4707 	stmdaeq	lr, {r0, r1, r2, r8, r9, sl, lr}
     918:	000d0d41 	andeq	r0, sp, r1, asr #26
     91c:	00000020 	andeq	r0, r0, r0, lsr #32
     920:	00000868 	andeq	r0, r0, r8, ror #16
     924:	00000000 	andeq	r0, r0, r0
     928:	00000018 	andeq	r0, r0, r8, lsl r0
     92c:	87080e41 	strhi	r0, [r8, -r1, asr #28]
     930:	41018e02 	tstmi	r1, r2, lsl #28
     934:	0d41100e 	stcleq	0, cr1, [r1, #-56]	; 0xffffffc8
     938:	080e4707 	stmdaeq	lr, {r0, r1, r2, r8, r9, sl, lr}
     93c:	000d0d41 	andeq	r0, sp, r1, asr #26
     940:	00000020 	andeq	r0, r0, r0, lsr #32
     944:	00000868 	andeq	r0, r0, r8, ror #16
     948:	00000000 	andeq	r0, r0, r0
     94c:	00000028 	andeq	r0, r0, r8, lsr #32
     950:	87080e41 	strhi	r0, [r8, -r1, asr #28]
     954:	41018e02 	tstmi	r1, r2, lsl #28
     958:	0d41100e 	stcleq	0, cr1, [r1, #-56]	; 0xffffffc8
     95c:	080e4f07 	stmdaeq	lr, {r0, r1, r2, r8, r9, sl, fp, lr}
     960:	000d0d41 	andeq	r0, sp, r1, asr #26
     964:	0000000c 	andeq	r0, r0, ip
     968:	ffffffff 			; <UNDEFINED> instruction: 0xffffffff
     96c:	7c020001 	stcvc	0, cr0, [r2], {1}
     970:	000d0c0e 	andeq	r0, sp, lr, lsl #24
     974:	00000024 	andeq	r0, r0, r4, lsr #32
     978:	00000964 	andeq	r0, r0, r4, ror #18
     97c:	00000000 	andeq	r0, r0, r0
     980:	0000002a 	andeq	r0, r0, sl, lsr #32
     984:	87040e41 	strhi	r0, [r4, -r1, asr #28]
     988:	100e4101 	andne	r4, lr, r1, lsl #2
     98c:	4f070d41 	svcmi	0x00070d41
     990:	0d41040e 	cfstrdeq	mvd0, [r1, #-56]	; 0xffffffc8
     994:	0ec7410d 	poleqs	f4, f7, #5.0
     998:	00000000 	andeq	r0, r0, r0
     99c:	0000001c 	andeq	r0, r0, ip, lsl r0
     9a0:	00000964 	andeq	r0, r0, r4, ror #18
     9a4:	00001140 	andeq	r1, r0, r0, asr #2
     9a8:	000000a4 	andeq	r0, r0, r4, lsr #1
     9ac:	87080e41 	strhi	r0, [r8, -r1, asr #28]
     9b0:	41018e02 	tstmi	r1, r2, lsl #28
     9b4:	0d41100e 	stcleq	0, cr1, [r1, #-56]	; 0xffffffc8
     9b8:	00000007 	andeq	r0, r0, r7
     9bc:	0000000c 	andeq	r0, r0, ip
     9c0:	ffffffff 			; <UNDEFINED> instruction: 0xffffffff
     9c4:	7c020001 	stcvc	0, cr0, [r2], {1}
     9c8:	000d0c0e 	andeq	r0, sp, lr, lsl #24
     9cc:	00000024 	andeq	r0, r0, r4, lsr #32
     9d0:	000009bc 			; <UNDEFINED> instruction: 0x000009bc
     9d4:	000011e4 	andeq	r1, r0, r4, ror #3
     9d8:	0000004c 	andeq	r0, r0, ip, asr #32
     9dc:	87040e41 	strhi	r0, [r4, -r1, asr #28]
     9e0:	180e4101 	stmdane	lr, {r0, r8, lr}
     9e4:	5d070d41 	stcpl	13, cr0, [r7, #-260]	; 0xfffffefc
     9e8:	0d41040e 	cfstrdeq	mvd0, [r1, #-56]	; 0xffffffc8
     9ec:	0ec7410d 	poleqs	f4, f7, #5.0
     9f0:	00000000 	andeq	r0, r0, r0
     9f4:	00000024 	andeq	r0, r0, r4, lsr #32
     9f8:	000009bc 			; <UNDEFINED> instruction: 0x000009bc
     9fc:	00001230 	andeq	r1, r0, r0, lsr r2
     a00:	0000004c 	andeq	r0, r0, ip, asr #32
     a04:	87040e41 	strhi	r0, [r4, -r1, asr #28]
     a08:	180e4101 	stmdane	lr, {r0, r8, lr}
     a0c:	5e070d41 	cdppl	13, 0, cr0, cr7, cr1, {2}
     a10:	0d41040e 	cfstrdeq	mvd0, [r1, #-56]	; 0xffffffc8
     a14:	0ec7410d 	poleqs	f4, f7, #5.0
     a18:	00000000 	andeq	r0, r0, r0
     a1c:	00000024 	andeq	r0, r0, r4, lsr #32
     a20:	000009bc 			; <UNDEFINED> instruction: 0x000009bc
     a24:	00000000 	andeq	r0, r0, r0
     a28:	0000004c 	andeq	r0, r0, ip, asr #32
     a2c:	87040e41 	strhi	r0, [r4, -r1, asr #28]
     a30:	180e4101 	stmdane	lr, {r0, r8, lr}
     a34:	5d070d41 	stcpl	13, cr0, [r7, #-260]	; 0xfffffefc
     a38:	0d41040e 	cfstrdeq	mvd0, [r1, #-56]	; 0xffffffc8
     a3c:	0ec7410d 	poleqs	f4, f7, #5.0
     a40:	00000000 	andeq	r0, r0, r0
     a44:	00000024 	andeq	r0, r0, r4, lsr #32
     a48:	000009bc 			; <UNDEFINED> instruction: 0x000009bc
     a4c:	00000000 	andeq	r0, r0, r0
     a50:	0000004c 	andeq	r0, r0, ip, asr #32
     a54:	87040e41 	strhi	r0, [r4, -r1, asr #28]
     a58:	180e4101 	stmdane	lr, {r0, r8, lr}
     a5c:	5e070d41 	cdppl	13, 0, cr0, cr7, cr1, {2}
     a60:	0d41040e 	cfstrdeq	mvd0, [r1, #-56]	; 0xffffffc8
     a64:	0ec7410d 	poleqs	f4, f7, #5.0
     a68:	00000000 	andeq	r0, r0, r0
     a6c:	00000024 	andeq	r0, r0, r4, lsr #32
     a70:	000009bc 			; <UNDEFINED> instruction: 0x000009bc
     a74:	00000000 	andeq	r0, r0, r0
     a78:	00000038 	andeq	r0, r0, r8, lsr r0
     a7c:	87040e41 	strhi	r0, [r4, -r1, asr #28]
     a80:	100e4101 	andne	r4, lr, r1, lsl #2
     a84:	54070d41 	strpl	r0, [r7], #-3393	; 0xfffff2bf
     a88:	0d41040e 	cfstrdeq	mvd0, [r1, #-56]	; 0xffffffc8
     a8c:	0ec7410d 	poleqs	f4, f7, #5.0
     a90:	00000000 	andeq	r0, r0, r0
     a94:	00000024 	andeq	r0, r0, r4, lsr #32
     a98:	000009bc 			; <UNDEFINED> instruction: 0x000009bc
     a9c:	00000000 	andeq	r0, r0, r0
     aa0:	00000134 	andeq	r0, r0, r4, lsr r1
     aa4:	87040e41 	strhi	r0, [r4, -r1, asr #28]
     aa8:	180e4101 	stmdane	lr, {r0, r8, lr}
     aac:	02070d41 	andeq	r0, r7, #4160	; 0x1040
     ab0:	41040e91 			; <UNDEFINED> instruction: 0x41040e91
     ab4:	c7410d0d 	strbgt	r0, [r1, -sp, lsl #26]
     ab8:	0000000e 	andeq	r0, r0, lr
     abc:	0000000c 	andeq	r0, r0, ip
     ac0:	ffffffff 			; <UNDEFINED> instruction: 0xffffffff
     ac4:	7c020001 	stcvc	0, cr0, [r2], {1}
     ac8:	000d0c0e 	andeq	r0, sp, lr, lsl #24
     acc:	00000018 	andeq	r0, r0, r8, lsl r0
     ad0:	00000abc 			; <UNDEFINED> instruction: 0x00000abc
     ad4:	0000127c 	andeq	r1, r0, ip, ror r2
     ad8:	0000000c 	andeq	r0, r0, ip
     adc:	87080e41 	strhi	r0, [r8, -r1, asr #28]
     ae0:	41018e02 	tstmi	r1, r2, lsl #28
     ae4:	0000070d 	andeq	r0, r0, sp, lsl #14
     ae8:	00000020 	andeq	r0, r0, r0, lsr #32
     aec:	00000abc 			; <UNDEFINED> instruction: 0x00000abc
     af0:	00001288 	andeq	r1, r0, r8, lsl #5
     af4:	00000080 	andeq	r0, r0, r0, lsl #1
     af8:	87080e41 	strhi	r0, [r8, -r1, asr #28]
     afc:	41018e02 	tstmi	r1, r2, lsl #28
     b00:	0d41200e 	stcleq	0, cr2, [r1, #-56]	; 0xffffffc8
     b04:	080e7107 	stmdaeq	lr, {r0, r1, r2, r8, ip, sp, lr}
     b08:	000d0d41 	andeq	r0, sp, r1, asr #26
     b0c:	0000000c 	andeq	r0, r0, ip
     b10:	ffffffff 			; <UNDEFINED> instruction: 0xffffffff
     b14:	7c020001 	stcvc	0, cr0, [r2], {1}
     b18:	000d0c0e 	andeq	r0, sp, lr, lsl #24
     b1c:	00000024 	andeq	r0, r0, r4, lsr #32
     b20:	00000b0c 	andeq	r0, r0, ip, lsl #22
     b24:	00000000 	andeq	r0, r0, r0
     b28:	00000030 	andeq	r0, r0, r0, lsr r0
     b2c:	87040e41 	strhi	r0, [r4, -r1, asr #28]
     b30:	100e4101 	andne	r4, lr, r1, lsl #2
     b34:	4f070d41 	svcmi	0x00070d41
     b38:	0d41040e 	cfstrdeq	mvd0, [r1, #-56]	; 0xffffffc8
     b3c:	0ec7410d 	poleqs	f4, f7, #5.0
     b40:	00000000 	andeq	r0, r0, r0
     b44:	00000024 	andeq	r0, r0, r4, lsr #32
     b48:	00000b0c 	andeq	r0, r0, ip, lsl #22
     b4c:	00000000 	andeq	r0, r0, r0
     b50:	0000012c 	andeq	r0, r0, ip, lsr #2
     b54:	87040e41 	strhi	r0, [r4, -r1, asr #28]
     b58:	100e4101 	andne	r4, lr, r1, lsl #2
     b5c:	02070d41 	andeq	r0, r7, #4160	; 0x1040
     b60:	41040e89 	smlabbmi	r4, r9, lr, r0
     b64:	c7410d0d 	strbgt	r0, [r1, -sp, lsl #26]
     b68:	0000000e 	andeq	r0, r0, lr
     b6c:	0000001c 	andeq	r0, r0, ip, lsl r0
     b70:	00000b0c 	andeq	r0, r0, ip, lsl #22
     b74:	00001308 	andeq	r1, r0, r8, lsl #6
     b78:	00000048 	andeq	r0, r0, r8, asr #32
     b7c:	87040e41 	strhi	r0, [r4, -r1, asr #28]
     b80:	070d4101 	streq	r4, [sp, -r1, lsl #2]
     b84:	410d0d57 	tstmi	sp, r7, asr sp
     b88:	00000ec7 	andeq	r0, r0, r7, asr #29
     b8c:	00000020 	andeq	r0, r0, r0, lsr #32
     b90:	00000b0c 	andeq	r0, r0, ip, lsl #22
     b94:	00001350 	andeq	r1, r0, r0, asr r3
     b98:	0000009c 	muleq	r0, ip, r0
     b9c:	87080e41 	strhi	r0, [r8, -r1, asr #28]
     ba0:	41018e02 	tstmi	r1, r2, lsl #28
     ba4:	0d41100e 	stcleq	0, cr1, [r1, #-56]	; 0xffffffc8
     ba8:	0e420207 	cdpeq	2, 4, cr0, cr2, cr7, {0}
     bac:	0d0d4108 	stfeqs	f4, [sp, #-32]	; 0xffffffe0
     bb0:	00000020 	andeq	r0, r0, r0, lsr #32
     bb4:	00000b0c 	andeq	r0, r0, ip, lsl #22
     bb8:	00000000 	andeq	r0, r0, r0
     bbc:	0000004c 	andeq	r0, r0, ip, asr #32
     bc0:	87080e41 	strhi	r0, [r8, -r1, asr #28]
     bc4:	41018e02 	tstmi	r1, r2, lsl #28
     bc8:	0d41100e 	stcleq	0, cr1, [r1, #-56]	; 0xffffffc8
     bcc:	080e5e07 	stmdaeq	lr, {r0, r1, r2, r9, sl, fp, ip, lr}
     bd0:	000d0d41 	andeq	r0, sp, r1, asr #26
     bd4:	00000020 	andeq	r0, r0, r0, lsr #32
     bd8:	00000b0c 	andeq	r0, r0, ip, lsl #22
     bdc:	00000000 	andeq	r0, r0, r0
     be0:	00000048 	andeq	r0, r0, r8, asr #32
     be4:	87080e41 	strhi	r0, [r8, -r1, asr #28]
     be8:	41018e02 	tstmi	r1, r2, lsl #28
     bec:	0d41180e 	stcleq	8, cr1, [r1, #-56]	; 0xffffffc8
     bf0:	080e5a07 	stmdaeq	lr, {r0, r1, r2, r9, fp, ip, lr}
     bf4:	000d0d41 	andeq	r0, sp, r1, asr #26
     bf8:	00000024 	andeq	r0, r0, r4, lsr #32
     bfc:	00000b0c 	andeq	r0, r0, ip, lsl #22
     c00:	00000000 	andeq	r0, r0, r0
     c04:	0000002c 	andeq	r0, r0, ip, lsr #32
     c08:	87040e41 	strhi	r0, [r4, -r1, asr #28]
     c0c:	100e4101 	andne	r4, lr, r1, lsl #2
     c10:	4e070d41 	cdpmi	13, 0, cr0, cr7, cr1, {2}
     c14:	0d41040e 	cfstrdeq	mvd0, [r1, #-56]	; 0xffffffc8
     c18:	0ec7410d 	poleqs	f4, f7, #5.0
     c1c:	00000000 	andeq	r0, r0, r0
     c20:	0000000c 	andeq	r0, r0, ip
     c24:	ffffffff 			; <UNDEFINED> instruction: 0xffffffff
     c28:	7c020001 	stcvc	0, cr0, [r2], {1}
     c2c:	000d0c0e 	andeq	r0, sp, lr, lsl #24
     c30:	00000018 	andeq	r0, r0, r8, lsl r0
     c34:	00000c20 	andeq	r0, r0, r0, lsr #24
     c38:	00000000 	andeq	r0, r0, r0
     c3c:	0000001c 	andeq	r0, r0, ip, lsl r0
     c40:	87080e41 	strhi	r0, [r8, -r1, asr #28]
     c44:	41018e02 	tstmi	r1, r2, lsl #28
     c48:	0000070d 	andeq	r0, r0, sp, lsl #14
     c4c:	0000001c 	andeq	r0, r0, ip, lsl r0
     c50:	00000c20 	andeq	r0, r0, r0, lsr #24
     c54:	000013ec 	andeq	r1, r0, ip, ror #7
     c58:	0000001c 	andeq	r0, r0, ip, lsl r0
     c5c:	87040e41 	strhi	r0, [r4, -r1, asr #28]
     c60:	070d4101 	streq	r4, [sp, -r1, lsl #2]
     c64:	410d0d47 	tstmi	sp, r7, asr #26
     c68:	00000ec7 	andeq	r0, r0, r7, asr #29
     c6c:	0000001c 	andeq	r0, r0, ip, lsl r0
     c70:	00000c20 	andeq	r0, r0, r0, lsr #24
     c74:	00001408 	andeq	r1, r0, r8, lsl #8
     c78:	0000001c 	andeq	r0, r0, ip, lsl r0
     c7c:	87040e41 	strhi	r0, [r4, -r1, asr #28]
     c80:	070d4101 	streq	r4, [sp, -r1, lsl #2]
     c84:	410d0d47 	tstmi	sp, r7, asr #26
     c88:	00000ec7 	andeq	r0, r0, r7, asr #29
     c8c:	00000024 	andeq	r0, r0, r4, lsr #32
     c90:	00000c20 	andeq	r0, r0, r0, lsr #24
     c94:	00001424 	andeq	r1, r0, r4, lsr #8
     c98:	00000044 	andeq	r0, r0, r4, asr #32
     c9c:	84100e41 	ldrhi	r0, [r0], #-3649	; 0xfffff1bf
     ca0:	87038504 	strhi	r8, [r3, -r4, lsl #10]
     ca4:	41018e02 	tstmi	r1, r2, lsl #28
     ca8:	0d41180e 	stcleq	8, cr1, [r1, #-56]	; 0xffffffc8
     cac:	100e5807 	andne	r5, lr, r7, lsl #16
     cb0:	000d0d41 	andeq	r0, sp, r1, asr #26
     cb4:	00000024 	andeq	r0, r0, r4, lsr #32
     cb8:	00000c20 	andeq	r0, r0, r0, lsr #24
     cbc:	00001468 	andeq	r1, r0, r8, ror #8
     cc0:	0000002c 	andeq	r0, r0, ip, lsr #32
     cc4:	87040e41 	strhi	r0, [r4, -r1, asr #28]
     cc8:	100e4101 	andne	r4, lr, r1, lsl #2
     ccc:	4d070d41 	stcmi	13, cr0, [r7, #-260]	; 0xfffffefc
     cd0:	0d41040e 	cfstrdeq	mvd0, [r1, #-56]	; 0xffffffc8
     cd4:	0ec7410d 	poleqs	f4, f7, #5.0
     cd8:	00000000 	andeq	r0, r0, r0
     cdc:	00000020 	andeq	r0, r0, r0, lsr #32
     ce0:	00000c20 	andeq	r0, r0, r0, lsr #24
     ce4:	00000000 	andeq	r0, r0, r0
     ce8:	00000074 	andeq	r0, r0, r4, ror r0
     cec:	87080e41 	strhi	r0, [r8, -r1, asr #28]
     cf0:	41018e02 	tstmi	r1, r2, lsl #28
     cf4:	0d41280e 	stcleq	8, cr2, [r1, #-56]	; 0xffffffc8
     cf8:	080e7007 	stmdaeq	lr, {r0, r1, r2, ip, sp, lr}
     cfc:	000d0d41 	andeq	r0, sp, r1, asr #26
     d00:	00000024 	andeq	r0, r0, r4, lsr #32
     d04:	00000c20 	andeq	r0, r0, r0, lsr #24
     d08:	00000000 	andeq	r0, r0, r0
     d0c:	0000001c 	andeq	r0, r0, ip, lsl r0
     d10:	87040e41 	strhi	r0, [r4, -r1, asr #28]
     d14:	100e4101 	andne	r4, lr, r1, lsl #2
     d18:	46070d41 	strmi	r0, [r7], -r1, asr #26
     d1c:	0d41040e 	cfstrdeq	mvd0, [r1, #-56]	; 0xffffffc8
     d20:	0ec7410d 	poleqs	f4, f7, #5.0
     d24:	00000000 	andeq	r0, r0, r0
     d28:	00000020 	andeq	r0, r0, r0, lsr #32
     d2c:	00000c20 	andeq	r0, r0, r0, lsr #24
     d30:	00001494 	muleq	r0, r4, r4
     d34:	00000058 	andeq	r0, r0, r8, asr r0
     d38:	87080e41 	strhi	r0, [r8, -r1, asr #28]
     d3c:	41018e02 	tstmi	r1, r2, lsl #28
     d40:	0d41200e 	stcleq	0, cr2, [r1, #-56]	; 0xffffffc8
     d44:	080e6207 	stmdaeq	lr, {r0, r1, r2, r9, sp, lr}
     d48:	000d0d41 	andeq	r0, sp, r1, asr #26
     d4c:	00000024 	andeq	r0, r0, r4, lsr #32
     d50:	00000c20 	andeq	r0, r0, r0, lsr #24
     d54:	00000000 	andeq	r0, r0, r0
     d58:	0000001c 	andeq	r0, r0, ip, lsl r0
     d5c:	87040e41 	strhi	r0, [r4, -r1, asr #28]
     d60:	100e4101 	andne	r4, lr, r1, lsl #2
     d64:	45070d41 	strmi	r0, [r7, #-3393]	; 0xfffff2bf
     d68:	0d41040e 	cfstrdeq	mvd0, [r1, #-56]	; 0xffffffc8
     d6c:	0ec7410d 	poleqs	f4, f7, #5.0
     d70:	00000000 	andeq	r0, r0, r0
     d74:	0000000c 	andeq	r0, r0, ip
     d78:	ffffffff 			; <UNDEFINED> instruction: 0xffffffff
     d7c:	7c020001 	stcvc	0, cr0, [r2], {1}
     d80:	000d0c0e 	andeq	r0, sp, lr, lsl #24
     d84:	00000020 	andeq	r0, r0, r0, lsr #32
     d88:	00000d74 	andeq	r0, r0, r4, ror sp
     d8c:	00000000 	andeq	r0, r0, r0
     d90:	00000090 	muleq	r0, r0, r0
     d94:	87080e41 	strhi	r0, [r8, -r1, asr #28]
     d98:	41018e02 	tstmi	r1, r2, lsl #28
     d9c:	0d41100e 	stcleq	0, cr1, [r1, #-56]	; 0xffffffc8
     da0:	080e7f07 	stmdaeq	lr, {r0, r1, r2, r8, r9, sl, fp, ip, sp, lr}
     da4:	000d0d41 	andeq	r0, sp, r1, asr #26
     da8:	00000020 	andeq	r0, r0, r0, lsr #32
     dac:	00000d74 	andeq	r0, r0, r4, ror sp
     db0:	00000000 	andeq	r0, r0, r0
     db4:	00000090 	muleq	r0, r0, r0
     db8:	87080e41 	strhi	r0, [r8, -r1, asr #28]
     dbc:	41018e02 	tstmi	r1, r2, lsl #28
     dc0:	0d41100e 	stcleq	0, cr1, [r1, #-56]	; 0xffffffc8
     dc4:	080e7f07 	stmdaeq	lr, {r0, r1, r2, r8, r9, sl, fp, ip, sp, lr}
     dc8:	000d0d41 	andeq	r0, sp, r1, asr #26
     dcc:	00000020 	andeq	r0, r0, r0, lsr #32
     dd0:	00000d74 	andeq	r0, r0, r4, ror sp
     dd4:	00000000 	andeq	r0, r0, r0
     dd8:	00000090 	muleq	r0, r0, r0
     ddc:	87080e41 	strhi	r0, [r8, -r1, asr #28]
     de0:	41018e02 	tstmi	r1, r2, lsl #28
     de4:	0d41100e 	stcleq	0, cr1, [r1, #-56]	; 0xffffffc8
     de8:	080e7f07 	stmdaeq	lr, {r0, r1, r2, r8, r9, sl, fp, ip, sp, lr}
     dec:	000d0d41 	andeq	r0, sp, r1, asr #26
     df0:	00000020 	andeq	r0, r0, r0, lsr #32
     df4:	00000d74 	andeq	r0, r0, r4, ror sp
     df8:	00000000 	andeq	r0, r0, r0
     dfc:	00000090 	muleq	r0, r0, r0
     e00:	87080e41 	strhi	r0, [r8, -r1, asr #28]
     e04:	41018e02 	tstmi	r1, r2, lsl #28
     e08:	0d41100e 	stcleq	0, cr1, [r1, #-56]	; 0xffffffc8
     e0c:	080e7f07 	stmdaeq	lr, {r0, r1, r2, r8, r9, sl, fp, ip, sp, lr}
     e10:	000d0d41 	andeq	r0, sp, r1, asr #26
     e14:	00000020 	andeq	r0, r0, r0, lsr #32
     e18:	00000d74 	andeq	r0, r0, r4, ror sp
     e1c:	00000000 	andeq	r0, r0, r0
     e20:	00000090 	muleq	r0, r0, r0
     e24:	87080e41 	strhi	r0, [r8, -r1, asr #28]
     e28:	41018e02 	tstmi	r1, r2, lsl #28
     e2c:	0d41100e 	stcleq	0, cr1, [r1, #-56]	; 0xffffffc8
     e30:	080e7f07 	stmdaeq	lr, {r0, r1, r2, r8, r9, sl, fp, ip, sp, lr}
     e34:	000d0d41 	andeq	r0, sp, r1, asr #26
     e38:	00000020 	andeq	r0, r0, r0, lsr #32
     e3c:	00000d74 	andeq	r0, r0, r4, ror sp
     e40:	00000000 	andeq	r0, r0, r0
     e44:	00000090 	muleq	r0, r0, r0
     e48:	87080e41 	strhi	r0, [r8, -r1, asr #28]
     e4c:	41018e02 	tstmi	r1, r2, lsl #28
     e50:	0d41100e 	stcleq	0, cr1, [r1, #-56]	; 0xffffffc8
     e54:	080e7f07 	stmdaeq	lr, {r0, r1, r2, r8, r9, sl, fp, ip, sp, lr}
     e58:	000d0d41 	andeq	r0, sp, r1, asr #26
     e5c:	00000020 	andeq	r0, r0, r0, lsr #32
     e60:	00000d74 	andeq	r0, r0, r4, ror sp
     e64:	00000000 	andeq	r0, r0, r0
     e68:	00000090 	muleq	r0, r0, r0
     e6c:	87080e41 	strhi	r0, [r8, -r1, asr #28]
     e70:	41018e02 	tstmi	r1, r2, lsl #28
     e74:	0d41100e 	stcleq	0, cr1, [r1, #-56]	; 0xffffffc8
     e78:	080e7f07 	stmdaeq	lr, {r0, r1, r2, r8, r9, sl, fp, ip, sp, lr}
     e7c:	000d0d41 	andeq	r0, sp, r1, asr #26
     e80:	00000020 	andeq	r0, r0, r0, lsr #32
     e84:	00000d74 	andeq	r0, r0, r4, ror sp
     e88:	00000000 	andeq	r0, r0, r0
     e8c:	00000090 	muleq	r0, r0, r0
     e90:	87080e41 	strhi	r0, [r8, -r1, asr #28]
     e94:	41018e02 	tstmi	r1, r2, lsl #28
     e98:	0d41100e 	stcleq	0, cr1, [r1, #-56]	; 0xffffffc8
     e9c:	080e7f07 	stmdaeq	lr, {r0, r1, r2, r8, r9, sl, fp, ip, sp, lr}
     ea0:	000d0d41 	andeq	r0, sp, r1, asr #26
     ea4:	00000020 	andeq	r0, r0, r0, lsr #32
     ea8:	00000d74 	andeq	r0, r0, r4, ror sp
     eac:	00000000 	andeq	r0, r0, r0
     eb0:	00000110 	andeq	r0, r0, r0, lsl r1
     eb4:	87080e41 	strhi	r0, [r8, -r1, asr #28]
     eb8:	41018e02 	tstmi	r1, r2, lsl #28
     ebc:	0d41100e 	stcleq	0, cr1, [r1, #-56]	; 0xffffffc8
     ec0:	0e770207 	cdpeq	2, 7, cr0, cr7, cr7, {0}
     ec4:	0d0d4108 	stfeqs	f4, [sp, #-32]	; 0xffffffe0
     ec8:	00000024 	andeq	r0, r0, r4, lsr #32
     ecc:	00000d74 	andeq	r0, r0, r4, ror sp
     ed0:	00000000 	andeq	r0, r0, r0
     ed4:	000000b8 	strheq	r0, [r0], -r8
     ed8:	87040e41 	strhi	r0, [r4, -r1, asr #28]
     edc:	100e4101 	andne	r4, lr, r1, lsl #2
     ee0:	02070d41 	andeq	r0, r7, #4160	; 0x1040
     ee4:	41040e51 	tstmi	r4, r1, asr lr
     ee8:	c7410d0d 	strbgt	r0, [r1, -sp, lsl #26]
     eec:	0000000e 	andeq	r0, r0, lr
     ef0:	00000024 	andeq	r0, r0, r4, lsr #32
     ef4:	00000d74 	andeq	r0, r0, r4, ror sp
     ef8:	00000000 	andeq	r0, r0, r0
     efc:	0000005c 	andeq	r0, r0, ip, asr r0
     f00:	87040e41 	strhi	r0, [r4, -r1, asr #28]
     f04:	100e4101 	andne	r4, lr, r1, lsl #2
     f08:	62070d41 	andvs	r0, r7, #4160	; 0x1040
     f0c:	0d41040e 	cfstrdeq	mvd0, [r1, #-56]	; 0xffffffc8
     f10:	0ec7410d 	poleqs	f4, f7, #5.0
     f14:	00000000 	andeq	r0, r0, r0
     f18:	00000024 	andeq	r0, r0, r4, lsr #32
     f1c:	00000d74 	andeq	r0, r0, r4, ror sp
     f20:	00000000 	andeq	r0, r0, r0
     f24:	00000058 	andeq	r0, r0, r8, asr r0
     f28:	87040e41 	strhi	r0, [r4, -r1, asr #28]
     f2c:	100e4101 	andne	r4, lr, r1, lsl #2
     f30:	60070d41 	andvs	r0, r7, r1, asr #26
     f34:	0d41040e 	cfstrdeq	mvd0, [r1, #-56]	; 0xffffffc8
     f38:	0ec7410d 	poleqs	f4, f7, #5.0
     f3c:	00000000 	andeq	r0, r0, r0
     f40:	00000020 	andeq	r0, r0, r0, lsr #32
     f44:	00000d74 	andeq	r0, r0, r4, ror sp
     f48:	00000000 	andeq	r0, r0, r0
     f4c:	00000064 	andeq	r0, r0, r4, rrx
     f50:	87080e41 	strhi	r0, [r8, -r1, asr #28]
     f54:	41018e02 	tstmi	r1, r2, lsl #28
     f58:	0d41100e 	stcleq	0, cr1, [r1, #-56]	; 0xffffffc8
     f5c:	080e6507 	stmdaeq	lr, {r0, r1, r2, r8, sl, sp, lr}
     f60:	000d0d41 	andeq	r0, sp, r1, asr #26
     f64:	00000020 	andeq	r0, r0, r0, lsr #32
     f68:	00000d74 	andeq	r0, r0, r4, ror sp
     f6c:	00000000 	andeq	r0, r0, r0
     f70:	00000060 	andeq	r0, r0, r0, rrx
     f74:	87080e41 	strhi	r0, [r8, -r1, asr #28]
     f78:	41018e02 	tstmi	r1, r2, lsl #28
     f7c:	0d41100e 	stcleq	0, cr1, [r1, #-56]	; 0xffffffc8
     f80:	080e6307 	stmdaeq	lr, {r0, r1, r2, r8, r9, sp, lr}
     f84:	000d0d41 	andeq	r0, sp, r1, asr #26
     f88:	00000020 	andeq	r0, r0, r0, lsr #32
     f8c:	00000d74 	andeq	r0, r0, r4, ror sp
     f90:	00000000 	andeq	r0, r0, r0
     f94:	00000098 	muleq	r0, r8, r0
     f98:	87080e41 	strhi	r0, [r8, -r1, asr #28]
     f9c:	41018e02 	tstmi	r1, r2, lsl #28
     fa0:	0d41100e 	stcleq	0, cr1, [r1, #-56]	; 0xffffffc8
     fa4:	080e7807 	stmdaeq	lr, {r0, r1, r2, fp, ip, sp, lr}
     fa8:	000d0d41 	andeq	r0, sp, r1, asr #26
     fac:	00000024 	andeq	r0, r0, r4, lsr #32
     fb0:	00000d74 	andeq	r0, r0, r4, ror sp
     fb4:	00000000 	andeq	r0, r0, r0
     fb8:	0000003c 	andeq	r0, r0, ip, lsr r0
     fbc:	87040e41 	strhi	r0, [r4, -r1, asr #28]
     fc0:	100e4101 	andne	r4, lr, r1, lsl #2
     fc4:	54070d41 	strpl	r0, [r7], #-3393	; 0xfffff2bf
     fc8:	0d41040e 	cfstrdeq	mvd0, [r1, #-56]	; 0xffffffc8
     fcc:	0ec7410d 	poleqs	f4, f7, #5.0
     fd0:	00000000 	andeq	r0, r0, r0
     fd4:	00000020 	andeq	r0, r0, r0, lsr #32
     fd8:	00000d74 	andeq	r0, r0, r4, ror sp
     fdc:	00000000 	andeq	r0, r0, r0
     fe0:	00000054 	andeq	r0, r0, r4, asr r0
     fe4:	87080e41 	strhi	r0, [r8, -r1, asr #28]
     fe8:	41018e02 	tstmi	r1, r2, lsl #28
     fec:	0d41100e 	stcleq	0, cr1, [r1, #-56]	; 0xffffffc8
     ff0:	080e5d07 	stmdaeq	lr, {r0, r1, r2, r8, sl, fp, ip, lr}
     ff4:	000d0d41 	andeq	r0, sp, r1, asr #26
     ff8:	00000020 	andeq	r0, r0, r0, lsr #32
     ffc:	00000d74 	andeq	r0, r0, r4, ror sp
    1000:	00000000 	andeq	r0, r0, r0
    1004:	00000054 	andeq	r0, r0, r4, asr r0
    1008:	87080e41 	strhi	r0, [r8, -r1, asr #28]
    100c:	41018e02 	tstmi	r1, r2, lsl #28
    1010:	0d41100e 	stcleq	0, cr1, [r1, #-56]	; 0xffffffc8
    1014:	080e5d07 	stmdaeq	lr, {r0, r1, r2, r8, sl, fp, ip, lr}
    1018:	000d0d41 	andeq	r0, sp, r1, asr #26
    101c:	00000020 	andeq	r0, r0, r0, lsr #32
    1020:	00000d74 	andeq	r0, r0, r4, ror sp
    1024:	00000000 	andeq	r0, r0, r0
    1028:	0000005c 	andeq	r0, r0, ip, asr r0
    102c:	87080e41 	strhi	r0, [r8, -r1, asr #28]
    1030:	41018e02 	tstmi	r1, r2, lsl #28
    1034:	0d41100e 	stcleq	0, cr1, [r1, #-56]	; 0xffffffc8
    1038:	080e6307 	stmdaeq	lr, {r0, r1, r2, r8, r9, sp, lr}
    103c:	000d0d41 	andeq	r0, sp, r1, asr #26
    1040:	00000024 	andeq	r0, r0, r4, lsr #32
    1044:	00000d74 	andeq	r0, r0, r4, ror sp
    1048:	00000000 	andeq	r0, r0, r0
    104c:	00000024 	andeq	r0, r0, r4, lsr #32
    1050:	87040e41 	strhi	r0, [r4, -r1, asr #28]
    1054:	100e4101 	andne	r4, lr, r1, lsl #2
    1058:	4a070d41 	bmi	1c4564 <_E_text+0x1c3078>
    105c:	0d41040e 	cfstrdeq	mvd0, [r1, #-56]	; 0xffffffc8
    1060:	0ec7410d 	poleqs	f4, f7, #5.0
    1064:	00000000 	andeq	r0, r0, r0
    1068:	00000024 	andeq	r0, r0, r4, lsr #32
    106c:	00000d74 	andeq	r0, r0, r4, ror sp
    1070:	00000000 	andeq	r0, r0, r0
    1074:	00000024 	andeq	r0, r0, r4, lsr #32
    1078:	87040e41 	strhi	r0, [r4, -r1, asr #28]
    107c:	100e4101 	andne	r4, lr, r1, lsl #2
    1080:	4a070d41 	bmi	1c458c <_E_text+0x1c30a0>
    1084:	0d41040e 	cfstrdeq	mvd0, [r1, #-56]	; 0xffffffc8
    1088:	0ec7410d 	poleqs	f4, f7, #5.0
    108c:	00000000 	andeq	r0, r0, r0
    1090:	00000024 	andeq	r0, r0, r4, lsr #32
    1094:	00000d74 	andeq	r0, r0, r4, ror sp
    1098:	00000000 	andeq	r0, r0, r0
    109c:	00000024 	andeq	r0, r0, r4, lsr #32
    10a0:	87040e41 	strhi	r0, [r4, -r1, asr #28]
    10a4:	100e4101 	andne	r4, lr, r1, lsl #2
    10a8:	4a070d41 	bmi	1c45b4 <_E_text+0x1c30c8>
    10ac:	0d41040e 	cfstrdeq	mvd0, [r1, #-56]	; 0xffffffc8
    10b0:	0ec7410d 	poleqs	f4, f7, #5.0
    10b4:	00000000 	andeq	r0, r0, r0
    10b8:	00000024 	andeq	r0, r0, r4, lsr #32
    10bc:	00000d74 	andeq	r0, r0, r4, ror sp
    10c0:	00000000 	andeq	r0, r0, r0
    10c4:	00000024 	andeq	r0, r0, r4, lsr #32
    10c8:	87040e41 	strhi	r0, [r4, -r1, asr #28]
    10cc:	100e4101 	andne	r4, lr, r1, lsl #2
    10d0:	4a070d41 	bmi	1c45dc <_E_text+0x1c30f0>
    10d4:	0d41040e 	cfstrdeq	mvd0, [r1, #-56]	; 0xffffffc8
    10d8:	0ec7410d 	poleqs	f4, f7, #5.0
    10dc:	00000000 	andeq	r0, r0, r0
    10e0:	00000024 	andeq	r0, r0, r4, lsr #32
    10e4:	00000d74 	andeq	r0, r0, r4, ror sp
    10e8:	00000000 	andeq	r0, r0, r0
    10ec:	00000024 	andeq	r0, r0, r4, lsr #32
    10f0:	87040e41 	strhi	r0, [r4, -r1, asr #28]
    10f4:	100e4101 	andne	r4, lr, r1, lsl #2
    10f8:	4a070d41 	bmi	1c4604 <_E_text+0x1c3118>
    10fc:	0d41040e 	cfstrdeq	mvd0, [r1, #-56]	; 0xffffffc8
    1100:	0ec7410d 	poleqs	f4, f7, #5.0
    1104:	00000000 	andeq	r0, r0, r0
    1108:	00000024 	andeq	r0, r0, r4, lsr #32
    110c:	00000d74 	andeq	r0, r0, r4, ror sp
    1110:	00000000 	andeq	r0, r0, r0
    1114:	00000024 	andeq	r0, r0, r4, lsr #32
    1118:	87040e41 	strhi	r0, [r4, -r1, asr #28]
    111c:	100e4101 	andne	r4, lr, r1, lsl #2
    1120:	4a070d41 	bmi	1c462c <_E_text+0x1c3140>
    1124:	0d41040e 	cfstrdeq	mvd0, [r1, #-56]	; 0xffffffc8
    1128:	0ec7410d 	poleqs	f4, f7, #5.0
    112c:	00000000 	andeq	r0, r0, r0
    1130:	00000024 	andeq	r0, r0, r4, lsr #32
    1134:	00000d74 	andeq	r0, r0, r4, ror sp
    1138:	00000000 	andeq	r0, r0, r0
    113c:	00000024 	andeq	r0, r0, r4, lsr #32
    1140:	87040e41 	strhi	r0, [r4, -r1, asr #28]
    1144:	100e4101 	andne	r4, lr, r1, lsl #2
    1148:	4a070d41 	bmi	1c4654 <_E_text+0x1c3168>
    114c:	0d41040e 	cfstrdeq	mvd0, [r1, #-56]	; 0xffffffc8
    1150:	0ec7410d 	poleqs	f4, f7, #5.0
    1154:	00000000 	andeq	r0, r0, r0
    1158:	00000024 	andeq	r0, r0, r4, lsr #32
    115c:	00000d74 	andeq	r0, r0, r4, ror sp
    1160:	00000000 	andeq	r0, r0, r0
    1164:	00000024 	andeq	r0, r0, r4, lsr #32
    1168:	87040e41 	strhi	r0, [r4, -r1, asr #28]
    116c:	100e4101 	andne	r4, lr, r1, lsl #2
    1170:	4a070d41 	bmi	1c467c <_E_text+0x1c3190>
    1174:	0d41040e 	cfstrdeq	mvd0, [r1, #-56]	; 0xffffffc8
    1178:	0ec7410d 	poleqs	f4, f7, #5.0
    117c:	00000000 	andeq	r0, r0, r0
