
C:\Users\DELL\htc-workspace\tc27x_bsp_example\_iROM_TC27X_TRIBOARD_TC2X7_V1_0\tc27x_bsp_example.elf:     file format elf32-tricore


Disassembly of section .bmhd_0_org:

a0000000 <BMHD>:
a0000000:	20 00       	sub.a %sp,0
a0000002:	00 80       	rfe 
a0000004:	70 03       	.hword 0x0370
a0000006:	59 b3 00 00 	st.w [%a11]0,%d3
	...
a0000016:	00 00       	nop 
a0000018:	b4 b5       	st.h [%a11],%d5
a000001a:	e9 49 4b 4a 	st.b [%a4]-23285,%d9
a000001e:	16 b6       	and %d15,182

Disassembly of section .crt0_boot:

80000020 <_crt0_reset>:
80000020:	91 00 00 f8 	movh.a %a15,32768
80000024:	d9 ff 90 34 	lea %a15,[%a15]18640 <800048d0 <_start>>
80000028:	2d 0f 30 00 	ji %a15

Disassembly of section .bsp_trap_reset:

80000100 <BSP_TRAP_VECTOR_TABLE>:
80000100:	00 a0       	debug 
80000102:	0d 00 00 02 	svlcx 
80000106:	91 00 00 e8 	movh.a %a14,32768
8000010a:	d9 ee 00 80 	lea %a14,[%a14]512 <80000200 <Trap_0_Handler>>
8000010e:	dc 0e       	ji %a14
	...
80000120:	00 a0       	debug 
80000122:	0d 00 00 02 	svlcx 
80000126:	91 00 00 e8 	movh.a %a14,32768
8000012a:	d9 ee 2e a0 	lea %a14,[%a14]686 <800002ae <Trap_1_Handler>>
8000012e:	dc 0e       	ji %a14
	...
80000140:	00 a0       	debug 
80000142:	0d 00 00 02 	svlcx 
80000146:	91 00 00 e8 	movh.a %a14,32768
8000014a:	d9 ee 52 10 	lea %a14,[%a14]1106 <80000452 <Trap_2_Handler>>
8000014e:	dc 0e       	ji %a14
	...
80000160:	00 a0       	debug 
80000162:	0d 00 00 02 	svlcx 
80000166:	91 00 00 e8 	movh.a %a14,32768
8000016a:	d9 ee 58 60 	lea %a14,[%a14]1432 <80000598 <Trap_3_Handler>>
8000016e:	dc 0e       	ji %a14
	...
80000180:	00 a0       	debug 
80000182:	0d 00 00 02 	svlcx 
80000186:	91 00 00 e8 	movh.a %a14,32768
8000018a:	d9 ee 7a c0 	lea %a14,[%a14]1850 <8000073a <Trap_4_Handler>>
8000018e:	dc 0e       	ji %a14
	...
800001a0:	00 a0       	debug 
800001a2:	0d 00 00 02 	svlcx 
800001a6:	91 00 00 e8 	movh.a %a14,32768
800001aa:	d9 ee 92 00 	lea %a14,[%a14]2066 <80000812 <Trap_5_Handler>>
800001ae:	dc 0e       	ji %a14
	...
800001c0:	00 a0       	debug 
800001c2:	0d 00 00 02 	svlcx 
800001c6:	91 00 00 e8 	movh.a %a14,32768
800001ca:	d9 ee a8 10 	lea %a14,[%a14]2152 <80000868 <Trap_6_Handler>>
800001ce:	dc 0e       	ji %a14
	...
800001e0:	00 a0       	debug 
800001e2:	0d 00 00 02 	svlcx 
800001e6:	91 00 00 e8 	movh.a %a14,32768
800001ea:	d9 ee be 20 	lea %a14,[%a14]2238 <800008be <Trap_7_Handler>>
800001ee:	dc 0e       	ji %a14
	...

80000200 <Trap_0_Handler>:
80000200:	40 ae       	mov.aa %a14,%sp
80000202:	20 08       	sub.a %sp,8
80000204:	02 ff       	mov %d15,%d15
80000206:	59 ef fc ff 	st.w [%a14]-4,%d15
8000020a:	19 ef fc ff 	ld.w %d15,[%a14]-4
8000020e:	6e 03       	jz %d15,80000214 <Trap_0_Handler+0x14>
80000210:	9e 15       	jeq %d15,1,8000023a <Trap_0_Handler+0x3a>
80000212:	3c 27       	j 80000260 <Trap_0_Handler+0x60>
80000214:	7b 00 00 f7 	movh %d15,28672
80000218:	1b 8f 13 f6 	addi %d15,%d15,24888
8000021c:	60 ff       	mov.a %a15,%d15
8000021e:	09 f2 40 09 	ld.d %e2,[%a15]
80000222:	8b 12 80 80 	addx %d8,%d2,1
80000226:	8b 03 a0 90 	addc %d9,%d3,0
8000022a:	7b 00 00 f7 	movh %d15,28672
8000022e:	1b 8f 13 f6 	addi %d15,%d15,24888
80000232:	60 ff       	mov.a %a15,%d15
80000234:	89 f8 40 09 	st.d [%a15],%e8
80000238:	3c 27       	j 80000286 <Trap_0_Handler+0x86>
8000023a:	7b 00 00 f7 	movh %d15,28672
8000023e:	1b 8f 13 f6 	addi %d15,%d15,24888
80000242:	60 ff       	mov.a %a15,%d15
80000244:	09 f2 48 09 	ld.d %e2,[%a15]8
80000248:	8b 12 80 00 	addx %d0,%d2,1
8000024c:	8b 03 a0 10 	addc %d1,%d3,0
80000250:	7b 00 00 f7 	movh %d15,28672
80000254:	1b 8f 13 f6 	addi %d15,%d15,24888
80000258:	60 ff       	mov.a %a15,%d15
8000025a:	89 f0 48 09 	st.d [%a15]8,%e0
8000025e:	3c 14       	j 80000286 <Trap_0_Handler+0x86>
80000260:	7b 00 00 f7 	movh %d15,28672
80000264:	1b 8f 13 f6 	addi %d15,%d15,24888
80000268:	60 ff       	mov.a %a15,%d15
8000026a:	09 f2 50 09 	ld.d %e2,[%a15]16
8000026e:	8b 12 80 60 	addx %d6,%d2,1
80000272:	8b 03 a0 70 	addc %d7,%d3,0
80000276:	7b 00 00 f7 	movh %d15,28672
8000027a:	1b 8f 13 f6 	addi %d15,%d15,24888
8000027e:	60 ff       	mov.a %a15,%d15
80000280:	89 f6 50 09 	st.d [%a15]16,%e6
80000284:	00 00       	nop 
80000286:	00 a0       	debug 
80000288:	7b 00 00 f7 	movh %d15,28672
8000028c:	1b 8f 13 f6 	addi %d15,%d15,24888
80000290:	60 ff       	mov.a %a15,%d15
80000292:	09 f2 58 09 	ld.d %e2,[%a15]24
80000296:	8b 12 80 40 	addx %d4,%d2,1
8000029a:	8b 03 a0 50 	addc %d5,%d3,0
8000029e:	7b 00 00 f7 	movh %d15,28672
800002a2:	1b 8f 13 f6 	addi %d15,%d15,24888
800002a6:	60 ff       	mov.a %a15,%d15
800002a8:	89 f4 58 09 	st.d [%a15]24,%e4
800002ac:	3c ee       	j 80000288 <Trap_0_Handler+0x88>

800002ae <Trap_1_Handler>:
800002ae:	40 ae       	mov.aa %a14,%sp
800002b0:	20 08       	sub.a %sp,8
800002b2:	02 f2       	mov %d2,%d15
800002b4:	59 e2 fc ff 	st.w [%a14]-4,%d2
800002b8:	7b 00 00 28 	movh %d2,32768
800002bc:	1b 42 2d 30 	addi %d3,%d2,724
800002c0:	19 e2 fc ff 	ld.w %d2,[%a14]-4
800002c4:	c2 f2       	add %d2,-1
800002c6:	ff 72 9f 80 	jge.u %d2,7,80000404 <Trap_1_Handler+0x156>
800002ca:	13 42 20 23 	madd %d2,%d3,%d2,4
800002ce:	60 2f       	mov.a %a15,%d2
800002d0:	dc 0f       	ji %a15
800002d2:	00 00       	nop 
800002d4:	1d 00 0e 00 	j 800002f0 <Trap_1_Handler+0x42>
800002d8:	1d 00 22 00 	j 8000031c <Trap_1_Handler+0x6e>
800002dc:	1d 00 35 00 	j 80000346 <Trap_1_Handler+0x98>
800002e0:	1d 00 46 00 	j 8000036c <Trap_1_Handler+0xbe>
800002e4:	1d 00 57 00 	j 80000392 <Trap_1_Handler+0xe4>
800002e8:	1d 00 68 00 	j 800003b8 <Trap_1_Handler+0x10a>
800002ec:	1d 00 79 00 	j 800003de <Trap_1_Handler+0x130>
800002f0:	7b 00 00 f7 	movh %d15,28672
800002f4:	1b 0f 0f f6 	addi %d15,%d15,24816
800002f8:	60 ff       	mov.a %a15,%d15
800002fa:	09 f2 40 09 	ld.d %e2,[%a15]
800002fe:	8b 12 80 f0 	addx %d15,%d2,1
80000302:	60 f4       	mov.a %a4,%d15
80000304:	8b 03 a0 f0 	addc %d15,%d3,0
80000308:	60 f5       	mov.a %a5,%d15
8000030a:	7b 00 00 f7 	movh %d15,28672
8000030e:	1b 0f 0f f6 	addi %d15,%d15,24816
80000312:	60 ff       	mov.a %a15,%d15
80000314:	89 f4 c0 09 	st.da [%a15],%a4
80000318:	1d 00 89 00 	j 8000042a <Trap_1_Handler+0x17c>
8000031c:	7b 00 00 f7 	movh %d15,28672
80000320:	1b 0f 0f f6 	addi %d15,%d15,24816
80000324:	60 ff       	mov.a %a15,%d15
80000326:	09 f2 48 09 	ld.d %e2,[%a15]8
8000032a:	8b 12 80 f0 	addx %d15,%d2,1
8000032e:	60 f2       	mov.a %a2,%d15
80000330:	8b 03 a0 f0 	addc %d15,%d3,0
80000334:	60 f3       	mov.a %a3,%d15
80000336:	7b 00 00 f7 	movh %d15,28672
8000033a:	1b 0f 0f f6 	addi %d15,%d15,24816
8000033e:	60 ff       	mov.a %a15,%d15
80000340:	89 f2 c8 09 	st.da [%a15]8,%a2
80000344:	3c 73       	j 8000042a <Trap_1_Handler+0x17c>
80000346:	7b 00 00 27 	movh %d2,28672
8000034a:	1b 02 0f 26 	addi %d2,%d2,24816
8000034e:	60 2f       	mov.a %a15,%d2
80000350:	09 f2 50 09 	ld.d %e2,[%a15]16
80000354:	8b 12 80 e0 	addx %d14,%d2,1
80000358:	8b 03 a0 f0 	addc %d15,%d3,0
8000035c:	7b 00 00 27 	movh %d2,28672
80000360:	1b 02 0f 26 	addi %d2,%d2,24816
80000364:	60 2f       	mov.a %a15,%d2
80000366:	89 fe 50 09 	st.d [%a15]16,%e14
8000036a:	3c 60       	j 8000042a <Trap_1_Handler+0x17c>
8000036c:	7b 00 00 f7 	movh %d15,28672
80000370:	1b 0f 0f f6 	addi %d15,%d15,24816
80000374:	60 ff       	mov.a %a15,%d15
80000376:	09 f2 58 09 	ld.d %e2,[%a15]24
8000037a:	8b 12 80 c0 	addx %d12,%d2,1
8000037e:	8b 03 a0 d0 	addc %d13,%d3,0
80000382:	7b 00 00 f7 	movh %d15,28672
80000386:	1b 0f 0f f6 	addi %d15,%d15,24816
8000038a:	60 ff       	mov.a %a15,%d15
8000038c:	89 fc 58 09 	st.d [%a15]24,%e12
80000390:	3c 4d       	j 8000042a <Trap_1_Handler+0x17c>
80000392:	7b 00 00 f7 	movh %d15,28672
80000396:	1b 0f 0f f6 	addi %d15,%d15,24816
8000039a:	60 ff       	mov.a %a15,%d15
8000039c:	09 f2 60 09 	ld.d %e2,[%a15]32
800003a0:	8b 12 80 a0 	addx %d10,%d2,1
800003a4:	8b 03 a0 b0 	addc %d11,%d3,0
800003a8:	7b 00 00 f7 	movh %d15,28672
800003ac:	1b 0f 0f f6 	addi %d15,%d15,24816
800003b0:	60 ff       	mov.a %a15,%d15
800003b2:	89 fa 60 09 	st.d [%a15]32,%e10
800003b6:	3c 3a       	j 8000042a <Trap_1_Handler+0x17c>
800003b8:	7b 00 00 f7 	movh %d15,28672
800003bc:	1b 0f 0f f6 	addi %d15,%d15,24816
800003c0:	60 ff       	mov.a %a15,%d15
800003c2:	09 f2 68 09 	ld.d %e2,[%a15]40
800003c6:	8b 12 80 80 	addx %d8,%d2,1
800003ca:	8b 03 a0 90 	addc %d9,%d3,0
800003ce:	7b 00 00 f7 	movh %d15,28672
800003d2:	1b 0f 0f f6 	addi %d15,%d15,24816
800003d6:	60 ff       	mov.a %a15,%d15
800003d8:	89 f8 68 09 	st.d [%a15]40,%e8
800003dc:	3c 27       	j 8000042a <Trap_1_Handler+0x17c>
800003de:	7b 00 00 f7 	movh %d15,28672
800003e2:	1b 0f 0f f6 	addi %d15,%d15,24816
800003e6:	60 ff       	mov.a %a15,%d15
800003e8:	09 f2 70 09 	ld.d %e2,[%a15]48
800003ec:	8b 12 80 00 	addx %d0,%d2,1
800003f0:	8b 03 a0 10 	addc %d1,%d3,0
800003f4:	7b 00 00 f7 	movh %d15,28672
800003f8:	1b 0f 0f f6 	addi %d15,%d15,24816
800003fc:	60 ff       	mov.a %a15,%d15
800003fe:	89 f0 70 09 	st.d [%a15]48,%e0
80000402:	3c 14       	j 8000042a <Trap_1_Handler+0x17c>
80000404:	7b 00 00 f7 	movh %d15,28672
80000408:	1b 0f 0f f6 	addi %d15,%d15,24816
8000040c:	60 ff       	mov.a %a15,%d15
8000040e:	09 f2 78 09 	ld.d %e2,[%a15]56
80000412:	8b 12 80 60 	addx %d6,%d2,1
80000416:	8b 03 a0 70 	addc %d7,%d3,0
8000041a:	7b 00 00 f7 	movh %d15,28672
8000041e:	1b 0f 0f f6 	addi %d15,%d15,24816
80000422:	60 ff       	mov.a %a15,%d15
80000424:	89 f6 78 09 	st.d [%a15]56,%e6
80000428:	00 00       	nop 
8000042a:	00 a0       	debug 
8000042c:	7b 00 00 f7 	movh %d15,28672
80000430:	1b 0f 0f f6 	addi %d15,%d15,24816
80000434:	60 ff       	mov.a %a15,%d15
80000436:	09 f2 40 19 	ld.d %e2,[%a15]64
8000043a:	8b 12 80 40 	addx %d4,%d2,1
8000043e:	8b 03 a0 50 	addc %d5,%d3,0
80000442:	7b 00 00 f7 	movh %d15,28672
80000446:	1b 0f 0f f6 	addi %d15,%d15,24816
8000044a:	60 ff       	mov.a %a15,%d15
8000044c:	89 f4 40 19 	st.d [%a15]64,%e4
80000450:	3c ee       	j 8000042c <Trap_1_Handler+0x17e>

80000452 <Trap_2_Handler>:
80000452:	40 ae       	mov.aa %a14,%sp
80000454:	20 08       	sub.a %sp,8
80000456:	02 f2       	mov %d2,%d15
80000458:	59 e2 fc ff 	st.w [%a14]-4,%d2
8000045c:	7b 00 00 28 	movh %d2,32768
80000460:	1b 82 47 30 	addi %d3,%d2,1144
80000464:	19 e2 fc ff 	ld.w %d2,[%a14]-4
80000468:	c2 f2       	add %d2,-1
8000046a:	ff 52 70 80 	jge.u %d2,5,8000054a <Trap_2_Handler+0xf8>
8000046e:	13 42 20 23 	madd %d2,%d3,%d2,4
80000472:	60 2f       	mov.a %a15,%d2
80000474:	dc 0f       	ji %a15
80000476:	00 00       	nop 
80000478:	1d 00 0a 00 	j 8000048c <Trap_2_Handler+0x3a>
8000047c:	1d 00 1b 00 	j 800004b2 <Trap_2_Handler+0x60>
80000480:	1d 00 2c 00 	j 800004d8 <Trap_2_Handler+0x86>
80000484:	1d 00 3d 00 	j 800004fe <Trap_2_Handler+0xac>
80000488:	1d 00 4e 00 	j 80000524 <Trap_2_Handler+0xd2>
8000048c:	7b 00 00 27 	movh %d2,28672
80000490:	1b 82 0b 26 	addi %d2,%d2,24760
80000494:	60 2f       	mov.a %a15,%d2
80000496:	09 f2 40 09 	ld.d %e2,[%a15]
8000049a:	8b 12 80 e0 	addx %d14,%d2,1
8000049e:	8b 03 a0 f0 	addc %d15,%d3,0
800004a2:	7b 00 00 27 	movh %d2,28672
800004a6:	1b 82 0b 26 	addi %d2,%d2,24760
800004aa:	60 2f       	mov.a %a15,%d2
800004ac:	89 fe 40 09 	st.d [%a15],%e14
800004b0:	3c 60       	j 80000570 <Trap_2_Handler+0x11e>
800004b2:	7b 00 00 f7 	movh %d15,28672
800004b6:	1b 8f 0b f6 	addi %d15,%d15,24760
800004ba:	60 ff       	mov.a %a15,%d15
800004bc:	09 f2 48 09 	ld.d %e2,[%a15]8
800004c0:	8b 12 80 c0 	addx %d12,%d2,1
800004c4:	8b 03 a0 d0 	addc %d13,%d3,0
800004c8:	7b 00 00 f7 	movh %d15,28672
800004cc:	1b 8f 0b f6 	addi %d15,%d15,24760
800004d0:	60 ff       	mov.a %a15,%d15
800004d2:	89 fc 48 09 	st.d [%a15]8,%e12
800004d6:	3c 4d       	j 80000570 <Trap_2_Handler+0x11e>
800004d8:	7b 00 00 f7 	movh %d15,28672
800004dc:	1b 8f 0b f6 	addi %d15,%d15,24760
800004e0:	60 ff       	mov.a %a15,%d15
800004e2:	09 f2 50 09 	ld.d %e2,[%a15]16
800004e6:	8b 12 80 a0 	addx %d10,%d2,1
800004ea:	8b 03 a0 b0 	addc %d11,%d3,0
800004ee:	7b 00 00 f7 	movh %d15,28672
800004f2:	1b 8f 0b f6 	addi %d15,%d15,24760
800004f6:	60 ff       	mov.a %a15,%d15
800004f8:	89 fa 50 09 	st.d [%a15]16,%e10
800004fc:	3c 3a       	j 80000570 <Trap_2_Handler+0x11e>
800004fe:	7b 00 00 f7 	movh %d15,28672
80000502:	1b 8f 0b f6 	addi %d15,%d15,24760
80000506:	60 ff       	mov.a %a15,%d15
80000508:	09 f2 58 09 	ld.d %e2,[%a15]24
8000050c:	8b 12 80 80 	addx %d8,%d2,1
80000510:	8b 03 a0 90 	addc %d9,%d3,0
80000514:	7b 00 00 f7 	movh %d15,28672
80000518:	1b 8f 0b f6 	addi %d15,%d15,24760
8000051c:	60 ff       	mov.a %a15,%d15
8000051e:	89 f8 58 09 	st.d [%a15]24,%e8
80000522:	3c 27       	j 80000570 <Trap_2_Handler+0x11e>
80000524:	7b 00 00 f7 	movh %d15,28672
80000528:	1b 8f 0b f6 	addi %d15,%d15,24760
8000052c:	60 ff       	mov.a %a15,%d15
8000052e:	09 f2 60 09 	ld.d %e2,[%a15]32
80000532:	8b 12 80 00 	addx %d0,%d2,1
80000536:	8b 03 a0 10 	addc %d1,%d3,0
8000053a:	7b 00 00 f7 	movh %d15,28672
8000053e:	1b 8f 0b f6 	addi %d15,%d15,24760
80000542:	60 ff       	mov.a %a15,%d15
80000544:	89 f0 60 09 	st.d [%a15]32,%e0
80000548:	3c 14       	j 80000570 <Trap_2_Handler+0x11e>
8000054a:	7b 00 00 f7 	movh %d15,28672
8000054e:	1b 8f 0b f6 	addi %d15,%d15,24760
80000552:	60 ff       	mov.a %a15,%d15
80000554:	09 f2 68 09 	ld.d %e2,[%a15]40
80000558:	8b 12 80 60 	addx %d6,%d2,1
8000055c:	8b 03 a0 70 	addc %d7,%d3,0
80000560:	7b 00 00 f7 	movh %d15,28672
80000564:	1b 8f 0b f6 	addi %d15,%d15,24760
80000568:	60 ff       	mov.a %a15,%d15
8000056a:	89 f6 68 09 	st.d [%a15]40,%e6
8000056e:	00 00       	nop 
80000570:	00 a0       	debug 
80000572:	7b 00 00 f7 	movh %d15,28672
80000576:	1b 8f 0b f6 	addi %d15,%d15,24760
8000057a:	60 ff       	mov.a %a15,%d15
8000057c:	09 f2 70 09 	ld.d %e2,[%a15]48
80000580:	8b 12 80 40 	addx %d4,%d2,1
80000584:	8b 03 a0 50 	addc %d5,%d3,0
80000588:	7b 00 00 f7 	movh %d15,28672
8000058c:	1b 8f 0b f6 	addi %d15,%d15,24760
80000590:	60 ff       	mov.a %a15,%d15
80000592:	89 f4 70 09 	st.d [%a15]48,%e4
80000596:	3c ee       	j 80000572 <Trap_2_Handler+0x120>

80000598 <Trap_3_Handler>:
80000598:	40 ae       	mov.aa %a14,%sp
8000059a:	20 08       	sub.a %sp,8
8000059c:	02 f2       	mov %d2,%d15
8000059e:	59 e2 fc ff 	st.w [%a14]-4,%d2
800005a2:	7b 00 00 28 	movh %d2,32768
800005a6:	1b c2 5b 30 	addi %d3,%d2,1468
800005aa:	19 e2 fc ff 	ld.w %d2,[%a14]-4
800005ae:	c2 f2       	add %d2,-1
800005b0:	ff 72 9e 80 	jge.u %d2,7,800006ec <Trap_3_Handler+0x154>
800005b4:	13 42 20 23 	madd %d2,%d3,%d2,4
800005b8:	60 2f       	mov.a %a15,%d2
800005ba:	dc 0f       	ji %a15
800005bc:	1d 00 0e 00 	j 800005d8 <Trap_3_Handler+0x40>
800005c0:	1d 00 22 00 	j 80000604 <Trap_3_Handler+0x6c>
800005c4:	1d 00 35 00 	j 8000062e <Trap_3_Handler+0x96>
800005c8:	1d 00 46 00 	j 80000654 <Trap_3_Handler+0xbc>
800005cc:	1d 00 57 00 	j 8000067a <Trap_3_Handler+0xe2>
800005d0:	1d 00 68 00 	j 800006a0 <Trap_3_Handler+0x108>
800005d4:	1d 00 79 00 	j 800006c6 <Trap_3_Handler+0x12e>
800005d8:	7b 00 00 f7 	movh %d15,28672
800005dc:	1b 0f 07 f6 	addi %d15,%d15,24688
800005e0:	60 ff       	mov.a %a15,%d15
800005e2:	09 f2 40 09 	ld.d %e2,[%a15]
800005e6:	8b 12 80 f0 	addx %d15,%d2,1
800005ea:	60 f4       	mov.a %a4,%d15
800005ec:	8b 03 a0 f0 	addc %d15,%d3,0
800005f0:	60 f5       	mov.a %a5,%d15
800005f2:	7b 00 00 f7 	movh %d15,28672
800005f6:	1b 0f 07 f6 	addi %d15,%d15,24688
800005fa:	60 ff       	mov.a %a15,%d15
800005fc:	89 f4 c0 09 	st.da [%a15],%a4
80000600:	1d 00 89 00 	j 80000712 <Trap_3_Handler+0x17a>
80000604:	7b 00 00 f7 	movh %d15,28672
80000608:	1b 0f 07 f6 	addi %d15,%d15,24688
8000060c:	60 ff       	mov.a %a15,%d15
8000060e:	09 f2 48 09 	ld.d %e2,[%a15]8
80000612:	8b 12 80 f0 	addx %d15,%d2,1
80000616:	60 f2       	mov.a %a2,%d15
80000618:	8b 03 a0 f0 	addc %d15,%d3,0
8000061c:	60 f3       	mov.a %a3,%d15
8000061e:	7b 00 00 f7 	movh %d15,28672
80000622:	1b 0f 07 f6 	addi %d15,%d15,24688
80000626:	60 ff       	mov.a %a15,%d15
80000628:	89 f2 c8 09 	st.da [%a15]8,%a2
8000062c:	3c 73       	j 80000712 <Trap_3_Handler+0x17a>
8000062e:	7b 00 00 27 	movh %d2,28672
80000632:	1b 02 07 26 	addi %d2,%d2,24688
80000636:	60 2f       	mov.a %a15,%d2
80000638:	09 f2 50 09 	ld.d %e2,[%a15]16
8000063c:	8b 12 80 e0 	addx %d14,%d2,1
80000640:	8b 03 a0 f0 	addc %d15,%d3,0
80000644:	7b 00 00 27 	movh %d2,28672
80000648:	1b 02 07 26 	addi %d2,%d2,24688
8000064c:	60 2f       	mov.a %a15,%d2
8000064e:	89 fe 50 09 	st.d [%a15]16,%e14
80000652:	3c 60       	j 80000712 <Trap_3_Handler+0x17a>
80000654:	7b 00 00 f7 	movh %d15,28672
80000658:	1b 0f 07 f6 	addi %d15,%d15,24688
8000065c:	60 ff       	mov.a %a15,%d15
8000065e:	09 f2 58 09 	ld.d %e2,[%a15]24
80000662:	8b 12 80 c0 	addx %d12,%d2,1
80000666:	8b 03 a0 d0 	addc %d13,%d3,0
8000066a:	7b 00 00 f7 	movh %d15,28672
8000066e:	1b 0f 07 f6 	addi %d15,%d15,24688
80000672:	60 ff       	mov.a %a15,%d15
80000674:	89 fc 58 09 	st.d [%a15]24,%e12
80000678:	3c 4d       	j 80000712 <Trap_3_Handler+0x17a>
8000067a:	7b 00 00 f7 	movh %d15,28672
8000067e:	1b 0f 07 f6 	addi %d15,%d15,24688
80000682:	60 ff       	mov.a %a15,%d15
80000684:	09 f2 60 09 	ld.d %e2,[%a15]32
80000688:	8b 12 80 a0 	addx %d10,%d2,1
8000068c:	8b 03 a0 b0 	addc %d11,%d3,0
80000690:	7b 00 00 f7 	movh %d15,28672
80000694:	1b 0f 07 f6 	addi %d15,%d15,24688
80000698:	60 ff       	mov.a %a15,%d15
8000069a:	89 fa 60 09 	st.d [%a15]32,%e10
8000069e:	3c 3a       	j 80000712 <Trap_3_Handler+0x17a>
800006a0:	7b 00 00 f7 	movh %d15,28672
800006a4:	1b 0f 07 f6 	addi %d15,%d15,24688
800006a8:	60 ff       	mov.a %a15,%d15
800006aa:	09 f2 68 09 	ld.d %e2,[%a15]40
800006ae:	8b 12 80 80 	addx %d8,%d2,1
800006b2:	8b 03 a0 90 	addc %d9,%d3,0
800006b6:	7b 00 00 f7 	movh %d15,28672
800006ba:	1b 0f 07 f6 	addi %d15,%d15,24688
800006be:	60 ff       	mov.a %a15,%d15
800006c0:	89 f8 68 09 	st.d [%a15]40,%e8
800006c4:	3c 27       	j 80000712 <Trap_3_Handler+0x17a>
800006c6:	7b 00 00 f7 	movh %d15,28672
800006ca:	1b 0f 07 f6 	addi %d15,%d15,24688
800006ce:	60 ff       	mov.a %a15,%d15
800006d0:	09 f2 70 09 	ld.d %e2,[%a15]48
800006d4:	8b 12 80 00 	addx %d0,%d2,1
800006d8:	8b 03 a0 10 	addc %d1,%d3,0
800006dc:	7b 00 00 f7 	movh %d15,28672
800006e0:	1b 0f 07 f6 	addi %d15,%d15,24688
800006e4:	60 ff       	mov.a %a15,%d15
800006e6:	89 f0 70 09 	st.d [%a15]48,%e0
800006ea:	3c 14       	j 80000712 <Trap_3_Handler+0x17a>
800006ec:	7b 00 00 f7 	movh %d15,28672
800006f0:	1b 0f 07 f6 	addi %d15,%d15,24688
800006f4:	60 ff       	mov.a %a15,%d15
800006f6:	09 f2 78 09 	ld.d %e2,[%a15]56
800006fa:	8b 12 80 60 	addx %d6,%d2,1
800006fe:	8b 03 a0 70 	addc %d7,%d3,0
80000702:	7b 00 00 f7 	movh %d15,28672
80000706:	1b 0f 07 f6 	addi %d15,%d15,24688
8000070a:	60 ff       	mov.a %a15,%d15
8000070c:	89 f6 78 09 	st.d [%a15]56,%e6
80000710:	00 00       	nop 
80000712:	00 a0       	debug 
80000714:	7b 00 00 f7 	movh %d15,28672
80000718:	1b 0f 07 f6 	addi %d15,%d15,24688
8000071c:	60 ff       	mov.a %a15,%d15
8000071e:	09 f2 40 19 	ld.d %e2,[%a15]64
80000722:	8b 12 80 40 	addx %d4,%d2,1
80000726:	8b 03 a0 50 	addc %d5,%d3,0
8000072a:	7b 00 00 f7 	movh %d15,28672
8000072e:	1b 0f 07 f6 	addi %d15,%d15,24688
80000732:	60 ff       	mov.a %a15,%d15
80000734:	89 f4 40 19 	st.d [%a15]64,%e4
80000738:	3c ee       	j 80000714 <Trap_3_Handler+0x17c>

8000073a <Trap_4_Handler>:
8000073a:	40 ae       	mov.aa %a14,%sp
8000073c:	20 08       	sub.a %sp,8
8000073e:	02 ff       	mov %d15,%d15
80000740:	59 ef fc ff 	st.w [%a14]-4,%d15
80000744:	19 ef fc ff 	ld.w %d15,[%a14]-4
80000748:	9e 28       	jeq %d15,2,80000778 <Trap_4_Handler+0x3e>
8000074a:	df 3f 2a 00 	jeq %d15,3,8000079e <Trap_4_Handler+0x64>
8000074e:	df 1f 3b 80 	jne %d15,1,800007c4 <Trap_4_Handler+0x8a>
80000752:	7b 00 00 f7 	movh %d15,28672
80000756:	1b 8f 04 f6 	addi %d15,%d15,24648
8000075a:	60 ff       	mov.a %a15,%d15
8000075c:	09 f2 40 09 	ld.d %e2,[%a15]
80000760:	8b 12 80 a0 	addx %d10,%d2,1
80000764:	8b 03 a0 b0 	addc %d11,%d3,0
80000768:	7b 00 00 f7 	movh %d15,28672
8000076c:	1b 8f 04 f6 	addi %d15,%d15,24648
80000770:	60 ff       	mov.a %a15,%d15
80000772:	89 fa 40 09 	st.d [%a15],%e10
80000776:	3c 3a       	j 800007ea <Trap_4_Handler+0xb0>
80000778:	7b 00 00 f7 	movh %d15,28672
8000077c:	1b 8f 04 f6 	addi %d15,%d15,24648
80000780:	60 ff       	mov.a %a15,%d15
80000782:	09 f2 48 09 	ld.d %e2,[%a15]8
80000786:	8b 12 80 80 	addx %d8,%d2,1
8000078a:	8b 03 a0 90 	addc %d9,%d3,0
8000078e:	7b 00 00 f7 	movh %d15,28672
80000792:	1b 8f 04 f6 	addi %d15,%d15,24648
80000796:	60 ff       	mov.a %a15,%d15
80000798:	89 f8 48 09 	st.d [%a15]8,%e8
8000079c:	3c 27       	j 800007ea <Trap_4_Handler+0xb0>
8000079e:	7b 00 00 f7 	movh %d15,28672
800007a2:	1b 8f 04 f6 	addi %d15,%d15,24648
800007a6:	60 ff       	mov.a %a15,%d15
800007a8:	09 f2 50 09 	ld.d %e2,[%a15]16
800007ac:	8b 12 80 00 	addx %d0,%d2,1
800007b0:	8b 03 a0 10 	addc %d1,%d3,0
800007b4:	7b 00 00 f7 	movh %d15,28672
800007b8:	1b 8f 04 f6 	addi %d15,%d15,24648
800007bc:	60 ff       	mov.a %a15,%d15
800007be:	89 f0 50 09 	st.d [%a15]16,%e0
800007c2:	3c 14       	j 800007ea <Trap_4_Handler+0xb0>
800007c4:	7b 00 00 f7 	movh %d15,28672
800007c8:	1b 8f 04 f6 	addi %d15,%d15,24648
800007cc:	60 ff       	mov.a %a15,%d15
800007ce:	09 f2 58 09 	ld.d %e2,[%a15]24
800007d2:	8b 12 80 60 	addx %d6,%d2,1
800007d6:	8b 03 a0 70 	addc %d7,%d3,0
800007da:	7b 00 00 f7 	movh %d15,28672
800007de:	1b 8f 04 f6 	addi %d15,%d15,24648
800007e2:	60 ff       	mov.a %a15,%d15
800007e4:	89 f6 58 09 	st.d [%a15]24,%e6
800007e8:	00 00       	nop 
800007ea:	00 a0       	debug 
800007ec:	7b 00 00 f7 	movh %d15,28672
800007f0:	1b 8f 04 f6 	addi %d15,%d15,24648
800007f4:	60 ff       	mov.a %a15,%d15
800007f6:	09 f2 60 09 	ld.d %e2,[%a15]32
800007fa:	8b 12 80 40 	addx %d4,%d2,1
800007fe:	8b 03 a0 50 	addc %d5,%d3,0
80000802:	7b 00 00 f7 	movh %d15,28672
80000806:	1b 8f 04 f6 	addi %d15,%d15,24648
8000080a:	60 ff       	mov.a %a15,%d15
8000080c:	89 f4 60 09 	st.d [%a15]32,%e4
80000810:	3c ee       	j 800007ec <Trap_4_Handler+0xb2>

80000812 <Trap_5_Handler>:
80000812:	40 ae       	mov.aa %a14,%sp
80000814:	20 08       	sub.a %sp,8
80000816:	7b 00 00 f7 	movh %d15,28672
8000081a:	1b 8f 03 f6 	addi %d15,%d15,24632
8000081e:	60 ff       	mov.a %a15,%d15
80000820:	09 f2 40 09 	ld.d %e2,[%a15]
80000824:	8b 12 80 60 	addx %d6,%d2,1
80000828:	8b 03 a0 70 	addc %d7,%d3,0
8000082c:	7b 00 00 f7 	movh %d15,28672
80000830:	1b 8f 03 f6 	addi %d15,%d15,24632
80000834:	60 ff       	mov.a %a15,%d15
80000836:	89 f6 40 09 	st.d [%a15],%e6
8000083a:	02 ff       	mov %d15,%d15
8000083c:	59 ef fc ff 	st.w [%a14]-4,%d15
80000840:	00 a0       	debug 
80000842:	7b 00 00 f7 	movh %d15,28672
80000846:	1b 8f 03 f6 	addi %d15,%d15,24632
8000084a:	60 ff       	mov.a %a15,%d15
8000084c:	09 f2 48 09 	ld.d %e2,[%a15]8
80000850:	8b 12 80 40 	addx %d4,%d2,1
80000854:	8b 03 a0 50 	addc %d5,%d3,0
80000858:	7b 00 00 f7 	movh %d15,28672
8000085c:	1b 8f 03 f6 	addi %d15,%d15,24632
80000860:	60 ff       	mov.a %a15,%d15
80000862:	89 f4 48 09 	st.d [%a15]8,%e4
80000866:	3c ee       	j 80000842 <Trap_5_Handler+0x30>

80000868 <Trap_6_Handler>:
80000868:	40 ae       	mov.aa %a14,%sp
8000086a:	20 08       	sub.a %sp,8
8000086c:	7b 00 00 f7 	movh %d15,28672
80000870:	1b 8f 02 f6 	addi %d15,%d15,24616
80000874:	60 ff       	mov.a %a15,%d15
80000876:	09 f2 40 09 	ld.d %e2,[%a15]
8000087a:	8b 12 80 60 	addx %d6,%d2,1
8000087e:	8b 03 a0 70 	addc %d7,%d3,0
80000882:	7b 00 00 f7 	movh %d15,28672
80000886:	1b 8f 02 f6 	addi %d15,%d15,24616
8000088a:	60 ff       	mov.a %a15,%d15
8000088c:	89 f6 40 09 	st.d [%a15],%e6
80000890:	02 ff       	mov %d15,%d15
80000892:	59 ef fc ff 	st.w [%a14]-4,%d15
80000896:	00 a0       	debug 
80000898:	7b 00 00 f7 	movh %d15,28672
8000089c:	1b 8f 02 f6 	addi %d15,%d15,24616
800008a0:	60 ff       	mov.a %a15,%d15
800008a2:	09 f2 48 09 	ld.d %e2,[%a15]8
800008a6:	8b 12 80 40 	addx %d4,%d2,1
800008aa:	8b 03 a0 50 	addc %d5,%d3,0
800008ae:	7b 00 00 f7 	movh %d15,28672
800008b2:	1b 8f 02 f6 	addi %d15,%d15,24616
800008b6:	60 ff       	mov.a %a15,%d15
800008b8:	89 f4 48 09 	st.d [%a15]8,%e4
800008bc:	3c ee       	j 80000898 <Trap_6_Handler+0x30>

800008be <Trap_7_Handler>:
800008be:	40 ae       	mov.aa %a14,%sp
800008c0:	20 08       	sub.a %sp,8
800008c2:	02 ff       	mov %d15,%d15
800008c4:	59 ef fc ff 	st.w [%a14]-4,%d15
800008c8:	19 ef fc ff 	ld.w %d15,[%a14]-4
800008cc:	ee 14       	jnz %d15,800008f4 <Trap_7_Handler+0x36>
800008ce:	7b 00 00 f7 	movh %d15,28672
800008d2:	1b 0f 01 f6 	addi %d15,%d15,24592
800008d6:	60 ff       	mov.a %a15,%d15
800008d8:	09 f2 40 09 	ld.d %e2,[%a15]
800008dc:	8b 12 80 00 	addx %d0,%d2,1
800008e0:	8b 03 a0 10 	addc %d1,%d3,0
800008e4:	7b 00 00 f7 	movh %d15,28672
800008e8:	1b 0f 01 f6 	addi %d15,%d15,24592
800008ec:	60 ff       	mov.a %a15,%d15
800008ee:	89 f0 40 09 	st.d [%a15],%e0
800008f2:	3c 14       	j 8000091a <Trap_7_Handler+0x5c>
800008f4:	7b 00 00 f7 	movh %d15,28672
800008f8:	1b 0f 01 f6 	addi %d15,%d15,24592
800008fc:	60 ff       	mov.a %a15,%d15
800008fe:	09 f2 48 09 	ld.d %e2,[%a15]8
80000902:	8b 12 80 60 	addx %d6,%d2,1
80000906:	8b 03 a0 70 	addc %d7,%d3,0
8000090a:	7b 00 00 f7 	movh %d15,28672
8000090e:	1b 0f 01 f6 	addi %d15,%d15,24592
80000912:	60 ff       	mov.a %a15,%d15
80000914:	89 f6 48 09 	st.d [%a15]8,%e6
80000918:	00 00       	nop 
8000091a:	00 a0       	debug 
8000091c:	7b 00 00 f7 	movh %d15,28672
80000920:	1b 0f 01 f6 	addi %d15,%d15,24592
80000924:	60 ff       	mov.a %a15,%d15
80000926:	09 f2 50 09 	ld.d %e2,[%a15]16
8000092a:	8b 12 80 40 	addx %d4,%d2,1
8000092e:	8b 03 a0 50 	addc %d5,%d3,0
80000932:	7b 00 00 f7 	movh %d15,28672
80000936:	1b 0f 01 f6 	addi %d15,%d15,24592
8000093a:	60 ff       	mov.a %a15,%d15
8000093c:	89 f4 50 09 	st.d [%a15]16,%e4
80000940:	3c ee       	j 8000091c <Trap_7_Handler+0x5e>
	...

Disassembly of section .CPU0.bsp_isr_vector_table:

80001000 <BSP_ISR_VECTOR_TABLE_CPU0>:
80001000:	e0 00 91 00 01 e7 d9 ee 00 00 d4 ee 2d 0e 00 00     ............-...
80001010:	0d 00 40 02 00 80 00 00 00 00 00 00 00 00 00 00     ..@.............
80001020:	e0 01 91 00 01 e7 d9 ee 04 00 d4 ee 2d 0e 00 00     ............-...
80001030:	0d 00 40 02 00 80 00 00 00 00 00 00 00 00 00 00     ..@.............
80001040:	e0 02 91 00 01 e7 d9 ee 08 00 d4 ee 2d 0e 00 00     ............-...
80001050:	0d 00 40 02 00 80 00 00 00 00 00 00 00 00 00 00     ..@.............
80001060:	e0 03 91 00 01 e7 d9 ee 0c 00 d4 ee 2d 0e 00 00     ............-...
80001070:	0d 00 40 02 00 80 00 00 00 00 00 00 00 00 00 00     ..@.............
80001080:	e0 04 91 00 01 e7 d9 ee 10 00 d4 ee 2d 0e 00 00     ............-...
80001090:	0d 00 40 02 00 80 00 00 00 00 00 00 00 00 00 00     ..@.............
800010a0:	e0 05 91 00 01 e7 d9 ee 14 00 d4 ee 2d 0e 00 00     ............-...
800010b0:	0d 00 40 02 00 80 00 00 00 00 00 00 00 00 00 00     ..@.............
800010c0:	e0 06 91 00 01 e7 d9 ee 18 00 d4 ee 2d 0e 00 00     ............-...
800010d0:	0d 00 40 02 00 80 00 00 00 00 00 00 00 00 00 00     ..@.............
800010e0:	e0 07 91 00 01 e7 d9 ee 1c 00 d4 ee 2d 0e 00 00     ............-...
800010f0:	0d 00 40 02 00 80 00 00 00 00 00 00 00 00 00 00     ..@.............
80001100:	e0 08 91 00 01 e7 d9 ee 20 00 d4 ee 2d 0e 00 00     ........ ...-...
80001110:	0d 00 40 02 00 80 00 00 00 00 00 00 00 00 00 00     ..@.............
80001120:	e0 09 91 00 01 e7 d9 ee 24 00 d4 ee 2d 0e 00 00     ........$...-...
80001130:	0d 00 40 02 00 80 00 00 00 00 00 00 00 00 00 00     ..@.............
80001140:	e0 0a 91 00 01 e7 d9 ee 28 00 d4 ee 2d 0e 00 00     ........(...-...
80001150:	0d 00 40 02 00 80 00 00 00 00 00 00 00 00 00 00     ..@.............
80001160:	e0 0b 91 00 01 e7 d9 ee 2c 00 d4 ee 2d 0e 00 00     ........,...-...
80001170:	0d 00 40 02 00 80 00 00 00 00 00 00 00 00 00 00     ..@.............
80001180:	e0 0c 91 00 01 e7 d9 ee 30 00 d4 ee 2d 0e 00 00     ........0...-...
80001190:	0d 00 40 02 00 80 00 00 00 00 00 00 00 00 00 00     ..@.............
800011a0:	e0 0d 91 00 01 e7 d9 ee 34 00 d4 ee 2d 0e 00 00     ........4...-...
800011b0:	0d 00 40 02 00 80 00 00 00 00 00 00 00 00 00 00     ..@.............
800011c0:	e0 0e 91 00 01 e7 d9 ee 38 00 d4 ee 2d 0e 00 00     ........8...-...
800011d0:	0d 00 40 02 00 80 00 00 00 00 00 00 00 00 00 00     ..@.............
800011e0:	e0 0f 91 00 01 e7 d9 ee 3c 00 d4 ee 2d 0e 00 00     ........<...-...
800011f0:	0d 00 40 02 00 80 00 00 00 00 00 00 00 00 00 00     ..@.............
80001200:	e0 10 91 00 01 e7 d9 ee 00 10 d4 ee 2d 0e 00 00     ............-...
80001210:	0d 00 40 02 00 80 00 00 00 00 00 00 00 00 00 00     ..@.............
80001220:	e0 11 91 00 01 e7 d9 ee 04 10 d4 ee 2d 0e 00 00     ............-...
80001230:	0d 00 40 02 00 80 00 00 00 00 00 00 00 00 00 00     ..@.............
80001240:	e0 12 91 00 01 e7 d9 ee 08 10 d4 ee 2d 0e 00 00     ............-...
80001250:	0d 00 40 02 00 80 00 00 00 00 00 00 00 00 00 00     ..@.............
80001260:	e0 13 91 00 01 e7 d9 ee 0c 10 d4 ee 2d 0e 00 00     ............-...
80001270:	0d 00 40 02 00 80 00 00 00 00 00 00 00 00 00 00     ..@.............
80001280:	e0 14 91 00 01 e7 d9 ee 10 10 d4 ee 2d 0e 00 00     ............-...
80001290:	0d 00 40 02 00 80 00 00 00 00 00 00 00 00 00 00     ..@.............
800012a0:	e0 15 91 00 01 e7 d9 ee 14 10 d4 ee 2d 0e 00 00     ............-...
800012b0:	0d 00 40 02 00 80 00 00 00 00 00 00 00 00 00 00     ..@.............
800012c0:	e0 16 91 00 01 e7 d9 ee 18 10 d4 ee 2d 0e 00 00     ............-...
800012d0:	0d 00 40 02 00 80 00 00 00 00 00 00 00 00 00 00     ..@.............
800012e0:	e0 17 91 00 01 e7 d9 ee 1c 10 d4 ee 2d 0e 00 00     ............-...
800012f0:	0d 00 40 02 00 80 00 00 00 00 00 00 00 00 00 00     ..@.............
80001300:	e0 18 91 00 01 e7 d9 ee 20 10 d4 ee 2d 0e 00 00     ........ ...-...
80001310:	0d 00 40 02 00 80 00 00 00 00 00 00 00 00 00 00     ..@.............
80001320:	e0 19 91 00 01 e7 d9 ee 24 10 d4 ee 2d 0e 00 00     ........$...-...
80001330:	0d 00 40 02 00 80 00 00 00 00 00 00 00 00 00 00     ..@.............
80001340:	e0 1a 91 00 01 e7 d9 ee 28 10 d4 ee 2d 0e 00 00     ........(...-...
80001350:	0d 00 40 02 00 80 00 00 00 00 00 00 00 00 00 00     ..@.............
80001360:	e0 1b 91 00 01 e7 d9 ee 2c 10 d4 ee 2d 0e 00 00     ........,...-...
80001370:	0d 00 40 02 00 80 00 00 00 00 00 00 00 00 00 00     ..@.............
80001380:	e0 1c 91 00 01 e7 d9 ee 30 10 d4 ee 2d 0e 00 00     ........0...-...
80001390:	0d 00 40 02 00 80 00 00 00 00 00 00 00 00 00 00     ..@.............
800013a0:	e0 1d 91 00 01 e7 d9 ee 34 10 d4 ee 2d 0e 00 00     ........4...-...
800013b0:	0d 00 40 02 00 80 00 00 00 00 00 00 00 00 00 00     ..@.............
800013c0:	e0 1e 91 00 01 e7 d9 ee 38 10 d4 ee 2d 0e 00 00     ........8...-...
800013d0:	0d 00 40 02 00 80 00 00 00 00 00 00 00 00 00 00     ..@.............
800013e0:	e0 1f 91 00 01 e7 d9 ee 3c 10 d4 ee 2d 0e 00 00     ........<...-...
800013f0:	0d 00 40 02 00 80 00 00 00 00 00 00 00 00 00 00     ..@.............
	...

Disassembly of section .CPU1.bsp_isr_vector_table:

80001800 <BSP_ISR_VECTOR_TABLE_CPU1>:
80001800:	e0 00 91 00 01 e6 d9 ee 00 00 d4 ee 2d 0e 00 00     ............-...
80001810:	0d 00 40 02 00 80 00 00 00 00 00 00 00 00 00 00     ..@.............
80001820:	e0 01 91 00 01 e6 d9 ee 04 00 d4 ee 2d 0e 00 00     ............-...
80001830:	0d 00 40 02 00 80 00 00 00 00 00 00 00 00 00 00     ..@.............
80001840:	e0 02 91 00 01 e6 d9 ee 08 00 d4 ee 2d 0e 00 00     ............-...
80001850:	0d 00 40 02 00 80 00 00 00 00 00 00 00 00 00 00     ..@.............
80001860:	e0 03 91 00 01 e6 d9 ee 0c 00 d4 ee 2d 0e 00 00     ............-...
80001870:	0d 00 40 02 00 80 00 00 00 00 00 00 00 00 00 00     ..@.............
80001880:	e0 04 91 00 01 e6 d9 ee 10 00 d4 ee 2d 0e 00 00     ............-...
80001890:	0d 00 40 02 00 80 00 00 00 00 00 00 00 00 00 00     ..@.............
800018a0:	e0 05 91 00 01 e6 d9 ee 14 00 d4 ee 2d 0e 00 00     ............-...
800018b0:	0d 00 40 02 00 80 00 00 00 00 00 00 00 00 00 00     ..@.............
800018c0:	e0 06 91 00 01 e6 d9 ee 18 00 d4 ee 2d 0e 00 00     ............-...
800018d0:	0d 00 40 02 00 80 00 00 00 00 00 00 00 00 00 00     ..@.............
800018e0:	e0 07 91 00 01 e6 d9 ee 1c 00 d4 ee 2d 0e 00 00     ............-...
800018f0:	0d 00 40 02 00 80 00 00 00 00 00 00 00 00 00 00     ..@.............
80001900:	e0 08 91 00 01 e6 d9 ee 20 00 d4 ee 2d 0e 00 00     ........ ...-...
80001910:	0d 00 40 02 00 80 00 00 00 00 00 00 00 00 00 00     ..@.............
80001920:	e0 09 91 00 01 e6 d9 ee 24 00 d4 ee 2d 0e 00 00     ........$...-...
80001930:	0d 00 40 02 00 80 00 00 00 00 00 00 00 00 00 00     ..@.............
80001940:	e0 0a 91 00 01 e6 d9 ee 28 00 d4 ee 2d 0e 00 00     ........(...-...
80001950:	0d 00 40 02 00 80 00 00 00 00 00 00 00 00 00 00     ..@.............
80001960:	e0 0b 91 00 01 e6 d9 ee 2c 00 d4 ee 2d 0e 00 00     ........,...-...
80001970:	0d 00 40 02 00 80 00 00 00 00 00 00 00 00 00 00     ..@.............
80001980:	e0 0c 91 00 01 e6 d9 ee 30 00 d4 ee 2d 0e 00 00     ........0...-...
80001990:	0d 00 40 02 00 80 00 00 00 00 00 00 00 00 00 00     ..@.............
800019a0:	e0 0d 91 00 01 e6 d9 ee 34 00 d4 ee 2d 0e 00 00     ........4...-...
800019b0:	0d 00 40 02 00 80 00 00 00 00 00 00 00 00 00 00     ..@.............
800019c0:	e0 0e 91 00 01 e6 d9 ee 38 00 d4 ee 2d 0e 00 00     ........8...-...
800019d0:	0d 00 40 02 00 80 00 00 00 00 00 00 00 00 00 00     ..@.............
800019e0:	e0 0f 91 00 01 e6 d9 ee 3c 00 d4 ee 2d 0e 00 00     ........<...-...
800019f0:	0d 00 40 02 00 80 00 00 00 00 00 00 00 00 00 00     ..@.............
80001a00:	e0 10 91 00 01 e6 d9 ee 00 10 d4 ee 2d 0e 00 00     ............-...
80001a10:	0d 00 40 02 00 80 00 00 00 00 00 00 00 00 00 00     ..@.............
80001a20:	e0 11 91 00 01 e6 d9 ee 04 10 d4 ee 2d 0e 00 00     ............-...
80001a30:	0d 00 40 02 00 80 00 00 00 00 00 00 00 00 00 00     ..@.............
80001a40:	e0 12 91 00 01 e6 d9 ee 08 10 d4 ee 2d 0e 00 00     ............-...
80001a50:	0d 00 40 02 00 80 00 00 00 00 00 00 00 00 00 00     ..@.............
80001a60:	e0 13 91 00 01 e6 d9 ee 0c 10 d4 ee 2d 0e 00 00     ............-...
80001a70:	0d 00 40 02 00 80 00 00 00 00 00 00 00 00 00 00     ..@.............
80001a80:	e0 14 91 00 01 e6 d9 ee 10 10 d4 ee 2d 0e 00 00     ............-...
80001a90:	0d 00 40 02 00 80 00 00 00 00 00 00 00 00 00 00     ..@.............
80001aa0:	e0 15 91 00 01 e6 d9 ee 14 10 d4 ee 2d 0e 00 00     ............-...
80001ab0:	0d 00 40 02 00 80 00 00 00 00 00 00 00 00 00 00     ..@.............
80001ac0:	e0 16 91 00 01 e6 d9 ee 18 10 d4 ee 2d 0e 00 00     ............-...
80001ad0:	0d 00 40 02 00 80 00 00 00 00 00 00 00 00 00 00     ..@.............
80001ae0:	e0 17 91 00 01 e6 d9 ee 1c 10 d4 ee 2d 0e 00 00     ............-...
80001af0:	0d 00 40 02 00 80 00 00 00 00 00 00 00 00 00 00     ..@.............
80001b00:	e0 18 91 00 01 e6 d9 ee 20 10 d4 ee 2d 0e 00 00     ........ ...-...
80001b10:	0d 00 40 02 00 80 00 00 00 00 00 00 00 00 00 00     ..@.............
80001b20:	e0 19 91 00 01 e6 d9 ee 24 10 d4 ee 2d 0e 00 00     ........$...-...
80001b30:	0d 00 40 02 00 80 00 00 00 00 00 00 00 00 00 00     ..@.............
80001b40:	e0 1a 91 00 01 e6 d9 ee 28 10 d4 ee 2d 0e 00 00     ........(...-...
80001b50:	0d 00 40 02 00 80 00 00 00 00 00 00 00 00 00 00     ..@.............
80001b60:	e0 1b 91 00 01 e6 d9 ee 2c 10 d4 ee 2d 0e 00 00     ........,...-...
80001b70:	0d 00 40 02 00 80 00 00 00 00 00 00 00 00 00 00     ..@.............
80001b80:	e0 1c 91 00 01 e6 d9 ee 30 10 d4 ee 2d 0e 00 00     ........0...-...
80001b90:	0d 00 40 02 00 80 00 00 00 00 00 00 00 00 00 00     ..@.............
80001ba0:	e0 1d 91 00 01 e6 d9 ee 34 10 d4 ee 2d 0e 00 00     ........4...-...
80001bb0:	0d 00 40 02 00 80 00 00 00 00 00 00 00 00 00 00     ..@.............
80001bc0:	e0 1e 91 00 01 e6 d9 ee 38 10 d4 ee 2d 0e 00 00     ........8...-...
80001bd0:	0d 00 40 02 00 80 00 00 00 00 00 00 00 00 00 00     ..@.............
80001be0:	e0 1f 91 00 01 e6 d9 ee 3c 10 d4 ee 2d 0e 00 00     ........<...-...
80001bf0:	0d 00 40 02 00 80 00 00 00 00 00 00 00 00 00 00     ..@.............
	...

Disassembly of section .CPU2.bsp_isr_vector_table:

80002000 <BSP_ISR_VECTOR_TABLE_CPU2>:
80002000:	e0 00 91 00 01 e5 d9 ee 00 00 d4 ee 2d 0e 00 00     ............-...
80002010:	0d 00 40 02 00 80 00 00 00 00 00 00 00 00 00 00     ..@.............
80002020:	e0 01 91 00 01 e5 d9 ee 04 00 d4 ee 2d 0e 00 00     ............-...
80002030:	0d 00 40 02 00 80 00 00 00 00 00 00 00 00 00 00     ..@.............
80002040:	e0 02 91 00 01 e5 d9 ee 08 00 d4 ee 2d 0e 00 00     ............-...
80002050:	0d 00 40 02 00 80 00 00 00 00 00 00 00 00 00 00     ..@.............
80002060:	e0 03 91 00 01 e5 d9 ee 0c 00 d4 ee 2d 0e 00 00     ............-...
80002070:	0d 00 40 02 00 80 00 00 00 00 00 00 00 00 00 00     ..@.............
80002080:	e0 04 91 00 01 e5 d9 ee 10 00 d4 ee 2d 0e 00 00     ............-...
80002090:	0d 00 40 02 00 80 00 00 00 00 00 00 00 00 00 00     ..@.............
800020a0:	e0 05 91 00 01 e5 d9 ee 14 00 d4 ee 2d 0e 00 00     ............-...
800020b0:	0d 00 40 02 00 80 00 00 00 00 00 00 00 00 00 00     ..@.............
800020c0:	e0 06 91 00 01 e5 d9 ee 18 00 d4 ee 2d 0e 00 00     ............-...
800020d0:	0d 00 40 02 00 80 00 00 00 00 00 00 00 00 00 00     ..@.............
800020e0:	e0 07 91 00 01 e5 d9 ee 1c 00 d4 ee 2d 0e 00 00     ............-...
800020f0:	0d 00 40 02 00 80 00 00 00 00 00 00 00 00 00 00     ..@.............
80002100:	e0 08 91 00 01 e5 d9 ee 20 00 d4 ee 2d 0e 00 00     ........ ...-...
80002110:	0d 00 40 02 00 80 00 00 00 00 00 00 00 00 00 00     ..@.............
80002120:	e0 09 91 00 01 e5 d9 ee 24 00 d4 ee 2d 0e 00 00     ........$...-...
80002130:	0d 00 40 02 00 80 00 00 00 00 00 00 00 00 00 00     ..@.............
80002140:	e0 0a 91 00 01 e5 d9 ee 28 00 d4 ee 2d 0e 00 00     ........(...-...
80002150:	0d 00 40 02 00 80 00 00 00 00 00 00 00 00 00 00     ..@.............
80002160:	e0 0b 91 00 01 e5 d9 ee 2c 00 d4 ee 2d 0e 00 00     ........,...-...
80002170:	0d 00 40 02 00 80 00 00 00 00 00 00 00 00 00 00     ..@.............
80002180:	e0 0c 91 00 01 e5 d9 ee 30 00 d4 ee 2d 0e 00 00     ........0...-...
80002190:	0d 00 40 02 00 80 00 00 00 00 00 00 00 00 00 00     ..@.............
800021a0:	e0 0d 91 00 01 e5 d9 ee 34 00 d4 ee 2d 0e 00 00     ........4...-...
800021b0:	0d 00 40 02 00 80 00 00 00 00 00 00 00 00 00 00     ..@.............
800021c0:	e0 0e 91 00 01 e5 d9 ee 38 00 d4 ee 2d 0e 00 00     ........8...-...
800021d0:	0d 00 40 02 00 80 00 00 00 00 00 00 00 00 00 00     ..@.............
800021e0:	e0 0f 91 00 01 e5 d9 ee 3c 00 d4 ee 2d 0e 00 00     ........<...-...
800021f0:	0d 00 40 02 00 80 00 00 00 00 00 00 00 00 00 00     ..@.............
80002200:	e0 10 91 00 01 e5 d9 ee 00 10 d4 ee 2d 0e 00 00     ............-...
80002210:	0d 00 40 02 00 80 00 00 00 00 00 00 00 00 00 00     ..@.............
80002220:	e0 11 91 00 01 e5 d9 ee 04 10 d4 ee 2d 0e 00 00     ............-...
80002230:	0d 00 40 02 00 80 00 00 00 00 00 00 00 00 00 00     ..@.............
80002240:	e0 12 91 00 01 e5 d9 ee 08 10 d4 ee 2d 0e 00 00     ............-...
80002250:	0d 00 40 02 00 80 00 00 00 00 00 00 00 00 00 00     ..@.............
80002260:	e0 13 91 00 01 e5 d9 ee 0c 10 d4 ee 2d 0e 00 00     ............-...
80002270:	0d 00 40 02 00 80 00 00 00 00 00 00 00 00 00 00     ..@.............
80002280:	e0 14 91 00 01 e5 d9 ee 10 10 d4 ee 2d 0e 00 00     ............-...
80002290:	0d 00 40 02 00 80 00 00 00 00 00 00 00 00 00 00     ..@.............
800022a0:	e0 15 91 00 01 e5 d9 ee 14 10 d4 ee 2d 0e 00 00     ............-...
800022b0:	0d 00 40 02 00 80 00 00 00 00 00 00 00 00 00 00     ..@.............
800022c0:	e0 16 91 00 01 e5 d9 ee 18 10 d4 ee 2d 0e 00 00     ............-...
800022d0:	0d 00 40 02 00 80 00 00 00 00 00 00 00 00 00 00     ..@.............
800022e0:	e0 17 91 00 01 e5 d9 ee 1c 10 d4 ee 2d 0e 00 00     ............-...
800022f0:	0d 00 40 02 00 80 00 00 00 00 00 00 00 00 00 00     ..@.............
80002300:	e0 18 91 00 01 e5 d9 ee 20 10 d4 ee 2d 0e 00 00     ........ ...-...
80002310:	0d 00 40 02 00 80 00 00 00 00 00 00 00 00 00 00     ..@.............
80002320:	e0 19 91 00 01 e5 d9 ee 24 10 d4 ee 2d 0e 00 00     ........$...-...
80002330:	0d 00 40 02 00 80 00 00 00 00 00 00 00 00 00 00     ..@.............
80002340:	e0 1a 91 00 01 e5 d9 ee 28 10 d4 ee 2d 0e 00 00     ........(...-...
80002350:	0d 00 40 02 00 80 00 00 00 00 00 00 00 00 00 00     ..@.............
80002360:	e0 1b 91 00 01 e5 d9 ee 2c 10 d4 ee 2d 0e 00 00     ........,...-...
80002370:	0d 00 40 02 00 80 00 00 00 00 00 00 00 00 00 00     ..@.............
80002380:	e0 1c 91 00 01 e5 d9 ee 30 10 d4 ee 2d 0e 00 00     ........0...-...
80002390:	0d 00 40 02 00 80 00 00 00 00 00 00 00 00 00 00     ..@.............
800023a0:	e0 1d 91 00 01 e5 d9 ee 34 10 d4 ee 2d 0e 00 00     ........4...-...
800023b0:	0d 00 40 02 00 80 00 00 00 00 00 00 00 00 00 00     ..@.............
800023c0:	e0 1e 91 00 01 e5 d9 ee 38 10 d4 ee 2d 0e 00 00     ........8...-...
800023d0:	0d 00 40 02 00 80 00 00 00 00 00 00 00 00 00 00     ..@.............
800023e0:	e0 1f 91 00 01 e5 d9 ee 3c 10 d4 ee 2d 0e 00 00     ........<...-...
800023f0:	0d 00 40 02 00 80 00 00 00 00 00 00 00 00 00 00     ..@.............
	...

Disassembly of section .code:

80002800 <bsp_board_wdg_Disable>:
80002800:	40 ae       	mov.aa %a14,%sp
80002802:	7b 00 00 f7 	movh %d15,28672
80002806:	1b 0f f5 f5 	addi %d15,%d15,24400
8000280a:	60 ff       	mov.a %a15,%d15
8000280c:	09 f2 40 09 	ld.d %e2,[%a15]
80002810:	8b 12 80 40 	addx %d4,%d2,1
80002814:	8b 03 a0 50 	addc %d5,%d3,0
80002818:	7b 00 00 f7 	movh %d15,28672
8000281c:	1b 0f f5 f5 	addi %d15,%d15,24400
80002820:	60 ff       	mov.a %a15,%d15
80002822:	89 f4 40 09 	st.d [%a15],%e4
80002826:	00 90       	ret 

80002828 <_GLOBAL__sub_I_65535_0_board_led>:
80002828:	40 ae       	mov.aa %a14,%sp
8000282a:	7b 00 00 f7 	movh %d15,28672
8000282e:	60 ff       	mov.a %a15,%d15
80002830:	d9 f4 18 05 	lea %a4,[%a15]20504
80002834:	6d 00 84 1b 	call 80005f3c <__gcov_init>
80002838:	00 90       	ret 

8000283a <bsp_board_led_InitAll>:
8000283a:	40 ae       	mov.aa %a14,%sp
8000283c:	20 10       	sub.a %sp,16
8000283e:	59 e4 f4 ff 	st.w [%a14]-12,%d4
80002842:	82 0f       	mov %d15,0
80002844:	59 ef fc ff 	st.w [%a14]-4,%d15
80002848:	3c 31       	j 800028aa <bsp_board_led_InitAll+0x70>
8000284a:	7b 00 00 f7 	movh %d15,28672
8000284e:	1b 0f f8 f5 	addi %d15,%d15,24448
80002852:	60 ff       	mov.a %a15,%d15
80002854:	09 f2 48 09 	ld.d %e2,[%a15]8
80002858:	8b 12 80 c0 	addx %d12,%d2,1
8000285c:	8b 03 a0 d0 	addc %d13,%d3,0
80002860:	7b 00 00 f7 	movh %d15,28672
80002864:	1b 0f f8 f5 	addi %d15,%d15,24448
80002868:	60 ff       	mov.a %a15,%d15
8000286a:	89 fc 48 09 	st.d [%a15]8,%e12
8000286e:	19 ef fc ff 	ld.w %d15,[%a14]-4
80002872:	02 f4       	mov %d4,%d15
80002874:	19 e5 f4 ff 	ld.w %d5,[%a14]-12
80002878:	6d 00 31 00 	call 800028da <bsp_board_led_Init>
8000287c:	19 ef fc ff 	ld.w %d15,[%a14]-4
80002880:	c2 1f       	add %d15,1
80002882:	59 ef fc ff 	st.w [%a14]-4,%d15
80002886:	7b 00 00 f7 	movh %d15,28672
8000288a:	1b 0f f8 f5 	addi %d15,%d15,24448
8000288e:	60 ff       	mov.a %a15,%d15
80002890:	09 f2 40 09 	ld.d %e2,[%a15]
80002894:	8b 12 80 a0 	addx %d10,%d2,1
80002898:	8b 03 a0 b0 	addc %d11,%d3,0
8000289c:	7b 00 00 f7 	movh %d15,28672
800028a0:	1b 0f f8 f5 	addi %d15,%d15,24448
800028a4:	60 ff       	mov.a %a15,%d15
800028a6:	89 fa 40 09 	st.d [%a15],%e10
800028aa:	19 ef fc ff 	ld.w %d15,[%a14]-4
800028ae:	8b 8f 40 f2 	lt %d15,%d15,8
800028b2:	ee cc       	jnz %d15,8000284a <bsp_board_led_InitAll+0x10>
800028b4:	7b 00 00 f7 	movh %d15,28672
800028b8:	1b 0f f8 f5 	addi %d15,%d15,24448
800028bc:	60 ff       	mov.a %a15,%d15
800028be:	09 f2 50 09 	ld.d %e2,[%a15]16
800028c2:	8b 12 80 80 	addx %d8,%d2,1
800028c6:	8b 03 a0 90 	addc %d9,%d3,0
800028ca:	7b 00 00 f7 	movh %d15,28672
800028ce:	1b 0f f8 f5 	addi %d15,%d15,24448
800028d2:	60 ff       	mov.a %a15,%d15
800028d4:	89 f8 50 09 	st.d [%a15]16,%e8
800028d8:	00 90       	ret 

800028da <bsp_board_led_Init>:
800028da:	40 ae       	mov.aa %a14,%sp
800028dc:	20 10       	sub.a %sp,16
800028de:	59 e4 fc ff 	st.w [%a14]-4,%d4
800028e2:	59 e5 f8 ff 	st.w [%a14]-8,%d5
800028e6:	7b 00 00 f7 	movh %d15,28672
800028ea:	1b 8f f6 f5 	addi %d15,%d15,24424
800028ee:	60 ff       	mov.a %a15,%d15
800028f0:	09 f2 40 09 	ld.d %e2,[%a15]
800028f4:	8b 12 80 60 	addx %d6,%d2,1
800028f8:	8b 03 a0 70 	addc %d7,%d3,0
800028fc:	7b 00 00 f7 	movh %d15,28672
80002900:	1b 8f f6 f5 	addi %d15,%d15,24424
80002904:	60 ff       	mov.a %a15,%d15
80002906:	89 f6 40 09 	st.d [%a15],%e6
8000290a:	7b 10 00 f8 	movh %d15,32769
8000290e:	1b 8f 78 2a 	addi %d2,%d15,-22648
80002912:	19 ef fc ff 	ld.w %d15,[%a14]-4
80002916:	06 3f       	sh %d15,3
80002918:	42 2f       	add %d15,%d2
8000291a:	60 ff       	mov.a %a15,%d15
8000291c:	48 02       	ld.w %d2,[%a15]0
8000291e:	7b 10 00 f8 	movh %d15,32769
80002922:	1b 8f 78 3a 	addi %d3,%d15,-22648
80002926:	19 ef fc ff 	ld.w %d15,[%a14]-4
8000292a:	06 3f       	sh %d15,3
8000292c:	42 3f       	add %d15,%d3
8000292e:	c2 4f       	add %d15,4
80002930:	60 ff       	mov.a %a15,%d15
80002932:	4c f0       	ld.w %d15,[%a15]0
80002934:	02 24       	mov %d4,%d2
80002936:	02 f5       	mov %d5,%d15
80002938:	19 e6 f8 ff 	ld.w %d6,[%a14]-8
8000293c:	6d 00 b3 0b 	call 800040a2 <bsp_uc_port_SetGPIO>
80002940:	7b 00 00 f7 	movh %d15,28672
80002944:	1b 8f f6 f5 	addi %d15,%d15,24424
80002948:	60 ff       	mov.a %a15,%d15
8000294a:	09 f2 48 09 	ld.d %e2,[%a15]8
8000294e:	8b 12 80 a0 	addx %d10,%d2,1
80002952:	8b 03 a0 b0 	addc %d11,%d3,0
80002956:	7b 00 00 f7 	movh %d15,28672
8000295a:	1b 8f f6 f5 	addi %d15,%d15,24424
8000295e:	60 ff       	mov.a %a15,%d15
80002960:	89 fa 48 09 	st.d [%a15]8,%e10
80002964:	7b 10 00 f8 	movh %d15,32769
80002968:	1b 8f 78 2a 	addi %d2,%d15,-22648
8000296c:	19 ef fc ff 	ld.w %d15,[%a14]-4
80002970:	06 3f       	sh %d15,3
80002972:	42 2f       	add %d15,%d2
80002974:	60 ff       	mov.a %a15,%d15
80002976:	48 03       	ld.w %d3,[%a15]0
80002978:	7b 10 00 f8 	movh %d15,32769
8000297c:	1b 8f 78 2a 	addi %d2,%d15,-22648
80002980:	19 ef fc ff 	ld.w %d15,[%a14]-4
80002984:	06 3f       	sh %d15,3
80002986:	42 2f       	add %d15,%d2
80002988:	c2 4f       	add %d15,4
8000298a:	60 ff       	mov.a %a15,%d15
8000298c:	48 02       	ld.w %d2,[%a15]0
8000298e:	82 2f       	mov %d15,2
80002990:	78 00       	st.w [%sp]0,%d15
80002992:	02 34       	mov %d4,%d3
80002994:	02 25       	mov %d5,%d2
80002996:	82 06       	mov %d6,0
80002998:	82 07       	mov %d7,0
8000299a:	6d 00 6a 0a 	call 80003e6e <bsp_uc_port_EnableOutput>
8000299e:	7b 00 00 f7 	movh %d15,28672
800029a2:	1b 8f f6 f5 	addi %d15,%d15,24424
800029a6:	60 ff       	mov.a %a15,%d15
800029a8:	09 f2 50 09 	ld.d %e2,[%a15]16
800029ac:	8b 12 80 80 	addx %d8,%d2,1
800029b0:	8b 03 a0 90 	addc %d9,%d3,0
800029b4:	7b 00 00 f7 	movh %d15,28672
800029b8:	1b 8f f6 f5 	addi %d15,%d15,24424
800029bc:	60 ff       	mov.a %a15,%d15
800029be:	89 f8 50 09 	st.d [%a15]16,%e8
800029c2:	00 90       	ret 

800029c4 <_GLOBAL__sub_I_65535_0_bsp_board_led_InitAll>:
800029c4:	40 ae       	mov.aa %a14,%sp
800029c6:	7b 00 00 f7 	movh %d15,28672
800029ca:	60 ff       	mov.a %a15,%d15
800029cc:	d9 f4 30 15 	lea %a4,[%a15]20592
800029d0:	6d 00 b6 1a 	call 80005f3c <__gcov_init>
800029d4:	00 90       	ret 

800029d6 <isr_undef_handler>:
800029d6:	40 ae       	mov.aa %a14,%sp
800029d8:	7b 00 00 f7 	movh %d15,28672
800029dc:	1b 0f 00 f6 	addi %d15,%d15,24576
800029e0:	60 ff       	mov.a %a15,%d15
800029e2:	09 f2 40 09 	ld.d %e2,[%a15]
800029e6:	8b 12 80 60 	addx %d6,%d2,1
800029ea:	8b 03 a0 70 	addc %d7,%d3,0
800029ee:	7b 00 00 f7 	movh %d15,28672
800029f2:	1b 0f 00 f6 	addi %d15,%d15,24576
800029f6:	60 ff       	mov.a %a15,%d15
800029f8:	89 f6 40 09 	st.d [%a15],%e6
800029fc:	00 a0       	debug 
800029fe:	7b 00 00 f7 	movh %d15,28672
80002a02:	1b 0f 00 f6 	addi %d15,%d15,24576
80002a06:	60 ff       	mov.a %a15,%d15
80002a08:	09 f2 48 09 	ld.d %e2,[%a15]8
80002a0c:	8b 12 80 40 	addx %d4,%d2,1
80002a10:	8b 03 a0 50 	addc %d5,%d3,0
80002a14:	7b 00 00 f7 	movh %d15,28672
80002a18:	1b 0f 00 f6 	addi %d15,%d15,24576
80002a1c:	60 ff       	mov.a %a15,%d15
80002a1e:	89 f4 48 09 	st.d [%a15]8,%e4
80002a22:	3c ee       	j 800029fe <isr_undef_handler+0x28>

80002a24 <bsp_isr_Init>:
80002a24:	40 ae       	mov.aa %a14,%sp
80002a26:	20 20       	sub.a %sp,32
80002a28:	7b 00 00 27 	movh %d2,28672
80002a2c:	1b 02 fc 25 	addi %d2,%d2,24512
80002a30:	60 2f       	mov.a %a15,%d2
80002a32:	09 f2 40 09 	ld.d %e2,[%a15]
80002a36:	8b 12 80 40 	addx %d4,%d2,1
80002a3a:	8b 03 a0 50 	addc %d5,%d3,0
80002a3e:	7b 00 00 27 	movh %d2,28672
80002a42:	1b 02 fc 25 	addi %d2,%d2,24512
80002a46:	60 2f       	mov.a %a15,%d2
80002a48:	89 f4 40 09 	st.d [%a15],%e4
80002a4c:	6d 00 dc 0c 	call 80004404 <bsp_uc_core_GetCurrentCore>
80002a50:	59 e2 f4 ff 	st.w [%a14]-12,%d2
80002a54:	19 e2 f4 ff 	ld.w %d2,[%a14]-12
80002a58:	df 12 26 00 	jeq %d2,1,80002aa4 <bsp_isr_Init+0x80>
80002a5c:	bf 12 05 80 	jlt.u %d2,1,80002a66 <bsp_isr_Init+0x42>
80002a60:	df 22 41 00 	jeq %d2,2,80002ae2 <bsp_isr_Init+0xbe>
80002a64:	3c 5a       	j 80002b18 <bsp_isr_Init+0xf4>
80002a66:	7b 00 00 f8 	movh %d15,32768
80002a6a:	1b 0f 00 f1 	addi %d15,%d15,4096
80002a6e:	59 ef fc ff 	st.w [%a14]-4,%d15
80002a72:	7b 00 00 f7 	movh %d15,28672
80002a76:	1b 0f fc f5 	addi %d15,%d15,24512
80002a7a:	60 ff       	mov.a %a15,%d15
80002a7c:	09 f2 48 09 	ld.d %e2,[%a15]8
80002a80:	8b 12 80 f0 	addx %d15,%d2,1
80002a84:	59 ef e8 ff 	st.w [%a14]-24,%d15
80002a88:	8b 03 a0 f0 	addc %d15,%d3,0
80002a8c:	59 ef ec ff 	st.w [%a14]-20,%d15
80002a90:	7b 00 00 f7 	movh %d15,28672
80002a94:	1b 0f fc f5 	addi %d15,%d15,24512
80002a98:	09 e2 68 f9 	ld.d %e2,[%a14]-24
80002a9c:	60 ff       	mov.a %a15,%d15
80002a9e:	89 f2 48 09 	st.d [%a15]8,%e2
80002aa2:	3c 4e       	j 80002b3e <bsp_isr_Init+0x11a>
80002aa4:	7b 00 00 f8 	movh %d15,32768
80002aa8:	1b 0f 80 f1 	addi %d15,%d15,6144
80002aac:	59 ef fc ff 	st.w [%a14]-4,%d15
80002ab0:	7b 00 00 f7 	movh %d15,28672
80002ab4:	1b 0f fc f5 	addi %d15,%d15,24512
80002ab8:	60 ff       	mov.a %a15,%d15
80002aba:	09 f2 50 09 	ld.d %e2,[%a15]16
80002abe:	8b 12 80 f0 	addx %d15,%d2,1
80002ac2:	59 ef e0 ff 	st.w [%a14]-32,%d15
80002ac6:	8b 03 a0 f0 	addc %d15,%d3,0
80002aca:	59 ef e4 ff 	st.w [%a14]-28,%d15
80002ace:	7b 00 00 f7 	movh %d15,28672
80002ad2:	1b 0f fc f5 	addi %d15,%d15,24512
80002ad6:	09 e2 60 f9 	ld.d %e2,[%a14]-32
80002ada:	60 ff       	mov.a %a15,%d15
80002adc:	89 f2 50 09 	st.d [%a15]16,%e2
80002ae0:	3c 2f       	j 80002b3e <bsp_isr_Init+0x11a>
80002ae2:	7b 00 00 f8 	movh %d15,32768
80002ae6:	1b 0f 00 f2 	addi %d15,%d15,8192
80002aea:	59 ef fc ff 	st.w [%a14]-4,%d15
80002aee:	7b 00 00 f7 	movh %d15,28672
80002af2:	1b 0f fc f5 	addi %d15,%d15,24512
80002af6:	60 ff       	mov.a %a15,%d15
80002af8:	09 f2 58 09 	ld.d %e2,[%a15]24
80002afc:	8b 12 80 f0 	addx %d15,%d2,1
80002b00:	60 fc       	mov.a %a12,%d15
80002b02:	8b 03 a0 f0 	addc %d15,%d3,0
80002b06:	60 fd       	mov.a %a13,%d15
80002b08:	7b 00 00 f7 	movh %d15,28672
80002b0c:	1b 0f fc f5 	addi %d15,%d15,24512
80002b10:	60 ff       	mov.a %a15,%d15
80002b12:	89 fc d8 09 	st.da [%a15]24,%a12
80002b16:	3c 14       	j 80002b3e <bsp_isr_Init+0x11a>
80002b18:	7b 00 00 27 	movh %d2,28672
80002b1c:	1b 02 fc 25 	addi %d2,%d2,24512
80002b20:	60 2f       	mov.a %a15,%d2
80002b22:	09 f2 60 09 	ld.d %e2,[%a15]32
80002b26:	8b 12 80 e0 	addx %d14,%d2,1
80002b2a:	8b 03 a0 f0 	addc %d15,%d3,0
80002b2e:	7b 00 00 27 	movh %d2,28672
80002b32:	1b 02 fc 25 	addi %d2,%d2,24512
80002b36:	60 2f       	mov.a %a15,%d2
80002b38:	89 fe 60 09 	st.d [%a15]32,%e14
80002b3c:	3c 55       	j 80002be6 <bsp_isr_Init+0x1c2>
80002b3e:	19 e4 fc ff 	ld.w %d4,[%a14]-4
80002b42:	82 05       	mov %d5,0
80002b44:	6d 00 4c 0d 	call 800045dc <bsp_uc_intc_SetBIV>
80002b48:	82 0f       	mov %d15,0
80002b4a:	59 ef f8 ff 	st.w [%a14]-8,%d15
80002b4e:	7b 00 00 f7 	movh %d15,28672
80002b52:	1b 0f fc f5 	addi %d15,%d15,24512
80002b56:	60 ff       	mov.a %a15,%d15
80002b58:	09 f2 68 09 	ld.d %e2,[%a15]40
80002b5c:	8b 12 80 c0 	addx %d12,%d2,1
80002b60:	8b 03 a0 d0 	addc %d13,%d3,0
80002b64:	7b 00 00 f7 	movh %d15,28672
80002b68:	1b 0f fc f5 	addi %d15,%d15,24512
80002b6c:	60 ff       	mov.a %a15,%d15
80002b6e:	89 fc 68 09 	st.d [%a15]40,%e12
80002b72:	3c 35       	j 80002bdc <bsp_isr_Init+0x1b8>
80002b74:	7b 00 00 f7 	movh %d15,28672
80002b78:	1b 0f fc f5 	addi %d15,%d15,24512
80002b7c:	60 ff       	mov.a %a15,%d15
80002b7e:	09 f2 78 09 	ld.d %e2,[%a15]56
80002b82:	8b 12 80 a0 	addx %d10,%d2,1
80002b86:	8b 03 a0 b0 	addc %d11,%d3,0
80002b8a:	7b 00 00 f7 	movh %d15,28672
80002b8e:	1b 0f fc f5 	addi %d15,%d15,24512
80002b92:	60 ff       	mov.a %a15,%d15
80002b94:	89 fa 78 09 	st.d [%a15]56,%e10
80002b98:	19 e4 f4 ff 	ld.w %d4,[%a14]-12
80002b9c:	7b 00 00 f8 	movh %d15,32768
80002ba0:	60 ff       	mov.a %a15,%d15
80002ba2:	d9 f4 96 72 	lea %a4,[%a15]10710
80002ba6:	19 e5 f8 ff 	ld.w %d5,[%a14]-8
80002baa:	6d 00 1f 00 	call 80002be8 <bsp_isr_RegisterHandler>
80002bae:	19 ef f8 ff 	ld.w %d15,[%a14]-8
80002bb2:	c2 1f       	add %d15,1
80002bb4:	59 ef f8 ff 	st.w [%a14]-8,%d15
80002bb8:	7b 00 00 f7 	movh %d15,28672
80002bbc:	1b 0f fc f5 	addi %d15,%d15,24512
80002bc0:	60 ff       	mov.a %a15,%d15
80002bc2:	09 f2 70 09 	ld.d %e2,[%a15]48
80002bc6:	8b 12 80 80 	addx %d8,%d2,1
80002bca:	8b 03 a0 90 	addc %d9,%d3,0
80002bce:	7b 00 00 f7 	movh %d15,28672
80002bd2:	1b 0f fc f5 	addi %d15,%d15,24512
80002bd6:	60 ff       	mov.a %a15,%d15
80002bd8:	89 f8 70 09 	st.d [%a15]48,%e8
80002bdc:	19 ef f8 ff 	ld.w %d15,[%a14]-8
80002be0:	8b 0f 62 f2 	lt.u %d15,%d15,32
80002be4:	ee c8       	jnz %d15,80002b74 <bsp_isr_Init+0x150>
80002be6:	00 90       	ret 

80002be8 <bsp_isr_RegisterHandler>:
80002be8:	40 ae       	mov.aa %a14,%sp
80002bea:	20 18       	sub.a %sp,24
80002bec:	59 e4 f4 ff 	st.w [%a14]-12,%d4
80002bf0:	b5 e4 f0 ff 	st.a [%a14]-16,%a4
80002bf4:	59 e5 ec ff 	st.w [%a14]-20,%d5
80002bf8:	19 ef f4 ff 	ld.w %d15,[%a14]-12
80002bfc:	9e 1f       	jeq %d15,1,80002c3a <bsp_isr_RegisterHandler+0x52>
80002bfe:	bf 1f 05 80 	jlt.u %d15,1,80002c08 <bsp_isr_RegisterHandler+0x20>
80002c02:	df 2f 35 00 	jeq %d15,2,80002c6c <bsp_isr_RegisterHandler+0x84>
80002c06:	3c 4c       	j 80002c9e <bsp_isr_RegisterHandler+0xb6>
80002c08:	7b 00 01 f7 	movh %d15,28688
80002c0c:	1b 0f 00 f0 	addi %d15,%d15,0
80002c10:	59 ef fc ff 	st.w [%a14]-4,%d15
80002c14:	7b 00 00 f7 	movh %d15,28672
80002c18:	1b 8f f9 f5 	addi %d15,%d15,24472
80002c1c:	60 ff       	mov.a %a15,%d15
80002c1e:	09 f2 40 09 	ld.d %e2,[%a15]
80002c22:	8b 12 80 c0 	addx %d12,%d2,1
80002c26:	8b 03 a0 d0 	addc %d13,%d3,0
80002c2a:	7b 00 00 f7 	movh %d15,28672
80002c2e:	1b 8f f9 f5 	addi %d15,%d15,24472
80002c32:	60 ff       	mov.a %a15,%d15
80002c34:	89 fc 40 09 	st.d [%a15],%e12
80002c38:	3c 46       	j 80002cc4 <bsp_isr_RegisterHandler+0xdc>
80002c3a:	7b 00 01 f6 	movh %d15,24592
80002c3e:	1b 0f 00 f0 	addi %d15,%d15,0
80002c42:	59 ef fc ff 	st.w [%a14]-4,%d15
80002c46:	7b 00 00 f7 	movh %d15,28672
80002c4a:	1b 8f f9 f5 	addi %d15,%d15,24472
80002c4e:	60 ff       	mov.a %a15,%d15
80002c50:	09 f2 48 09 	ld.d %e2,[%a15]8
80002c54:	8b 12 80 a0 	addx %d10,%d2,1
80002c58:	8b 03 a0 b0 	addc %d11,%d3,0
80002c5c:	7b 00 00 f7 	movh %d15,28672
80002c60:	1b 8f f9 f5 	addi %d15,%d15,24472
80002c64:	60 ff       	mov.a %a15,%d15
80002c66:	89 fa 48 09 	st.d [%a15]8,%e10
80002c6a:	3c 2d       	j 80002cc4 <bsp_isr_RegisterHandler+0xdc>
80002c6c:	7b 00 01 f5 	movh %d15,20496
80002c70:	1b 0f 00 f0 	addi %d15,%d15,0
80002c74:	59 ef fc ff 	st.w [%a14]-4,%d15
80002c78:	7b 00 00 f7 	movh %d15,28672
80002c7c:	1b 8f f9 f5 	addi %d15,%d15,24472
80002c80:	60 ff       	mov.a %a15,%d15
80002c82:	09 f2 50 09 	ld.d %e2,[%a15]16
80002c86:	8b 12 80 80 	addx %d8,%d2,1
80002c8a:	8b 03 a0 90 	addc %d9,%d3,0
80002c8e:	7b 00 00 f7 	movh %d15,28672
80002c92:	1b 8f f9 f5 	addi %d15,%d15,24472
80002c96:	60 ff       	mov.a %a15,%d15
80002c98:	89 f8 50 09 	st.d [%a15]16,%e8
80002c9c:	3c 14       	j 80002cc4 <bsp_isr_RegisterHandler+0xdc>
80002c9e:	7b 00 00 f7 	movh %d15,28672
80002ca2:	1b 8f f9 f5 	addi %d15,%d15,24472
80002ca6:	60 ff       	mov.a %a15,%d15
80002ca8:	09 f2 58 09 	ld.d %e2,[%a15]24
80002cac:	8b 12 80 00 	addx %d0,%d2,1
80002cb0:	8b 03 a0 10 	addc %d1,%d3,0
80002cb4:	7b 00 00 f7 	movh %d15,28672
80002cb8:	1b 8f f9 f5 	addi %d15,%d15,24472
80002cbc:	60 ff       	mov.a %a15,%d15
80002cbe:	89 f0 58 09 	st.d [%a15]24,%e0
80002cc2:	3c 22       	j 80002d06 <bsp_isr_RegisterHandler+0x11e>
80002cc4:	19 ef ec ff 	ld.w %d15,[%a14]-20
80002cc8:	8b 0f a2 f2 	ge.u %d15,%d15,32
80002ccc:	ee 1d       	jnz %d15,80002d06 <bsp_isr_RegisterHandler+0x11e>
80002cce:	19 ef ec ff 	ld.w %d15,[%a14]-20
80002cd2:	06 2f       	sh %d15,2
80002cd4:	19 e2 fc ff 	ld.w %d2,[%a14]-4
80002cd8:	42 2f       	add %d15,%d2
80002cda:	19 e2 f0 ff 	ld.w %d2,[%a14]-16
80002cde:	60 ff       	mov.a %a15,%d15
80002ce0:	68 02       	st.w [%a15]0,%d2
80002ce2:	7b 00 00 f7 	movh %d15,28672
80002ce6:	1b 8f f9 f5 	addi %d15,%d15,24472
80002cea:	60 ff       	mov.a %a15,%d15
80002cec:	09 f2 60 09 	ld.d %e2,[%a15]32
80002cf0:	8b 12 80 60 	addx %d6,%d2,1
80002cf4:	8b 03 a0 70 	addc %d7,%d3,0
80002cf8:	7b 00 00 f7 	movh %d15,28672
80002cfc:	1b 8f f9 f5 	addi %d15,%d15,24472
80002d00:	60 ff       	mov.a %a15,%d15
80002d02:	89 f6 60 09 	st.d [%a15]32,%e6
80002d06:	00 90       	ret 

80002d08 <_GLOBAL__sub_I_65535_0_isr_undef_handler>:
80002d08:	40 ae       	mov.aa %a14,%sp
80002d0a:	7b 00 00 f7 	movh %d15,28672
80002d0e:	60 ff       	mov.a %a15,%d15
80002d10:	d9 f4 00 45 	lea %a4,[%a15]20736
80002d14:	6d 00 14 19 	call 80005f3c <__gcov_init>
80002d18:	00 90       	ret 

80002d1a <_GLOBAL__sub_I_65535_0_Trap_0_Handler>:
80002d1a:	40 ae       	mov.aa %a14,%sp
80002d1c:	7b 00 00 f7 	movh %d15,28672
80002d20:	60 ff       	mov.a %a15,%d15
80002d22:	d9 f4 10 65 	lea %a4,[%a15]20880
80002d26:	6d 00 0b 19 	call 80005f3c <__gcov_init>
80002d2a:	00 90       	ret 

80002d2c <bsp_uc_scu_wdt_DisableSafetyWatchdog>:
80002d2c:	40 ae       	mov.aa %a14,%sp
80002d2e:	7b 00 00 f7 	movh %d15,28672
80002d32:	1b 8f 5b f6 	addi %d15,%d15,26040
80002d36:	60 ff       	mov.a %a15,%d15
80002d38:	09 f2 40 09 	ld.d %e2,[%a15]
80002d3c:	8b 12 80 40 	addx %d4,%d2,1
80002d40:	8b 03 a0 50 	addc %d5,%d3,0
80002d44:	7b 00 00 f7 	movh %d15,28672
80002d48:	1b 8f 5b f6 	addi %d15,%d15,26040
80002d4c:	60 ff       	mov.a %a15,%d15
80002d4e:	89 f4 40 09 	st.d [%a15],%e4
80002d52:	6d 00 d6 3b 	call 8000a4fe <unlock_safety_wdtcon>
80002d56:	7b 00 00 f7 	movh %d15,28672
80002d5a:	1b 8f 5b f6 	addi %d15,%d15,26040
80002d5e:	60 ff       	mov.a %a15,%d15
80002d60:	09 f2 48 09 	ld.d %e2,[%a15]8
80002d64:	8b 12 80 a0 	addx %d10,%d2,1
80002d68:	8b 03 a0 b0 	addc %d11,%d3,0
80002d6c:	7b 00 00 f7 	movh %d15,28672
80002d70:	1b 8f 5b f6 	addi %d15,%d15,26040
80002d74:	60 ff       	mov.a %a15,%d15
80002d76:	89 fa 48 09 	st.d [%a15]8,%e10
80002d7a:	7b 30 00 2f 	movh %d2,61443
80002d7e:	1b 42 0f 26 	addi %d2,%d2,24820
80002d82:	60 2f       	mov.a %a15,%d2
80002d84:	4c f0       	ld.w %d15,[%a15]0
80002d86:	b7 1f 81 f1 	insert %d15,%d15,1,3,1
80002d8a:	60 2f       	mov.a %a15,%d2
80002d8c:	68 0f       	st.w [%a15]0,%d15
80002d8e:	6d 00 c8 3b 	call 8000a51e <lock_safety_wdtcon>
80002d92:	7b 00 00 f7 	movh %d15,28672
80002d96:	1b 8f 5b f6 	addi %d15,%d15,26040
80002d9a:	60 ff       	mov.a %a15,%d15
80002d9c:	09 f2 50 09 	ld.d %e2,[%a15]16
80002da0:	8b 12 80 80 	addx %d8,%d2,1
80002da4:	8b 03 a0 90 	addc %d9,%d3,0
80002da8:	7b 00 00 f7 	movh %d15,28672
80002dac:	1b 8f 5b f6 	addi %d15,%d15,26040
80002db0:	60 ff       	mov.a %a15,%d15
80002db2:	89 f8 50 09 	st.d [%a15]16,%e8
80002db6:	00 90       	ret 

80002db8 <bsp_uc_scu_wdt_DisableCpuWatchdog>:
80002db8:	40 ae       	mov.aa %a14,%sp
80002dba:	20 08       	sub.a %sp,8
80002dbc:	7b 00 00 f7 	movh %d15,28672
80002dc0:	1b 8f 59 f6 	addi %d15,%d15,26008
80002dc4:	60 ff       	mov.a %a15,%d15
80002dc6:	09 f2 40 09 	ld.d %e2,[%a15]
80002dca:	8b 12 80 40 	addx %d4,%d2,1
80002dce:	8b 03 a0 50 	addc %d5,%d3,0
80002dd2:	7b 00 00 f7 	movh %d15,28672
80002dd6:	1b 8f 59 f6 	addi %d15,%d15,26008
80002dda:	60 ff       	mov.a %a15,%d15
80002ddc:	89 f4 40 09 	st.d [%a15],%e4
80002de0:	6d 00 12 0b 	call 80004404 <bsp_uc_core_GetCurrentCore>
80002de4:	59 e2 fc ff 	st.w [%a14]-4,%d2
80002de8:	7b 00 00 f7 	movh %d15,28672
80002dec:	1b 8f 59 f6 	addi %d15,%d15,26008
80002df0:	60 ff       	mov.a %a15,%d15
80002df2:	09 f2 48 09 	ld.d %e2,[%a15]8
80002df6:	8b 12 80 c0 	addx %d12,%d2,1
80002dfa:	8b 03 a0 d0 	addc %d13,%d3,0
80002dfe:	7b 00 00 f7 	movh %d15,28672
80002e02:	1b 8f 59 f6 	addi %d15,%d15,26008
80002e06:	60 ff       	mov.a %a15,%d15
80002e08:	89 fc 48 09 	st.d [%a15]8,%e12
80002e0c:	6d 00 4d 3b 	call 8000a4a6 <unlock_wdtcon>
80002e10:	7b 00 00 f7 	movh %d15,28672
80002e14:	1b 8f 59 f6 	addi %d15,%d15,26008
80002e18:	60 ff       	mov.a %a15,%d15
80002e1a:	09 f2 50 09 	ld.d %e2,[%a15]16
80002e1e:	8b 12 80 a0 	addx %d10,%d2,1
80002e22:	8b 03 a0 b0 	addc %d11,%d3,0
80002e26:	7b 00 00 f7 	movh %d15,28672
80002e2a:	1b 8f 59 f6 	addi %d15,%d15,26008
80002e2e:	60 ff       	mov.a %a15,%d15
80002e30:	89 fa 50 09 	st.d [%a15]16,%e10
80002e34:	7b 30 00 2f 	movh %d2,61443
80002e38:	1b 02 00 26 	addi %d2,%d2,24576
80002e3c:	19 ef fc ff 	ld.w %d15,[%a14]-4
80002e40:	53 cf 20 f0 	mul %d15,%d15,12
80002e44:	42 2f       	add %d15,%d2
80002e46:	1b 4f 10 20 	addi %d2,%d15,260
80002e4a:	60 2f       	mov.a %a15,%d2
80002e4c:	4c f0       	ld.w %d15,[%a15]0
80002e4e:	b7 1f 81 f1 	insert %d15,%d15,1,3,1
80002e52:	60 2f       	mov.a %a15,%d2
80002e54:	68 0f       	st.w [%a15]0,%d15
80002e56:	6d 00 3e 3b 	call 8000a4d2 <lock_wdtcon>
80002e5a:	7b 00 00 f7 	movh %d15,28672
80002e5e:	1b 8f 59 f6 	addi %d15,%d15,26008
80002e62:	60 ff       	mov.a %a15,%d15
80002e64:	09 f2 58 09 	ld.d %e2,[%a15]24
80002e68:	8b 12 80 80 	addx %d8,%d2,1
80002e6c:	8b 03 a0 90 	addc %d9,%d3,0
80002e70:	7b 00 00 f7 	movh %d15,28672
80002e74:	1b 8f 59 f6 	addi %d15,%d15,26008
80002e78:	60 ff       	mov.a %a15,%d15
80002e7a:	89 f8 58 09 	st.d [%a15]24,%e8
80002e7e:	00 90       	ret 

80002e80 <bsp_uc_scu_EnableXOSC>:
80002e80:	40 ae       	mov.aa %a14,%sp
80002e82:	20 18       	sub.a %sp,24
80002e84:	7b 00 00 27 	movh %d2,28672
80002e88:	1b 02 55 26 	addi %d2,%d2,25936
80002e8c:	60 2f       	mov.a %a15,%d2
80002e8e:	09 f2 40 09 	ld.d %e2,[%a15]
80002e92:	8b 12 80 40 	addx %d4,%d2,1
80002e96:	8b 03 a0 50 	addc %d5,%d3,0
80002e9a:	7b 00 00 27 	movh %d2,28672
80002e9e:	1b 02 55 26 	addi %d2,%d2,25936
80002ea2:	60 2f       	mov.a %a15,%d2
80002ea4:	89 f4 40 09 	st.d [%a15],%e4
80002ea8:	6d 00 2b 3b 	call 8000a4fe <unlock_safety_wdtcon>
80002eac:	7b 30 00 2f 	movh %d2,61443
80002eb0:	1b 02 03 26 	addi %d2,%d2,24624
80002eb4:	60 2f       	mov.a %a15,%d2
80002eb6:	48 02       	ld.w %d2,[%a15]0
80002eb8:	37 02 62 2e 	extr.u %d2,%d2,28,2
80002ebc:	8f f2 0f 21 	and %d2,%d2,255
80002ec0:	df 02 7c 00 	jeq %d2,0,80002fb8 <bsp_uc_scu_EnableXOSC+0x138>
80002ec4:	00 00       	nop 
80002ec6:	7b 30 00 2f 	movh %d2,61443
80002eca:	1b 02 03 26 	addi %d2,%d2,24624
80002ece:	60 2f       	mov.a %a15,%d2
80002ed0:	48 02       	ld.w %d2,[%a15]0
80002ed2:	37 02 e1 2f 	extr.u %d2,%d2,31,1
80002ed6:	8f f2 0f 21 	and %d2,%d2,255
80002eda:	df 02 1b 00 	jeq %d2,0,80002f10 <bsp_uc_scu_EnableXOSC+0x90>
80002ede:	7b 00 00 27 	movh %d2,28672
80002ee2:	1b 02 55 26 	addi %d2,%d2,25936
80002ee6:	60 2f       	mov.a %a15,%d2
80002ee8:	09 f2 48 09 	ld.d %e2,[%a15]8
80002eec:	8b 12 80 40 	addx %d4,%d2,1
80002ef0:	59 e4 f8 ff 	st.w [%a14]-8,%d4
80002ef4:	8b 03 a0 50 	addc %d5,%d3,0
80002ef8:	59 e5 fc ff 	st.w [%a14]-4,%d5
80002efc:	7b 00 00 27 	movh %d2,28672
80002f00:	1b 02 55 26 	addi %d2,%d2,25936
80002f04:	09 e4 78 f9 	ld.d %e4,[%a14]-8
80002f08:	60 2f       	mov.a %a15,%d2
80002f0a:	89 f4 48 09 	st.d [%a15]8,%e4
80002f0e:	3c dc       	j 80002ec6 <bsp_uc_scu_EnableXOSC+0x46>
80002f10:	7b 30 00 3f 	movh %d3,61443
80002f14:	1b 03 03 36 	addi %d3,%d3,24624
80002f18:	60 3f       	mov.a %a15,%d3
80002f1a:	48 02       	ld.w %d2,[%a15]0
80002f1c:	7b 00 00 4d 	movh %d4,53248
80002f20:	c2 f4       	add %d4,-1
80002f22:	26 42       	and %d2,%d4
80002f24:	60 3f       	mov.a %a15,%d3
80002f26:	68 02       	st.w [%a15]0,%d2
80002f28:	7b 30 00 3f 	movh %d3,61443
80002f2c:	1b 03 03 36 	addi %d3,%d3,24624
80002f30:	60 3f       	mov.a %a15,%d3
80002f32:	48 02       	ld.w %d2,[%a15]0
80002f34:	b7 12 01 2f 	insert %d2,%d2,1,30,1
80002f38:	60 3f       	mov.a %a15,%d3
80002f3a:	68 02       	st.w [%a15]0,%d2
80002f3c:	7b 00 00 27 	movh %d2,28672
80002f40:	1b 02 55 26 	addi %d2,%d2,25936
80002f44:	60 2f       	mov.a %a15,%d2
80002f46:	09 f2 50 09 	ld.d %e2,[%a15]16
80002f4a:	8b 12 80 40 	addx %d4,%d2,1
80002f4e:	59 e4 f0 ff 	st.w [%a14]-16,%d4
80002f52:	8b 03 a0 50 	addc %d5,%d3,0
80002f56:	59 e5 f4 ff 	st.w [%a14]-12,%d5
80002f5a:	7b 00 00 27 	movh %d2,28672
80002f5e:	1b 02 55 26 	addi %d2,%d2,25936
80002f62:	09 e4 70 f9 	ld.d %e4,[%a14]-16
80002f66:	60 2f       	mov.a %a15,%d2
80002f68:	89 f4 50 09 	st.d [%a15]16,%e4
80002f6c:	00 00       	nop 
80002f6e:	7b 30 00 2f 	movh %d2,61443
80002f72:	1b 02 03 26 	addi %d2,%d2,24624
80002f76:	60 2f       	mov.a %a15,%d2
80002f78:	48 02       	ld.w %d2,[%a15]0
80002f7a:	37 02 e1 2f 	extr.u %d2,%d2,31,1
80002f7e:	8f f2 0f 21 	and %d2,%d2,255
80002f82:	df 02 1b 00 	jeq %d2,0,80002fb8 <bsp_uc_scu_EnableXOSC+0x138>
80002f86:	7b 00 00 27 	movh %d2,28672
80002f8a:	1b 02 55 26 	addi %d2,%d2,25936
80002f8e:	60 2f       	mov.a %a15,%d2
80002f90:	09 f2 58 09 	ld.d %e2,[%a15]24
80002f94:	8b 12 80 40 	addx %d4,%d2,1
80002f98:	59 e4 e8 ff 	st.w [%a14]-24,%d4
80002f9c:	8b 03 a0 50 	addc %d5,%d3,0
80002fa0:	59 e5 ec ff 	st.w [%a14]-20,%d5
80002fa4:	7b 00 00 27 	movh %d2,28672
80002fa8:	1b 02 55 26 	addi %d2,%d2,25936
80002fac:	09 e4 68 f9 	ld.d %e4,[%a14]-24
80002fb0:	60 2f       	mov.a %a15,%d2
80002fb2:	89 f4 58 09 	st.d [%a15]24,%e4
80002fb6:	3c dc       	j 80002f6e <bsp_uc_scu_EnableXOSC+0xee>
80002fb8:	7b 30 00 3f 	movh %d3,61443
80002fbc:	1b 03 01 36 	addi %d3,%d3,24592
80002fc0:	60 3f       	mov.a %a15,%d3
80002fc2:	48 02       	ld.w %d2,[%a15]0
80002fc4:	8f 02 c6 21 	andn %d2,%d2,96
80002fc8:	60 3f       	mov.a %a15,%d3
80002fca:	68 02       	st.w [%a15]0,%d2
80002fcc:	00 00       	nop 
80002fce:	7b 30 00 2f 	movh %d2,61443
80002fd2:	1b 42 03 26 	addi %d2,%d2,24628
80002fd6:	60 2f       	mov.a %a15,%d2
80002fd8:	48 02       	ld.w %d2,[%a15]0
80002fda:	37 02 e1 2f 	extr.u %d2,%d2,31,1
80002fde:	8f f2 0f 21 	and %d2,%d2,255
80002fe2:	df 02 17 00 	jeq %d2,0,80003010 <bsp_uc_scu_EnableXOSC+0x190>
80002fe6:	7b 00 00 27 	movh %d2,28672
80002fea:	1b 02 55 26 	addi %d2,%d2,25936
80002fee:	60 2f       	mov.a %a15,%d2
80002ff0:	09 f2 60 09 	ld.d %e2,[%a15]32
80002ff4:	8b 12 80 40 	addx %d4,%d2,1
80002ff8:	60 4c       	mov.a %a12,%d4
80002ffa:	8b 03 a0 50 	addc %d5,%d3,0
80002ffe:	60 5d       	mov.a %a13,%d5
80003000:	7b 00 00 27 	movh %d2,28672
80003004:	1b 02 55 26 	addi %d2,%d2,25936
80003008:	60 2f       	mov.a %a15,%d2
8000300a:	89 fc e0 09 	st.da [%a15]32,%a12
8000300e:	3c e0       	j 80002fce <bsp_uc_scu_EnableXOSC+0x14e>
80003010:	7b 00 00 27 	movh %d2,28672
80003014:	1b 02 55 26 	addi %d2,%d2,25936
80003018:	60 2f       	mov.a %a15,%d2
8000301a:	09 f2 68 09 	ld.d %e2,[%a15]40
8000301e:	8b 12 80 e0 	addx %d14,%d2,1
80003022:	8b 03 a0 f0 	addc %d15,%d3,0
80003026:	7b 00 00 27 	movh %d2,28672
8000302a:	1b 02 55 26 	addi %d2,%d2,25936
8000302e:	60 2f       	mov.a %a15,%d2
80003030:	89 fe 68 09 	st.d [%a15]40,%e14
80003034:	7b 30 00 2f 	movh %d2,61443
80003038:	1b 42 03 26 	addi %d2,%d2,24628
8000303c:	60 2f       	mov.a %a15,%d2
8000303e:	4c f0       	ld.w %d15,[%a15]0
80003040:	b7 1f 02 fe 	insert %d15,%d15,1,28,2
80003044:	60 2f       	mov.a %a15,%d2
80003046:	68 0f       	st.w [%a15]0,%d15
80003048:	7b 30 00 2f 	movh %d2,61443
8000304c:	1b 42 03 26 	addi %d2,%d2,24628
80003050:	60 2f       	mov.a %a15,%d2
80003052:	4c f0       	ld.w %d15,[%a15]0
80003054:	b7 1f 01 ff 	insert %d15,%d15,1,30,1
80003058:	60 2f       	mov.a %a15,%d2
8000305a:	68 0f       	st.w [%a15]0,%d15
8000305c:	7b 30 00 2f 	movh %d2,61443
80003060:	1b 02 01 26 	addi %d2,%d2,24592
80003064:	60 2f       	mov.a %a15,%d2
80003066:	4c f0       	ld.w %d15,[%a15]0
80003068:	b7 7f 05 f8 	insert %d15,%d15,7,16,5
8000306c:	60 2f       	mov.a %a15,%d2
8000306e:	68 0f       	st.w [%a15]0,%d15
80003070:	7b 30 00 2f 	movh %d2,61443
80003074:	1b 02 01 26 	addi %d2,%d2,24592
80003078:	60 2f       	mov.a %a15,%d2
8000307a:	4c f0       	ld.w %d15,[%a15]0
8000307c:	b7 1f 01 f1 	insert %d15,%d15,1,2,1
80003080:	60 2f       	mov.a %a15,%d2
80003082:	68 0f       	st.w [%a15]0,%d15
80003084:	6d 00 4d 3a 	call 8000a51e <lock_safety_wdtcon>
80003088:	00 00       	nop 
8000308a:	7b 30 00 ff 	movh %d15,61443
8000308e:	1b 0f 01 f6 	addi %d15,%d15,24592
80003092:	60 ff       	mov.a %a15,%d15
80003094:	4c f0       	ld.w %d15,[%a15]0
80003096:	37 0f e1 f0 	extr.u %d15,%d15,1,1
8000309a:	16 ff       	and %d15,255
8000309c:	ee 14       	jnz %d15,800030c4 <bsp_uc_scu_EnableXOSC+0x244>
8000309e:	7b 00 00 f7 	movh %d15,28672
800030a2:	1b 0f 55 f6 	addi %d15,%d15,25936
800030a6:	60 ff       	mov.a %a15,%d15
800030a8:	09 f2 70 09 	ld.d %e2,[%a15]48
800030ac:	8b 12 80 c0 	addx %d12,%d2,1
800030b0:	8b 03 a0 d0 	addc %d13,%d3,0
800030b4:	7b 00 00 f7 	movh %d15,28672
800030b8:	1b 0f 55 f6 	addi %d15,%d15,25936
800030bc:	60 ff       	mov.a %a15,%d15
800030be:	89 fc 70 09 	st.d [%a15]48,%e12
800030c2:	3c e4       	j 8000308a <bsp_uc_scu_EnableXOSC+0x20a>
800030c4:	7b 00 00 f7 	movh %d15,28672
800030c8:	1b 0f 55 f6 	addi %d15,%d15,25936
800030cc:	60 ff       	mov.a %a15,%d15
800030ce:	09 f2 78 09 	ld.d %e2,[%a15]56
800030d2:	8b 12 80 a0 	addx %d10,%d2,1
800030d6:	8b 03 a0 b0 	addc %d11,%d3,0
800030da:	7b 00 00 f7 	movh %d15,28672
800030de:	1b 0f 55 f6 	addi %d15,%d15,25936
800030e2:	60 ff       	mov.a %a15,%d15
800030e4:	89 fa 78 09 	st.d [%a15]56,%e10
800030e8:	7b 30 00 ff 	movh %d15,61443
800030ec:	1b 0f 01 f6 	addi %d15,%d15,24592
800030f0:	60 ff       	mov.a %a15,%d15
800030f2:	4c f0       	ld.w %d15,[%a15]0
800030f4:	37 0f 61 f4 	extr.u %d15,%d15,8,1
800030f8:	16 ff       	and %d15,255
800030fa:	6e c8       	jz %d15,8000308a <bsp_uc_scu_EnableXOSC+0x20a>
800030fc:	7b 00 00 f7 	movh %d15,28672
80003100:	1b 0f 55 f6 	addi %d15,%d15,25936
80003104:	60 ff       	mov.a %a15,%d15
80003106:	09 f2 40 19 	ld.d %e2,[%a15]64
8000310a:	8b 12 80 80 	addx %d8,%d2,1
8000310e:	8b 03 a0 90 	addc %d9,%d3,0
80003112:	7b 00 00 f7 	movh %d15,28672
80003116:	1b 0f 55 f6 	addi %d15,%d15,25936
8000311a:	60 ff       	mov.a %a15,%d15
8000311c:	89 f8 40 19 	st.d [%a15]64,%e8
80003120:	00 90       	ret 

80003122 <bsp_uc_scu_EnablePLL>:
80003122:	40 ae       	mov.aa %a14,%sp
80003124:	20 20       	sub.a %sp,32
80003126:	59 e4 fc ff 	st.w [%a14]-4,%d4
8000312a:	59 e5 f8 ff 	st.w [%a14]-8,%d5
8000312e:	59 e6 f4 ff 	st.w [%a14]-12,%d6
80003132:	7b 00 00 27 	movh %d2,28672
80003136:	1b 02 51 26 	addi %d2,%d2,25872
8000313a:	60 2f       	mov.a %a15,%d2
8000313c:	09 f2 40 09 	ld.d %e2,[%a15]
80003140:	8b 12 80 00 	addx %d0,%d2,1
80003144:	8b 03 a0 10 	addc %d1,%d3,0
80003148:	7b 00 00 27 	movh %d2,28672
8000314c:	1b 02 51 26 	addi %d2,%d2,25872
80003150:	60 2f       	mov.a %a15,%d2
80003152:	89 f0 40 09 	st.d [%a15],%e0
80003156:	6d 00 d4 39 	call 8000a4fe <unlock_safety_wdtcon>
8000315a:	7b 00 00 27 	movh %d2,28672
8000315e:	1b 02 51 26 	addi %d2,%d2,25872
80003162:	60 2f       	mov.a %a15,%d2
80003164:	09 f2 48 09 	ld.d %e2,[%a15]8
80003168:	8b 12 80 40 	addx %d4,%d2,1
8000316c:	59 e4 ec ff 	st.w [%a14]-20,%d4
80003170:	8b 03 a0 50 	addc %d5,%d3,0
80003174:	59 e5 f0 ff 	st.w [%a14]-16,%d5
80003178:	7b 00 00 27 	movh %d2,28672
8000317c:	1b 02 51 26 	addi %d2,%d2,25872
80003180:	09 e4 6c f9 	ld.d %e4,[%a14]-20
80003184:	60 2f       	mov.a %a15,%d2
80003186:	89 f4 48 09 	st.d [%a15]8,%e4
8000318a:	7b 30 00 2f 	movh %d2,61443
8000318e:	1b 02 03 26 	addi %d2,%d2,24624
80003192:	60 2f       	mov.a %a15,%d2
80003194:	48 02       	ld.w %d2,[%a15]0
80003196:	37 02 62 2e 	extr.u %d2,%d2,28,2
8000319a:	8f f2 0f 21 	and %d2,%d2,255
8000319e:	df 02 52 00 	jeq %d2,0,80003242 <bsp_uc_scu_EnablePLL+0x120>
800031a2:	00 00       	nop 
800031a4:	7b 30 00 2f 	movh %d2,61443
800031a8:	1b 02 03 26 	addi %d2,%d2,24624
800031ac:	60 2f       	mov.a %a15,%d2
800031ae:	48 02       	ld.w %d2,[%a15]0
800031b0:	37 02 e1 2f 	extr.u %d2,%d2,31,1
800031b4:	8f f2 0f 21 	and %d2,%d2,255
800031b8:	df 02 1b 00 	jeq %d2,0,800031ee <bsp_uc_scu_EnablePLL+0xcc>
800031bc:	7b 00 00 27 	movh %d2,28672
800031c0:	1b 02 51 26 	addi %d2,%d2,25872
800031c4:	60 2f       	mov.a %a15,%d2
800031c6:	09 f2 50 09 	ld.d %e2,[%a15]16
800031ca:	8b 12 80 40 	addx %d4,%d2,1
800031ce:	59 e4 e4 ff 	st.w [%a14]-28,%d4
800031d2:	8b 03 a0 50 	addc %d5,%d3,0
800031d6:	59 e5 e8 ff 	st.w [%a14]-24,%d5
800031da:	7b 00 00 27 	movh %d2,28672
800031de:	1b 02 51 26 	addi %d2,%d2,25872
800031e2:	09 e4 64 f9 	ld.d %e4,[%a14]-28
800031e6:	60 2f       	mov.a %a15,%d2
800031e8:	89 f4 50 09 	st.d [%a15]16,%e4
800031ec:	3c dc       	j 800031a4 <bsp_uc_scu_EnablePLL+0x82>
800031ee:	7b 30 00 3f 	movh %d3,61443
800031f2:	1b 03 03 36 	addi %d3,%d3,24624
800031f6:	60 3f       	mov.a %a15,%d3
800031f8:	48 02       	ld.w %d2,[%a15]0
800031fa:	7b 00 00 4d 	movh %d4,53248
800031fe:	c2 f4       	add %d4,-1
80003200:	26 42       	and %d2,%d4
80003202:	60 3f       	mov.a %a15,%d3
80003204:	68 02       	st.w [%a15]0,%d2
80003206:	7b 30 00 3f 	movh %d3,61443
8000320a:	1b 03 03 36 	addi %d3,%d3,24624
8000320e:	60 3f       	mov.a %a15,%d3
80003210:	48 02       	ld.w %d2,[%a15]0
80003212:	b7 12 01 2f 	insert %d2,%d2,1,30,1
80003216:	60 3f       	mov.a %a15,%d3
80003218:	68 02       	st.w [%a15]0,%d2
8000321a:	7b 00 00 27 	movh %d2,28672
8000321e:	1b 02 51 26 	addi %d2,%d2,25872
80003222:	60 2f       	mov.a %a15,%d2
80003224:	09 f2 58 09 	ld.d %e2,[%a15]24
80003228:	8b 12 80 40 	addx %d4,%d2,1
8000322c:	60 4c       	mov.a %a12,%d4
8000322e:	8b 03 a0 50 	addc %d5,%d3,0
80003232:	60 5d       	mov.a %a13,%d5
80003234:	7b 00 00 27 	movh %d2,28672
80003238:	1b 02 51 26 	addi %d2,%d2,25872
8000323c:	60 2f       	mov.a %a15,%d2
8000323e:	89 fc d8 09 	st.da [%a15]24,%a12
80003242:	7b 30 00 3f 	movh %d3,61443
80003246:	1b 83 01 36 	addi %d3,%d3,24600
8000324a:	60 3f       	mov.a %a15,%d3
8000324c:	48 02       	ld.w %d2,[%a15]0
8000324e:	7b f0 ff 4f 	movh %d4,65535
80003252:	c2 f4       	add %d4,-1
80003254:	26 42       	and %d2,%d4
80003256:	60 3f       	mov.a %a15,%d3
80003258:	68 02       	st.w [%a15]0,%d2
8000325a:	3b 40 06 40 	mov %d4,100
8000325e:	3b a0 00 50 	mov %d5,10
80003262:	6d 00 2a 09 	call 800044b6 <bsp_uc_stm_Wait>
80003266:	7b 30 00 3f 	movh %d3,61443
8000326a:	1b 83 01 36 	addi %d3,%d3,24600
8000326e:	60 3f       	mov.a %a15,%d3
80003270:	48 02       	ld.w %d2,[%a15]0
80003272:	b7 12 01 28 	insert %d2,%d2,1,16,1
80003276:	60 3f       	mov.a %a15,%d3
80003278:	68 02       	st.w [%a15]0,%d2
8000327a:	7b 30 00 3f 	movh %d3,61443
8000327e:	1b c3 01 36 	addi %d3,%d3,24604
80003282:	19 e2 f4 ff 	ld.w %d2,[%a14]-12
80003286:	8f f2 0f 21 	and %d2,%d2,255
8000328a:	8f f2 07 21 	and %d2,%d2,127
8000328e:	8f f2 0f 41 	and %d4,%d2,255
80003292:	60 3f       	mov.a %a15,%d3
80003294:	48 02       	ld.w %d2,[%a15]0
80003296:	37 42 07 20 	insert %d2,%d2,%d4,0,7
8000329a:	60 3f       	mov.a %a15,%d3
8000329c:	68 02       	st.w [%a15]0,%d2
8000329e:	00 00       	nop 
800032a0:	7b 30 00 2f 	movh %d2,61443
800032a4:	1b 42 01 26 	addi %d2,%d2,24596
800032a8:	60 2f       	mov.a %a15,%d2
800032aa:	48 02       	ld.w %d2,[%a15]0
800032ac:	37 02 e1 22 	extr.u %d2,%d2,5,1
800032b0:	8f f2 0f 21 	and %d2,%d2,255
800032b4:	df 02 15 80 	jne %d2,0,800032de <bsp_uc_scu_EnablePLL+0x1bc>
800032b8:	7b 00 00 27 	movh %d2,28672
800032bc:	1b 02 51 26 	addi %d2,%d2,25872
800032c0:	60 2f       	mov.a %a15,%d2
800032c2:	09 f2 60 09 	ld.d %e2,[%a15]32
800032c6:	8b 12 80 e0 	addx %d14,%d2,1
800032ca:	8b 03 a0 f0 	addc %d15,%d3,0
800032ce:	7b 00 00 27 	movh %d2,28672
800032d2:	1b 02 51 26 	addi %d2,%d2,25872
800032d6:	60 2f       	mov.a %a15,%d2
800032d8:	89 fe 60 09 	st.d [%a15]32,%e14
800032dc:	3c e2       	j 800032a0 <bsp_uc_scu_EnablePLL+0x17e>
800032de:	7b 30 00 2f 	movh %d2,61443
800032e2:	1b 82 01 26 	addi %d2,%d2,24600
800032e6:	19 ef fc ff 	ld.w %d15,[%a14]-4
800032ea:	16 ff       	and %d15,255
800032ec:	16 0f       	and %d15,15
800032ee:	8f ff 0f 31 	and %d3,%d15,255
800032f2:	60 2f       	mov.a %a15,%d2
800032f4:	4c f0       	ld.w %d15,[%a15]0
800032f6:	37 3f 04 fc 	insert %d15,%d15,%d3,24,4
800032fa:	60 2f       	mov.a %a15,%d2
800032fc:	68 0f       	st.w [%a15]0,%d15
800032fe:	7b 30 00 2f 	movh %d2,61443
80003302:	1b 82 01 26 	addi %d2,%d2,24600
80003306:	19 ef f8 ff 	ld.w %d15,[%a14]-8
8000330a:	16 ff       	and %d15,255
8000330c:	16 7f       	and %d15,127
8000330e:	8f ff 0f 31 	and %d3,%d15,255
80003312:	60 2f       	mov.a %a15,%d2
80003314:	4c f0       	ld.w %d15,[%a15]0
80003316:	37 3f 87 f4 	insert %d15,%d15,%d3,9,7
8000331a:	60 2f       	mov.a %a15,%d2
8000331c:	68 0f       	st.w [%a15]0,%d15
8000331e:	7b 30 00 2f 	movh %d2,61443
80003322:	1b 82 01 26 	addi %d2,%d2,24600
80003326:	60 2f       	mov.a %a15,%d2
80003328:	4c f0       	ld.w %d15,[%a15]0
8000332a:	b7 1f 01 f3 	insert %d15,%d15,1,6,1
8000332e:	60 2f       	mov.a %a15,%d2
80003330:	68 0f       	st.w [%a15]0,%d15
80003332:	7b 30 00 2f 	movh %d2,61443
80003336:	1b 82 01 26 	addi %d2,%d2,24600
8000333a:	60 2f       	mov.a %a15,%d2
8000333c:	4c f0       	ld.w %d15,[%a15]0
8000333e:	b7 1f 81 f2 	insert %d15,%d15,1,5,1
80003342:	60 2f       	mov.a %a15,%d2
80003344:	68 0f       	st.w [%a15]0,%d15
80003346:	7b 30 00 2f 	movh %d2,61443
8000334a:	1b 82 01 26 	addi %d2,%d2,24600
8000334e:	60 2f       	mov.a %a15,%d2
80003350:	4c f0       	ld.w %d15,[%a15]0
80003352:	b7 1f 01 f9 	insert %d15,%d15,1,18,1
80003356:	60 2f       	mov.a %a15,%d2
80003358:	68 0f       	st.w [%a15]0,%d15
8000335a:	00 00       	nop 
8000335c:	7b 30 00 ff 	movh %d15,61443
80003360:	1b 4f 01 f6 	addi %d15,%d15,24596
80003364:	60 ff       	mov.a %a15,%d15
80003366:	4c f0       	ld.w %d15,[%a15]0
80003368:	37 0f 61 f1 	extr.u %d15,%d15,2,1
8000336c:	16 ff       	and %d15,255
8000336e:	ee 14       	jnz %d15,80003396 <bsp_uc_scu_EnablePLL+0x274>
80003370:	7b 00 00 f7 	movh %d15,28672
80003374:	1b 0f 51 f6 	addi %d15,%d15,25872
80003378:	60 ff       	mov.a %a15,%d15
8000337a:	09 f2 68 09 	ld.d %e2,[%a15]40
8000337e:	8b 12 80 c0 	addx %d12,%d2,1
80003382:	8b 03 a0 d0 	addc %d13,%d3,0
80003386:	7b 00 00 f7 	movh %d15,28672
8000338a:	1b 0f 51 f6 	addi %d15,%d15,25872
8000338e:	60 ff       	mov.a %a15,%d15
80003390:	89 fc 68 09 	st.d [%a15]40,%e12
80003394:	3c e4       	j 8000335c <bsp_uc_scu_EnablePLL+0x23a>
80003396:	7b 00 00 f7 	movh %d15,28672
8000339a:	1b 0f 51 f6 	addi %d15,%d15,25872
8000339e:	60 ff       	mov.a %a15,%d15
800033a0:	09 f2 70 09 	ld.d %e2,[%a15]48
800033a4:	8b 12 80 a0 	addx %d10,%d2,1
800033a8:	8b 03 a0 b0 	addc %d11,%d3,0
800033ac:	7b 00 00 f7 	movh %d15,28672
800033b0:	1b 0f 51 f6 	addi %d15,%d15,25872
800033b4:	60 ff       	mov.a %a15,%d15
800033b6:	89 fa 70 09 	st.d [%a15]48,%e10
800033ba:	7b 30 00 2f 	movh %d2,61443
800033be:	1b 82 01 26 	addi %d2,%d2,24600
800033c2:	60 2f       	mov.a %a15,%d2
800033c4:	4c f0       	ld.w %d15,[%a15]0
800033c6:	8f 1f c0 f1 	andn %d15,%d15,1
800033ca:	60 2f       	mov.a %a15,%d2
800033cc:	68 0f       	st.w [%a15]0,%d15
800033ce:	6d 00 a8 38 	call 8000a51e <lock_safety_wdtcon>
800033d2:	7b 00 00 f7 	movh %d15,28672
800033d6:	1b 0f 51 f6 	addi %d15,%d15,25872
800033da:	60 ff       	mov.a %a15,%d15
800033dc:	09 f2 78 09 	ld.d %e2,[%a15]56
800033e0:	8b 12 80 80 	addx %d8,%d2,1
800033e4:	8b 03 a0 90 	addc %d9,%d3,0
800033e8:	7b 00 00 f7 	movh %d15,28672
800033ec:	1b 0f 51 f6 	addi %d15,%d15,25872
800033f0:	60 ff       	mov.a %a15,%d15
800033f2:	89 f8 78 09 	st.d [%a15]56,%e8
800033f6:	00 90       	ret 

800033f8 <bsp_uc_scu_SwitchSystemClock>:
800033f8:	40 ae       	mov.aa %a14,%sp
800033fa:	20 a8       	sub.a %sp,168
800033fc:	59 e4 fc ff 	st.w [%a14]-4,%d4
80003400:	19 ef fc ff 	ld.w %d15,[%a14]-4
80003404:	df 1f d7 00 	jeq %d15,1,800035b2 <bsp_uc_scu_SwitchSystemClock+0x1ba>
80003408:	bf 1f 06 80 	jlt.u %d15,1,80003414 <bsp_uc_scu_SwitchSystemClock+0x1c>
8000340c:	df 2f 42 02 	jeq %d15,2,80003890 <bsp_uc_scu_SwitchSystemClock+0x498>
80003410:	1d 00 95 03 	j 80003b3a <bsp_uc_scu_SwitchSystemClock+0x742>
80003414:	7b 00 00 f7 	movh %d15,28672
80003418:	1b 8f 3f f6 	addi %d15,%d15,25592
8000341c:	60 ff       	mov.a %a15,%d15
8000341e:	09 f2 40 09 	ld.d %e2,[%a15]
80003422:	8b 12 80 f0 	addx %d15,%d2,1
80003426:	59 ef f4 ff 	st.w [%a14]-12,%d15
8000342a:	8b 03 a0 f0 	addc %d15,%d3,0
8000342e:	59 ef f8 ff 	st.w [%a14]-8,%d15
80003432:	7b 00 00 f7 	movh %d15,28672
80003436:	1b 8f 3f f6 	addi %d15,%d15,25592
8000343a:	09 e2 74 f9 	ld.d %e2,[%a14]-12
8000343e:	60 ff       	mov.a %a15,%d15
80003440:	89 f2 40 09 	st.d [%a15],%e2
80003444:	7b 30 00 ff 	movh %d15,61443
80003448:	1b 0f 03 f6 	addi %d15,%d15,24624
8000344c:	60 ff       	mov.a %a15,%d15
8000344e:	4c f0       	ld.w %d15,[%a15]0
80003450:	37 0f 62 fe 	extr.u %d15,%d15,28,2
80003454:	16 ff       	and %d15,255
80003456:	df 0f 94 00 	jeq %d15,0,8000357e <bsp_uc_scu_SwitchSystemClock+0x186>
8000345a:	7b 00 00 f7 	movh %d15,28672
8000345e:	1b 8f 3f f6 	addi %d15,%d15,25592
80003462:	60 ff       	mov.a %a15,%d15
80003464:	09 f2 58 09 	ld.d %e2,[%a15]24
80003468:	8b 12 80 f0 	addx %d15,%d2,1
8000346c:	59 ef ec ff 	st.w [%a14]-20,%d15
80003470:	8b 03 a0 f0 	addc %d15,%d3,0
80003474:	59 ef f0 ff 	st.w [%a14]-16,%d15
80003478:	7b 00 00 f7 	movh %d15,28672
8000347c:	1b 8f 3f f6 	addi %d15,%d15,25592
80003480:	09 e2 6c f9 	ld.d %e2,[%a14]-20
80003484:	60 ff       	mov.a %a15,%d15
80003486:	89 f2 58 09 	st.d [%a15]24,%e2
8000348a:	6d 00 3a 38 	call 8000a4fe <unlock_safety_wdtcon>
8000348e:	00 00       	nop 
80003490:	7b 30 00 ff 	movh %d15,61443
80003494:	1b 0f 03 f6 	addi %d15,%d15,24624
80003498:	60 ff       	mov.a %a15,%d15
8000349a:	4c f0       	ld.w %d15,[%a15]0
8000349c:	37 0f e1 ff 	extr.u %d15,%d15,31,1
800034a0:	16 ff       	and %d15,255
800034a2:	6e 1a       	jz %d15,800034d6 <bsp_uc_scu_SwitchSystemClock+0xde>
800034a4:	7b 00 00 f7 	movh %d15,28672
800034a8:	1b 8f 3f f6 	addi %d15,%d15,25592
800034ac:	60 ff       	mov.a %a15,%d15
800034ae:	09 f2 60 09 	ld.d %e2,[%a15]32
800034b2:	8b 12 80 f0 	addx %d15,%d2,1
800034b6:	59 ef e4 ff 	st.w [%a14]-28,%d15
800034ba:	8b 03 a0 f0 	addc %d15,%d3,0
800034be:	59 ef e8 ff 	st.w [%a14]-24,%d15
800034c2:	7b 00 00 f7 	movh %d15,28672
800034c6:	1b 8f 3f f6 	addi %d15,%d15,25592
800034ca:	09 e2 64 f9 	ld.d %e2,[%a14]-28
800034ce:	60 ff       	mov.a %a15,%d15
800034d0:	89 f2 60 09 	st.d [%a15]32,%e2
800034d4:	3c de       	j 80003490 <bsp_uc_scu_SwitchSystemClock+0x98>
800034d6:	7b 30 00 2f 	movh %d2,61443
800034da:	1b 02 03 26 	addi %d2,%d2,24624
800034de:	60 2f       	mov.a %a15,%d2
800034e0:	4c f0       	ld.w %d15,[%a15]0
800034e2:	7b 00 00 3d 	movh %d3,53248
800034e6:	c2 f3       	add %d3,-1
800034e8:	26 3f       	and %d15,%d3
800034ea:	60 2f       	mov.a %a15,%d2
800034ec:	68 0f       	st.w [%a15]0,%d15
800034ee:	7b 30 00 2f 	movh %d2,61443
800034f2:	1b 02 03 26 	addi %d2,%d2,24624
800034f6:	60 2f       	mov.a %a15,%d2
800034f8:	4c f0       	ld.w %d15,[%a15]0
800034fa:	b7 1f 01 ff 	insert %d15,%d15,1,30,1
800034fe:	60 2f       	mov.a %a15,%d2
80003500:	68 0f       	st.w [%a15]0,%d15
80003502:	00 00       	nop 
80003504:	7b 30 00 ff 	movh %d15,61443
80003508:	1b 0f 03 f6 	addi %d15,%d15,24624
8000350c:	60 ff       	mov.a %a15,%d15
8000350e:	4c f0       	ld.w %d15,[%a15]0
80003510:	37 0f e1 ff 	extr.u %d15,%d15,31,1
80003514:	16 ff       	and %d15,255
80003516:	6e 1a       	jz %d15,8000354a <bsp_uc_scu_SwitchSystemClock+0x152>
80003518:	7b 00 00 f7 	movh %d15,28672
8000351c:	1b 8f 3f f6 	addi %d15,%d15,25592
80003520:	60 ff       	mov.a %a15,%d15
80003522:	09 f2 68 09 	ld.d %e2,[%a15]40
80003526:	8b 12 80 f0 	addx %d15,%d2,1
8000352a:	59 ef dc ff 	st.w [%a14]-36,%d15
8000352e:	8b 03 a0 f0 	addc %d15,%d3,0
80003532:	59 ef e0 ff 	st.w [%a14]-32,%d15
80003536:	7b 00 00 f7 	movh %d15,28672
8000353a:	1b 8f 3f f6 	addi %d15,%d15,25592
8000353e:	09 e2 5c f9 	ld.d %e2,[%a14]-36
80003542:	60 ff       	mov.a %a15,%d15
80003544:	89 f2 68 09 	st.d [%a15]40,%e2
80003548:	3c de       	j 80003504 <bsp_uc_scu_SwitchSystemClock+0x10c>
8000354a:	7b 00 00 f7 	movh %d15,28672
8000354e:	1b 8f 3f f6 	addi %d15,%d15,25592
80003552:	60 ff       	mov.a %a15,%d15
80003554:	09 f2 70 09 	ld.d %e2,[%a15]48
80003558:	8b 12 80 f0 	addx %d15,%d2,1
8000355c:	59 ef d4 ff 	st.w [%a14]-44,%d15
80003560:	8b 03 a0 f0 	addc %d15,%d3,0
80003564:	59 ef d8 ff 	st.w [%a14]-40,%d15
80003568:	7b 00 00 f7 	movh %d15,28672
8000356c:	1b 8f 3f f6 	addi %d15,%d15,25592
80003570:	09 e2 54 f9 	ld.d %e2,[%a14]-44
80003574:	60 ff       	mov.a %a15,%d15
80003576:	89 f2 70 09 	st.d [%a15]48,%e2
8000357a:	6d 00 d2 37 	call 8000a51e <lock_safety_wdtcon>
8000357e:	7b 00 00 f7 	movh %d15,28672
80003582:	1b 8f 3f f6 	addi %d15,%d15,25592
80003586:	60 ff       	mov.a %a15,%d15
80003588:	09 f2 78 09 	ld.d %e2,[%a15]56
8000358c:	8b 12 80 f0 	addx %d15,%d2,1
80003590:	59 ef cc ff 	st.w [%a14]-52,%d15
80003594:	8b 03 a0 f0 	addc %d15,%d3,0
80003598:	59 ef d0 ff 	st.w [%a14]-48,%d15
8000359c:	7b 00 00 f7 	movh %d15,28672
800035a0:	1b 8f 3f f6 	addi %d15,%d15,25592
800035a4:	09 e2 4c f9 	ld.d %e2,[%a14]-52
800035a8:	60 ff       	mov.a %a15,%d15
800035aa:	89 f2 78 09 	st.d [%a15]56,%e2
800035ae:	1d 00 db 02 	j 80003b64 <bsp_uc_scu_SwitchSystemClock+0x76c>
800035b2:	7b 00 00 f7 	movh %d15,28672
800035b6:	1b 8f 3f f6 	addi %d15,%d15,25592
800035ba:	60 ff       	mov.a %a15,%d15
800035bc:	09 f2 48 09 	ld.d %e2,[%a15]8
800035c0:	8b 12 80 00 	addx %d0,%d2,1
800035c4:	8b 03 a0 10 	addc %d1,%d3,0
800035c8:	7b 00 00 f7 	movh %d15,28672
800035cc:	1b 8f 3f f6 	addi %d15,%d15,25592
800035d0:	60 ff       	mov.a %a15,%d15
800035d2:	89 f0 48 09 	st.d [%a15]8,%e0
800035d6:	7b 30 00 ff 	movh %d15,61443
800035da:	1b 0f 03 f6 	addi %d15,%d15,24624
800035de:	60 ff       	mov.a %a15,%d15
800035e0:	4c f0       	ld.w %d15,[%a15]0
800035e2:	37 0f 62 fe 	extr.u %d15,%d15,28,2
800035e6:	16 ff       	and %d15,255
800035e8:	6e 16       	jz %d15,80003614 <bsp_uc_scu_SwitchSystemClock+0x21c>
800035ea:	7b 00 00 f7 	movh %d15,28672
800035ee:	1b 8f 3f f6 	addi %d15,%d15,25592
800035f2:	60 ff       	mov.a %a15,%d15
800035f4:	09 f2 40 19 	ld.d %e2,[%a15]64
800035f8:	8b 12 80 60 	addx %d6,%d2,1
800035fc:	8b 03 a0 70 	addc %d7,%d3,0
80003600:	7b 00 00 f7 	movh %d15,28672
80003604:	1b 8f 3f f6 	addi %d15,%d15,25592
80003608:	60 ff       	mov.a %a15,%d15
8000360a:	89 f6 40 19 	st.d [%a15]64,%e6
8000360e:	82 04       	mov %d4,0
80003610:	6d ff f4 fe 	call 800033f8 <bsp_uc_scu_SwitchSystemClock>
80003614:	7b 30 00 ff 	movh %d15,61443
80003618:	1b 0f 01 f6 	addi %d15,%d15,24592
8000361c:	60 ff       	mov.a %a15,%d15
8000361e:	4c f0       	ld.w %d15,[%a15]0
80003620:	37 0f e1 f0 	extr.u %d15,%d15,1,1
80003624:	16 ff       	and %d15,255
80003626:	ee 1a       	jnz %d15,8000365a <bsp_uc_scu_SwitchSystemClock+0x262>
80003628:	7b 00 00 f7 	movh %d15,28672
8000362c:	1b 8f 3f f6 	addi %d15,%d15,25592
80003630:	60 ff       	mov.a %a15,%d15
80003632:	09 f2 48 19 	ld.d %e2,[%a15]72
80003636:	8b 12 80 f0 	addx %d15,%d2,1
8000363a:	59 ef c4 ff 	st.w [%a14]-60,%d15
8000363e:	8b 03 a0 f0 	addc %d15,%d3,0
80003642:	59 ef c8 ff 	st.w [%a14]-56,%d15
80003646:	7b 00 00 f7 	movh %d15,28672
8000364a:	1b 8f 3f f6 	addi %d15,%d15,25592
8000364e:	09 e2 44 f9 	ld.d %e2,[%a14]-60
80003652:	60 ff       	mov.a %a15,%d15
80003654:	89 f2 48 19 	st.d [%a15]72,%e2
80003658:	3c 23       	j 8000369e <bsp_uc_scu_SwitchSystemClock+0x2a6>
8000365a:	7b 00 00 f7 	movh %d15,28672
8000365e:	1b 8f 3f f6 	addi %d15,%d15,25592
80003662:	60 ff       	mov.a %a15,%d15
80003664:	09 f2 50 19 	ld.d %e2,[%a15]80
80003668:	8b 12 80 f0 	addx %d15,%d2,1
8000366c:	59 ef fc ef 	st.w [%a14]-68,%d15
80003670:	8b 03 a0 f0 	addc %d15,%d3,0
80003674:	59 ef c0 ff 	st.w [%a14]-64,%d15
80003678:	7b 00 00 f7 	movh %d15,28672
8000367c:	1b 8f 3f f6 	addi %d15,%d15,25592
80003680:	09 e2 7c e9 	ld.d %e2,[%a14]-68
80003684:	60 ff       	mov.a %a15,%d15
80003686:	89 f2 50 19 	st.d [%a15]80,%e2
8000368a:	7b 30 00 ff 	movh %d15,61443
8000368e:	1b 0f 01 f6 	addi %d15,%d15,24592
80003692:	60 ff       	mov.a %a15,%d15
80003694:	4c f0       	ld.w %d15,[%a15]0
80003696:	37 0f 61 f4 	extr.u %d15,%d15,8,1
8000369a:	16 ff       	and %d15,255
8000369c:	ee 1b       	jnz %d15,800036d2 <bsp_uc_scu_SwitchSystemClock+0x2da>
8000369e:	6d ff f1 fb 	call 80002e80 <bsp_uc_scu_EnableXOSC>
800036a2:	7b 00 00 f7 	movh %d15,28672
800036a6:	1b 8f 3f f6 	addi %d15,%d15,25592
800036aa:	60 ff       	mov.a %a15,%d15
800036ac:	09 f2 58 19 	ld.d %e2,[%a15]88
800036b0:	8b 12 80 f0 	addx %d15,%d2,1
800036b4:	59 ef f4 ef 	st.w [%a14]-76,%d15
800036b8:	8b 03 a0 f0 	addc %d15,%d3,0
800036bc:	59 ef f8 ef 	st.w [%a14]-72,%d15
800036c0:	7b 00 00 f7 	movh %d15,28672
800036c4:	1b 8f 3f f6 	addi %d15,%d15,25592
800036c8:	09 e2 74 e9 	ld.d %e2,[%a14]-76
800036cc:	60 ff       	mov.a %a15,%d15
800036ce:	89 f2 58 19 	st.d [%a15]88,%e2
800036d2:	7b 30 00 ff 	movh %d15,61443
800036d6:	1b 4f 01 f6 	addi %d15,%d15,24596
800036da:	60 ff       	mov.a %a15,%d15
800036dc:	4c f0       	ld.w %d15,[%a15]0
800036de:	37 0f e1 f1 	extr.u %d15,%d15,3,1
800036e2:	16 ff       	and %d15,255
800036e4:	6e 1a       	jz %d15,80003718 <bsp_uc_scu_SwitchSystemClock+0x320>
800036e6:	7b 00 00 f7 	movh %d15,28672
800036ea:	1b 8f 3f f6 	addi %d15,%d15,25592
800036ee:	60 ff       	mov.a %a15,%d15
800036f0:	09 f2 60 19 	ld.d %e2,[%a15]96
800036f4:	8b 12 80 f0 	addx %d15,%d2,1
800036f8:	59 ef ec ef 	st.w [%a14]-84,%d15
800036fc:	8b 03 a0 f0 	addc %d15,%d3,0
80003700:	59 ef f0 ef 	st.w [%a14]-80,%d15
80003704:	7b 00 00 f7 	movh %d15,28672
80003708:	1b 8f 3f f6 	addi %d15,%d15,25592
8000370c:	09 e2 6c e9 	ld.d %e2,[%a14]-84
80003710:	60 ff       	mov.a %a15,%d15
80003712:	89 f2 60 19 	st.d [%a15]96,%e2
80003716:	3c 3c       	j 8000378e <bsp_uc_scu_SwitchSystemClock+0x396>
80003718:	7b 00 00 f7 	movh %d15,28672
8000371c:	1b 8f 3f f6 	addi %d15,%d15,25592
80003720:	60 ff       	mov.a %a15,%d15
80003722:	09 f2 68 19 	ld.d %e2,[%a15]104
80003726:	8b 12 80 f0 	addx %d15,%d2,1
8000372a:	59 ef e4 ef 	st.w [%a14]-92,%d15
8000372e:	8b 03 a0 f0 	addc %d15,%d3,0
80003732:	59 ef e8 ef 	st.w [%a14]-88,%d15
80003736:	7b 00 00 f7 	movh %d15,28672
8000373a:	1b 8f 3f f6 	addi %d15,%d15,25592
8000373e:	09 e2 64 e9 	ld.d %e2,[%a14]-92
80003742:	60 ff       	mov.a %a15,%d15
80003744:	89 f2 68 19 	st.d [%a15]104,%e2
80003748:	7b 30 00 ff 	movh %d15,61443
8000374c:	1b 4f 01 f6 	addi %d15,%d15,24596
80003750:	60 ff       	mov.a %a15,%d15
80003752:	4c f0       	ld.w %d15,[%a15]0
80003754:	37 0f 61 f1 	extr.u %d15,%d15,2,1
80003758:	16 ff       	and %d15,255
8000375a:	6e 1a       	jz %d15,8000378e <bsp_uc_scu_SwitchSystemClock+0x396>
8000375c:	7b 00 00 f7 	movh %d15,28672
80003760:	1b 8f 3f f6 	addi %d15,%d15,25592
80003764:	60 ff       	mov.a %a15,%d15
80003766:	09 f2 70 19 	ld.d %e2,[%a15]112
8000376a:	8b 12 80 f0 	addx %d15,%d2,1
8000376e:	59 ef dc ef 	st.w [%a14]-100,%d15
80003772:	8b 03 a0 f0 	addc %d15,%d3,0
80003776:	59 ef e0 ef 	st.w [%a14]-96,%d15
8000377a:	7b 00 00 f7 	movh %d15,28672
8000377e:	1b 8f 3f f6 	addi %d15,%d15,25592
80003782:	09 e2 5c e9 	ld.d %e2,[%a14]-100
80003786:	60 ff       	mov.a %a15,%d15
80003788:	89 f2 70 19 	st.d [%a15]112,%e2
8000378c:	3c 1b       	j 800037c2 <bsp_uc_scu_SwitchSystemClock+0x3ca>
8000378e:	82 04       	mov %d4,0
80003790:	3b d0 01 50 	mov %d5,29
80003794:	82 26       	mov %d6,2
80003796:	6d ff c6 fc 	call 80003122 <bsp_uc_scu_EnablePLL>
8000379a:	7b 00 00 f7 	movh %d15,28672
8000379e:	1b 8f 3f f6 	addi %d15,%d15,25592
800037a2:	60 ff       	mov.a %a15,%d15
800037a4:	09 f2 78 19 	ld.d %e2,[%a15]120
800037a8:	8b 12 80 f0 	addx %d15,%d2,1
800037ac:	60 fc       	mov.a %a12,%d15
800037ae:	8b 03 a0 f0 	addc %d15,%d3,0
800037b2:	60 fd       	mov.a %a13,%d15
800037b4:	7b 00 00 f7 	movh %d15,28672
800037b8:	1b 8f 3f f6 	addi %d15,%d15,25592
800037bc:	60 ff       	mov.a %a15,%d15
800037be:	89 fc f8 19 	st.da [%a15]120,%a12
800037c2:	6d 00 9e 36 	call 8000a4fe <unlock_safety_wdtcon>
800037c6:	7b 30 00 2f 	movh %d2,61443
800037ca:	1b 82 01 26 	addi %d2,%d2,24600
800037ce:	60 2f       	mov.a %a15,%d2
800037d0:	4c f0       	ld.w %d15,[%a15]0
800037d2:	8f 1f c0 f1 	andn %d15,%d15,1
800037d6:	60 2f       	mov.a %a15,%d2
800037d8:	68 0f       	st.w [%a15]0,%d15
800037da:	00 00       	nop 
800037dc:	7b 30 00 ff 	movh %d15,61443
800037e0:	1b 0f 03 f6 	addi %d15,%d15,24624
800037e4:	60 ff       	mov.a %a15,%d15
800037e6:	4c f0       	ld.w %d15,[%a15]0
800037e8:	37 0f e1 ff 	extr.u %d15,%d15,31,1
800037ec:	16 ff       	and %d15,255
800037ee:	6e 14       	jz %d15,80003816 <bsp_uc_scu_SwitchSystemClock+0x41e>
800037f0:	7b 00 00 f7 	movh %d15,28672
800037f4:	1b 8f 3f f6 	addi %d15,%d15,25592
800037f8:	60 ff       	mov.a %a15,%d15
800037fa:	09 f2 40 29 	ld.d %e2,[%a15]128
800037fe:	8b 12 80 c0 	addx %d12,%d2,1
80003802:	8b 03 a0 d0 	addc %d13,%d3,0
80003806:	7b 00 00 f7 	movh %d15,28672
8000380a:	1b 8f 3f f6 	addi %d15,%d15,25592
8000380e:	60 ff       	mov.a %a15,%d15
80003810:	89 fc 40 29 	st.d [%a15]128,%e12
80003814:	3c e4       	j 800037dc <bsp_uc_scu_SwitchSystemClock+0x3e4>
80003816:	7b 00 00 f7 	movh %d15,28672
8000381a:	1b 8f 3f f6 	addi %d15,%d15,25592
8000381e:	60 ff       	mov.a %a15,%d15
80003820:	09 f2 48 29 	ld.d %e2,[%a15]136
80003824:	8b 12 80 a0 	addx %d10,%d2,1
80003828:	8b 03 a0 b0 	addc %d11,%d3,0
8000382c:	7b 00 00 f7 	movh %d15,28672
80003830:	1b 8f 3f f6 	addi %d15,%d15,25592
80003834:	60 ff       	mov.a %a15,%d15
80003836:	89 fa 48 29 	st.d [%a15]136,%e10
8000383a:	7b 30 00 2f 	movh %d2,61443
8000383e:	1b 02 03 26 	addi %d2,%d2,24624
80003842:	60 2f       	mov.a %a15,%d2
80003844:	4c f0       	ld.w %d15,[%a15]0
80003846:	b7 1f 02 fe 	insert %d15,%d15,1,28,2
8000384a:	60 2f       	mov.a %a15,%d2
8000384c:	68 0f       	st.w [%a15]0,%d15
8000384e:	7b 30 00 2f 	movh %d2,61443
80003852:	1b 02 03 26 	addi %d2,%d2,24624
80003856:	60 2f       	mov.a %a15,%d2
80003858:	4c f0       	ld.w %d15,[%a15]0
8000385a:	b7 1f 01 ff 	insert %d15,%d15,1,30,1
8000385e:	60 2f       	mov.a %a15,%d2
80003860:	68 0f       	st.w [%a15]0,%d15
80003862:	6d 00 5e 36 	call 8000a51e <lock_safety_wdtcon>
80003866:	00 00       	nop 
80003868:	7b 00 00 f7 	movh %d15,28672
8000386c:	1b 8f 3f f6 	addi %d15,%d15,25592
80003870:	60 ff       	mov.a %a15,%d15
80003872:	09 f2 50 29 	ld.d %e2,[%a15]144
80003876:	8b 12 80 80 	addx %d8,%d2,1
8000387a:	8b 03 a0 90 	addc %d9,%d3,0
8000387e:	7b 00 00 f7 	movh %d15,28672
80003882:	1b 8f 3f f6 	addi %d15,%d15,25592
80003886:	60 ff       	mov.a %a15,%d15
80003888:	89 f8 50 29 	st.d [%a15]144,%e8
8000388c:	1d 00 6c 01 	j 80003b64 <bsp_uc_scu_SwitchSystemClock+0x76c>
80003890:	7b 00 00 f7 	movh %d15,28672
80003894:	1b 8f 3f f6 	addi %d15,%d15,25592
80003898:	60 ff       	mov.a %a15,%d15
8000389a:	09 f2 50 09 	ld.d %e2,[%a15]16
8000389e:	8b 12 80 f0 	addx %d15,%d2,1
800038a2:	60 f6       	mov.a %a6,%d15
800038a4:	8b 03 a0 f0 	addc %d15,%d3,0
800038a8:	60 f7       	mov.a %a7,%d15
800038aa:	7b 00 00 f7 	movh %d15,28672
800038ae:	1b 8f 3f f6 	addi %d15,%d15,25592
800038b2:	60 ff       	mov.a %a15,%d15
800038b4:	89 f6 d0 09 	st.da [%a15]16,%a6
800038b8:	7b 30 00 ff 	movh %d15,61443
800038bc:	1b 0f 03 f6 	addi %d15,%d15,24624
800038c0:	60 ff       	mov.a %a15,%d15
800038c2:	4c f0       	ld.w %d15,[%a15]0
800038c4:	37 0f 62 fe 	extr.u %d15,%d15,28,2
800038c8:	16 ff       	and %d15,255
800038ca:	6e 18       	jz %d15,800038fa <bsp_uc_scu_SwitchSystemClock+0x502>
800038cc:	7b 00 00 f7 	movh %d15,28672
800038d0:	1b 8f 3f f6 	addi %d15,%d15,25592
800038d4:	60 ff       	mov.a %a15,%d15
800038d6:	09 f2 58 29 	ld.d %e2,[%a15]152
800038da:	8b 12 80 f0 	addx %d15,%d2,1
800038de:	60 f4       	mov.a %a4,%d15
800038e0:	8b 03 a0 f0 	addc %d15,%d3,0
800038e4:	60 f5       	mov.a %a5,%d15
800038e6:	7b 00 00 f7 	movh %d15,28672
800038ea:	1b 8f 3f f6 	addi %d15,%d15,25592
800038ee:	60 ff       	mov.a %a15,%d15
800038f0:	89 f4 d8 29 	st.da [%a15]152,%a4
800038f4:	82 04       	mov %d4,0
800038f6:	6d ff 81 fd 	call 800033f8 <bsp_uc_scu_SwitchSystemClock>
800038fa:	7b 30 00 ff 	movh %d15,61443
800038fe:	1b 0f 01 f6 	addi %d15,%d15,24592
80003902:	60 ff       	mov.a %a15,%d15
80003904:	4c f0       	ld.w %d15,[%a15]0
80003906:	37 0f e1 f0 	extr.u %d15,%d15,1,1
8000390a:	16 ff       	and %d15,255
8000390c:	ee 1a       	jnz %d15,80003940 <bsp_uc_scu_SwitchSystemClock+0x548>
8000390e:	7b 00 00 f7 	movh %d15,28672
80003912:	1b 8f 3f f6 	addi %d15,%d15,25592
80003916:	60 ff       	mov.a %a15,%d15
80003918:	09 f2 60 29 	ld.d %e2,[%a15]160
8000391c:	8b 12 80 f0 	addx %d15,%d2,1
80003920:	59 ef d4 ef 	st.w [%a14]-108,%d15
80003924:	8b 03 a0 f0 	addc %d15,%d3,0
80003928:	59 ef d8 ef 	st.w [%a14]-104,%d15
8000392c:	7b 00 00 f7 	movh %d15,28672
80003930:	1b 8f 3f f6 	addi %d15,%d15,25592
80003934:	09 e2 54 e9 	ld.d %e2,[%a14]-108
80003938:	60 ff       	mov.a %a15,%d15
8000393a:	89 f2 60 29 	st.d [%a15]160,%e2
8000393e:	3c 3c       	j 800039b6 <bsp_uc_scu_SwitchSystemClock+0x5be>
80003940:	7b 00 00 f7 	movh %d15,28672
80003944:	1b 8f 3f f6 	addi %d15,%d15,25592
80003948:	60 ff       	mov.a %a15,%d15
8000394a:	09 f2 68 29 	ld.d %e2,[%a15]168
8000394e:	8b 12 80 f0 	addx %d15,%d2,1
80003952:	59 ef cc ef 	st.w [%a14]-116,%d15
80003956:	8b 03 a0 f0 	addc %d15,%d3,0
8000395a:	59 ef d0 ef 	st.w [%a14]-112,%d15
8000395e:	7b 00 00 f7 	movh %d15,28672
80003962:	1b 8f 3f f6 	addi %d15,%d15,25592
80003966:	09 e2 4c e9 	ld.d %e2,[%a14]-116
8000396a:	60 ff       	mov.a %a15,%d15
8000396c:	89 f2 68 29 	st.d [%a15]168,%e2
80003970:	7b 30 00 ff 	movh %d15,61443
80003974:	1b 0f 01 f6 	addi %d15,%d15,24592
80003978:	60 ff       	mov.a %a15,%d15
8000397a:	4c f0       	ld.w %d15,[%a15]0
8000397c:	37 0f 61 f4 	extr.u %d15,%d15,8,1
80003980:	16 ff       	and %d15,255
80003982:	6e 1a       	jz %d15,800039b6 <bsp_uc_scu_SwitchSystemClock+0x5be>
80003984:	7b 00 00 f7 	movh %d15,28672
80003988:	1b 8f 3f f6 	addi %d15,%d15,25592
8000398c:	60 ff       	mov.a %a15,%d15
8000398e:	09 f2 70 29 	ld.d %e2,[%a15]176
80003992:	8b 12 80 f0 	addx %d15,%d2,1
80003996:	59 ef c4 ef 	st.w [%a14]-124,%d15
8000399a:	8b 03 a0 f0 	addc %d15,%d3,0
8000399e:	59 ef c8 ef 	st.w [%a14]-120,%d15
800039a2:	7b 00 00 f7 	movh %d15,28672
800039a6:	1b 8f 3f f6 	addi %d15,%d15,25592
800039aa:	09 e2 44 e9 	ld.d %e2,[%a14]-124
800039ae:	60 ff       	mov.a %a15,%d15
800039b0:	89 f2 70 29 	st.d [%a15]176,%e2
800039b4:	3c 1b       	j 800039ea <bsp_uc_scu_SwitchSystemClock+0x5f2>
800039b6:	6d ff 65 fa 	call 80002e80 <bsp_uc_scu_EnableXOSC>
800039ba:	7b 00 00 f7 	movh %d15,28672
800039be:	1b 8f 3f f6 	addi %d15,%d15,25592
800039c2:	60 ff       	mov.a %a15,%d15
800039c4:	09 f2 78 29 	ld.d %e2,[%a15]184
800039c8:	8b 12 80 f0 	addx %d15,%d2,1
800039cc:	59 ef fc df 	st.w [%a14]-132,%d15
800039d0:	8b 03 a0 f0 	addc %d15,%d3,0
800039d4:	59 ef c0 ef 	st.w [%a14]-128,%d15
800039d8:	7b 00 00 f7 	movh %d15,28672
800039dc:	1b 8f 3f f6 	addi %d15,%d15,25592
800039e0:	09 e2 7c d9 	ld.d %e2,[%a14]-132
800039e4:	60 ff       	mov.a %a15,%d15
800039e6:	89 f2 78 29 	st.d [%a15]184,%e2
800039ea:	6d 00 8a 35 	call 8000a4fe <unlock_safety_wdtcon>
800039ee:	7b 30 00 2f 	movh %d2,61443
800039f2:	1b c2 01 26 	addi %d2,%d2,24604
800039f6:	60 2f       	mov.a %a15,%d2
800039f8:	4c f0       	ld.w %d15,[%a15]0
800039fa:	7b 10 f8 3f 	movh %d3,65409
800039fe:	c2 f3       	add %d3,-1
80003a00:	26 3f       	and %d15,%d3
80003a02:	60 2f       	mov.a %a15,%d2
80003a04:	68 0f       	st.w [%a15]0,%d15
80003a06:	00 00       	nop 
80003a08:	7b 30 00 ff 	movh %d15,61443
80003a0c:	1b 4f 01 f6 	addi %d15,%d15,24596
80003a10:	60 ff       	mov.a %a15,%d15
80003a12:	4c f0       	ld.w %d15,[%a15]0
80003a14:	37 0f 61 f2 	extr.u %d15,%d15,4,1
80003a18:	16 ff       	and %d15,255
80003a1a:	ee 1a       	jnz %d15,80003a4e <bsp_uc_scu_SwitchSystemClock+0x656>
80003a1c:	7b 00 00 f7 	movh %d15,28672
80003a20:	1b 8f 3f f6 	addi %d15,%d15,25592
80003a24:	60 ff       	mov.a %a15,%d15
80003a26:	09 f2 40 39 	ld.d %e2,[%a15]192
80003a2a:	8b 12 80 f0 	addx %d15,%d2,1
80003a2e:	59 ef f4 df 	st.w [%a14]-140,%d15
80003a32:	8b 03 a0 f0 	addc %d15,%d3,0
80003a36:	59 ef f8 df 	st.w [%a14]-136,%d15
80003a3a:	7b 00 00 f7 	movh %d15,28672
80003a3e:	1b 8f 3f f6 	addi %d15,%d15,25592
80003a42:	09 e2 74 d9 	ld.d %e2,[%a14]-140
80003a46:	60 ff       	mov.a %a15,%d15
80003a48:	89 f2 40 39 	st.d [%a15]192,%e2
80003a4c:	3c de       	j 80003a08 <bsp_uc_scu_SwitchSystemClock+0x610>
80003a4e:	7b 30 00 2f 	movh %d2,61443
80003a52:	1b 82 01 26 	addi %d2,%d2,24600
80003a56:	60 2f       	mov.a %a15,%d2
80003a58:	4c f0       	ld.w %d15,[%a15]0
80003a5a:	b7 1f 01 f0 	insert %d15,%d15,1,0,1
80003a5e:	60 2f       	mov.a %a15,%d2
80003a60:	68 0f       	st.w [%a15]0,%d15
80003a62:	00 00       	nop 
80003a64:	7b 30 00 ff 	movh %d15,61443
80003a68:	1b 0f 03 f6 	addi %d15,%d15,24624
80003a6c:	60 ff       	mov.a %a15,%d15
80003a6e:	4c f0       	ld.w %d15,[%a15]0
80003a70:	37 0f e1 ff 	extr.u %d15,%d15,31,1
80003a74:	16 ff       	and %d15,255
80003a76:	6e 1a       	jz %d15,80003aaa <bsp_uc_scu_SwitchSystemClock+0x6b2>
80003a78:	7b 00 00 f7 	movh %d15,28672
80003a7c:	1b 8f 3f f6 	addi %d15,%d15,25592
80003a80:	60 ff       	mov.a %a15,%d15
80003a82:	09 f2 48 39 	ld.d %e2,[%a15]200
80003a86:	8b 12 80 f0 	addx %d15,%d2,1
80003a8a:	59 ef ec df 	st.w [%a14]-148,%d15
80003a8e:	8b 03 a0 f0 	addc %d15,%d3,0
80003a92:	59 ef f0 df 	st.w [%a14]-144,%d15
80003a96:	7b 00 00 f7 	movh %d15,28672
80003a9a:	1b 8f 3f f6 	addi %d15,%d15,25592
80003a9e:	09 e2 6c d9 	ld.d %e2,[%a14]-148
80003aa2:	60 ff       	mov.a %a15,%d15
80003aa4:	89 f2 48 39 	st.d [%a15]200,%e2
80003aa8:	3c de       	j 80003a64 <bsp_uc_scu_SwitchSystemClock+0x66c>
80003aaa:	7b 00 00 f7 	movh %d15,28672
80003aae:	1b 8f 3f f6 	addi %d15,%d15,25592
80003ab2:	60 ff       	mov.a %a15,%d15
80003ab4:	09 f2 50 39 	ld.d %e2,[%a15]208
80003ab8:	8b 12 80 f0 	addx %d15,%d2,1
80003abc:	59 ef e4 df 	st.w [%a14]-156,%d15
80003ac0:	8b 03 a0 f0 	addc %d15,%d3,0
80003ac4:	59 ef e8 df 	st.w [%a14]-152,%d15
80003ac8:	7b 00 00 f7 	movh %d15,28672
80003acc:	1b 8f 3f f6 	addi %d15,%d15,25592
80003ad0:	09 e2 64 d9 	ld.d %e2,[%a14]-156
80003ad4:	60 ff       	mov.a %a15,%d15
80003ad6:	89 f2 50 39 	st.d [%a15]208,%e2
80003ada:	7b 30 00 2f 	movh %d2,61443
80003ade:	1b 02 03 26 	addi %d2,%d2,24624
80003ae2:	60 2f       	mov.a %a15,%d2
80003ae4:	4c f0       	ld.w %d15,[%a15]0
80003ae6:	b7 1f 02 fe 	insert %d15,%d15,1,28,2
80003aea:	60 2f       	mov.a %a15,%d2
80003aec:	68 0f       	st.w [%a15]0,%d15
80003aee:	7b 30 00 2f 	movh %d2,61443
80003af2:	1b 02 03 26 	addi %d2,%d2,24624
80003af6:	60 2f       	mov.a %a15,%d2
80003af8:	4c f0       	ld.w %d15,[%a15]0
80003afa:	b7 1f 01 ff 	insert %d15,%d15,1,30,1
80003afe:	60 2f       	mov.a %a15,%d2
80003b00:	68 0f       	st.w [%a15]0,%d15
80003b02:	6d 00 0e 35 	call 8000a51e <lock_safety_wdtcon>
80003b06:	00 00       	nop 
80003b08:	7b 00 00 f7 	movh %d15,28672
80003b0c:	1b 8f 3f f6 	addi %d15,%d15,25592
80003b10:	60 ff       	mov.a %a15,%d15
80003b12:	09 f2 58 39 	ld.d %e2,[%a15]216
80003b16:	8b 12 80 f0 	addx %d15,%d2,1
80003b1a:	59 ef dc df 	st.w [%a14]-164,%d15
80003b1e:	8b 03 a0 f0 	addc %d15,%d3,0
80003b22:	59 ef e0 df 	st.w [%a14]-160,%d15
80003b26:	7b 00 00 f7 	movh %d15,28672
80003b2a:	1b 8f 3f f6 	addi %d15,%d15,25592
80003b2e:	09 e2 5c d9 	ld.d %e2,[%a14]-164
80003b32:	60 ff       	mov.a %a15,%d15
80003b34:	89 f2 58 39 	st.d [%a15]216,%e2
80003b38:	3c 16       	j 80003b64 <bsp_uc_scu_SwitchSystemClock+0x76c>
80003b3a:	7b 00 00 f7 	movh %d15,28672
80003b3e:	1b 8f 3f f6 	addi %d15,%d15,25592
80003b42:	60 ff       	mov.a %a15,%d15
80003b44:	09 f2 60 39 	ld.d %e2,[%a15]224
80003b48:	8b 12 80 f0 	addx %d15,%d2,1
80003b4c:	60 f2       	mov.a %a2,%d15
80003b4e:	8b 03 a0 f0 	addc %d15,%d3,0
80003b52:	60 f3       	mov.a %a3,%d15
80003b54:	7b 00 00 f7 	movh %d15,28672
80003b58:	1b 8f 3f f6 	addi %d15,%d15,25592
80003b5c:	60 ff       	mov.a %a15,%d15
80003b5e:	89 f2 e0 39 	st.da [%a15]224,%a2
80003b62:	00 00       	nop 
80003b64:	00 90       	ret 

80003b66 <bsp_uc_scu_SetCcuCon>:
80003b66:	40 ae       	mov.aa %a14,%sp
80003b68:	20 18       	sub.a %sp,24
80003b6a:	b5 e4 f4 ff 	st.a [%a14]-12,%a4
80003b6e:	59 e4 f0 ff 	st.w [%a14]-16,%d4
80003b72:	59 e5 ec ff 	st.w [%a14]-20,%d5
80003b76:	7b 00 00 27 	movh %d2,28672
80003b7a:	1b 02 3d 26 	addi %d2,%d2,25552
80003b7e:	60 2f       	mov.a %a15,%d2
80003b80:	09 f2 40 09 	ld.d %e2,[%a15]
80003b84:	8b 12 80 60 	addx %d6,%d2,1
80003b88:	8b 03 a0 70 	addc %d7,%d3,0
80003b8c:	7b 00 00 27 	movh %d2,28672
80003b90:	1b 02 3d 26 	addi %d2,%d2,25552
80003b94:	60 2f       	mov.a %a15,%d2
80003b96:	89 f6 40 09 	st.d [%a15],%e6
80003b9a:	19 e2 f4 ff 	ld.w %d2,[%a14]-12
80003b9e:	59 e2 fc ff 	st.w [%a14]-4,%d2
80003ba2:	6d 00 ae 34 	call 8000a4fe <unlock_safety_wdtcon>
80003ba6:	00 00       	nop 
80003ba8:	19 e2 fc ff 	ld.w %d2,[%a14]-4
80003bac:	60 2f       	mov.a %a15,%d2
80003bae:	48 02       	ld.w %d2,[%a15]0
80003bb0:	ff 02 15 00 	jge %d2,0,80003bda <bsp_uc_scu_SetCcuCon+0x74>
80003bb4:	7b 00 00 27 	movh %d2,28672
80003bb8:	1b 02 3d 26 	addi %d2,%d2,25552
80003bbc:	60 2f       	mov.a %a15,%d2
80003bbe:	09 f2 48 09 	ld.d %e2,[%a15]8
80003bc2:	8b 12 80 e0 	addx %d14,%d2,1
80003bc6:	8b 03 a0 f0 	addc %d15,%d3,0
80003bca:	7b 00 00 27 	movh %d2,28672
80003bce:	1b 02 3d 26 	addi %d2,%d2,25552
80003bd2:	60 2f       	mov.a %a15,%d2
80003bd4:	89 fe 48 09 	st.d [%a15]8,%e14
80003bd8:	3c e8       	j 80003ba8 <bsp_uc_scu_SetCcuCon+0x42>
80003bda:	19 ef ec ff 	ld.w %d15,[%a14]-20
80003bde:	6e 1b       	jz %d15,80003c14 <bsp_uc_scu_SetCcuCon+0xae>
80003be0:	19 ef f0 ff 	ld.w %d15,[%a14]-16
80003be4:	7b 00 00 24 	movh %d2,16384
80003be8:	a6 2f       	or %d15,%d2
80003bea:	59 ef f0 ff 	st.w [%a14]-16,%d15
80003bee:	7b 00 00 f7 	movh %d15,28672
80003bf2:	1b 0f 3d f6 	addi %d15,%d15,25552
80003bf6:	60 ff       	mov.a %a15,%d15
80003bf8:	09 f2 50 09 	ld.d %e2,[%a15]16
80003bfc:	8b 12 80 c0 	addx %d12,%d2,1
80003c00:	8b 03 a0 d0 	addc %d13,%d3,0
80003c04:	7b 00 00 f7 	movh %d15,28672
80003c08:	1b 0f 3d f6 	addi %d15,%d15,25552
80003c0c:	60 ff       	mov.a %a15,%d15
80003c0e:	89 fc 50 09 	st.d [%a15]16,%e12
80003c12:	3c 1b       	j 80003c48 <bsp_uc_scu_SetCcuCon+0xe2>
80003c14:	19 ef f0 ff 	ld.w %d15,[%a14]-16
80003c18:	7b 00 00 2c 	movh %d2,49152
80003c1c:	c2 f2       	add %d2,-1
80003c1e:	26 2f       	and %d15,%d2
80003c20:	59 ef f0 ff 	st.w [%a14]-16,%d15
80003c24:	7b 00 00 f7 	movh %d15,28672
80003c28:	1b 0f 3d f6 	addi %d15,%d15,25552
80003c2c:	60 ff       	mov.a %a15,%d15
80003c2e:	09 f2 58 09 	ld.d %e2,[%a15]24
80003c32:	8b 12 80 a0 	addx %d10,%d2,1
80003c36:	8b 03 a0 b0 	addc %d11,%d3,0
80003c3a:	7b 00 00 f7 	movh %d15,28672
80003c3e:	1b 0f 3d f6 	addi %d15,%d15,25552
80003c42:	60 ff       	mov.a %a15,%d15
80003c44:	89 fa 58 09 	st.d [%a15]24,%e10
80003c48:	19 ef fc ff 	ld.w %d15,[%a14]-4
80003c4c:	19 e2 f0 ff 	ld.w %d2,[%a14]-16
80003c50:	60 ff       	mov.a %a15,%d15
80003c52:	68 02       	st.w [%a15]0,%d2
80003c54:	6d 00 65 34 	call 8000a51e <lock_safety_wdtcon>
80003c58:	7b 00 00 f7 	movh %d15,28672
80003c5c:	1b 0f 3d f6 	addi %d15,%d15,25552
80003c60:	60 ff       	mov.a %a15,%d15
80003c62:	09 f2 60 09 	ld.d %e2,[%a15]32
80003c66:	8b 12 80 80 	addx %d8,%d2,1
80003c6a:	8b 03 a0 90 	addc %d9,%d3,0
80003c6e:	7b 00 00 f7 	movh %d15,28672
80003c72:	1b 0f 3d f6 	addi %d15,%d15,25552
80003c76:	60 ff       	mov.a %a15,%d15
80003c78:	89 f8 60 09 	st.d [%a15]32,%e8
80003c7c:	00 90       	ret 

80003c7e <bsp_uc_core_StartCore>:
80003c7e:	40 ae       	mov.aa %a14,%sp
80003c80:	20 10       	sub.a %sp,16
80003c82:	59 e4 f4 ff 	st.w [%a14]-12,%d4
80003c86:	b5 e4 f0 ff 	st.a [%a14]-16,%a4
80003c8a:	7b 00 00 27 	movh %d2,28672
80003c8e:	1b 82 37 26 	addi %d2,%d2,25464
80003c92:	60 2f       	mov.a %a15,%d2
80003c94:	09 f2 40 09 	ld.d %e2,[%a15]
80003c98:	8b 12 80 60 	addx %d6,%d2,1
80003c9c:	8b 03 a0 70 	addc %d7,%d3,0
80003ca0:	7b 00 00 27 	movh %d2,28672
80003ca4:	1b 82 37 26 	addi %d2,%d2,25464
80003ca8:	60 2f       	mov.a %a15,%d2
80003caa:	89 f6 40 09 	st.d [%a15],%e6
80003cae:	7b 20 88 2f 	movh %d2,63618
80003cb2:	1b 82 e0 2f 	addi %d2,%d2,-504
80003cb6:	59 e2 fc ff 	st.w [%a14]-4,%d2
80003cba:	7b 20 88 2f 	movh %d2,63618
80003cbe:	1b 02 d0 2f 	addi %d2,%d2,-768
80003cc2:	59 e2 f8 ff 	st.w [%a14]-8,%d2
80003cc6:	6d 00 9f 03 	call 80004404 <bsp_uc_core_GetCurrentCore>
80003cca:	02 23       	mov %d3,%d2
80003ccc:	19 e2 f4 ff 	ld.w %d2,[%a14]-12
80003cd0:	5f 23 15 80 	jne %d3,%d2,80003cfa <bsp_uc_core_StartCore+0x7c>
80003cd4:	7b 00 00 27 	movh %d2,28672
80003cd8:	1b 82 37 26 	addi %d2,%d2,25464
80003cdc:	60 2f       	mov.a %a15,%d2
80003cde:	09 f2 48 09 	ld.d %e2,[%a15]8
80003ce2:	8b 12 80 e0 	addx %d14,%d2,1
80003ce6:	8b 03 a0 f0 	addc %d15,%d3,0
80003cea:	7b 00 00 27 	movh %d2,28672
80003cee:	1b 82 37 26 	addi %d2,%d2,25464
80003cf2:	60 2f       	mov.a %a15,%d2
80003cf4:	89 fe 48 09 	st.d [%a15]8,%e14
80003cf8:	3c 6b       	j 80003dce <bsp_uc_core_StartCore+0x150>
80003cfa:	19 ef f4 ff 	ld.w %d15,[%a14]-12
80003cfe:	bf 3f 15 80 	jlt.u %d15,3,80003d28 <bsp_uc_core_StartCore+0xaa>
80003d02:	7b 00 00 f7 	movh %d15,28672
80003d06:	1b 8f 37 f6 	addi %d15,%d15,25464
80003d0a:	60 ff       	mov.a %a15,%d15
80003d0c:	09 f2 50 09 	ld.d %e2,[%a15]16
80003d10:	8b 12 80 c0 	addx %d12,%d2,1
80003d14:	8b 03 a0 d0 	addc %d13,%d3,0
80003d18:	7b 00 00 f7 	movh %d15,28672
80003d1c:	1b 8f 37 f6 	addi %d15,%d15,25464
80003d20:	60 ff       	mov.a %a15,%d15
80003d22:	89 fc 50 09 	st.d [%a15]16,%e12
80003d26:	3c 54       	j 80003dce <bsp_uc_core_StartCore+0x150>
80003d28:	19 ef f4 ff 	ld.w %d15,[%a14]-12
80003d2c:	8f 1f 01 f0 	sh %d15,%d15,17
80003d30:	19 e2 fc ff 	ld.w %d2,[%a14]-4
80003d34:	42 2f       	add %d15,%d2
80003d36:	59 ef fc ff 	st.w [%a14]-4,%d15
80003d3a:	19 ef f4 ff 	ld.w %d15,[%a14]-12
80003d3e:	8f 1f 01 f0 	sh %d15,%d15,17
80003d42:	19 e2 f8 ff 	ld.w %d2,[%a14]-8
80003d46:	42 2f       	add %d15,%d2
80003d48:	59 ef f8 ff 	st.w [%a14]-8,%d15
80003d4c:	19 ef f8 ff 	ld.w %d15,[%a14]-8
80003d50:	60 ff       	mov.a %a15,%d15
80003d52:	4c f0       	ld.w %d15,[%a15]0
80003d54:	37 0f e2 f0 	extr.u %d15,%d15,1,2
80003d58:	16 ff       	and %d15,255
80003d5a:	ee 14       	jnz %d15,80003d82 <bsp_uc_core_StartCore+0x104>
80003d5c:	7b 00 00 f7 	movh %d15,28672
80003d60:	1b 8f 37 f6 	addi %d15,%d15,25464
80003d64:	60 ff       	mov.a %a15,%d15
80003d66:	09 f2 58 09 	ld.d %e2,[%a15]24
80003d6a:	8b 12 80 a0 	addx %d10,%d2,1
80003d6e:	8b 03 a0 b0 	addc %d11,%d3,0
80003d72:	7b 00 00 f7 	movh %d15,28672
80003d76:	1b 8f 37 f6 	addi %d15,%d15,25464
80003d7a:	60 ff       	mov.a %a15,%d15
80003d7c:	89 fa 58 09 	st.d [%a15]24,%e10
80003d80:	3c 27       	j 80003dce <bsp_uc_core_StartCore+0x150>
80003d82:	19 e2 f0 ff 	ld.w %d2,[%a14]-16
80003d86:	19 ef fc ff 	ld.w %d15,[%a14]-4
80003d8a:	60 ff       	mov.a %a15,%d15
80003d8c:	68 02       	st.w [%a15]0,%d2
80003d8e:	19 e2 f8 ff 	ld.w %d2,[%a14]-8
80003d92:	60 2f       	mov.a %a15,%d2
80003d94:	4c f0       	ld.w %d15,[%a15]0
80003d96:	8f 6f c0 f1 	andn %d15,%d15,6
80003d9a:	60 2f       	mov.a %a15,%d2
80003d9c:	68 0f       	st.w [%a15]0,%d15
80003d9e:	19 ef f8 ff 	ld.w %d15,[%a14]-8
80003da2:	3b 40 01 20 	mov %d2,20
80003da6:	60 ff       	mov.a %a15,%d15
80003da8:	68 02       	st.w [%a15]0,%d2
80003daa:	7b 00 00 f7 	movh %d15,28672
80003dae:	1b 8f 37 f6 	addi %d15,%d15,25464
80003db2:	60 ff       	mov.a %a15,%d15
80003db4:	09 f2 60 09 	ld.d %e2,[%a15]32
80003db8:	8b 12 80 80 	addx %d8,%d2,1
80003dbc:	8b 03 a0 90 	addc %d9,%d3,0
80003dc0:	7b 00 00 f7 	movh %d15,28672
80003dc4:	1b 8f 37 f6 	addi %d15,%d15,25464
80003dc8:	60 ff       	mov.a %a15,%d15
80003dca:	89 f8 60 09 	st.d [%a15]32,%e8
80003dce:	00 90       	ret 

80003dd0 <bsp_uc_core_StartAllCores>:
80003dd0:	40 ae       	mov.aa %a14,%sp
80003dd2:	20 08       	sub.a %sp,8
80003dd4:	82 0f       	mov %d15,0
80003dd6:	59 ef fc ff 	st.w [%a14]-4,%d15
80003dda:	3c 33       	j 80003e40 <bsp_uc_core_StartAllCores+0x70>
80003ddc:	7b 00 00 f7 	movh %d15,28672
80003de0:	1b 0f 36 f6 	addi %d15,%d15,25440
80003de4:	60 ff       	mov.a %a15,%d15
80003de6:	09 f2 48 09 	ld.d %e2,[%a15]8
80003dea:	8b 12 80 c0 	addx %d12,%d2,1
80003dee:	8b 03 a0 d0 	addc %d13,%d3,0
80003df2:	7b 00 00 f7 	movh %d15,28672
80003df6:	1b 0f 36 f6 	addi %d15,%d15,25440
80003dfa:	60 ff       	mov.a %a15,%d15
80003dfc:	89 fc 48 09 	st.d [%a15]8,%e12
80003e00:	19 e4 fc ff 	ld.w %d4,[%a14]-4
80003e04:	7b 00 00 f8 	movh %d15,32768
80003e08:	60 ff       	mov.a %a15,%d15
80003e0a:	d9 f4 20 00 	lea %a4,[%a15]32
80003e0e:	6d ff 38 ff 	call 80003c7e <bsp_uc_core_StartCore>
80003e12:	19 ef fc ff 	ld.w %d15,[%a14]-4
80003e16:	c2 1f       	add %d15,1
80003e18:	59 ef fc ff 	st.w [%a14]-4,%d15
80003e1c:	7b 00 00 f7 	movh %d15,28672
80003e20:	1b 0f 36 f6 	addi %d15,%d15,25440
80003e24:	60 ff       	mov.a %a15,%d15
80003e26:	09 f2 40 09 	ld.d %e2,[%a15]
80003e2a:	8b 12 80 a0 	addx %d10,%d2,1
80003e2e:	8b 03 a0 b0 	addc %d11,%d3,0
80003e32:	7b 00 00 f7 	movh %d15,28672
80003e36:	1b 0f 36 f6 	addi %d15,%d15,25440
80003e3a:	60 ff       	mov.a %a15,%d15
80003e3c:	89 fa 40 09 	st.d [%a15],%e10
80003e40:	19 ef fc ff 	ld.w %d15,[%a14]-4
80003e44:	bf 3f cc ff 	jlt.u %d15,3,80003ddc <bsp_uc_core_StartAllCores+0xc>
80003e48:	7b 00 00 f7 	movh %d15,28672
80003e4c:	1b 0f 36 f6 	addi %d15,%d15,25440
80003e50:	60 ff       	mov.a %a15,%d15
80003e52:	09 f2 50 09 	ld.d %e2,[%a15]16
80003e56:	8b 12 80 80 	addx %d8,%d2,1
80003e5a:	8b 03 a0 90 	addc %d9,%d3,0
80003e5e:	7b 00 00 f7 	movh %d15,28672
80003e62:	1b 0f 36 f6 	addi %d15,%d15,25440
80003e66:	60 ff       	mov.a %a15,%d15
80003e68:	89 f8 50 09 	st.d [%a15]16,%e8
80003e6c:	00 90       	ret 

80003e6e <bsp_uc_port_EnableOutput>:
80003e6e:	40 ae       	mov.aa %a14,%sp
80003e70:	20 18       	sub.a %sp,24
80003e72:	59 e4 f4 ff 	st.w [%a14]-12,%d4
80003e76:	59 e5 f0 ff 	st.w [%a14]-16,%d5
80003e7a:	59 e6 ec ff 	st.w [%a14]-20,%d6
80003e7e:	59 e7 e8 ff 	st.w [%a14]-24,%d7
80003e82:	7b 00 00 27 	movh %d2,28672
80003e86:	1b 02 31 26 	addi %d2,%d2,25360
80003e8a:	60 2f       	mov.a %a15,%d2
80003e8c:	09 f2 40 09 	ld.d %e2,[%a15]
80003e90:	8b 12 80 f0 	addx %d15,%d2,1
80003e94:	60 f4       	mov.a %a4,%d15
80003e96:	8b 03 a0 f0 	addc %d15,%d3,0
80003e9a:	60 f5       	mov.a %a5,%d15
80003e9c:	7b 00 00 27 	movh %d2,28672
80003ea0:	1b 02 31 26 	addi %d2,%d2,25360
80003ea4:	60 2f       	mov.a %a15,%d2
80003ea6:	89 f4 c0 09 	st.da [%a15],%a4
80003eaa:	19 e2 f0 ff 	ld.w %d2,[%a14]-16
80003eae:	8f 32 00 21 	and %d2,%d2,3
80003eb2:	06 32       	sh %d2,3
80003eb4:	59 e2 fc ff 	st.w [%a14]-4,%d2
80003eb8:	19 e2 f4 ff 	ld.w %d2,[%a14]-12
80003ebc:	7b d0 cc 3c 	movh %d3,52429
80003ec0:	1b d3 cc 3c 	addi %d3,%d3,-13107
80003ec4:	73 32 68 20 	mul.u %e2,%d2,%d3
80003ec8:	8f d3 1f 20 	sh %d2,%d3,-3
80003ecc:	1b a2 03 20 	addi %d2,%d2,58
80003ed0:	9b f2 00 20 	addih %d2,%d2,15
80003ed4:	8f 42 00 50 	sh %d5,%d2,4
80003ed8:	19 e4 f4 ff 	ld.w %d4,[%a14]-12
80003edc:	7b d0 cc 2c 	movh %d2,52429
80003ee0:	1b d2 cc 2c 	addi %d2,%d2,-13107
80003ee4:	73 24 68 20 	mul.u %e2,%d4,%d2
80003ee8:	8f d3 1f 20 	sh %d2,%d3,-3
80003eec:	53 a2 20 20 	mul %d2,%d2,10
80003ef0:	0b 24 80 20 	sub %d2,%d4,%d2
80003ef4:	42 52       	add %d2,%d5
80003ef6:	8f 62 00 30 	sh %d3,%d2,6
80003efa:	19 e2 f0 ff 	ld.w %d2,[%a14]-16
80003efe:	06 e2       	sh %d2,-2
80003f00:	42 32       	add %d2,%d3
80003f02:	c2 42       	add %d2,4
80003f04:	06 22       	sh %d2,2
80003f06:	02 26       	mov %d6,%d2
80003f08:	19 e2 ec ff 	ld.w %d2,[%a14]-20
80003f0c:	8f 02 41 21 	or %d2,%d2,16
80003f10:	06 32       	sh %d2,3
80003f12:	19 e3 fc ff 	ld.w %d3,[%a14]-4
80003f16:	0f 32 00 40 	sh %d4,%d2,%d3
80003f1a:	19 e2 fc ff 	ld.w %d2,[%a14]-4
80003f1e:	3b f0 0f 30 	mov %d3,255
80003f22:	0f 23 00 20 	sh %d2,%d3,%d2
80003f26:	60 46       	mov.a %a6,%d4
80003f28:	60 27       	mov.a %a7,%d2
80003f2a:	80 64       	mov.d %d4,%a6
80003f2c:	80 75       	mov.d %d5,%a7
80003f2e:	7b 00 00 27 	movh %d2,28672
80003f32:	1b 02 31 26 	addi %d2,%d2,25360
80003f36:	60 2f       	mov.a %a15,%d2
80003f38:	09 f2 48 09 	ld.d %e2,[%a15]8
80003f3c:	8b 12 80 f0 	addx %d15,%d2,1
80003f40:	60 f2       	mov.a %a2,%d15
80003f42:	8b 03 a0 f0 	addc %d15,%d3,0
80003f46:	60 f3       	mov.a %a3,%d15
80003f48:	7b 00 00 27 	movh %d2,28672
80003f4c:	1b 02 31 26 	addi %d2,%d2,25360
80003f50:	60 2f       	mov.a %a15,%d2
80003f52:	89 f2 c8 09 	st.da [%a15]8,%a2
80003f56:	60 6f       	mov.a %a15,%d6
80003f58:	49 f4 40 08 	ldmst [%a15]0,%e4
80003f5c:	7b 00 00 27 	movh %d2,28672
80003f60:	1b 02 31 26 	addi %d2,%d2,25360
80003f64:	60 2f       	mov.a %a15,%d2
80003f66:	09 f2 50 09 	ld.d %e2,[%a15]16
80003f6a:	8b 12 80 00 	addx %d0,%d2,1
80003f6e:	8b 03 a0 10 	addc %d1,%d3,0
80003f72:	7b 00 00 27 	movh %d2,28672
80003f76:	1b 02 31 26 	addi %d2,%d2,25360
80003f7a:	60 2f       	mov.a %a15,%d2
80003f7c:	89 f0 50 09 	st.d [%a15]16,%e0
80003f80:	6d 00 93 32 	call 8000a4a6 <unlock_wdtcon>
80003f84:	7b 00 00 27 	movh %d2,28672
80003f88:	1b 02 31 26 	addi %d2,%d2,25360
80003f8c:	60 2f       	mov.a %a15,%d2
80003f8e:	09 f2 58 09 	ld.d %e2,[%a15]24
80003f92:	8b 12 80 e0 	addx %d14,%d2,1
80003f96:	8b 03 a0 f0 	addc %d15,%d3,0
80003f9a:	7b 00 00 27 	movh %d2,28672
80003f9e:	1b 02 31 26 	addi %d2,%d2,25360
80003fa2:	60 2f       	mov.a %a15,%d2
80003fa4:	89 fe 58 09 	st.d [%a15]24,%e14
80003fa8:	19 ef f0 ff 	ld.w %d15,[%a14]-16
80003fac:	16 07       	and %d15,7
80003fae:	06 2f       	sh %d15,2
80003fb0:	59 ef fc ff 	st.w [%a14]-4,%d15
80003fb4:	19 ef f4 ff 	ld.w %d15,[%a14]-12
80003fb8:	7b d0 cc 2c 	movh %d2,52429
80003fbc:	1b d2 cc 2c 	addi %d2,%d2,-13107
80003fc0:	73 2f 68 20 	mul.u %e2,%d15,%d2
80003fc4:	8f d3 1f f0 	sh %d15,%d3,-3
80003fc8:	1b af 03 f0 	addi %d15,%d15,58
80003fcc:	9b ff 00 f0 	addih %d15,%d15,15
80003fd0:	8f 4f 00 50 	sh %d5,%d15,4
80003fd4:	19 e4 f4 ff 	ld.w %d4,[%a14]-12
80003fd8:	7b d0 cc fc 	movh %d15,52429
80003fdc:	1b df cc fc 	addi %d15,%d15,-13107
80003fe0:	73 f4 68 20 	mul.u %e2,%d4,%d15
80003fe4:	8f d3 1f f0 	sh %d15,%d3,-3
80003fe8:	53 af 20 f0 	mul %d15,%d15,10
80003fec:	5a f4       	sub %d15,%d4,%d15
80003fee:	42 5f       	add %d15,%d5
80003ff0:	8f 6f 00 20 	sh %d2,%d15,6
80003ff4:	19 ef f0 ff 	ld.w %d15,[%a14]-16
80003ff8:	06 df       	sh %d15,-3
80003ffa:	42 2f       	add %d15,%d2
80003ffc:	1b 0f 01 f0 	addi %d15,%d15,16
80004000:	06 2f       	sh %d15,2
80004002:	02 f6       	mov %d6,%d15
80004004:	19 ef e8 ff 	ld.w %d15,[%a14]-24
80004008:	06 3f       	sh %d15,3
8000400a:	54 e2       	ld.w %d2,[%a14]
8000400c:	a6 2f       	or %d15,%d2
8000400e:	19 e2 fc ff 	ld.w %d2,[%a14]-4
80004012:	0f 2f 00 30 	sh %d3,%d15,%d2
80004016:	19 ef fc ff 	ld.w %d15,[%a14]-4
8000401a:	3b f0 00 20 	mov %d2,15
8000401e:	0f f2 00 f0 	sh %d15,%d2,%d15
80004022:	60 3c       	mov.a %a12,%d3
80004024:	60 fd       	mov.a %a13,%d15
80004026:	80 c4       	mov.d %d4,%a12
80004028:	80 d5       	mov.d %d5,%a13
8000402a:	7b 00 00 f7 	movh %d15,28672
8000402e:	1b 0f 31 f6 	addi %d15,%d15,25360
80004032:	60 ff       	mov.a %a15,%d15
80004034:	09 f2 60 09 	ld.d %e2,[%a15]32
80004038:	8b 12 80 c0 	addx %d12,%d2,1
8000403c:	8b 03 a0 d0 	addc %d13,%d3,0
80004040:	7b 00 00 f7 	movh %d15,28672
80004044:	1b 0f 31 f6 	addi %d15,%d15,25360
80004048:	60 ff       	mov.a %a15,%d15
8000404a:	89 fc 60 09 	st.d [%a15]32,%e12
8000404e:	60 6f       	mov.a %a15,%d6
80004050:	49 f4 40 08 	ldmst [%a15]0,%e4
80004054:	7b 00 00 f7 	movh %d15,28672
80004058:	1b 0f 31 f6 	addi %d15,%d15,25360
8000405c:	60 ff       	mov.a %a15,%d15
8000405e:	09 f2 68 09 	ld.d %e2,[%a15]40
80004062:	8b 12 80 a0 	addx %d10,%d2,1
80004066:	8b 03 a0 b0 	addc %d11,%d3,0
8000406a:	7b 00 00 f7 	movh %d15,28672
8000406e:	1b 0f 31 f6 	addi %d15,%d15,25360
80004072:	60 ff       	mov.a %a15,%d15
80004074:	89 fa 68 09 	st.d [%a15]40,%e10
80004078:	6d 00 2d 32 	call 8000a4d2 <lock_wdtcon>
8000407c:	7b 00 00 f7 	movh %d15,28672
80004080:	1b 0f 31 f6 	addi %d15,%d15,25360
80004084:	60 ff       	mov.a %a15,%d15
80004086:	09 f2 70 09 	ld.d %e2,[%a15]48
8000408a:	8b 12 80 80 	addx %d8,%d2,1
8000408e:	8b 03 a0 90 	addc %d9,%d3,0
80004092:	7b 00 00 f7 	movh %d15,28672
80004096:	1b 0f 31 f6 	addi %d15,%d15,25360
8000409a:	60 ff       	mov.a %a15,%d15
8000409c:	89 f8 70 09 	st.d [%a15]48,%e8
800040a0:	00 90       	ret 

800040a2 <bsp_uc_port_SetGPIO>:
800040a2:	40 ae       	mov.aa %a14,%sp
800040a4:	20 18       	sub.a %sp,24
800040a6:	59 e4 f4 ff 	st.w [%a14]-12,%d4
800040aa:	59 e5 f0 ff 	st.w [%a14]-16,%d5
800040ae:	59 e6 ec ff 	st.w [%a14]-20,%d6
800040b2:	7b 00 00 f7 	movh %d15,28672
800040b6:	1b 8f 30 f6 	addi %d15,%d15,25352
800040ba:	60 ff       	mov.a %a15,%d15
800040bc:	09 f2 40 09 	ld.d %e2,[%a15]
800040c0:	8b 12 80 00 	addx %d0,%d2,1
800040c4:	8b 03 a0 10 	addc %d1,%d3,0
800040c8:	7b 00 00 f7 	movh %d15,28672
800040cc:	1b 8f 30 f6 	addi %d15,%d15,25352
800040d0:	60 ff       	mov.a %a15,%d15
800040d2:	89 f0 40 09 	st.d [%a15],%e0
800040d6:	19 ef ec ff 	ld.w %d15,[%a14]-20
800040da:	16 02       	and %d15,2
800040dc:	19 e2 f0 ff 	ld.w %d2,[%a14]-16
800040e0:	1b f2 00 20 	addi %d2,%d2,15
800040e4:	0f 2f 00 f0 	sh %d15,%d15,%d2
800040e8:	59 ef fc ff 	st.w [%a14]-4,%d15
800040ec:	19 ef ec ff 	ld.w %d15,[%a14]-20
800040f0:	16 01       	and %d15,1
800040f2:	19 e2 f0 ff 	ld.w %d2,[%a14]-16
800040f6:	0f 2f 00 f0 	sh %d15,%d15,%d2
800040fa:	59 ef f8 ff 	st.w [%a14]-8,%d15
800040fe:	19 ef f4 ff 	ld.w %d15,[%a14]-12
80004102:	7b d0 cc 2c 	movh %d2,52429
80004106:	1b d2 cc 2c 	addi %d2,%d2,-13107
8000410a:	73 2f 68 20 	mul.u %e2,%d15,%d2
8000410e:	8f d3 1f f0 	sh %d15,%d3,-3
80004112:	1b af 03 f0 	addi %d15,%d15,58
80004116:	9b ff 00 f0 	addih %d15,%d15,15
8000411a:	8f 4f 00 50 	sh %d5,%d15,4
8000411e:	19 e4 f4 ff 	ld.w %d4,[%a14]-12
80004122:	7b d0 cc fc 	movh %d15,52429
80004126:	1b df cc fc 	addi %d15,%d15,-13107
8000412a:	73 f4 68 20 	mul.u %e2,%d4,%d15
8000412e:	8f d3 1f f0 	sh %d15,%d3,-3
80004132:	53 af 20 f0 	mul %d15,%d15,10
80004136:	5a f4       	sub %d15,%d4,%d15
80004138:	42 5f       	add %d15,%d5
8000413a:	8f 8f 00 f0 	sh %d15,%d15,8
8000413e:	c2 4f       	add %d15,4
80004140:	02 f3       	mov %d3,%d15
80004142:	19 e2 fc ff 	ld.w %d2,[%a14]-4
80004146:	19 ef f8 ff 	ld.w %d15,[%a14]-8
8000414a:	a6 2f       	or %d15,%d2
8000414c:	60 3f       	mov.a %a15,%d3
8000414e:	68 0f       	st.w [%a15]0,%d15
80004150:	00 90       	ret 

80004152 <bsp_uc_pflash_SetWs>:
80004152:	40 ae       	mov.aa %a14,%sp
80004154:	20 08       	sub.a %sp,8
80004156:	59 e4 fc ff 	st.w [%a14]-4,%d4
8000415a:	59 e5 f8 ff 	st.w [%a14]-8,%d5
8000415e:	7b 00 00 f7 	movh %d15,28672
80004162:	1b 8f 2e f6 	addi %d15,%d15,25320
80004166:	60 ff       	mov.a %a15,%d15
80004168:	09 f2 40 09 	ld.d %e2,[%a15]
8000416c:	8b 12 80 60 	addx %d6,%d2,1
80004170:	8b 03 a0 70 	addc %d7,%d3,0
80004174:	7b 00 00 f7 	movh %d15,28672
80004178:	1b 8f 2e f6 	addi %d15,%d15,25320
8000417c:	60 ff       	mov.a %a15,%d15
8000417e:	89 f6 40 09 	st.d [%a15],%e6
80004182:	6d 00 92 31 	call 8000a4a6 <unlock_wdtcon>
80004186:	7b 00 00 f7 	movh %d15,28672
8000418a:	1b 8f 2e f6 	addi %d15,%d15,25320
8000418e:	60 ff       	mov.a %a15,%d15
80004190:	09 f2 48 09 	ld.d %e2,[%a15]8
80004194:	8b 12 80 a0 	addx %d10,%d2,1
80004198:	8b 03 a0 b0 	addc %d11,%d3,0
8000419c:	7b 00 00 f7 	movh %d15,28672
800041a0:	1b 8f 2e f6 	addi %d15,%d15,25320
800041a4:	60 ff       	mov.a %a15,%d15
800041a6:	89 fa 48 09 	st.d [%a15]8,%e10
800041aa:	7b 00 80 2f 	movh %d2,63488
800041ae:	1b 42 01 22 	addi %d2,%d2,8212
800041b2:	19 ef fc ff 	ld.w %d15,[%a14]-4
800041b6:	16 ff       	and %d15,255
800041b8:	16 0f       	and %d15,15
800041ba:	8f ff 0f 31 	and %d3,%d15,255
800041be:	60 2f       	mov.a %a15,%d2
800041c0:	4c f0       	ld.w %d15,[%a15]0
800041c2:	37 3f 04 f0 	insert %d15,%d15,%d3,0,4
800041c6:	60 2f       	mov.a %a15,%d2
800041c8:	68 0f       	st.w [%a15]0,%d15
800041ca:	7b 00 80 2f 	movh %d2,63488
800041ce:	1b 42 01 22 	addi %d2,%d2,8212
800041d2:	19 ef f8 ff 	ld.w %d15,[%a14]-8
800041d6:	16 ff       	and %d15,255
800041d8:	16 03       	and %d15,3
800041da:	8f ff 0f 31 	and %d3,%d15,255
800041de:	60 2f       	mov.a %a15,%d2
800041e0:	4c f0       	ld.w %d15,[%a15]0
800041e2:	37 3f 02 f2 	insert %d15,%d15,%d3,4,2
800041e6:	60 2f       	mov.a %a15,%d2
800041e8:	68 0f       	st.w [%a15]0,%d15
800041ea:	6d 00 74 31 	call 8000a4d2 <lock_wdtcon>
800041ee:	7b 00 00 f7 	movh %d15,28672
800041f2:	1b 8f 2e f6 	addi %d15,%d15,25320
800041f6:	60 ff       	mov.a %a15,%d15
800041f8:	09 f2 50 09 	ld.d %e2,[%a15]16
800041fc:	8b 12 80 80 	addx %d8,%d2,1
80004200:	8b 03 a0 90 	addc %d9,%d3,0
80004204:	7b 00 00 f7 	movh %d15,28672
80004208:	1b 8f 2e f6 	addi %d15,%d15,25320
8000420c:	60 ff       	mov.a %a15,%d15
8000420e:	89 f8 50 09 	st.d [%a15]16,%e8
80004212:	00 90       	ret 

80004214 <bsp_uc_dflash_SetWs>:
80004214:	40 ae       	mov.aa %a14,%sp
80004216:	20 08       	sub.a %sp,8
80004218:	59 e4 fc ff 	st.w [%a14]-4,%d4
8000421c:	59 e5 f8 ff 	st.w [%a14]-8,%d5
80004220:	7b 00 00 f7 	movh %d15,28672
80004224:	1b 0f 2d f6 	addi %d15,%d15,25296
80004228:	60 ff       	mov.a %a15,%d15
8000422a:	09 f2 40 09 	ld.d %e2,[%a15]
8000422e:	8b 12 80 60 	addx %d6,%d2,1
80004232:	8b 03 a0 70 	addc %d7,%d3,0
80004236:	7b 00 00 f7 	movh %d15,28672
8000423a:	1b 0f 2d f6 	addi %d15,%d15,25296
8000423e:	60 ff       	mov.a %a15,%d15
80004240:	89 f6 40 09 	st.d [%a15],%e6
80004244:	6d 00 31 31 	call 8000a4a6 <unlock_wdtcon>
80004248:	7b 00 00 f7 	movh %d15,28672
8000424c:	1b 0f 2d f6 	addi %d15,%d15,25296
80004250:	60 ff       	mov.a %a15,%d15
80004252:	09 f2 48 09 	ld.d %e2,[%a15]8
80004256:	8b 12 80 a0 	addx %d10,%d2,1
8000425a:	8b 03 a0 b0 	addc %d11,%d3,0
8000425e:	7b 00 00 f7 	movh %d15,28672
80004262:	1b 0f 2d f6 	addi %d15,%d15,25296
80004266:	60 ff       	mov.a %a15,%d15
80004268:	89 fa 48 09 	st.d [%a15]8,%e10
8000426c:	7b 00 80 2f 	movh %d2,63488
80004270:	1b 42 01 22 	addi %d2,%d2,8212
80004274:	19 ef fc ff 	ld.w %d15,[%a14]-4
80004278:	16 ff       	and %d15,255
8000427a:	16 3f       	and %d15,63
8000427c:	8f ff 0f 31 	and %d3,%d15,255
80004280:	60 2f       	mov.a %a15,%d2
80004282:	4c f0       	ld.w %d15,[%a15]0
80004284:	37 3f 06 f3 	insert %d15,%d15,%d3,6,6
80004288:	60 2f       	mov.a %a15,%d2
8000428a:	68 0f       	st.w [%a15]0,%d15
8000428c:	7b 00 80 2f 	movh %d2,63488
80004290:	1b 42 01 22 	addi %d2,%d2,8212
80004294:	19 ef f8 ff 	ld.w %d15,[%a14]-8
80004298:	16 ff       	and %d15,255
8000429a:	16 07       	and %d15,7
8000429c:	8f ff 0f 31 	and %d3,%d15,255
800042a0:	60 2f       	mov.a %a15,%d2
800042a2:	4c f0       	ld.w %d15,[%a15]0
800042a4:	37 3f 03 f6 	insert %d15,%d15,%d3,12,3
800042a8:	60 2f       	mov.a %a15,%d2
800042aa:	68 0f       	st.w [%a15]0,%d15
800042ac:	6d 00 13 31 	call 8000a4d2 <lock_wdtcon>
800042b0:	7b 00 00 f7 	movh %d15,28672
800042b4:	1b 0f 2d f6 	addi %d15,%d15,25296
800042b8:	60 ff       	mov.a %a15,%d15
800042ba:	09 f2 50 09 	ld.d %e2,[%a15]16
800042be:	8b 12 80 80 	addx %d8,%d2,1
800042c2:	8b 03 a0 90 	addc %d9,%d3,0
800042c6:	7b 00 00 f7 	movh %d15,28672
800042ca:	1b 0f 2d f6 	addi %d15,%d15,25296
800042ce:	60 ff       	mov.a %a15,%d15
800042d0:	89 f8 50 09 	st.d [%a15]16,%e8
800042d4:	00 90       	ret 

800042d6 <bsp_uc_core_EnableICache>:
800042d6:	40 ae       	mov.aa %a14,%sp
800042d8:	20 10       	sub.a %sp,16
800042da:	7b 00 00 27 	movh %d2,28672
800042de:	1b 02 2a 26 	addi %d2,%d2,25248
800042e2:	60 2f       	mov.a %a15,%d2
800042e4:	09 f2 40 09 	ld.d %e2,[%a15]
800042e8:	8b 12 80 60 	addx %d6,%d2,1
800042ec:	8b 03 a0 70 	addc %d7,%d3,0
800042f0:	7b 00 00 27 	movh %d2,28672
800042f4:	1b 02 2a 26 	addi %d2,%d2,25248
800042f8:	60 2f       	mov.a %a15,%d2
800042fa:	89 f6 40 09 	st.d [%a15],%e6
800042fe:	82 02       	mov %d2,0
80004300:	59 e2 f4 ff 	st.w [%a14]-12,%d2
80004304:	19 e2 f4 ff 	ld.w %d2,[%a14]-12
80004308:	b7 12 01 20 	insert %d2,%d2,1,0,1
8000430c:	59 e2 f4 ff 	st.w [%a14]-12,%d2
80004310:	19 e2 f4 ff 	ld.w %d2,[%a14]-12
80004314:	59 e2 fc ff 	st.w [%a14]-4,%d2
80004318:	19 e2 fc ff 	ld.w %d2,[%a14]-4
8000431c:	cd 42 20 09 	mtcr $pcon1,%d2
80004320:	7b 00 00 27 	movh %d2,28672
80004324:	1b 02 2a 26 	addi %d2,%d2,25248
80004328:	60 2f       	mov.a %a15,%d2
8000432a:	09 f2 48 09 	ld.d %e2,[%a15]8
8000432e:	8b 12 80 40 	addx %d4,%d2,1
80004332:	8b 03 a0 50 	addc %d5,%d3,0
80004336:	7b 00 00 27 	movh %d2,28672
8000433a:	1b 02 2a 26 	addi %d2,%d2,25248
8000433e:	60 2f       	mov.a %a15,%d2
80004340:	89 f4 48 09 	st.d [%a15]8,%e4
80004344:	6d 00 b1 30 	call 8000a4a6 <unlock_wdtcon>
80004348:	7b 00 00 27 	movh %d2,28672
8000434c:	1b 02 2a 26 	addi %d2,%d2,25248
80004350:	60 2f       	mov.a %a15,%d2
80004352:	09 f2 50 09 	ld.d %e2,[%a15]16
80004356:	8b 12 80 e0 	addx %d14,%d2,1
8000435a:	8b 03 a0 f0 	addc %d15,%d3,0
8000435e:	7b 00 00 27 	movh %d2,28672
80004362:	1b 02 2a 26 	addi %d2,%d2,25248
80004366:	60 2f       	mov.a %a15,%d2
80004368:	89 fe 50 09 	st.d [%a15]16,%e14
8000436c:	82 0f       	mov %d15,0
8000436e:	59 ef f0 ff 	st.w [%a14]-16,%d15
80004372:	19 ef f0 ff 	ld.w %d15,[%a14]-16
80004376:	8f 2f c0 f1 	andn %d15,%d15,2
8000437a:	59 ef f0 ff 	st.w [%a14]-16,%d15
8000437e:	19 ef f0 ff 	ld.w %d15,[%a14]-16
80004382:	59 ef f8 ff 	st.w [%a14]-8,%d15
80004386:	19 ef f8 ff 	ld.w %d15,[%a14]-8
8000438a:	cd cf 20 09 	mtcr $pcon0,%d15
8000438e:	7b 00 00 f7 	movh %d15,28672
80004392:	1b 0f 2a f6 	addi %d15,%d15,25248
80004396:	60 ff       	mov.a %a15,%d15
80004398:	09 f2 58 09 	ld.d %e2,[%a15]24
8000439c:	8b 12 80 c0 	addx %d12,%d2,1
800043a0:	8b 03 a0 d0 	addc %d13,%d3,0
800043a4:	7b 00 00 f7 	movh %d15,28672
800043a8:	1b 0f 2a f6 	addi %d15,%d15,25248
800043ac:	60 ff       	mov.a %a15,%d15
800043ae:	89 fc 58 09 	st.d [%a15]24,%e12
800043b2:	0d 00 c0 04 	isync 
800043b6:	7b 00 00 f7 	movh %d15,28672
800043ba:	1b 0f 2a f6 	addi %d15,%d15,25248
800043be:	60 ff       	mov.a %a15,%d15
800043c0:	09 f2 60 09 	ld.d %e2,[%a15]32
800043c4:	8b 12 80 a0 	addx %d10,%d2,1
800043c8:	8b 03 a0 b0 	addc %d11,%d3,0
800043cc:	7b 00 00 f7 	movh %d15,28672
800043d0:	1b 0f 2a f6 	addi %d15,%d15,25248
800043d4:	60 ff       	mov.a %a15,%d15
800043d6:	89 fa 60 09 	st.d [%a15]32,%e10
800043da:	6d 00 7c 30 	call 8000a4d2 <lock_wdtcon>
800043de:	7b 00 00 f7 	movh %d15,28672
800043e2:	1b 0f 2a f6 	addi %d15,%d15,25248
800043e6:	60 ff       	mov.a %a15,%d15
800043e8:	09 f2 68 09 	ld.d %e2,[%a15]40
800043ec:	8b 12 80 80 	addx %d8,%d2,1
800043f0:	8b 03 a0 90 	addc %d9,%d3,0
800043f4:	7b 00 00 f7 	movh %d15,28672
800043f8:	1b 0f 2a f6 	addi %d15,%d15,25248
800043fc:	60 ff       	mov.a %a15,%d15
800043fe:	89 f8 68 09 	st.d [%a15]40,%e8
80004402:	00 90       	ret 

80004404 <bsp_uc_core_GetCurrentCore>:
80004404:	40 ae       	mov.aa %a14,%sp
80004406:	20 08       	sub.a %sp,8
80004408:	7b 00 00 f7 	movh %d15,28672
8000440c:	1b 8f 26 f6 	addi %d15,%d15,25192
80004410:	60 ff       	mov.a %a15,%d15
80004412:	09 f2 40 09 	ld.d %e2,[%a15]
80004416:	8b 12 80 60 	addx %d6,%d2,1
8000441a:	8b 03 a0 70 	addc %d7,%d3,0
8000441e:	7b 00 00 f7 	movh %d15,28672
80004422:	1b 8f 26 f6 	addi %d15,%d15,25192
80004426:	60 ff       	mov.a %a15,%d15
80004428:	89 f6 40 09 	st.d [%a15],%e6
8000442c:	4d c0 e1 ff 	mfcr %d15,$core_id
80004430:	59 ef f8 ff 	st.w [%a14]-8,%d15
80004434:	19 ef f8 ff 	ld.w %d15,[%a14]-8
80004438:	16 07       	and %d15,7
8000443a:	59 ef fc ff 	st.w [%a14]-4,%d15
8000443e:	19 e6 fc ff 	ld.w %d6,[%a14]-4
80004442:	7b 00 00 f7 	movh %d15,28672
80004446:	1b 8f 26 f6 	addi %d15,%d15,25192
8000444a:	60 ff       	mov.a %a15,%d15
8000444c:	09 f2 48 09 	ld.d %e2,[%a15]8
80004450:	8b 12 80 40 	addx %d4,%d2,1
80004454:	8b 03 a0 50 	addc %d5,%d3,0
80004458:	7b 00 00 f7 	movh %d15,28672
8000445c:	1b 8f 26 f6 	addi %d15,%d15,25192
80004460:	60 ff       	mov.a %a15,%d15
80004462:	89 f4 48 09 	st.d [%a15]8,%e4
80004466:	02 6f       	mov %d15,%d6
80004468:	02 f2       	mov %d2,%d15
8000446a:	00 90       	ret 

8000446c <bsp_uc_stm_GetChannelCurrentValue>:
8000446c:	40 ae       	mov.aa %a14,%sp
8000446e:	20 10       	sub.a %sp,16
80004470:	59 e4 f4 ff 	st.w [%a14]-12,%d4
80004474:	19 ef f4 ff 	ld.w %d15,[%a14]-12
80004478:	9b 0f 0f f0 	addih %d15,%d15,240
8000447c:	8f 8f 00 f0 	sh %d15,%d15,8
80004480:	59 ef fc ff 	st.w [%a14]-4,%d15
80004484:	19 ef fc ff 	ld.w %d15,[%a14]-4
80004488:	60 ff       	mov.a %a15,%d15
8000448a:	48 44       	ld.w %d4,[%a15]16
8000448c:	7b 00 00 f7 	movh %d15,28672
80004490:	1b 0f 23 f6 	addi %d15,%d15,25136
80004494:	60 ff       	mov.a %a15,%d15
80004496:	09 f2 40 09 	ld.d %e2,[%a15]
8000449a:	8b 12 80 60 	addx %d6,%d2,1
8000449e:	8b 03 a0 70 	addc %d7,%d3,0
800044a2:	7b 00 00 f7 	movh %d15,28672
800044a6:	1b 0f 23 f6 	addi %d15,%d15,25136
800044aa:	60 ff       	mov.a %a15,%d15
800044ac:	89 f6 40 09 	st.d [%a15],%e6
800044b0:	02 4f       	mov %d15,%d4
800044b2:	02 f2       	mov %d2,%d15
800044b4:	00 90       	ret 

800044b6 <bsp_uc_stm_Wait>:
800044b6:	40 ae       	mov.aa %a14,%sp
800044b8:	20 18       	sub.a %sp,24
800044ba:	59 e4 ec ff 	st.w [%a14]-20,%d4
800044be:	59 e5 e8 ff 	st.w [%a14]-24,%d5
800044c2:	7b 00 00 27 	movh %d2,28672
800044c6:	1b 82 20 26 	addi %d2,%d2,25096
800044ca:	60 2f       	mov.a %a15,%d2
800044cc:	09 f2 40 09 	ld.d %e2,[%a15]
800044d0:	8b 12 80 60 	addx %d6,%d2,1
800044d4:	8b 03 a0 70 	addc %d7,%d3,0
800044d8:	7b 00 00 27 	movh %d2,28672
800044dc:	1b 82 20 26 	addi %d2,%d2,25096
800044e0:	60 2f       	mov.a %a15,%d2
800044e2:	89 f6 40 09 	st.d [%a15],%e6
800044e6:	6d ff 8f ff 	call 80004404 <bsp_uc_core_GetCurrentCore>
800044ea:	02 24       	mov %d4,%d2
800044ec:	7b 00 00 27 	movh %d2,28672
800044f0:	1b 82 20 26 	addi %d2,%d2,25096
800044f4:	60 2f       	mov.a %a15,%d2
800044f6:	09 f2 48 09 	ld.d %e2,[%a15]8
800044fa:	8b 12 80 e0 	addx %d14,%d2,1
800044fe:	8b 03 a0 f0 	addc %d15,%d3,0
80004502:	7b 00 00 27 	movh %d2,28672
80004506:	1b 82 20 26 	addi %d2,%d2,25096
8000450a:	60 2f       	mov.a %a15,%d2
8000450c:	89 fe 48 09 	st.d [%a15]8,%e14
80004510:	59 e4 fc ff 	st.w [%a14]-4,%d4
80004514:	19 ef fc ff 	ld.w %d15,[%a14]-4
80004518:	02 f4       	mov %d4,%d15
8000451a:	6d ff a9 ff 	call 8000446c <bsp_uc_stm_GetChannelCurrentValue>
8000451e:	59 e2 f8 ff 	st.w [%a14]-8,%d2
80004522:	7b 30 00 ff 	movh %d15,61443
80004526:	1b 4f 03 f6 	addi %d15,%d15,24628
8000452a:	60 ff       	mov.a %a15,%d15
8000452c:	4c f0       	ld.w %d15,[%a15]0
8000452e:	37 0f 64 f4 	extr.u %d15,%d15,8,4
80004532:	16 ff       	and %d15,255
80004534:	59 ef f4 ff 	st.w [%a14]-12,%d15
80004538:	19 e2 e8 ff 	ld.w %d2,[%a14]-24
8000453c:	19 ef ec ff 	ld.w %d15,[%a14]-20
80004540:	e2 2f       	mul %d15,%d2
80004542:	19 e2 f4 ff 	ld.w %d2,[%a14]-12
80004546:	4b 2f 11 22 	div.u %e2,%d15,%d2
8000454a:	02 2f       	mov %d15,%d2
8000454c:	59 ef f0 ff 	st.w [%a14]-16,%d15
80004550:	7b 00 00 f7 	movh %d15,28672
80004554:	1b 8f 20 f6 	addi %d15,%d15,25096
80004558:	60 ff       	mov.a %a15,%d15
8000455a:	09 f2 50 09 	ld.d %e2,[%a15]16
8000455e:	8b 12 80 c0 	addx %d12,%d2,1
80004562:	8b 03 a0 d0 	addc %d13,%d3,0
80004566:	7b 00 00 f7 	movh %d15,28672
8000456a:	1b 8f 20 f6 	addi %d15,%d15,25096
8000456e:	60 ff       	mov.a %a15,%d15
80004570:	89 fc 50 09 	st.d [%a15]16,%e12
80004574:	00 00       	nop 
80004576:	19 ef fc ff 	ld.w %d15,[%a14]-4
8000457a:	02 f4       	mov %d4,%d15
8000457c:	6d ff 78 ff 	call 8000446c <bsp_uc_stm_GetChannelCurrentValue>
80004580:	02 24       	mov %d4,%d2
80004582:	7b 00 00 f7 	movh %d15,28672
80004586:	1b 8f 20 f6 	addi %d15,%d15,25096
8000458a:	60 ff       	mov.a %a15,%d15
8000458c:	09 f2 58 09 	ld.d %e2,[%a15]24
80004590:	8b 12 80 a0 	addx %d10,%d2,1
80004594:	8b 03 a0 b0 	addc %d11,%d3,0
80004598:	7b 00 00 f7 	movh %d15,28672
8000459c:	1b 8f 20 f6 	addi %d15,%d15,25096
800045a0:	60 ff       	mov.a %a15,%d15
800045a2:	89 fa 58 09 	st.d [%a15]24,%e10
800045a6:	19 ef f8 ff 	ld.w %d15,[%a14]-8
800045aa:	0b f4 80 20 	sub %d2,%d4,%d15
800045ae:	19 ef f0 ff 	ld.w %d15,[%a14]-16
800045b2:	3f f2 e2 ff 	jlt.u %d2,%d15,80004576 <bsp_uc_stm_Wait+0xc0>
800045b6:	7b 00 00 f7 	movh %d15,28672
800045ba:	1b 8f 20 f6 	addi %d15,%d15,25096
800045be:	60 ff       	mov.a %a15,%d15
800045c0:	09 f2 60 09 	ld.d %e2,[%a15]32
800045c4:	8b 12 80 80 	addx %d8,%d2,1
800045c8:	8b 03 a0 90 	addc %d9,%d3,0
800045cc:	7b 00 00 f7 	movh %d15,28672
800045d0:	1b 8f 20 f6 	addi %d15,%d15,25096
800045d4:	60 ff       	mov.a %a15,%d15
800045d6:	89 f8 60 09 	st.d [%a15]32,%e8
800045da:	00 90       	ret 

800045dc <bsp_uc_intc_SetBIV>:
800045dc:	40 ae       	mov.aa %a14,%sp
800045de:	20 10       	sub.a %sp,16
800045e0:	59 e4 f4 ff 	st.w [%a14]-12,%d4
800045e4:	59 e5 f0 ff 	st.w [%a14]-16,%d5
800045e8:	7b 00 00 27 	movh %d2,28672
800045ec:	1b 02 1e 26 	addi %d2,%d2,25056
800045f0:	60 2f       	mov.a %a15,%d2
800045f2:	09 f2 40 09 	ld.d %e2,[%a15]
800045f6:	8b 12 80 60 	addx %d6,%d2,1
800045fa:	8b 03 a0 70 	addc %d7,%d3,0
800045fe:	7b 00 00 27 	movh %d2,28672
80004602:	1b 02 1e 26 	addi %d2,%d2,25056
80004606:	60 2f       	mov.a %a15,%d2
80004608:	89 f6 40 09 	st.d [%a15],%e6
8000460c:	19 e2 f4 ff 	ld.w %d2,[%a14]-12
80004610:	8f 12 c0 31 	andn %d3,%d2,1
80004614:	19 e2 f0 ff 	ld.w %d2,[%a14]-16
80004618:	8f 12 00 21 	and %d2,%d2,1
8000461c:	a6 32       	or %d2,%d3
8000461e:	59 e2 fc ff 	st.w [%a14]-4,%d2
80004622:	6d 00 42 2f 	call 8000a4a6 <unlock_wdtcon>
80004626:	7b 00 00 27 	movh %d2,28672
8000462a:	1b 02 1e 26 	addi %d2,%d2,25056
8000462e:	60 2f       	mov.a %a15,%d2
80004630:	09 f2 48 09 	ld.d %e2,[%a15]8
80004634:	8b 12 80 e0 	addx %d14,%d2,1
80004638:	8b 03 a0 f0 	addc %d15,%d3,0
8000463c:	7b 00 00 27 	movh %d2,28672
80004640:	1b 02 1e 26 	addi %d2,%d2,25056
80004644:	60 2f       	mov.a %a15,%d2
80004646:	89 fe 48 09 	st.d [%a15]8,%e14
8000464a:	19 ef fc ff 	ld.w %d15,[%a14]-4
8000464e:	59 ef f8 ff 	st.w [%a14]-8,%d15
80004652:	19 ef f8 ff 	ld.w %d15,[%a14]-8
80004656:	cd 0f e2 0f 	mtcr $biv,%d15
8000465a:	7b 00 00 f7 	movh %d15,28672
8000465e:	1b 0f 1e f6 	addi %d15,%d15,25056
80004662:	60 ff       	mov.a %a15,%d15
80004664:	09 f2 50 09 	ld.d %e2,[%a15]16
80004668:	8b 12 80 c0 	addx %d12,%d2,1
8000466c:	8b 03 a0 d0 	addc %d13,%d3,0
80004670:	7b 00 00 f7 	movh %d15,28672
80004674:	1b 0f 1e f6 	addi %d15,%d15,25056
80004678:	60 ff       	mov.a %a15,%d15
8000467a:	89 fc 50 09 	st.d [%a15]16,%e12
8000467e:	6d 00 2a 2f 	call 8000a4d2 <lock_wdtcon>
80004682:	7b 00 00 f7 	movh %d15,28672
80004686:	1b 0f 1e f6 	addi %d15,%d15,25056
8000468a:	60 ff       	mov.a %a15,%d15
8000468c:	09 f2 58 09 	ld.d %e2,[%a15]24
80004690:	8b 12 80 a0 	addx %d10,%d2,1
80004694:	8b 03 a0 b0 	addc %d11,%d3,0
80004698:	7b 00 00 f7 	movh %d15,28672
8000469c:	1b 0f 1e f6 	addi %d15,%d15,25056
800046a0:	60 ff       	mov.a %a15,%d15
800046a2:	89 fa 58 09 	st.d [%a15]24,%e10
800046a6:	0d 00 c0 04 	isync 
800046aa:	7b 00 00 f7 	movh %d15,28672
800046ae:	1b 0f 1e f6 	addi %d15,%d15,25056
800046b2:	60 ff       	mov.a %a15,%d15
800046b4:	09 f2 60 09 	ld.d %e2,[%a15]32
800046b8:	8b 12 80 80 	addx %d8,%d2,1
800046bc:	8b 03 a0 90 	addc %d9,%d3,0
800046c0:	7b 00 00 f7 	movh %d15,28672
800046c4:	1b 0f 1e f6 	addi %d15,%d15,25056
800046c8:	60 ff       	mov.a %a15,%d15
800046ca:	89 f8 60 09 	st.d [%a15]32,%e8
800046ce:	00 90       	ret 

800046d0 <bsp_uc_InitClock>:
800046d0:	40 ae       	mov.aa %a14,%sp
800046d2:	20 18       	sub.a %sp,24
800046d4:	7b 00 00 27 	movh %d2,28672
800046d8:	1b 82 18 26 	addi %d2,%d2,24968
800046dc:	60 2f       	mov.a %a15,%d2
800046de:	09 f2 40 09 	ld.d %e2,[%a15]
800046e2:	8b 12 80 40 	addx %d4,%d2,1
800046e6:	8b 03 a0 50 	addc %d5,%d3,0
800046ea:	7b 00 00 27 	movh %d2,28672
800046ee:	1b 82 18 26 	addi %d2,%d2,24968
800046f2:	60 2f       	mov.a %a15,%d2
800046f4:	89 f4 40 09 	st.d [%a15],%e4
800046f8:	7b 30 00 2f 	movh %d2,61443
800046fc:	1b 02 03 26 	addi %d2,%d2,24624
80004700:	60 2f       	mov.a %a15,%d2
80004702:	48 02       	ld.w %d2,[%a15]0
80004704:	59 e2 fc ff 	st.w [%a14]-4,%d2
80004708:	19 e2 fc ff 	ld.w %d2,[%a14]-4
8000470c:	b7 12 04 24 	insert %d2,%d2,1,8,4
80004710:	59 e2 fc ff 	st.w [%a14]-4,%d2
80004714:	19 e2 fc ff 	ld.w %d2,[%a14]-4
80004718:	b7 22 04 28 	insert %d2,%d2,2,16,4
8000471c:	59 e2 fc ff 	st.w [%a14]-4,%d2
80004720:	19 e2 fc ff 	ld.w %d2,[%a14]-4
80004724:	b7 12 02 2a 	insert %d2,%d2,1,20,2
80004728:	59 e2 fc ff 	st.w [%a14]-4,%d2
8000472c:	19 e2 fc ff 	ld.w %d2,[%a14]-4
80004730:	b7 22 02 2c 	insert %d2,%d2,2,24,2
80004734:	59 e2 fc ff 	st.w [%a14]-4,%d2
80004738:	19 e2 fc ff 	ld.w %d2,[%a14]-4
8000473c:	91 30 00 4f 	movh.a %a4,61443
80004740:	d9 44 30 06 	lea %a4,[%a4]24624 <f0036030 <BMHD+0x50036030>>
80004744:	02 24       	mov %d4,%d2
80004746:	82 05       	mov %d5,0
80004748:	6d ff 0f fa 	call 80003b66 <bsp_uc_scu_SetCcuCon>
8000474c:	7b 00 00 27 	movh %d2,28672
80004750:	1b 82 18 26 	addi %d2,%d2,24968
80004754:	60 2f       	mov.a %a15,%d2
80004756:	09 f2 48 09 	ld.d %e2,[%a15]8
8000475a:	8b 12 80 40 	addx %d4,%d2,1
8000475e:	59 e4 f0 ff 	st.w [%a14]-16,%d4
80004762:	8b 03 a0 50 	addc %d5,%d3,0
80004766:	59 e5 f4 ff 	st.w [%a14]-12,%d5
8000476a:	7b 00 00 27 	movh %d2,28672
8000476e:	1b 82 18 26 	addi %d2,%d2,24968
80004772:	09 e4 70 f9 	ld.d %e4,[%a14]-16
80004776:	60 2f       	mov.a %a15,%d2
80004778:	89 f4 48 09 	st.d [%a15]8,%e4
8000477c:	7b 30 00 2f 	movh %d2,61443
80004780:	1b 42 03 26 	addi %d2,%d2,24628
80004784:	60 2f       	mov.a %a15,%d2
80004786:	48 02       	ld.w %d2,[%a15]0
80004788:	59 e2 f8 ff 	st.w [%a14]-8,%d2
8000478c:	19 e2 f8 ff 	ld.w %d2,[%a14]-8
80004790:	b7 22 04 24 	insert %d2,%d2,2,8,4
80004794:	59 e2 f8 ff 	st.w [%a14]-8,%d2
80004798:	19 e2 f8 ff 	ld.w %d2,[%a14]-8
8000479c:	91 30 00 4f 	movh.a %a4,61443
800047a0:	d9 44 34 06 	lea %a4,[%a4]24628 <f0036034 <BMHD+0x50036034>>
800047a4:	02 24       	mov %d4,%d2
800047a6:	82 15       	mov %d5,1
800047a8:	6d ff df f9 	call 80003b66 <bsp_uc_scu_SetCcuCon>
800047ac:	7b 00 00 27 	movh %d2,28672
800047b0:	1b 82 18 26 	addi %d2,%d2,24968
800047b4:	60 2f       	mov.a %a15,%d2
800047b6:	09 f2 50 09 	ld.d %e2,[%a15]16
800047ba:	8b 12 80 40 	addx %d4,%d2,1
800047be:	59 e4 e8 ff 	st.w [%a14]-24,%d4
800047c2:	8b 03 a0 50 	addc %d5,%d3,0
800047c6:	59 e5 ec ff 	st.w [%a14]-20,%d5
800047ca:	7b 00 00 27 	movh %d2,28672
800047ce:	1b 82 18 26 	addi %d2,%d2,24968
800047d2:	09 e4 68 f9 	ld.d %e4,[%a14]-24
800047d6:	60 2f       	mov.a %a15,%d2
800047d8:	89 f4 50 09 	st.d [%a15]16,%e4
800047dc:	82 54       	mov %d4,5
800047de:	82 15       	mov %d5,1
800047e0:	6d ff b9 fc 	call 80004152 <bsp_uc_pflash_SetWs>
800047e4:	7b 00 00 27 	movh %d2,28672
800047e8:	1b 82 18 26 	addi %d2,%d2,24968
800047ec:	60 2f       	mov.a %a15,%d2
800047ee:	09 f2 58 09 	ld.d %e2,[%a15]24
800047f2:	8b 12 80 40 	addx %d4,%d2,1
800047f6:	60 4c       	mov.a %a12,%d4
800047f8:	8b 03 a0 50 	addc %d5,%d3,0
800047fc:	60 5d       	mov.a %a13,%d5
800047fe:	7b 00 00 27 	movh %d2,28672
80004802:	1b 82 18 26 	addi %d2,%d2,24968
80004806:	60 2f       	mov.a %a15,%d2
80004808:	89 fc d8 09 	st.da [%a15]24,%a12
8000480c:	3b 90 00 40 	mov %d4,9
80004810:	82 15       	mov %d5,1
80004812:	6d ff 01 fd 	call 80004214 <bsp_uc_dflash_SetWs>
80004816:	7b 00 00 27 	movh %d2,28672
8000481a:	1b 82 18 26 	addi %d2,%d2,24968
8000481e:	60 2f       	mov.a %a15,%d2
80004820:	09 f2 60 09 	ld.d %e2,[%a15]32
80004824:	8b 12 80 e0 	addx %d14,%d2,1
80004828:	8b 03 a0 f0 	addc %d15,%d3,0
8000482c:	7b 00 00 27 	movh %d2,28672
80004830:	1b 82 18 26 	addi %d2,%d2,24968
80004834:	60 2f       	mov.a %a15,%d2
80004836:	89 fe 60 09 	st.d [%a15]32,%e14
8000483a:	6d ff 23 f3 	call 80002e80 <bsp_uc_scu_EnableXOSC>
8000483e:	7b 00 00 f7 	movh %d15,28672
80004842:	1b 8f 18 f6 	addi %d15,%d15,24968
80004846:	60 ff       	mov.a %a15,%d15
80004848:	09 f2 68 09 	ld.d %e2,[%a15]40
8000484c:	8b 12 80 c0 	addx %d12,%d2,1
80004850:	8b 03 a0 d0 	addc %d13,%d3,0
80004854:	7b 00 00 f7 	movh %d15,28672
80004858:	1b 8f 18 f6 	addi %d15,%d15,24968
8000485c:	60 ff       	mov.a %a15,%d15
8000485e:	89 fc 68 09 	st.d [%a15]40,%e12
80004862:	82 04       	mov %d4,0
80004864:	3b d0 01 50 	mov %d5,29
80004868:	82 26       	mov %d6,2
8000486a:	6d ff 5c f4 	call 80003122 <bsp_uc_scu_EnablePLL>
8000486e:	7b 00 00 f7 	movh %d15,28672
80004872:	1b 8f 18 f6 	addi %d15,%d15,24968
80004876:	60 ff       	mov.a %a15,%d15
80004878:	09 f2 70 09 	ld.d %e2,[%a15]48
8000487c:	8b 12 80 a0 	addx %d10,%d2,1
80004880:	8b 03 a0 b0 	addc %d11,%d3,0
80004884:	7b 00 00 f7 	movh %d15,28672
80004888:	1b 8f 18 f6 	addi %d15,%d15,24968
8000488c:	60 ff       	mov.a %a15,%d15
8000488e:	89 fa 70 09 	st.d [%a15]48,%e10
80004892:	82 14       	mov %d4,1
80004894:	6d ff b2 f5 	call 800033f8 <bsp_uc_scu_SwitchSystemClock>
80004898:	7b 00 00 f7 	movh %d15,28672
8000489c:	1b 8f 18 f6 	addi %d15,%d15,24968
800048a0:	60 ff       	mov.a %a15,%d15
800048a2:	09 f2 78 09 	ld.d %e2,[%a15]56
800048a6:	8b 12 80 80 	addx %d8,%d2,1
800048aa:	8b 03 a0 90 	addc %d9,%d3,0
800048ae:	7b 00 00 f7 	movh %d15,28672
800048b2:	1b 8f 18 f6 	addi %d15,%d15,24968
800048b6:	60 ff       	mov.a %a15,%d15
800048b8:	89 f8 78 09 	st.d [%a15]56,%e8
800048bc:	00 90       	ret 

800048be <_GLOBAL__sub_I_65535_0_bsp_uc_scu_wdt_DisableSafetyWatchdog>:
800048be:	40 ae       	mov.aa %a14,%sp
800048c0:	7b 00 00 f7 	movh %d15,28672
800048c4:	60 ff       	mov.a %a15,%d15
800048c6:	d9 f4 2c a5 	lea %a4,[%a15]21164
800048ca:	6d 00 39 0b 	call 80005f3c <__gcov_init>
800048ce:	00 90       	ret 

800048d0 <_start>:
800048d0:	91 10 00 e8 	movh.a %a14,32769
800048d4:	d9 ee 3c 0c 	lea %a14,[%a14]-16324 <8000c03c <__crt0_config>>
800048d8:	4d c0 e1 ff 	mfcr %d15,$core_id
800048dc:	8f 7f 00 f1 	and %d15,%d15,7
800048e0:	53 cf 22 f0 	mul %d15,%d15,44
800048e4:	01 ef 00 e6 	addsc.a %a14,%a14,%d15,0
800048e8:	19 ef 10 00 	ld.w %d15,[%a14]16
800048ec:	01 f0 30 06 	mov.a %a0,%d15
800048f0:	19 ef 14 00 	ld.w %d15,[%a14]20
800048f4:	01 f0 30 16 	mov.a %a1,%d15
800048f8:	19 ef 18 00 	ld.w %d15,[%a14]24
800048fc:	01 f0 30 86 	mov.a %a8,%d15
80004900:	19 ef 1c 00 	ld.w %d15,[%a14]28
80004904:	01 f0 30 96 	mov.a %a9,%d15
80004908:	3b 00 00 40 	mov %d4,0
8000490c:	cd 04 e0 0f 	mtcr $pcxi,%d4
80004910:	19 e4 0c 00 	ld.w %d4,[%a14]12
80004914:	8f a4 1f 40 	sh %d4,%d4,-6
80004918:	01 40 30 46 	mov.a %a4,%d4
8000491c:	49 44 3f fa 	lea %a4,[%a4]-1
80004920:	3b 00 04 40 	mov %d4,64
80004924:	01 40 30 36 	mov.a %a3,%d4
80004928:	19 e4 08 00 	ld.w %d4,[%a14]8
8000492c:	01 40 30 f6 	mov.a %a15,%d4
80004930:	7b f0 00 50 	movh %d5,15
80004934:	01 f0 c0 f4 	mov.d %d15,%a15
80004938:	8f 4f 1f f0 	sh %d15,%d15,-12
8000493c:	0f 5f 80 f0 	and %d15,%d15,%d5
80004940:	bb f0 ff 5f 	mov.u %d5,65535
80004944:	01 f0 c0 44 	mov.d %d4,%a15
80004948:	8f a4 1f 40 	sh %d4,%d4,-6
8000494c:	0f 54 80 40 	and %d4,%d4,%d5
80004950:	0f f4 a0 40 	or %d4,%d4,%d15
80004954:	cd 84 e3 0f 	mtcr $fcx,%d4

80004958 <loop_csa>:
80004958:	8b 14 00 40 	add %d4,%d4,1
8000495c:	59 f4 00 00 	st.w [%a15]0,%d4
80004960:	01 3f 10 f0 	add.a %a15,%a15,%a3
80004964:	fd 40 fa 7f 	loop %a4,80004958 <loop_csa>
80004968:	cd c4 e3 0f 	mtcr $lcx,%d4
8000496c:	19 e4 00 00 	ld.w %d4,[%a14]0
80004970:	01 40 30 46 	mov.a %a4,%d4
80004974:	19 e4 04 00 	ld.w %d4,[%a14]4
80004978:	01 40 c0 14 	mov.d %d1,%a4
8000497c:	0b 41 00 10 	add %d1,%d1,%d4
80004980:	01 10 30 a6 	mov.a %sp,%d1
80004984:	cd 81 e2 0f 	mtcr $isp,%d1
80004988:	6d 00 62 00 	call 80004a4c <clear_exec>
8000498c:	6d 00 c0 00 	call 80004b0c <Crt0PreInit>
80004990:	19 e4 20 00 	ld.w %d4,[%a14]32
80004994:	01 40 30 46 	mov.a %a4,%d4
80004998:	6d 00 1a 00 	call 800049cc <Crt0BssInit>
8000499c:	19 e4 24 00 	ld.w %d4,[%a14]36
800049a0:	01 40 30 46 	mov.a %a4,%d4
800049a4:	6d 00 28 00 	call 800049f4 <Crt0DataInit>
800049a8:	19 e4 28 00 	ld.w %d4,[%a14]40
800049ac:	01 40 30 46 	mov.a %a4,%d4
800049b0:	6d 00 3a 00 	call 80004a24 <Crt0CtorInit>
800049b4:	6d 00 2b 01 	call 80004c0a <Crt0PostInit>
800049b8:	6d 00 6a 00 	call 80004a8c <shared_main>

800049bc <_exit>:
800049bc:	0d 00 00 01 	debug 
800049c0:	1d 00 00 00 	j 800049c0 <_exit+0x4>
800049c4:	0d 00 80 01 	ret 
800049c8:	0d 00 80 01 	ret 

800049cc <Crt0BssInit>:
800049cc:	01 40 00 d0 	mov.aa %a13,%a4
800049d0:	c5 0c 08 00 	lea %a12,8 <CSA_REGIONS-0xf8>

800049d4 <_table_bss_clear_loop>:
800049d4:	19 df 00 00 	ld.w %d15,[%a13]0
800049d8:	df ff 0c 00 	jeq %d15,-1,800049f0 <_table_bss_clear_loop_end>
800049dc:	01 f0 30 46 	mov.a %a4,%d15
800049e0:	19 d4 04 00 	ld.w %d4,[%a13]4
800049e4:	6d 00 34 00 	call 80004a4c <clear_exec>
800049e8:	01 cd 10 d0 	add.a %a13,%a13,%a12
800049ec:	1d ff f4 ff 	j 800049d4 <_table_bss_clear_loop>

800049f0 <_table_bss_clear_loop_end>:
800049f0:	0d 00 80 01 	ret 

800049f4 <Crt0DataInit>:
800049f4:	01 40 00 d0 	mov.aa %a13,%a4
800049f8:	c5 0c 0c 00 	lea %a12,c <CSA_REGIONS-0xf4>

800049fc <_table_data_copy_loop>:
800049fc:	19 df 04 00 	ld.w %d15,[%a13]4
80004a00:	df ff 10 00 	jeq %d15,-1,80004a20 <_table_data_copy_loop_end>
80004a04:	01 f0 30 46 	mov.a %a4,%d15
80004a08:	19 d4 00 00 	ld.w %d4,[%a13]0
80004a0c:	01 40 30 56 	mov.a %a5,%d4
80004a10:	19 d4 08 00 	ld.w %d4,[%a13]8
80004a14:	6d 00 2c 00 	call 80004a6c <copy_exec>
80004a18:	01 cd 10 d0 	add.a %a13,%a13,%a12
80004a1c:	1d ff f0 ff 	j 800049fc <_table_data_copy_loop>

80004a20 <_table_data_copy_loop_end>:
80004a20:	0d 00 80 01 	ret 

80004a24 <Crt0CtorInit>:
80004a24:	bd 04 12 00 	jz.a %a4,80004a48 <_ctor_exec_end>
80004a28:	09 44 04 01 	ld.w %d4,[%a4+]4
80004a2c:	01 40 30 f6 	mov.a %a15,%d4
80004a30:	bd 0f 0c 00 	jz.a %a15,80004a48 <_ctor_exec_end>
80004a34:	49 ff 3f fa 	lea %a15,[%a15]-1

80004a38 <_ctor_exec_loop>:
80004a38:	09 44 04 01 	ld.w %d4,[%a4+]4
80004a3c:	01 40 30 d6 	mov.a %a13,%d4
80004a40:	2d 0d 00 00 	calli %a13
80004a44:	fd f0 fa 7f 	loop %a15,80004a38 <_ctor_exec_loop>

80004a48 <_ctor_exec_end>:
80004a48:	0d 00 80 01 	ret 

80004a4c <clear_exec>:
80004a4c:	df 04 0e 00 	jeq %d4,0,80004a68 <_clear_exec_end>
80004a50:	8b f4 1f 40 	add %d4,%d4,-1
80004a54:	8f d4 1f 40 	sh %d4,%d4,-3
80004a58:	01 40 30 f6 	mov.a %a15,%d4
80004a5c:	fb 00 00 e0 	mov %e14,0

80004a60 <_clear_exec_loop>:
80004a60:	89 4e 48 01 	st.d [%a4+]8,%e14
80004a64:	fd f0 fe 7f 	loop %a15,80004a60 <_clear_exec_loop>

80004a68 <_clear_exec_end>:
80004a68:	0d 00 80 01 	ret 

80004a6c <copy_exec>:
80004a6c:	0b 40 f0 f1 	mov %d15,%d4
80004a70:	df 0f 0c 00 	jeq %d15,0,80004a88 <_copy_exec_end>
80004a74:	8b ff 1f f0 	add %d15,%d15,-1
80004a78:	01 f0 30 f6 	mov.a %a15,%d15

80004a7c <_copy_exec_loop>:
80004a7c:	09 5f 01 00 	ld.b %d15,[%a5+]1
80004a80:	89 4f 01 00 	st.b [%a4+]1,%d15
80004a84:	fd f0 fc 7f 	loop %a15,80004a7c <_copy_exec_loop>

80004a88 <_copy_exec_end>:
80004a88:	0d 00 80 01 	ret 

80004a8c <shared_main>:
80004a8c:	40 ae       	mov.aa %a14,%sp
80004a8e:	20 08       	sub.a %sp,8
80004a90:	82 0f       	mov %d15,0
80004a92:	59 ef fc ff 	st.w [%a14]-4,%d15
80004a96:	82 0f       	mov %d15,0
80004a98:	59 ef f8 ff 	st.w [%a14]-8,%d15
80004a9c:	82 0f       	mov %d15,0
80004a9e:	59 ef fc ff 	st.w [%a14]-4,%d15
80004aa2:	3c 1d       	j 80004adc <shared_main+0x50>
80004aa4:	7b 00 00 f7 	movh %d15,28672
80004aa8:	1b 0f 64 f6 	addi %d15,%d15,26176
80004aac:	60 ff       	mov.a %a15,%d15
80004aae:	09 f2 40 09 	ld.d %e2,[%a15]
80004ab2:	8b 12 80 60 	addx %d6,%d2,1
80004ab6:	8b 03 a0 70 	addc %d7,%d3,0
80004aba:	7b 00 00 f7 	movh %d15,28672
80004abe:	1b 0f 64 f6 	addi %d15,%d15,26176
80004ac2:	60 ff       	mov.a %a15,%d15
80004ac4:	89 f6 40 09 	st.d [%a15],%e6
80004ac8:	19 ef f8 ff 	ld.w %d15,[%a14]-8
80004acc:	c2 1f       	add %d15,1
80004ace:	59 ef f8 ff 	st.w [%a14]-8,%d15
80004ad2:	19 ef fc ff 	ld.w %d15,[%a14]-4
80004ad6:	c2 1f       	add %d15,1
80004ad8:	59 ef fc ff 	st.w [%a14]-4,%d15
80004adc:	19 ef fc ff 	ld.w %d15,[%a14]-4
80004ae0:	8b 4f 46 f2 	lt %d15,%d15,100
80004ae4:	ee e0       	jnz %d15,80004aa4 <shared_main+0x18>
80004ae6:	7b 00 00 f7 	movh %d15,28672
80004aea:	1b 0f 64 f6 	addi %d15,%d15,26176
80004aee:	60 ff       	mov.a %a15,%d15
80004af0:	09 f2 48 09 	ld.d %e2,[%a15]8
80004af4:	8b 12 80 40 	addx %d4,%d2,1
80004af8:	8b 03 a0 50 	addc %d5,%d3,0
80004afc:	7b 00 00 f7 	movh %d15,28672
80004b00:	1b 0f 64 f6 	addi %d15,%d15,26176
80004b04:	60 ff       	mov.a %a15,%d15
80004b06:	89 f4 48 09 	st.d [%a15]8,%e4
80004b0a:	00 90       	ret 

80004b0c <Crt0PreInit>:
80004b0c:	40 ae       	mov.aa %a14,%sp
80004b0e:	20 08       	sub.a %sp,8
80004b10:	7b 00 00 27 	movh %d2,28672
80004b14:	1b 02 61 26 	addi %d2,%d2,26128
80004b18:	60 2f       	mov.a %a15,%d2
80004b1a:	09 f2 40 09 	ld.d %e2,[%a15]
80004b1e:	8b 12 80 40 	addx %d4,%d2,1
80004b22:	8b 03 a0 50 	addc %d5,%d3,0
80004b26:	7b 00 00 27 	movh %d2,28672
80004b2a:	1b 02 61 26 	addi %d2,%d2,26128
80004b2e:	60 2f       	mov.a %a15,%d2
80004b30:	89 f4 40 09 	st.d [%a15],%e4
80004b34:	6d ff 68 fc 	call 80004404 <bsp_uc_core_GetCurrentCore>
80004b38:	59 e2 fc ff 	st.w [%a14]-4,%d2
80004b3c:	7b 00 00 27 	movh %d2,28672
80004b40:	1b 02 61 26 	addi %d2,%d2,26128
80004b44:	60 2f       	mov.a %a15,%d2
80004b46:	09 f2 48 09 	ld.d %e2,[%a15]8
80004b4a:	8b 12 80 40 	addx %d4,%d2,1
80004b4e:	60 4c       	mov.a %a12,%d4
80004b50:	8b 03 a0 40 	addc %d4,%d3,0
80004b54:	60 4d       	mov.a %a13,%d4
80004b56:	7b 00 00 27 	movh %d2,28672
80004b5a:	1b 02 61 26 	addi %d2,%d2,26128
80004b5e:	60 2f       	mov.a %a15,%d2
80004b60:	89 fc c8 09 	st.da [%a15]8,%a12
80004b64:	19 e2 fc ff 	ld.w %d2,[%a14]-4
80004b68:	df 02 28 80 	jne %d2,0,80004bb8 <Crt0PreInit+0xac>
80004b6c:	7b 00 00 27 	movh %d2,28672
80004b70:	1b 02 61 26 	addi %d2,%d2,26128
80004b74:	60 2f       	mov.a %a15,%d2
80004b76:	09 f2 50 09 	ld.d %e2,[%a15]16
80004b7a:	8b 12 80 e0 	addx %d14,%d2,1
80004b7e:	8b 03 a0 f0 	addc %d15,%d3,0
80004b82:	7b 00 00 27 	movh %d2,28672
80004b86:	1b 02 61 26 	addi %d2,%d2,26128
80004b8a:	60 2f       	mov.a %a15,%d2
80004b8c:	89 fe 50 09 	st.d [%a15]16,%e14
80004b90:	6d ff ce f0 	call 80002d2c <bsp_uc_scu_wdt_DisableSafetyWatchdog>
80004b94:	7b 00 00 f7 	movh %d15,28672
80004b98:	1b 0f 61 f6 	addi %d15,%d15,26128
80004b9c:	60 ff       	mov.a %a15,%d15
80004b9e:	09 f2 58 09 	ld.d %e2,[%a15]24
80004ba2:	8b 12 80 c0 	addx %d12,%d2,1
80004ba6:	8b 03 a0 d0 	addc %d13,%d3,0
80004baa:	7b 00 00 f7 	movh %d15,28672
80004bae:	1b 0f 61 f6 	addi %d15,%d15,26128
80004bb2:	60 ff       	mov.a %a15,%d15
80004bb4:	89 fc 58 09 	st.d [%a15]24,%e12
80004bb8:	6d ff 00 f1 	call 80002db8 <bsp_uc_scu_wdt_DisableCpuWatchdog>
80004bbc:	7b 00 00 f7 	movh %d15,28672
80004bc0:	1b 0f 61 f6 	addi %d15,%d15,26128
80004bc4:	60 ff       	mov.a %a15,%d15
80004bc6:	09 f2 60 09 	ld.d %e2,[%a15]32
80004bca:	8b 12 80 a0 	addx %d10,%d2,1
80004bce:	8b 03 a0 b0 	addc %d11,%d3,0
80004bd2:	7b 00 00 f7 	movh %d15,28672
80004bd6:	1b 0f 61 f6 	addi %d15,%d15,26128
80004bda:	60 ff       	mov.a %a15,%d15
80004bdc:	89 fa 60 09 	st.d [%a15]32,%e10
80004be0:	6d ff 7b fb 	call 800042d6 <bsp_uc_core_EnableICache>
80004be4:	7b 00 00 f7 	movh %d15,28672
80004be8:	1b 0f 61 f6 	addi %d15,%d15,26128
80004bec:	60 ff       	mov.a %a15,%d15
80004bee:	09 f2 68 09 	ld.d %e2,[%a15]40
80004bf2:	8b 12 80 80 	addx %d8,%d2,1
80004bf6:	8b 03 a0 90 	addc %d9,%d3,0
80004bfa:	7b 00 00 f7 	movh %d15,28672
80004bfe:	1b 0f 61 f6 	addi %d15,%d15,26128
80004c02:	60 ff       	mov.a %a15,%d15
80004c04:	89 f8 68 09 	st.d [%a15]40,%e8
80004c08:	00 90       	ret 

80004c0a <Crt0PostInit>:
80004c0a:	40 ae       	mov.aa %a14,%sp
80004c0c:	20 18       	sub.a %sp,24
80004c0e:	7b 00 00 27 	movh %d2,28672
80004c12:	1b 02 5d 26 	addi %d2,%d2,26064
80004c16:	60 2f       	mov.a %a15,%d2
80004c18:	09 f2 40 09 	ld.d %e2,[%a15]
80004c1c:	8b 12 80 40 	addx %d4,%d2,1
80004c20:	8b 03 a0 50 	addc %d5,%d3,0
80004c24:	7b 00 00 27 	movh %d2,28672
80004c28:	1b 02 5d 26 	addi %d2,%d2,26064
80004c2c:	60 2f       	mov.a %a15,%d2
80004c2e:	89 f4 40 09 	st.d [%a15],%e4
80004c32:	6d ff e9 fb 	call 80004404 <bsp_uc_core_GetCurrentCore>
80004c36:	59 e2 fc ff 	st.w [%a14]-4,%d2
80004c3a:	7b 00 00 27 	movh %d2,28672
80004c3e:	1b 02 5d 26 	addi %d2,%d2,26064
80004c42:	60 2f       	mov.a %a15,%d2
80004c44:	09 f2 48 09 	ld.d %e2,[%a15]8
80004c48:	8b 12 80 40 	addx %d4,%d2,1
80004c4c:	59 e4 f0 ff 	st.w [%a14]-16,%d4
80004c50:	8b 03 a0 50 	addc %d5,%d3,0
80004c54:	59 e5 f4 ff 	st.w [%a14]-12,%d5
80004c58:	7b 00 00 27 	movh %d2,28672
80004c5c:	1b 02 5d 26 	addi %d2,%d2,26064
80004c60:	09 e4 70 f9 	ld.d %e4,[%a14]-16
80004c64:	60 2f       	mov.a %a15,%d2
80004c66:	89 f4 48 09 	st.d [%a15]8,%e4
80004c6a:	19 e2 fc ff 	ld.w %d2,[%a14]-4
80004c6e:	df 02 6d 80 	jne %d2,0,80004d48 <Crt0PostInit+0x13e>
80004c72:	7b 00 00 27 	movh %d2,28672
80004c76:	1b 02 5d 26 	addi %d2,%d2,26064
80004c7a:	60 2f       	mov.a %a15,%d2
80004c7c:	09 f2 50 09 	ld.d %e2,[%a15]16
80004c80:	8b 12 80 40 	addx %d4,%d2,1
80004c84:	59 e4 e8 ff 	st.w [%a14]-24,%d4
80004c88:	8b 03 a0 50 	addc %d5,%d3,0
80004c8c:	59 e5 ec ff 	st.w [%a14]-20,%d5
80004c90:	7b 00 00 27 	movh %d2,28672
80004c94:	1b 02 5d 26 	addi %d2,%d2,26064
80004c98:	09 e4 68 f9 	ld.d %e4,[%a14]-24
80004c9c:	60 2f       	mov.a %a15,%d2
80004c9e:	89 f4 50 09 	st.d [%a15]16,%e4
80004ca2:	6d ff 17 fd 	call 800046d0 <bsp_uc_InitClock>
80004ca6:	7b 00 00 27 	movh %d2,28672
80004caa:	1b 02 5d 26 	addi %d2,%d2,26064
80004cae:	60 2f       	mov.a %a15,%d2
80004cb0:	09 f2 58 09 	ld.d %e2,[%a15]24
80004cb4:	8b 12 80 40 	addx %d4,%d2,1
80004cb8:	60 4c       	mov.a %a12,%d4
80004cba:	8b 03 a0 50 	addc %d5,%d3,0
80004cbe:	60 5d       	mov.a %a13,%d5
80004cc0:	7b 00 00 27 	movh %d2,28672
80004cc4:	1b 02 5d 26 	addi %d2,%d2,26064
80004cc8:	60 2f       	mov.a %a15,%d2
80004cca:	89 fc d8 09 	st.da [%a15]24,%a12
80004cce:	6d ff 99 ed 	call 80002800 <bsp_board_wdg_Disable>
80004cd2:	7b 00 00 27 	movh %d2,28672
80004cd6:	1b 02 5d 26 	addi %d2,%d2,26064
80004cda:	60 2f       	mov.a %a15,%d2
80004cdc:	09 f2 60 09 	ld.d %e2,[%a15]32
80004ce0:	8b 12 80 e0 	addx %d14,%d2,1
80004ce4:	8b 03 a0 f0 	addc %d15,%d3,0
80004ce8:	7b 00 00 27 	movh %d2,28672
80004cec:	1b 02 5d 26 	addi %d2,%d2,26064
80004cf0:	60 2f       	mov.a %a15,%d2
80004cf2:	89 fe 60 09 	st.d [%a15]32,%e14
80004cf6:	82 14       	mov %d4,1
80004cf8:	6d ff a1 ed 	call 8000283a <bsp_board_led_InitAll>
80004cfc:	7b 00 00 f7 	movh %d15,28672
80004d00:	1b 0f 5d f6 	addi %d15,%d15,26064
80004d04:	60 ff       	mov.a %a15,%d15
80004d06:	09 f2 68 09 	ld.d %e2,[%a15]40
80004d0a:	8b 12 80 c0 	addx %d12,%d2,1
80004d0e:	8b 03 a0 d0 	addc %d13,%d3,0
80004d12:	7b 00 00 f7 	movh %d15,28672
80004d16:	1b 0f 5d f6 	addi %d15,%d15,26064
80004d1a:	60 ff       	mov.a %a15,%d15
80004d1c:	89 fc 68 09 	st.d [%a15]40,%e12
80004d20:	6d ff 58 f8 	call 80003dd0 <bsp_uc_core_StartAllCores>
80004d24:	7b 00 00 f7 	movh %d15,28672
80004d28:	1b 0f 5d f6 	addi %d15,%d15,26064
80004d2c:	60 ff       	mov.a %a15,%d15
80004d2e:	09 f2 70 09 	ld.d %e2,[%a15]48
80004d32:	8b 12 80 a0 	addx %d10,%d2,1
80004d36:	8b 03 a0 b0 	addc %d11,%d3,0
80004d3a:	7b 00 00 f7 	movh %d15,28672
80004d3e:	1b 0f 5d f6 	addi %d15,%d15,26064
80004d42:	60 ff       	mov.a %a15,%d15
80004d44:	89 fa 70 09 	st.d [%a15]48,%e10
80004d48:	6d ff 6e ee 	call 80002a24 <bsp_isr_Init>
80004d4c:	7b 00 00 f7 	movh %d15,28672
80004d50:	1b 0f 5d f6 	addi %d15,%d15,26064
80004d54:	60 ff       	mov.a %a15,%d15
80004d56:	09 f2 78 09 	ld.d %e2,[%a15]56
80004d5a:	8b 12 80 80 	addx %d8,%d2,1
80004d5e:	8b 03 a0 90 	addc %d9,%d3,0
80004d62:	7b 00 00 f7 	movh %d15,28672
80004d66:	1b 0f 5d f6 	addi %d15,%d15,26064
80004d6a:	60 ff       	mov.a %a15,%d15
80004d6c:	89 f8 78 09 	st.d [%a15]56,%e8
80004d70:	00 90       	ret 

80004d72 <_GLOBAL__sub_I_65535_0_unusedVar1>:
80004d72:	40 ae       	mov.aa %a14,%sp
80004d74:	7b 00 00 f7 	movh %d15,28672
80004d78:	60 ff       	mov.a %a15,%d15
80004d7a:	d9 f4 68 95 	lea %a4,[%a15]22120
80004d7e:	6d 00 df 08 	call 80005f3c <__gcov_init>
80004d82:	00 90       	ret 

80004d84 <__gcov_merge_add>:
80004d84:	40 4f       	mov.aa %a15,%a4
80004d86:	02 4f       	mov %d15,%d4
80004d88:	6e 0d       	jz %d15,80004da2 <__gcov_merge_add+0x1e>
80004d8a:	6d 00 f1 01 	call 8000516c <__gcov_read_counter>
80004d8e:	48 05       	ld.w %d5,[%a15]0
80004d90:	48 14       	ld.w %d4,[%a15]4
80004d92:	0b 25 40 80 	addx %d8,%d5,%d2
80004d96:	0b 34 50 90 	addc %d9,%d4,%d3
80004d9a:	89 f8 48 01 	st.d [%a15+]8,%e8
80004d9e:	c2 ff       	add %d15,-1
80004da0:	3c f4       	j 80004d88 <__gcov_merge_add+0x4>
80004da2:	00 90       	ret 

80004da4 <crc32_unsigned>:
80004da4:	02 42       	mov %d2,%d4
80004da6:	c5 0f 20 00 	lea %a15,20 <CSA_REGIONS-0xe0>
80004daa:	fd f0 03 00 	loop %a15,80004db0 <crc32_unsigned+0xc>
80004dae:	00 90       	ret 
80004db0:	0f 25 c0 f0 	xor %d15,%d5,%d2
80004db4:	7b 10 4c 30 	movh %d3,1217
80004db8:	fa 0f       	lt %d15,%d15,0
80004dba:	1b 73 db 31 	addi %d3,%d3,7607
80004dbe:	ab 03 80 ff 	sel %d15,%d15,%d3,0
80004dc2:	06 12       	sh %d2,1
80004dc4:	c6 f2       	xor %d2,%d15
80004dc6:	06 15       	sh %d5,1
80004dc8:	3c f1       	j 80004daa <crc32_unsigned+0x6>

80004dca <gcov_write_block>:
80004dca:	91 00 00 27 	movh.a %a2,28672
80004dce:	99 25 54 a6 	ld.a %a5,[%a2]26260 <70006694 <__gcov_var>>
80004dd2:	91 00 00 47 	movh.a %a4,28672
80004dd6:	02 4f       	mov %d15,%d4
80004dd8:	d9 44 70 a6 	lea %a4,[%a4]26288 <700066b0 <__gcov_var+0x1c>>
80004ddc:	06 24       	sh %d4,2
80004dde:	82 15       	mov %d5,1
80004de0:	d9 2f 54 a6 	lea %a15,[%a2]26260 <70006694 <__gcov_var>>
80004de4:	6d 00 a5 0f 	call 80006d2e <fwrite>
80004de8:	df 12 04 00 	jeq %d2,1,80004df0 <gcov_write_block+0x26>
80004dec:	82 12       	mov %d2,1
80004dee:	68 52       	st.w [%a15]20,%d2
80004df0:	48 12       	ld.w %d2,[%a15]4
80004df2:	42 f2       	add %d2,%d15
80004df4:	68 12       	st.w [%a15]4,%d2
80004df6:	48 22       	ld.w %d2,[%a15]8
80004df8:	5a f2       	sub %d15,%d2,%d15
80004dfa:	68 2f       	st.w [%a15]8,%d15
80004dfc:	00 90       	ret 

80004dfe <gcov_write_words>:
80004dfe:	91 00 00 f7 	movh.a %a15,28672
80004e02:	d9 ff 54 a6 	lea %a15,[%a15]26260 <70006694 <__gcov_var>>
80004e06:	4c f6       	ld.w %d15,[%a15]24
80004e08:	02 48       	mov %d8,%d4
80004e0a:	0e f3       	jltz %d15,80004e10 <gcov_write_words+0x12>
80004e0c:	6d 00 99 2b 	call 8000a53e <abort>
80004e10:	48 22       	ld.w %d2,[%a15]8
80004e12:	3b 00 40 f0 	mov %d15,1024
80004e16:	3f f2 0c 80 	jlt.u %d2,%d15,80004e2e <gcov_write_words+0x30>
80004e1a:	02 f4       	mov %d4,%d15
80004e1c:	6d ff d7 ff 	call 80004dca <gcov_write_block>
80004e20:	4c f2       	ld.w %d15,[%a15]8
80004e22:	6e 06       	jz %d15,80004e2e <gcov_write_words+0x30>
80004e24:	df 1f f4 ff 	jne %d15,1,80004e0c <gcov_write_words+0xe>
80004e28:	19 ff 1c 01 	ld.w %d15,[%a15]4124 <7000101c <__CSA_BASE_CPU0_+0x101c>>
80004e2c:	68 7f       	st.w [%a15]28,%d15
80004e2e:	4c f2       	ld.w %d15,[%a15]8
80004e30:	42 f8       	add %d8,%d15
80004e32:	c2 7f       	add %d15,7
80004e34:	68 28       	st.w [%a15]8,%d8
80004e36:	90 f2       	addsc.a %a2,%a15,%d15,2
80004e38:	00 90       	ret 

80004e3a <gcov_read_words>:
80004e3a:	91 00 00 f7 	movh.a %a15,28672
80004e3e:	d9 ff 54 a6 	lea %a15,[%a15]26260 <70006694 <__gcov_var>>
80004e42:	48 22       	ld.w %d2,[%a15]8
80004e44:	4c f3       	ld.w %d15,[%a15]12
80004e46:	48 63       	ld.w %d3,[%a15]24
80004e48:	02 48       	mov %d8,%d4
80004e4a:	a2 2f       	sub %d15,%d2
80004e4c:	4e 33       	jgtz %d3,80004e52 <gcov_read_words+0x18>
80004e4e:	6d 00 78 2b 	call 8000a53e <abort>
80004e52:	7f 4f 2b 80 	jge.u %d15,%d4,80004ea8 <gcov_read_words+0x6e>
80004e56:	48 13       	ld.w %d3,[%a15]4
80004e58:	42 23       	add %d3,%d2
80004e5a:	68 13       	st.w [%a15]4,%d3
80004e5c:	6e 08       	jz %d15,80004e6c <gcov_read_words+0x32>
80004e5e:	df 1f f8 ff 	jne %d15,1,80004e4e <gcov_read_words+0x14>
80004e62:	01 f2 02 26 	addsc.a %a2,%a15,%d2,2
80004e66:	19 22 1c 00 	ld.w %d2,[%a2]28
80004e6a:	68 72       	st.w [%a15]28,%d2
80004e6c:	82 09       	mov %d9,0
80004e6e:	68 29       	st.w [%a15]8,%d9
80004e70:	68 3f       	st.w [%a15]12,%d15
80004e72:	ff 2f ee ff 	jge.u %d15,2,80004e4e <gcov_read_words+0x14>
80004e76:	91 00 00 27 	movh.a %a2,28672
80004e7a:	c2 7f       	add %d15,7
80004e7c:	99 25 54 a6 	ld.a %a5,[%a2]26260 <70006694 <__gcov_var>>
80004e80:	90 f4       	addsc.a %a4,%a15,%d15,2
80004e82:	82 14       	mov %d4,1
80004e84:	3b 00 00 51 	mov %d5,4096
80004e88:	6d 00 11 0c 	call 800066aa <fread>
80004e8c:	48 33       	ld.w %d3,[%a15]12
80004e8e:	06 e2       	sh %d2,-2
80004e90:	42 32       	add %d2,%d3
80004e92:	68 32       	st.w [%a15]12,%d2
80004e94:	7f 82 0a 80 	jge.u %d2,%d8,80004ea8 <gcov_read_words+0x6e>
80004e98:	4c f4       	ld.w %d15,[%a15]16
80004e9a:	68 39       	st.w [%a15]12,%d9
80004e9c:	42 f8       	add %d8,%d15
80004e9e:	0b 28 80 20 	sub %d2,%d8,%d2
80004ea2:	68 42       	st.w [%a15]16,%d2
80004ea4:	a0 02       	mov.a %a2,0
80004ea6:	00 90       	ret 
80004ea8:	4c f2       	ld.w %d15,[%a15]8
80004eaa:	48 22       	ld.w %d2,[%a15]8
80004eac:	c2 7f       	add %d15,7
80004eae:	42 28       	add %d8,%d2
80004eb0:	68 28       	st.w [%a15]8,%d8
80004eb2:	90 f2       	addsc.a %a2,%a15,%d15,2
80004eb4:	00 90       	ret 

80004eb6 <free_fn_data>:
80004eb6:	a0 02       	mov.a %a2,0
80004eb8:	bd 05 1c 00 	jz.a %a5,80004ef0 <free_fn_data+0x3a>
80004ebc:	d4 5d       	ld.a %a13,[%a5]
80004ebe:	02 48       	mov %d8,%d4
80004ec0:	40 5f       	mov.aa %a15,%a5
80004ec2:	40 4c       	mov.aa %a12,%a4
80004ec4:	82 02       	mov %d2,0
80004ec6:	82 0f       	mov %d15,0
80004ec8:	be 80       	jeq %d15,%d8,80004ee8 <free_fn_data+0x32>
80004eca:	90 c3       	addsc.a %a3,%a12,%d15,2
80004ecc:	19 33 10 00 	ld.w %d3,[%a3]16
80004ed0:	76 3a       	jz %d3,80004ee4 <free_fn_data+0x2e>
80004ed2:	01 f2 03 36 	addsc.a %a3,%a15,%d2,3
80004ed6:	1b 12 00 90 	addi %d9,%d2,1
80004eda:	99 34 1c 00 	ld.a %a4,[%a3]28
80004ede:	6d 00 ec 0f 	call 80006eb6 <free>
80004ee2:	02 92       	mov %d2,%d9
80004ee4:	c2 1f       	add %d15,1
80004ee6:	3c f1       	j 80004ec8 <free_fn_data+0x12>
80004ee8:	40 f4       	mov.aa %a4,%a15
80004eea:	6d 00 e6 0f 	call 80006eb6 <free>
80004eee:	40 d2       	mov.aa %a2,%a13
80004ef0:	00 90       	ret 

80004ef2 <gcov_histo_index>:
80004ef2:	0b 45 10 28 	mov %e2,%d5,%d4
80004ef6:	0f 23 a0 f0 	or %d15,%d3,%d2
80004efa:	6e 17       	jz %d15,80004f28 <gcov_histo_index+0x36>
80004efc:	0f 02 b0 f1 	clz %d15,%d2
80004f00:	0f 03 b0 61 	clz %d6,%d3
80004f04:	1b 0f 02 f0 	addi %d15,%d15,32
80004f08:	2b 6f 50 f3 	seln %d15,%d3,%d15,%d6
80004f0c:	8b ff 03 31 	rsub %d3,%d15,63
80004f10:	bf 23 0c 80 	jlt.u %d3,2,80004f28 <gcov_histo_index+0x36>
80004f14:	8b df 03 61 	rsub %d6,%d15,61
80004f18:	6d 00 3d 08 	call 80005f92 <__lshrdi3>
80004f1c:	8b ef 03 f1 	rsub %d15,%d15,62
80004f20:	8f 32 00 21 	and %d2,%d2,3
80004f24:	13 4f 20 22 	madd %d2,%d2,%d15,4
80004f28:	00 90       	ret 

80004f2a <gcov_error>:
80004f2a:	91 00 00 f7 	movh.a %a15,28672
80004f2e:	99 ff 40 c5 	ld.a %a15,[%a15]22272 <70005700 <_impure_ptr>>
80004f32:	40 45       	mov.aa %a5,%a4
80004f34:	c8 34       	ld.a %a4,[%a15]12
80004f36:	40 a6       	mov.aa %a6,%sp
80004f38:	1d 00 56 1d 	j 800089e4 <vfprintf>

80004f3c <gcov_version.isra.1>:
80004f3c:	7b 00 43 f3 	movh %d15,13360
80004f40:	1b af 92 f3 	addi %d15,%d15,14634
80004f44:	20 18       	sub.a %sp,24
80004f46:	82 12       	mov %d2,1
80004f48:	5f f4 2c 00 	jeq %d4,%d15,80004fa0 <gcov_version.isra.1+0x64>
80004f4c:	8f 84 1e f0 	sh %d15,%d4,-24
80004f50:	e9 af 10 00 	st.b [%sp]16,%d15
80004f54:	8f 04 1f f0 	sh %d15,%d4,-16
80004f58:	e9 af 11 00 	st.b [%sp]17,%d15
80004f5c:	8f 84 1f f0 	sh %d15,%d4,-8
80004f60:	e9 af 12 00 	st.b [%sp]18,%d15
80004f64:	da 34       	mov %d15,52
80004f66:	e9 af 14 00 	st.b [%sp]20,%d15
80004f6a:	da 30       	mov %d15,48
80004f6c:	e9 af 15 00 	st.b [%sp]21,%d15
80004f70:	da 39       	mov %d15,57
80004f72:	e9 af 16 00 	st.b [%sp]22,%d15
80004f76:	da 2a       	mov %d15,42
80004f78:	e9 a4 13 00 	st.b [%sp]19,%d4
80004f7c:	e9 af 17 00 	st.b [%sp]23,%d15
80004f80:	7c 52       	jnz.a %a5,80004f84 <gcov_version.isra.1+0x48>
80004f82:	d4 45       	ld.a %a5,[%a4]
80004f84:	d9 af 14 00 	lea %a15,[%sp]20
80004f88:	f8 01       	st.a [%sp]4,%a15
80004f8a:	91 10 00 48 	movh.a %a4,32769
80004f8e:	d9 af 10 00 	lea %a15,[%sp]16
80004f92:	f4 a5       	st.a [%sp],%a5
80004f94:	f8 02       	st.a [%sp]8,%a15
80004f96:	d9 44 bc 8a 	lea %a4,[%a4]-21956 <8000aa3c <board_led+0x2b4>>
80004f9a:	6d ff c8 ff 	call 80004f2a <gcov_error>
80004f9e:	82 02       	mov %d2,0
80004fa0:	00 90       	ret 

80004fa2 <__gcov_rewrite>:
80004fa2:	91 00 00 27 	movh.a %a2,28672
80004fa6:	d9 2f 54 a6 	lea %a15,[%a2]26260 <70006694 <__gcov_var>>
80004faa:	4c f6       	ld.w %d15,[%a15]24
80004fac:	4e f3       	jgtz %d15,80004fb2 <__gcov_rewrite+0x10>
80004fae:	6d 00 c8 2a 	call 8000a53e <abort>
80004fb2:	99 24 54 a6 	ld.a %a4,[%a2]26260
80004fb6:	82 ff       	mov %d15,-1
80004fb8:	68 6f       	st.w [%a15]24,%d15
80004fba:	d2 04       	mov %e4,0
80004fbc:	82 0f       	mov %d15,0
80004fbe:	68 1f       	st.w [%a15]4,%d15
80004fc0:	68 2f       	st.w [%a15]8,%d15
80004fc2:	1d 00 e9 0d 	j 80006b94 <fseek>

80004fc6 <__gcov_open>:
80004fc6:	91 00 00 c7 	movh.a %a12,28672
80004fca:	19 cf 54 a6 	ld.w %d15,[%a12]26260 <70006694 <__gcov_var>>
80004fce:	40 4d       	mov.aa %a13,%a4
80004fd0:	d9 cf 54 a6 	lea %a15,[%a12]26260 <70006694 <__gcov_var>>
80004fd4:	6e 03       	jz %d15,80004fda <__gcov_open+0x14>
80004fd6:	6d 00 b4 2a 	call 8000a53e <abort>
80004fda:	91 10 00 58 	movh.a %a5,32769
80004fde:	82 f2       	mov %d2,-1
80004fe0:	d9 55 b4 9a 	lea %a5,[%a5]-21900 <8000aa74 <board_led+0x2ec>>
80004fe4:	68 1f       	st.w [%a15]4,%d15
80004fe6:	68 3f       	st.w [%a15]12,%d15
80004fe8:	68 2f       	st.w [%a15]8,%d15
80004fea:	68 42       	st.w [%a15]16,%d2
80004fec:	68 5f       	st.w [%a15]20,%d15
80004fee:	6d 00 04 0b 	call 800065f6 <fopen>
80004ff2:	b5 c2 54 a6 	st.a [%a12]26260 <70006694 <__gcov_var>>,%a2
80004ff6:	bc 24       	jz.a %a2,80004ffe <__gcov_open+0x38>
80004ff8:	82 1f       	mov %d15,1
80004ffa:	68 6f       	st.w [%a15]24,%d15
80004ffc:	3c 0c       	j 80005014 <__gcov_open+0x4e>
80004ffe:	91 10 00 58 	movh.a %a5,32769
80005002:	40 d4       	mov.aa %a4,%a13
80005004:	d9 55 b8 9a 	lea %a5,[%a5]-21896 <8000aa78 <board_led+0x2f0>>
80005008:	6d 00 f7 0a 	call 800065f6 <fopen>
8000500c:	b5 c2 54 a6 	st.a [%a12]26260 <70006694 <__gcov_var>>,%a2
80005010:	bd 02 f4 ff 	jnz.a %a2,80004ff8 <__gcov_open+0x32>
80005014:	99 c4 54 a6 	ld.a %a4,[%a12]26260 <70006694 <__gcov_var>>
80005018:	82 02       	mov %d2,0
8000501a:	bc 45       	jz.a %a4,80005024 <__gcov_open+0x5e>
8000501c:	a0 05       	mov.a %a5,0
8000501e:	6d 00 42 12 	call 800074a2 <setbuf>
80005022:	82 12       	mov %d2,1
80005024:	00 90       	ret 

80005026 <__gcov_close>:
80005026:	91 00 00 c7 	movh.a %a12,28672
8000502a:	19 cf 54 a6 	ld.w %d15,[%a12]26260 <70006694 <__gcov_var>>
8000502e:	d9 cf 54 a6 	lea %a15,[%a12]26260 <70006694 <__gcov_var>>
80005032:	6e 0f       	jz %d15,80005050 <__gcov_close+0x2a>
80005034:	48 24       	ld.w %d4,[%a15]8
80005036:	76 45       	jz %d4,80005040 <__gcov_close+0x1a>
80005038:	4c f6       	ld.w %d15,[%a15]24
8000503a:	ce f3       	jgez %d15,80005040 <__gcov_close+0x1a>
8000503c:	6d ff c7 fe 	call 80004dca <gcov_write_block>
80005040:	99 c4 54 a6 	ld.a %a4,[%a12]26260 <70006694 <__gcov_var>>
80005044:	82 0f       	mov %d15,0
80005046:	6d 00 1f 09 	call 80006284 <fclose>
8000504a:	59 cf 54 a6 	st.w [%a12]26260 <70006694 <__gcov_var>>,%d15
8000504e:	68 3f       	st.w [%a15]12,%d15
80005050:	82 0f       	mov %d15,0
80005052:	68 6f       	st.w [%a15]24,%d15
80005054:	48 52       	ld.w %d2,[%a15]20
80005056:	00 90       	ret 

80005058 <__gcov_write_unsigned>:
80005058:	02 4f       	mov %d15,%d4
8000505a:	82 14       	mov %d4,1
8000505c:	6d ff d1 fe 	call 80004dfe <gcov_write_words>
80005060:	6c 20       	st.w [%a2]0,%d15
80005062:	00 90       	ret 

80005064 <__gcov_write_counter>:
80005064:	02 4f       	mov %d15,%d4
80005066:	82 24       	mov %d4,2
80005068:	02 58       	mov %d8,%d5
8000506a:	6d ff ca fe 	call 80004dfe <gcov_write_words>
8000506e:	6c 20       	st.w [%a2]0,%d15
80005070:	59 28 04 00 	st.w [%a2]4,%d8
80005074:	00 90       	ret 

80005076 <__gcov_write_tag_length>:
80005076:	02 4f       	mov %d15,%d4
80005078:	82 24       	mov %d4,2
8000507a:	02 58       	mov %d8,%d5
8000507c:	6d ff c1 fe 	call 80004dfe <gcov_write_words>
80005080:	6c 20       	st.w [%a2]0,%d15
80005082:	59 28 04 00 	st.w [%a2]4,%d8
80005086:	00 90       	ret 

80005088 <__gcov_write_summary>:
80005088:	20 20       	sub.a %sp,32
8000508a:	40 4f       	mov.aa %a15,%a4
8000508c:	82 0f       	mov %d15,0
8000508e:	82 02       	mov %d2,0
80005090:	a0 72       	mov.a %a2,7
80005092:	d9 a4 20 00 	lea %a4,[%sp]32
80005096:	90 43       	addsc.a %a3,%a4,%d15,2
80005098:	c2 1f       	add %d15,1
8000509a:	59 32 e0 ff 	st.w [%a3]-32,%d2
8000509e:	fc 2a       	loop %a2,80005092 <__gcov_write_summary+0xa>
800050a0:	82 05       	mov %d5,0
800050a2:	82 0f       	mov %d15,0
800050a4:	c5 02 3b 30 	lea %a2,fb <CSA_REGIONS-0x5>
800050a8:	53 4f 21 20 	mul %d2,%d15,20
800050ac:	01 f2 00 36 	addsc.a %a3,%a15,%d2,0
800050b0:	19 32 24 00 	ld.w %d2,[%a3]36
800050b4:	df 02 11 00 	jeq %d2,0,800050d6 <__gcov_write_summary+0x4e>
800050b8:	8f bf 1f 20 	sh %d2,%d15,-5
800050bc:	d9 a4 20 00 	lea %a4,[%sp]32
800050c0:	01 42 02 36 	addsc.a %a3,%a4,%d2,2
800050c4:	8f ff 01 21 	and %d2,%d15,31
800050c8:	19 33 e0 ff 	ld.w %d3,[%a3]-32
800050cc:	c2 15       	add %d5,1
800050ce:	d7 13 01 22 	insert %d2,%d3,1,%d2,1
800050d2:	59 32 e0 ff 	st.w [%a3]-32,%d2
800050d6:	c2 1f       	add %d15,1
800050d8:	fd 20 e8 7f 	loop %a2,800050a8 <__gcov_write_summary+0x20>
800050dc:	53 55 20 50 	mul %d5,%d5,5
800050e0:	82 0f       	mov %d15,0
800050e2:	1b 15 01 50 	addi %d5,%d5,17
800050e6:	6d ff c8 ff 	call 80005076 <__gcov_write_tag_length>
800050ea:	48 04       	ld.w %d4,[%a15]0
800050ec:	6d ff b6 ff 	call 80005058 <__gcov_write_unsigned>
800050f0:	48 14       	ld.w %d4,[%a15]4
800050f2:	6d ff b3 ff 	call 80005058 <__gcov_write_unsigned>
800050f6:	48 24       	ld.w %d4,[%a15]8
800050f8:	6d ff b0 ff 	call 80005058 <__gcov_write_unsigned>
800050fc:	09 f4 4c 09 	ld.d %e4,[%a15]12
80005100:	6d ff b2 ff 	call 80005064 <__gcov_write_counter>
80005104:	09 f4 54 09 	ld.d %e4,[%a15]20
80005108:	6d ff ae ff 	call 80005064 <__gcov_write_counter>
8000510c:	09 f4 5c 09 	ld.d %e4,[%a15]28
80005110:	6d ff aa ff 	call 80005064 <__gcov_write_counter>
80005114:	d9 a3 20 00 	lea %a3,[%sp]32
80005118:	90 32       	addsc.a %a2,%a3,%d15,2
8000511a:	c2 1f       	add %d15,1
8000511c:	19 24 e0 ff 	ld.w %d4,[%a2]-32
80005120:	6d ff 9c ff 	call 80005058 <__gcov_write_unsigned>
80005124:	8b 8f 20 22 	ne %d2,%d15,8
80005128:	df 02 f6 ff 	jne %d2,0,80005114 <__gcov_write_summary+0x8c>
8000512c:	82 0f       	mov %d15,0
8000512e:	53 4f 21 20 	mul %d2,%d15,20
80005132:	01 f2 00 c6 	addsc.a %a12,%a15,%d2,0
80005136:	19 c4 24 00 	ld.w %d4,[%a12]36
8000513a:	f6 47       	jnz %d4,80005148 <__gcov_write_summary+0xc0>
8000513c:	c2 1f       	add %d15,1
8000513e:	8b cf 2f 22 	ne %d2,%d15,252
80005142:	df 02 f6 ff 	jne %d2,0,8000512e <__gcov_write_summary+0xa6>
80005146:	00 90       	ret 
80005148:	6d ff 88 ff 	call 80005058 <__gcov_write_unsigned>
8000514c:	09 c4 68 09 	ld.d %e4,[%a12]40
80005150:	6d ff 8a ff 	call 80005064 <__gcov_write_counter>
80005154:	09 c4 70 09 	ld.d %e4,[%a12]48
80005158:	6d ff 86 ff 	call 80005064 <__gcov_write_counter>
8000515c:	3c f0       	j 8000513c <__gcov_write_summary+0xb4>

8000515e <__gcov_read_unsigned>:
8000515e:	82 14       	mov %d4,1
80005160:	6d ff 6d fe 	call 80004e3a <gcov_read_words>
80005164:	82 02       	mov %d2,0
80005166:	bc 22       	jz.a %a2,8000516a <__gcov_read_unsigned+0xc>
80005168:	54 22       	ld.w %d2,[%a2]
8000516a:	00 90       	ret 

8000516c <__gcov_read_counter>:
8000516c:	82 24       	mov %d4,2
8000516e:	6d ff 66 fe 	call 80004e3a <gcov_read_words>
80005172:	d2 02       	mov %e2,0
80005174:	bc 27       	jz.a %a2,80005182 <__gcov_read_counter+0x16>
80005176:	54 22       	ld.w %d2,[%a2]
80005178:	19 23 04 00 	ld.w %d3,[%a2]4
8000517c:	53 12 40 40 	mul.u %e4,%d2,1
80005180:	a6 53       	or %d3,%d5
80005182:	00 90       	ret 

80005184 <__gcov_read_summary>:
80005184:	20 20       	sub.a %sp,32
80005186:	40 4f       	mov.aa %a15,%a4
80005188:	6d ff eb ff 	call 8000515e <__gcov_read_unsigned>
8000518c:	68 02       	st.w [%a15]0,%d2
8000518e:	6d ff e8 ff 	call 8000515e <__gcov_read_unsigned>
80005192:	68 12       	st.w [%a15]4,%d2
80005194:	6d ff e5 ff 	call 8000515e <__gcov_read_unsigned>
80005198:	68 22       	st.w [%a15]8,%d2
8000519a:	6d ff e9 ff 	call 8000516c <__gcov_read_counter>
8000519e:	89 f2 4c 09 	st.d [%a15]12,%e2
800051a2:	6d ff e5 ff 	call 8000516c <__gcov_read_counter>
800051a6:	89 f2 54 09 	st.d [%a15]20,%e2
800051aa:	6d ff e1 ff 	call 8000516c <__gcov_read_counter>
800051ae:	d9 f2 24 00 	lea %a2,[%a15]36
800051b2:	89 f2 5c 09 	st.d [%a15]28,%e2
800051b6:	82 0f       	mov %d15,0
800051b8:	c5 03 2f e1 	lea %a3,13af <SHARED_STACK_SIZE+0x3af>
800051bc:	24 2f       	st.b [%a2+],%d15
800051be:	fc 3f       	loop %a3,800051bc <__gcov_read_summary+0x38>
800051c0:	82 0a       	mov %d10,0
800051c2:	82 0f       	mov %d15,0
800051c4:	6d ff cd ff 	call 8000515e <__gcov_read_unsigned>
800051c8:	d9 a3 20 00 	lea %a3,[%sp]32
800051cc:	90 32       	addsc.a %a2,%a3,%d15,2
800051ce:	02 24       	mov %d4,%d2
800051d0:	59 22 e0 ff 	st.w [%a2]-32,%d2
800051d4:	6d 00 fa 06 	call 80005fc8 <__popcountsi2>
800051d8:	c2 1f       	add %d15,1
800051da:	42 2a       	add %d10,%d2
800051dc:	8b 8f 20 22 	ne %d2,%d15,8
800051e0:	df 02 f2 ff 	jne %d2,0,800051c4 <__gcov_read_summary+0x40>
800051e4:	82 0f       	mov %d15,0
800051e6:	d2 08       	mov %e8,0
800051e8:	df 0a 36 00 	jeq %d10,0,80005254 <__gcov_read_summary+0xd0>
800051ec:	8f 59 00 40 	sh %d4,%d9,5
800051f0:	8b 89 00 31 	rsub %d3,%d9,8
800051f4:	ee 12       	jnz %d15,80005218 <__gcov_read_summary+0x94>
800051f6:	1b 04 02 20 	addi %d2,%d4,32
800051fa:	9f 03 03 80 	jned %d3,0,80005200 <__gcov_read_summary+0x7c>
800051fe:	3c 29       	j 80005250 <__gcov_read_summary+0xcc>
80005200:	d9 a3 20 00 	lea %a3,[%sp]32
80005204:	01 39 02 26 	addsc.a %a2,%a3,%d9,2
80005208:	02 48       	mov %d8,%d4
8000520a:	19 2f e0 ff 	ld.w %d15,[%a2]-32
8000520e:	c2 19       	add %d9,1
80005210:	02 24       	mov %d4,%d2
80005212:	3c f1       	j 800051f4 <__gcov_read_summary+0x70>
80005214:	02 c8       	mov %d8,%d12
80005216:	02 bf       	mov %d15,%d11
80005218:	8f ff 1f b0 	sh %d11,%d15,-1
8000521c:	1b 18 00 c0 	addi %d12,%d8,1
80005220:	6f 0f fa 7f 	jz.t %d15,0,80005214 <__gcov_read_summary+0x90>
80005224:	8b c8 af f2 	ge.u %d15,%d8,252
80005228:	c2 fa       	add %d10,-1
8000522a:	ee 13       	jnz %d15,80005250 <__gcov_read_summary+0xcc>
8000522c:	6d ff 99 ff 	call 8000515e <__gcov_read_unsigned>
80005230:	53 48 21 f0 	mul %d15,%d8,20
80005234:	02 c8       	mov %d8,%d12
80005236:	10 fc       	addsc.a %a12,%a15,%d15,0
80005238:	02 bf       	mov %d15,%d11
8000523a:	59 c2 24 00 	st.w [%a12]36,%d2
8000523e:	6d ff 97 ff 	call 8000516c <__gcov_read_counter>
80005242:	89 c2 68 09 	st.d [%a12]40,%e2
80005246:	6d ff 93 ff 	call 8000516c <__gcov_read_counter>
8000524a:	89 c2 70 09 	st.d [%a12]48,%e2
8000524e:	3c cd       	j 800051e8 <__gcov_read_summary+0x64>
80005250:	6d 00 77 29 	call 8000a53e <abort>
80005254:	00 90       	ret 

80005256 <__gcov_seek>:
80005256:	91 00 00 c7 	movh.a %a12,28672
8000525a:	d9 cf 54 a6 	lea %a15,[%a12]26260 <70006694 <__gcov_var>>
8000525e:	4c f6       	ld.w %d15,[%a15]24
80005260:	02 48       	mov %d8,%d4
80005262:	0e f3       	jltz %d15,80005268 <__gcov_seek+0x12>
80005264:	6d 00 6d 29 	call 8000a53e <abort>
80005268:	48 24       	ld.w %d4,[%a15]8
8000526a:	76 43       	jz %d4,80005270 <__gcov_seek+0x1a>
8000526c:	6d ff af fd 	call 80004dca <gcov_write_block>
80005270:	99 c4 54 a6 	ld.a %a4,[%a12]26260 <70006694 <__gcov_var>>
80005274:	8f 28 00 40 	sh %d4,%d8,2
80005278:	82 05       	mov %d5,0
8000527a:	6d 00 8d 0c 	call 80006b94 <fseek>
8000527e:	99 c4 54 a6 	ld.a %a4,[%a12]26260 <70006694 <__gcov_var>>
80005282:	6d 00 d6 0c 	call 80006c2e <ftell>
80005286:	86 e2       	sha %d2,-2
80005288:	68 12       	st.w [%a15]4,%d2
8000528a:	00 90       	ret 

8000528c <gcov_exit.part.3>:
8000528c:	d9 aa 10 1b 	lea %sp,[%sp]-20400
80005290:	80 a2       	mov.d %d2,%sp
80005292:	91 00 00 e7 	movh.a %a14,28672
80005296:	1b 42 43 e1 	addi %d14,%d2,5172
8000529a:	60 e2       	mov.a %a2,%d14
8000529c:	60 e4       	mov.a %a4,%d14
8000529e:	99 ed 50 a6 	ld.a %a13,[%a14]26256 <70006690 <gcov_list>>
800052a2:	82 03       	mov %d3,0
800052a4:	c5 03 74 30 	lea %a3,4f4 <CSA_REGIONS+0x3f4>
800052a8:	64 23       	st.w [%a2+],%d3
800052aa:	fc 3f       	loop %a3,800052a8 <gcov_exit.part.3+0x1c>
800052ac:	82 0f       	mov %d15,0
800052ae:	19 4d 04 00 	ld.w %d13,[%a4]4
800052b2:	19 4a 0c 00 	ld.w %d10,[%a4]12
800052b6:	19 4b 10 00 	ld.w %d11,[%a4]16
800052ba:	19 49 14 00 	ld.w %d9,[%a4]20
800052be:	19 48 18 00 	ld.w %d8,[%a4]24
800052c2:	40 dc       	mov.aa %a12,%a13
800052c4:	78 10       	st.w [%sp]64,%d15
800052c6:	bd 0c 55 00 	jz.a %a12,80005370 <gcov_exit.part.3+0xe4>
800052ca:	19 a4 00 10 	ld.w %d4,[%sp]64
800052ce:	19 c5 08 00 	ld.w %d5,[%a12]8
800052d2:	6d ff 69 fd 	call 80004da4 <crc32_unsigned>
800052d6:	19 c3 34 00 	ld.w %d3,[%a12]52
800052da:	82 0c       	mov %d12,0
800052dc:	0b 23 10 48 	mov %e4,%d3,%d2
800052e0:	59 a3 34 00 	st.w [%sp]52,%d3
800052e4:	6d ff 60 fd 	call 80004da4 <crc32_unsigned>
800052e8:	59 a2 00 10 	st.w [%sp]64,%d2
800052ec:	58 0d       	ld.w %d15,[%sp]52
800052ee:	5f fc 3e 00 	jeq %d12,%d15,8000536a <gcov_exit.part.3+0xde>
800052f2:	cc ce       	ld.a %a15,[%a12]56
800052f4:	82 05       	mov %d5,0
800052f6:	01 fc 02 f6 	addsc.a %a15,%a15,%d12,2
800052fa:	c8 0f       	ld.a %a15,[%a15]0
800052fc:	bc f5       	jz.a %a15,80005306 <gcov_exit.part.3+0x7a>
800052fe:	c8 02       	ld.a %a2,[%a15]0
80005300:	7d c2 68 01 	jeq.a %a2,%a12,800055d0 <gcov_exit.part.3+0x344>
80005304:	a0 0f       	mov.a %a15,0
80005306:	19 a4 00 10 	ld.w %d4,[%sp]64
8000530a:	6d ff 4d fd 	call 80004da4 <crc32_unsigned>
8000530e:	82 05       	mov %d5,0
80005310:	bc f2       	jz.a %a15,80005314 <gcov_exit.part.3+0x88>
80005312:	48 25       	ld.w %d5,[%a15]8
80005314:	02 24       	mov %d4,%d2
80005316:	6d ff 47 fd 	call 80004da4 <crc32_unsigned>
8000531a:	59 a2 00 10 	st.w [%sp]64,%d2
8000531e:	bd 0f 24 00 	jz.a %a15,80005366 <gcov_exit.part.3+0xda>
80005322:	4c c4       	ld.w %d15,[%a12]16
80005324:	6e 21       	jz %d15,80005366 <gcov_exit.part.3+0xda>
80005326:	4c f4       	ld.w %d15,[%a15]16
80005328:	0b 2f 10 48 	mov %e4,%d15,%d2
8000532c:	6d ff 3c fd 	call 80004da4 <crc32_unsigned>
80005330:	60 f2       	mov.a %a2,%d15
80005332:	42 fd       	add %d13,%d15
80005334:	59 a2 00 10 	st.w [%sp]64,%d2
80005338:	82 07       	mov %d7,0
8000533a:	fd 20 03 00 	loop %a2,80005340 <gcov_exit.part.3+0xb4>
8000533e:	3c 14       	j 80005366 <gcov_exit.part.3+0xda>
80005340:	c8 53       	ld.a %a3,[%a15]20
80005342:	01 37 03 36 	addsc.a %a3,%a3,%d7,3
80005346:	c2 17       	add %d7,1
80005348:	19 33 04 00 	ld.w %d3,[%a3]4
8000534c:	54 36       	ld.w %d6,[%a3]
8000534e:	3a 38       	eq %d15,%d8,%d3
80005350:	0b 69 50 f2 	and.ge.u %d15,%d9,%d6
80005354:	0b 83 90 f2 	or.lt %d15,%d3,%d8
80005358:	0b 6a 40 a0 	addx %d10,%d10,%d6
8000535c:	0b 3b 50 b0 	addc %d11,%d11,%d3
80005360:	6a 69       	cmovn %d9,%d15,%d6
80005362:	6a 38       	cmovn %d8,%d15,%d3
80005364:	3c eb       	j 8000533a <gcov_exit.part.3+0xae>
80005366:	c2 1c       	add %d12,1
80005368:	3c c2       	j 800052ec <gcov_exit.part.3+0x60>
8000536a:	99 cc 04 00 	ld.a %a12,[%a12]4
8000536e:	3c ac       	j 800052c6 <gcov_exit.part.3+0x3a>
80005370:	60 e2       	mov.a %a2,%d14
80005372:	59 2d 04 00 	st.w [%a2]4,%d13
80005376:	59 2a 0c 00 	st.w [%a2]12,%d10
8000537a:	59 2b 10 00 	st.w [%a2]16,%d11
8000537e:	59 29 14 00 	st.w [%a2]20,%d9
80005382:	59 28 18 00 	st.w [%a2]24,%d8
80005386:	f6 dc       	jnz %d13,8000539e <gcov_exit.part.3+0x112>
80005388:	91 10 00 48 	movh.a %a4,32769
8000538c:	d9 44 a9 ba 	lea %a4,[%a4]-21783 <8000aae9 <board_led+0x361>>
80005390:	6d 00 d8 0c 	call 80006d40 <getenv>
80005394:	bd 02 5a 80 	jnz.a %a2,80005448 <gcov_exit.part.3+0x1bc>
80005398:	82 0f       	mov %d15,0
8000539a:	78 14       	st.w [%sp]80,%d15
8000539c:	3c 5d       	j 80005456 <gcov_exit.part.3+0x1ca>
8000539e:	60 e2       	mov.a %a2,%d14
800053a0:	d2 06       	mov %e6,0
800053a2:	09 20 54 09 	ld.d %e0,[%a2]20
800053a6:	82 0f       	mov %d15,0
800053a8:	82 03       	mov %d3,0
800053aa:	c5 0f 3b 30 	lea %a15,fb <CSA_REGIONS-0x5>
800053ae:	13 4f 21 2e 	madd %d2,%d14,%d15,20
800053b2:	c2 1f       	add %d15,1
800053b4:	60 22       	mov.a %a2,%d2
800053b6:	59 23 24 00 	st.w [%a2]36,%d3
800053ba:	89 20 68 09 	st.d [%a2]40,%e0
800053be:	89 26 70 09 	st.d [%a2]48,%e6
800053c2:	fc f6       	loop %a15,800053ae <gcov_exit.part.3+0x122>
800053c4:	bd 0d e2 7f 	jz.a %a13,80005388 <gcov_exit.part.3+0xfc>
800053c8:	4c d4       	ld.w %d15,[%a13]16
800053ca:	6e 3c       	jz %d15,80005442 <gcov_exit.part.3+0x1b6>
800053cc:	19 dc 34 00 	ld.w %d12,[%a13]52
800053d0:	82 0a       	mov %d10,0
800053d2:	5f ca 38 00 	jeq %d10,%d12,80005442 <gcov_exit.part.3+0x1b6>
800053d6:	cc de       	ld.a %a15,[%a13]56
800053d8:	01 fa 02 f6 	addsc.a %a15,%a15,%d10,2
800053dc:	c8 0c       	ld.a %a12,[%a15]0
800053de:	bd 0c 30 00 	jz.a %a12,8000543e <gcov_exit.part.3+0x1b2>
800053e2:	cc c0       	ld.a %a15,[%a12]0
800053e4:	7d df 2d 80 	jne.a %a15,%a13,8000543e <gcov_exit.part.3+0x1b2>
800053e8:	19 cd 10 00 	ld.w %d13,[%a12]16
800053ec:	82 0b       	mov %d11,0
800053ee:	5f db 28 00 	jeq %d11,%d13,8000543e <gcov_exit.part.3+0x1b2>
800053f2:	cc c5       	ld.a %a15,[%a12]20
800053f4:	01 fb 03 f6 	addsc.a %a15,%a15,%d11,3
800053f8:	48 09       	ld.w %d9,[%a15]0
800053fa:	48 18       	ld.w %d8,[%a15]4
800053fc:	0b 98 10 48 	mov %e4,%d8,%d9
80005400:	6d ff 79 fd 	call 80004ef2 <gcov_histo_index>
80005404:	80 a3       	mov.d %d3,%sp
80005406:	1b 83 45 31 	addi %d3,%d3,5208
8000540a:	13 42 21 33 	madd %d3,%d3,%d2,20
8000540e:	60 3f       	mov.a %a15,%d3
80005410:	4c f0       	ld.w %d15,[%a15]0
80005412:	48 33       	ld.w %d3,[%a15]12
80005414:	c2 1f       	add %d15,1
80005416:	0b 93 40 30 	addx %d3,%d3,%d9
8000541a:	68 0f       	st.w [%a15]0,%d15
8000541c:	4c f4       	ld.w %d15,[%a15]16
8000541e:	68 33       	st.w [%a15]12,%d3
80005420:	48 23       	ld.w %d3,[%a15]8
80005422:	0b 8f 50 f0 	addc %d15,%d15,%d8
80005426:	48 12       	ld.w %d2,[%a15]4
80005428:	68 4f       	st.w [%a15]16,%d15
8000542a:	3a 38       	eq %d15,%d8,%d3
8000542c:	0b 29 50 f2 	and.ge.u %d15,%d9,%d2
80005430:	0b 83 90 f2 	or.lt %d15,%d3,%d8
80005434:	ee 03       	jnz %d15,8000543a <gcov_exit.part.3+0x1ae>
80005436:	68 19       	st.w [%a15]4,%d9
80005438:	68 28       	st.w [%a15]8,%d8
8000543a:	c2 1b       	add %d11,1
8000543c:	3c d9       	j 800053ee <gcov_exit.part.3+0x162>
8000543e:	c2 1a       	add %d10,1
80005440:	3c c9       	j 800053d2 <gcov_exit.part.3+0x146>
80005442:	99 dd 04 00 	ld.a %a13,[%a13]4
80005446:	3c bf       	j 800053c4 <gcov_exit.part.3+0x138>
80005448:	40 24       	mov.aa %a4,%a2
8000544a:	6d 00 d5 06 	call 800061f4 <atoi>
8000544e:	8b 02 40 23 	max %d2,%d2,0
80005452:	59 a2 10 10 	st.w [%sp]80,%d2
80005456:	91 10 00 48 	movh.a %a4,32769
8000545a:	d9 44 bb ba 	lea %a4,[%a4]-21765 <8000aafb <board_led+0x373>>
8000545e:	6d 00 71 0c 	call 80006d40 <getenv>
80005462:	82 0f       	mov %d15,0
80005464:	78 0d       	st.w [%sp]52,%d15
80005466:	40 2f       	mov.aa %a15,%a2
80005468:	bc 2f       	jz.a %a2,80005486 <gcov_exit.part.3+0x1fa>
8000546a:	40 24       	mov.aa %a4,%a2
8000546c:	6d 00 d4 10 	call 80007614 <strlen>
80005470:	02 2f       	mov %d15,%d2
80005472:	c2 ff       	add %d15,-1
80005474:	10 f2       	addsc.a %a2,%a15,%d15,0
80005476:	79 23 00 00 	ld.b %d3,[%a2]0
8000547a:	8b f3 22 32 	ne %d3,%d3,47
8000547e:	2b f2 40 23 	sel %d2,%d3,%d2,%d15
80005482:	59 a2 34 00 	st.w [%sp]52,%d2
80005486:	58 14       	ld.w %d15,[%sp]80
80005488:	19 a2 34 00 	ld.w %d2,[%sp]52
8000548c:	8b 0f 20 32 	ne %d3,%d15,0
80005490:	8b 02 00 34 	and.eq %d3,%d2,0
80005494:	76 37       	jz %d3,800054a2 <gcov_exit.part.3+0x216>
80005496:	82 1f       	mov %d15,1
80005498:	91 10 00 f8 	movh.a %a15,32769
8000549c:	78 0d       	st.w [%sp]52,%d15
8000549e:	d9 ff bc 9a 	lea %a15,[%a15]-21892 <8000aa7c <board_led+0x2f4>>
800054a2:	91 00 00 27 	movh.a %a2,28672
800054a6:	19 23 4c a6 	ld.w %d3,[%a2]26252 <7000668c <gcov_max_filename>>
800054aa:	58 0d       	ld.w %d15,[%sp]52
800054ac:	1b 23 00 40 	addi %d4,%d3,2
800054b0:	42 f4       	add %d4,%d15
800054b2:	6d 00 fc 0c 	call 80006eaa <malloc>
800054b6:	40 23       	mov.aa %a3,%a2
800054b8:	91 00 00 27 	movh.a %a2,28672
800054bc:	b5 23 44 a6 	st.a [%a2]26244 <70006684 <gi_filename>>,%a3
800054c0:	6e 08       	jz %d15,800054d0 <gcov_exit.part.3+0x244>
800054c2:	40 34       	mov.aa %a4,%a3
800054c4:	40 f5       	mov.aa %a5,%a15
800054c6:	19 a4 34 00 	ld.w %d4,[%sp]52
800054ca:	6d 00 77 05 	call 80005fb8 <memcpy>
800054ce:	40 23       	mov.aa %a3,%a2
800054d0:	99 a2 34 00 	ld.a %a2,[%sp]52
800054d4:	99 ee 50 a6 	ld.a %a14,[%a14]26256 <70006690 <gcov_list>>
800054d8:	d9 af 20 10 	lea %a15,[%sp]96 <70006690 <gcov_list>>
800054dc:	30 32       	add.a %a2,%a3
800054de:	b5 a2 14 10 	st.a [%sp]84,%a2
800054e2:	82 02       	mov %d2,0
800054e4:	c5 02 74 30 	lea %a2,4f4 <CSA_REGIONS+0x3f4>
800054e8:	64 f2       	st.w [%a15+],%d2
800054ea:	fc 2f       	loop %a2,800054e8 <gcov_exit.part.3+0x25c>
800054ec:	bd 0e 65 00 	jz.a %a14,800055b6 <gcov_exit.part.3+0x32a>
800054f0:	91 00 00 37 	movh.a %a3,28672
800054f4:	d2 02       	mov %e2,0
800054f6:	91 00 00 27 	movh.a %a2,28672
800054fa:	d9 33 7c 96 	lea %a3,[%a3]26236 <7000667c <sum_buffer>>
800054fe:	58 14       	ld.w %d15,[%sp]80
80005500:	59 22 40 a6 	st.w [%a2]26240 <70006680 <fn_buffer>>,%d2
80005504:	74 33       	st.w [%a3],%d3
80005506:	cc e3       	ld.a %a15,[%a14]12
80005508:	6e 19       	jz %d15,8000553a <gcov_exit.part.3+0x2ae>
8000550a:	79 f3 00 00 	ld.b %d3,[%a15]0 <80010000 <__crt0_config+0x3fc4>>
8000550e:	80 f2       	mov.d %d2,%a15
80005510:	8b f3 22 32 	ne %d3,%d3,47
80005514:	ab 12 20 23 	caddn %d2,%d3,%d2,1
80005518:	60 22       	mov.a %a2,%d2
8000551a:	82 05       	mov %d5,0
8000551c:	58 14       	ld.w %d15,[%sp]80
8000551e:	79 23 00 00 	ld.b %d3,[%a2]0
80005522:	0b f5 20 61 	lt %d6,%d5,%d15
80005526:	8b 03 20 64 	and.ne %d6,%d3,0
8000552a:	76 68       	jz %d6,8000553a <gcov_exit.part.3+0x2ae>
8000552c:	8b f3 22 32 	ne %d3,%d3,47
80005530:	f6 33       	jnz %d3,80005536 <gcov_exit.part.3+0x2aa>
80005532:	c2 15       	add %d5,1
80005534:	40 2f       	mov.aa %a15,%a2
80005536:	b0 12       	add.a %a2,1
80005538:	3c f2       	j 8000551c <gcov_exit.part.3+0x290>
8000553a:	58 0d       	ld.w %d15,[%sp]52
8000553c:	99 a2 14 10 	ld.a %a2,[%sp]84
80005540:	6e 17       	jz %d15,8000556e <gcov_exit.part.3+0x2e2>
80005542:	79 f3 00 00 	ld.b %d3,[%a15]0
80005546:	8b f3 02 32 	eq %d3,%d3,47
8000554a:	df 03 12 80 	jne %d3,0,8000556e <gcov_exit.part.3+0x2e2>
8000554e:	91 10 00 58 	movh.a %a5,32769
80005552:	d9 55 87 ca 	lea %a5,[%a5]-21753 <8000ab07 <board_led+0x37f>>
80005556:	04 53       	ld.bu %d3,[%a5+]
80005558:	24 23       	st.b [%a2+],%d3
8000555a:	df 03 fe ff 	jne %d3,0,80005556 <gcov_exit.part.3+0x2ca>
8000555e:	99 a2 14 10 	ld.a %a2,[%sp]84
80005562:	b0 12       	add.a %a2,1
80005564:	04 f3       	ld.bu %d3,[%a15+]
80005566:	24 23       	st.b [%a2+],%d3
80005568:	df 03 fe ff 	jne %d3,0,80005564 <gcov_exit.part.3+0x2d8>
8000556c:	3c 05       	j 80005576 <gcov_exit.part.3+0x2ea>
8000556e:	04 f3       	ld.bu %d3,[%a15+]
80005570:	24 23       	st.b [%a2+],%d3
80005572:	df 03 fe ff 	jne %d3,0,8000556e <gcov_exit.part.3+0x2e2>
80005576:	91 00 00 27 	movh.a %a2,28672
8000557a:	99 24 44 a6 	ld.a %a4,[%a2]26244 <70006684 <gi_filename>>
8000557e:	6d ff 24 fd 	call 80004fc6 <__gcov_open>
80005582:	df 02 2a 80 	jne %d2,0,800055d6 <gcov_exit.part.3+0x34a>
80005586:	91 00 00 27 	movh.a %a2,28672
8000558a:	19 22 44 a6 	ld.w %d2,[%a2]26244 <70006684 <gi_filename>>
8000558e:	91 00 00 f7 	movh.a %a15,28672
80005592:	99 ff 40 c5 	ld.a %a15,[%a15]22272 <70005700 <_impure_ptr>>
80005596:	74 a2       	st.w [%sp],%d2
80005598:	c8 34       	ld.a %a4,[%a15]12
8000559a:	91 10 00 58 	movh.a %a5,32769
8000559e:	d9 55 89 ca 	lea %a5,[%a5]-21751 <8000ab09 <board_led+0x381>>
800055a2:	6d 00 33 08 	call 80006608 <fprintf>
800055a6:	3c 05       	j 800055b0 <gcov_exit.part.3+0x324>
800055a8:	6d ff 3f fd 	call 80005026 <__gcov_close>
800055ac:	df 02 2e 84 	jne %d2,0,80005e08 <gcov_exit.part.3+0xb7c>
800055b0:	99 ee 04 00 	ld.a %a14,[%a14]4
800055b4:	3c 9c       	j 800054ec <gcov_exit.part.3+0x260>
800055b6:	91 00 00 f7 	movh.a %a15,28672
800055ba:	82 1f       	mov %d15,1
800055bc:	59 ff 78 96 	st.w [%a15]26232 <70006678 <run_accounted>>,%d15
800055c0:	91 00 00 f7 	movh.a %a15,28672
800055c4:	99 f4 44 a6 	ld.a %a4,[%a15]26244 <70006684 <gi_filename>>
800055c8:	bd 04 b1 04 	jz.a %a4,80005f2a <gcov_exit.part.3+0xc9e>
800055cc:	1d 00 75 0c 	j 80006eb6 <free>
800055d0:	48 35       	ld.w %d5,[%a15]12
800055d2:	1d ff 9a fe 	j 80005306 <gcov_exit.part.3+0x7a>
800055d6:	6d ff c4 fd 	call 8000515e <__gcov_read_unsigned>
800055da:	df 02 8c 01 	jeq %d2,0,800058f2 <gcov_exit.part.3+0x666>
800055de:	7b 30 76 56 	movh %d5,26467
800055e2:	1b 15 46 56 	addi %d5,%d5,25697
800055e6:	5f 52 13 00 	jeq %d2,%d5,8000560c <gcov_exit.part.3+0x380>
800055ea:	91 00 00 27 	movh.a %a2,28672
800055ee:	19 22 44 a6 	ld.w %d2,[%a2]26244 <70006684 <gi_filename>>
800055f2:	91 10 00 48 	movh.a %a4,32769
800055f6:	74 a2       	st.w [%sp],%d2
800055f8:	d9 44 9c ca 	lea %a4,[%a4]-21732 <8000ab1c <board_led+0x394>>
800055fc:	6d ff 97 fc 	call 80004f2a <gcov_error>
80005600:	91 00 00 f7 	movh.a %a15,28672
80005604:	d9 ff 40 a6 	lea %a15,[%a15]26240 <70006680 <fn_buffer>>
80005608:	1d 00 f2 03 	j 80005dec <gcov_exit.part.3+0xb60>
8000560c:	6d ff a9 fd 	call 8000515e <__gcov_read_unsigned>
80005610:	91 00 00 37 	movh.a %a3,28672
80005614:	99 35 44 a6 	ld.a %a5,[%a3]26244 <70006684 <gi_filename>>
80005618:	d9 e4 0c 00 	lea %a4,[%a14]12 <70006684 <gi_filename>>
8000561c:	02 24       	mov %d4,%d2
8000561e:	6d ff 8f fc 	call 80004f3c <gcov_version.isra.1>
80005622:	df 02 ef 7f 	jeq %d2,0,80005600 <gcov_exit.part.3+0x374>
80005626:	6d ff 9c fd 	call 8000515e <__gcov_read_unsigned>
8000562a:	82 0f       	mov %d15,0
8000562c:	19 e3 08 00 	ld.w %d3,[%a14]8
80005630:	78 13       	st.w [%sp]76,%d15
80005632:	78 11       	st.w [%sp]68,%d15
80005634:	5f 32 62 81 	jne %d2,%d3,800058f8 <gcov_exit.part.3+0x66c>
80005638:	91 00 00 f7 	movh.a %a15,28672
8000563c:	d9 ff 54 a6 	lea %a15,[%a15]26260 <70006694 <__gcov_var>>
80005640:	80 a2       	mov.d %d2,%sp
80005642:	91 00 00 d7 	movh.a %a13,28672
80005646:	80 fb       	mov.d %d11,%a15
80005648:	d9 dd 7c 96 	lea %a13,[%a13]26236 <7000667c <sum_buffer>>
8000564c:	7b 00 30 aa 	movh %d10,41728
80005650:	d9 ac 9c f3 	lea %a12,[%sp]15324
80005654:	1b 82 80 92 	addi %d9,%d2,10248
80005658:	48 62       	ld.w %d2,[%a15]24
8000565a:	02 bd       	mov %d13,%d11
8000565c:	4e 23       	jgtz %d2,80005662 <gcov_exit.part.3+0x3d6>
8000565e:	6d 00 70 27 	call 8000a53e <abort>
80005662:	48 23       	ld.w %d3,[%a15]8
80005664:	48 14       	ld.w %d4,[%a15]4
80005666:	42 43       	add %d3,%d4
80005668:	59 a3 0c 10 	st.w [%sp]76,%d3
8000566c:	6d ff 79 fd 	call 8000515e <__gcov_read_unsigned>
80005670:	5f a2 34 80 	jne %d2,%d10,800056d8 <gcov_exit.part.3+0x44c>
80005674:	6d ff 75 fd 	call 8000515e <__gcov_read_unsigned>
80005678:	40 c4       	mov.aa %a4,%a12
8000567a:	6d ff 85 fd 	call 80005184 <__gcov_read_summary>
8000567e:	48 02       	ld.w %d2,[%a15]0
80005680:	df 02 20 01 	jeq %d2,0,800058c0 <gcov_exit.part.3+0x634>
80005684:	48 58       	ld.w %d8,[%a15]20
80005686:	df 08 1e 81 	jne %d8,0,800058c2 <gcov_exit.part.3+0x636>
8000568a:	58 11       	ld.w %d15,[%sp]68
8000568c:	6e 11       	jz %d15,800056ae <gcov_exit.part.3+0x422>
8000568e:	3b 80 3d 41 	mov %d4,5080
80005692:	6d 00 0c 0c 	call 80006eaa <malloc>
80005696:	40 c3       	mov.aa %a3,%a12
80005698:	f4 d2       	st.a [%a13],%a2
8000569a:	d9 25 04 00 	lea %a5,[%a2]4
8000569e:	c5 04 74 30 	lea %a4,4f4 <CSA_REGIONS+0x3f4>
800056a2:	44 33       	ld.w %d3,[%a3+]
800056a4:	64 53       	st.w [%a5+],%d3
800056a6:	fc 4e       	loop %a4,800056a2 <gcov_exit.part.3+0x416>
800056a8:	74 28       	st.w [%a2],%d8
800056aa:	d4 dd       	ld.a %a13,[%a13]
800056ac:	3c d6       	j 80005658 <gcov_exit.part.3+0x3cc>
800056ae:	54 c2       	ld.w %d2,[%a12]
800056b0:	58 10       	ld.w %d15,[%sp]64
800056b2:	5f f2 d3 ff 	jne %d2,%d15,80005658 <gcov_exit.part.3+0x3cc>
800056b6:	60 e2       	mov.a %a2,%d14
800056b8:	19 c3 04 00 	ld.w %d3,[%a12]4
800056bc:	19 22 04 00 	ld.w %d2,[%a2]4
800056c0:	5f 23 cc ff 	jne %d3,%d2,80005658 <gcov_exit.part.3+0x3cc>
800056c4:	60 93       	mov.a %a3,%d9
800056c6:	58 13       	ld.w %d15,[%sp]76
800056c8:	40 c4       	mov.aa %a4,%a12
800056ca:	c5 02 74 30 	lea %a2,4f4 <CSA_REGIONS+0x3f4>
800056ce:	44 43       	ld.w %d3,[%a4+]
800056d0:	64 33       	st.w [%a3+],%d3
800056d2:	fc 2e       	loop %a2,800056ce <gcov_exit.part.3+0x442>
800056d4:	78 11       	st.w [%sp]68,%d15
800056d6:	3c c1       	j 80005658 <gcov_exit.part.3+0x3cc>
800056d8:	91 00 00 27 	movh.a %a2,28672
800056dc:	d9 22 40 a6 	lea %a2,[%a2]26240 <70006680 <fn_buffer>>
800056e0:	80 2c       	mov.d %d12,%a2
800056e2:	82 0b       	mov %d11,0
800056e4:	19 e3 34 00 	ld.w %d3,[%a14]52
800056e8:	5f 3b e8 00 	jeq %d11,%d3,800058b8 <gcov_exit.part.3+0x62c>
800056ec:	cc ee       	ld.a %a15,[%a14]56
800056ee:	7b 00 10 30 	movh %d3,256
800056f2:	01 fb 02 f6 	addsc.a %a15,%a15,%d11,2
800056f6:	c8 0f       	ld.a %a15,[%a15]0
800056f8:	5f 32 17 00 	jeq %d2,%d3,80005726 <gcov_exit.part.3+0x49a>
800056fc:	91 00 00 27 	movh.a %a2,28672
80005700:	19 24 44 a6 	ld.w %d4,[%a2]26244 <70006684 <gi_filename>>
80005704:	7b 10 00 38 	movh %d3,32769
80005708:	1b 63 b6 3a 	addi %d3,%d3,-21658
8000570c:	91 10 00 48 	movh.a %a4,32769
80005710:	74 a4       	st.w [%sp],%d4
80005712:	59 a3 04 00 	st.w [%sp]4,%d3
80005716:	59 ab 08 00 	st.w [%sp]8,%d11
8000571a:	d9 44 bf ca 	lea %a4,[%a4]-21697 <8000ab3f <board_led+0x3b7>>
8000571e:	6d ff 06 fc 	call 80004f2a <gcov_error>
80005722:	1d ff 6f ff 	j 80005600 <gcov_exit.part.3+0x374>
80005726:	6d ff 1c fd 	call 8000515e <__gcov_read_unsigned>
8000572a:	df 02 c2 00 	jeq %d2,0,800058ae <gcov_exit.part.3+0x622>
8000572e:	df 32 e7 ff 	jne %d2,3,800056fc <gcov_exit.part.3+0x470>
80005732:	bc f4       	jz.a %a15,8000573a <gcov_exit.part.3+0x4ae>
80005734:	c8 02       	ld.a %a2,[%a15]0
80005736:	7d e2 83 00 	jeq.a %a2,%a14,8000583c <gcov_exit.part.3+0x5b0>
8000573a:	91 00 00 27 	movh.a %a2,28672
8000573e:	d9 22 44 a6 	lea %a2,[%a2]26244 <70006684 <gi_filename>>
80005742:	4c 20       	ld.w %d15,[%a2]0
80005744:	3b 90 00 90 	mov %d9,9
80005748:	78 0e       	st.w [%sp]56,%d15
8000574a:	82 05       	mov %d5,0
8000574c:	a0 9f       	mov.a %a15,9
8000574e:	c2 f9       	add %d9,-1
80005750:	fd f0 03 00 	loop %a15,80005756 <gcov_exit.part.3+0x4ca>
80005754:	3c 08       	j 80005764 <gcov_exit.part.3+0x4d8>
80005756:	01 e9 02 56 	addsc.a %a5,%a14,%d9,2
8000575a:	19 53 10 00 	ld.w %d3,[%a5]16
8000575e:	ab 15 00 53 	cadd %d5,%d3,%d5,1
80005762:	3c f6       	j 8000574e <gcov_exit.part.3+0x4c2>
80005764:	c2 35       	add %d5,3
80005766:	8f 35 00 80 	sh %d8,%d5,3
8000576a:	02 84       	mov %d4,%d8
8000576c:	6d 00 9f 0b 	call 80006eaa <malloc>
80005770:	40 2c       	mov.aa %a12,%a2
80005772:	bd 02 45 00 	jz.a %a2,800057fc <gcov_exit.part.3+0x570>
80005776:	82 03       	mov %d3,0
80005778:	74 23       	st.w [%a2],%d3
8000577a:	59 2b 04 00 	st.w [%a2]4,%d11
8000577e:	6d ff f0 fc 	call 8000515e <__gcov_read_unsigned>
80005782:	59 c2 0c 00 	st.w [%a12]12,%d2
80005786:	6d ff ec fc 	call 8000515e <__gcov_read_unsigned>
8000578a:	59 c2 10 00 	st.w [%a12]16,%d2
8000578e:	6d ff e8 fc 	call 8000515e <__gcov_read_unsigned>
80005792:	82 0f       	mov %d15,0
80005794:	59 c2 14 00 	st.w [%a12]20,%d2
80005798:	82 09       	mov %d9,0
8000579a:	01 e9 02 f6 	addsc.a %a15,%a14,%d9,2
8000579e:	48 43       	ld.w %d3,[%a15]16
800057a0:	df 03 25 00 	jeq %d3,0,800057ea <gcov_exit.part.3+0x55e>
800057a4:	6d ff dd fc 	call 8000515e <__gcov_read_unsigned>
800057a8:	8f 19 01 30 	sh %d3,%d9,17
800057ac:	9b 13 1a 30 	addih %d3,%d3,417
800057b0:	5f 32 3e 83 	jne %d2,%d3,80005e2c <gcov_exit.part.3+0xba0>
800057b4:	6d ff d5 fc 	call 8000515e <__gcov_read_unsigned>
800057b8:	8f f2 1f a0 	sh %d10,%d2,-1
800057bc:	8f 3a 00 80 	sh %d8,%d10,3
800057c0:	02 84       	mov %d4,%d8
800057c2:	6d 00 74 0b 	call 80006eaa <malloc>
800057c6:	40 2d       	mov.aa %a13,%a2
800057c8:	bd 02 1a 00 	jz.a %a2,800057fc <gcov_exit.part.3+0x570>
800057cc:	d0 cf       	addsc.a %a15,%a12,%d15,3
800057ce:	68 6a       	st.w [%a15]24,%d10
800057d0:	e8 72       	st.a [%a15]28,%a2
800057d2:	9f 0a 04 80 	jned %d10,0,800057da <gcov_exit.part.3+0x54e>
800057d6:	c2 1f       	add %d15,1
800057d8:	3c 09       	j 800057ea <gcov_exit.part.3+0x55e>
800057da:	6d ff c9 fc 	call 8000516c <__gcov_read_counter>
800057de:	d9 df 08 00 	lea %a15,[%a13]8
800057e2:	89 d2 40 09 	st.d [%a13],%e2
800057e6:	40 fd       	mov.aa %a13,%a15
800057e8:	3c f5       	j 800057d2 <gcov_exit.part.3+0x546>
800057ea:	c2 19       	add %d9,1
800057ec:	8b 99 20 32 	ne %d3,%d9,9
800057f0:	df 03 d5 ff 	jne %d3,0,8000579a <gcov_exit.part.3+0x50e>
800057f4:	60 c3       	mov.a %a3,%d12
800057f6:	80 cc       	mov.d %d12,%a12
800057f8:	f4 3c       	st.a [%a3],%a12
800057fa:	3c 5a       	j 800058ae <gcov_exit.part.3+0x622>
800057fc:	df 08 18 03 	jeq %d8,0,80005e2c <gcov_exit.part.3+0xba0>
80005800:	91 10 00 48 	movh.a %a4,32769
80005804:	d9 44 be 9a 	lea %a4,[%a4]-21890 <8000aa7e <board_led+0x2f6>>
80005808:	80 43       	mov.d %d3,%a4
8000580a:	02 85       	mov %d5,%d8
8000580c:	58 0e       	ld.w %d15,[%sp]56
8000580e:	91 10 00 48 	movh.a %a4,32769
80005812:	59 a3 08 00 	st.w [%sp]8,%d3
80005816:	59 a5 0c 00 	st.w [%sp]12,%d5
8000581a:	d9 44 af da 	lea %a4,[%a4]-21649 <8000ab6f <board_led+0x3e7>>
8000581e:	78 00       	st.w [%sp]0,%d15
80005820:	59 ab 04 00 	st.w [%sp]4 <80010000 <__crt0_config+0x3fc4>>,%d11
80005824:	6d ff 83 fb 	call 80004f2a <gcov_error>
80005828:	40 e4       	mov.aa %a4,%a14
8000582a:	40 c5       	mov.aa %a5,%a12
8000582c:	02 94       	mov %d4,%d9
8000582e:	6d ff 44 fb 	call 80004eb6 <free_fn_data>
80005832:	80 2c       	mov.d %d12,%a2
80005834:	df 0c 3d 80 	jne %d12,0,800058ae <gcov_exit.part.3+0x622>
80005838:	1d ff 62 ff 	j 800056fc <gcov_exit.part.3+0x470>
8000583c:	6d ff 91 fc 	call 8000515e <__gcov_read_unsigned>
80005840:	48 13       	ld.w %d3,[%a15]4
80005842:	5f 32 5d ff 	jne %d2,%d3,800056fc <gcov_exit.part.3+0x470>
80005846:	6d ff 8c fc 	call 8000515e <__gcov_read_unsigned>
8000584a:	48 23       	ld.w %d3,[%a15]8
8000584c:	5f 32 58 ff 	jne %d2,%d3,800056fc <gcov_exit.part.3+0x470>
80005850:	6d ff 87 fc 	call 8000515e <__gcov_read_unsigned>
80005854:	48 33       	ld.w %d3,[%a15]12
80005856:	5f 32 53 ff 	jne %d2,%d3,800056fc <gcov_exit.part.3+0x470>
8000585a:	d9 fc 10 00 	lea %a12,[%a15]16
8000585e:	82 08       	mov %d8,0
80005860:	01 e8 02 56 	addsc.a %a5,%a14,%d8,2
80005864:	99 5d 10 00 	ld.a %a13,[%a5]16
80005868:	bd 0d 18 00 	jz.a %a13,80005898 <gcov_exit.part.3+0x60c>
8000586c:	6d ff 79 fc 	call 8000515e <__gcov_read_unsigned>
80005870:	02 29       	mov %d9,%d2
80005872:	6d ff 76 fc 	call 8000515e <__gcov_read_unsigned>
80005876:	8f 18 01 30 	sh %d3,%d8,17
8000587a:	9b 13 1a 30 	addih %d3,%d3,417
8000587e:	5f 39 3f ff 	jne %d9,%d3,800056fc <gcov_exit.part.3+0x470>
80005882:	54 c4       	ld.w %d4,[%a12]
80005884:	8f 14 00 30 	sh %d3,%d4,1
80005888:	5f 32 3a ff 	jne %d2,%d3,800056fc <gcov_exit.part.3+0x470>
8000588c:	99 c4 04 00 	ld.a %a4,[%a12]4
80005890:	d9 cc 08 00 	lea %a12,[%a12]8
80005894:	2d 0d 00 00 	calli %a13
80005898:	c2 18       	add %d8,1
8000589a:	8b 98 20 32 	ne %d3,%d8,9
8000589e:	df 03 e1 ff 	jne %d3,0,80005860 <gcov_exit.part.3+0x5d4>
800058a2:	60 d2       	mov.a %a2,%d13
800058a4:	54 22       	ld.w %d2,[%a2]
800058a6:	76 2d       	jz %d2,800058c0 <gcov_exit.part.3+0x634>
800058a8:	19 28 14 00 	ld.w %d8,[%a2]20
800058ac:	f6 8b       	jnz %d8,800058c2 <gcov_exit.part.3+0x636>
800058ae:	c2 1b       	add %d11,1
800058b0:	6d ff 57 fc 	call 8000515e <__gcov_read_unsigned>
800058b4:	1d ff 18 ff 	j 800056e4 <gcov_exit.part.3+0x458>
800058b8:	df 02 20 00 	jeq %d2,0,800058f8 <gcov_exit.part.3+0x66c>
800058bc:	1d ff 20 ff 	j 800056fc <gcov_exit.part.3+0x470>
800058c0:	82 18       	mov %d8,1
800058c2:	91 00 00 37 	movh.a %a3,28672
800058c6:	7b 10 00 58 	movh %d5,32769
800058ca:	19 33 44 a6 	ld.w %d3,[%a3]26244 <70006684 <gi_filename>>
800058ce:	1b f5 a9 5a 	addi %d5,%d5,-21857
800058d2:	0e 85       	jltz %d8,800058dc <gcov_exit.part.3+0x650>
800058d4:	7b 10 00 58 	movh %d5,32769
800058d8:	1b 85 aa 5a 	addi %d5,%d5,-21848
800058dc:	91 10 00 48 	movh.a %a4,32769
800058e0:	74 a3       	st.w [%sp],%d3
800058e2:	59 a5 04 00 	st.w [%sp]4,%d5
800058e6:	d9 44 90 ea 	lea %a4,[%a4]-21616 <8000ab90 <board_led+0x408>>
800058ea:	6d ff 20 fb 	call 80004f2a <gcov_error>
800058ee:	1d ff 89 fe 	j 80005600 <gcov_exit.part.3+0x374>
800058f2:	82 0f       	mov %d15,0
800058f4:	78 13       	st.w [%sp]76,%d15
800058f6:	78 11       	st.w [%sp]68,%d15
800058f8:	6d ff 55 fb 	call 80004fa2 <__gcov_rewrite>
800058fc:	58 11       	ld.w %d15,[%sp]68
800058fe:	d9 ac 88 02 	lea %a12,[%sp]10248
80005902:	ee 09       	jnz %d15,80005914 <gcov_exit.part.3+0x688>
80005904:	58 13       	ld.w %d15,[%sp]76
80005906:	40 c2       	mov.aa %a2,%a12
80005908:	82 02       	mov %d2,0
8000590a:	c5 03 74 30 	lea %a3,4f4 <CSA_REGIONS+0x3f4>
8000590e:	64 22       	st.w [%a2+],%d2
80005910:	fc 3f       	loop %a3,8000590e <gcov_exit.part.3+0x682>
80005912:	78 11       	st.w [%sp]68,%d15
80005914:	19 e2 10 00 	ld.w %d2,[%a14]16
80005918:	df 02 5b 01 	jeq %d2,0,80005bce <gcov_exit.part.3+0x942>
8000591c:	91 00 00 f7 	movh.a %a15,28672
80005920:	19 c3 08 00 	ld.w %d3,[%a12]8
80005924:	19 f5 78 96 	ld.w %d5,[%a15]26232 <70006678 <run_accounted>>
80005928:	8b 03 00 72 	eq %d7,%d3,0
8000592c:	f6 54       	jnz %d5,80005934 <gcov_exit.part.3+0x6a8>
8000592e:	c2 13       	add %d3,1
80005930:	59 c3 08 00 	st.w [%a12]8,%d3
80005934:	76 76       	jz %d7,80005940 <gcov_exit.part.3+0x6b4>
80005936:	60 e2       	mov.a %a2,%d14
80005938:	19 22 04 00 	ld.w %d2,[%a2]4
8000593c:	59 c2 04 00 	st.w [%a12]4,%d2
80005940:	60 e3       	mov.a %a3,%d14
80005942:	19 c2 0c 00 	ld.w %d2,[%a12]12
80005946:	19 35 0c 00 	ld.w %d5,[%a3]12
8000594a:	19 c4 10 00 	ld.w %d4,[%a12]16
8000594e:	0b 52 40 50 	addx %d5,%d2,%d5
80005952:	19 33 10 00 	ld.w %d3,[%a3]16
80005956:	19 c0 18 00 	ld.w %d0,[%a12]24
8000595a:	59 c5 0c 00 	st.w [%a12]12,%d5
8000595e:	19 35 18 00 	ld.w %d5,[%a3]24
80005962:	0b 34 50 30 	addc %d3,%d4,%d3
80005966:	19 36 14 00 	ld.w %d6,[%a3]20
8000596a:	19 c2 14 00 	ld.w %d2,[%a12]20
8000596e:	59 c3 10 00 	st.w [%a12]16,%d3
80005972:	0b 50 00 31 	eq %d3,%d0,%d5
80005976:	0b 62 50 32 	and.ge.u %d3,%d2,%d6
8000597a:	0b 05 90 32 	or.lt %d3,%d5,%d0
8000597e:	f6 35       	jnz %d3,80005988 <gcov_exit.part.3+0x6fc>
80005980:	59 c6 14 00 	st.w [%a12]20,%d6
80005984:	59 c5 18 00 	st.w [%a12]24,%d5
80005988:	19 c2 1c 00 	ld.w %d2,[%a12]28
8000598c:	19 c3 20 00 	ld.w %d3,[%a12]32
80005990:	0b 62 40 60 	addx %d6,%d2,%d6
80005994:	0b 53 50 50 	addc %d5,%d3,%d5
80005998:	59 c6 1c 00 	st.w [%a12]28,%d6
8000599c:	59 c5 20 00 	st.w [%a12]32,%d5
800059a0:	76 7e       	jz %d7,800059bc <gcov_exit.part.3+0x730>
800059a2:	d9 a2 58 11 	lea %a2,[%sp]5208
800059a6:	d9 af ac 02 	lea %a15,[%sp]10284
800059aa:	c5 04 35 90 	lea %a4,275 <CSA_REGIONS+0x175>
800059ae:	09 26 48 01 	ld.d %e6,[%a2+]8
800059b2:	89 f6 48 01 	st.d [%a15+]8 <70000008 <__CSA_BASE_CPU0_+0x8>>,%e6
800059b6:	fc 4c       	loop %a4,800059ae <gcov_exit.part.3+0x722>
800059b8:	1d 00 19 01 	j 80005bea <gcov_exit.part.3+0x95e>
800059bc:	d9 af 9c f3 	lea %a15,[%sp]15324
800059c0:	82 0f       	mov %d15,0
800059c2:	f8 0b       	st.a [%sp]44,%a15
800059c4:	78 0e       	st.w [%sp]56,%d15
800059c6:	d2 02       	mov %e2,0
800059c8:	c5 02 35 90 	lea %a2,275 <CSA_REGIONS+0x175>
800059cc:	89 f2 48 01 	st.d [%a15+]8 <70000008 <__CSA_BASE_CPU0_+0x8>>,%e2
800059d0:	fc 2e       	loop %a2,800059cc <gcov_exit.part.3+0x740>
800059d2:	da fb       	mov %d15,251
800059d4:	d2 0a       	mov %e10,0
800059d6:	82 03       	mov %d3,0
800059d8:	82 02       	mov %d2,0
800059da:	78 0c       	st.w [%sp]48,%d15
800059dc:	02 fd       	mov %d13,%d15
800059de:	58 0c       	ld.w %d15,[%sp]48
800059e0:	07 33 00 50 	nand.t %d5,%d3,0,%d3,0
800059e4:	8b 0f 80 54 	and.ge %d5,%d15,0
800059e8:	df 05 b8 00 	jeq %d5,0,80005b58 <gcov_exit.part.3+0x8cc>
800059ec:	80 a3       	mov.d %d3,%sp
800059ee:	58 0c       	ld.w %d15,[%sp]48
800059f0:	1b c3 82 32 	addi %d3,%d3,10284
800059f4:	13 4f 21 f3 	madd %d15,%d3,%d15,20
800059f8:	60 fd       	mov.a %a13,%d15
800059fa:	4c d0       	ld.w %d15,[%a13]0
800059fc:	09 d8 4c 09 	ld.d %e8,[%a13]12
80005a00:	78 0f       	st.w [%sp]60,%d15
80005a02:	58 0f       	ld.w %d15,[%sp]60
80005a04:	df 0f a4 00 	jeq %d15,0,80005b4c <gcov_exit.part.3+0x8c0>
80005a08:	58 0e       	ld.w %d15,[%sp]56
80005a0a:	1b 1d 00 50 	addi %d5,%d13,1
80005a0e:	8b fd 9f 62 	ge %d6,%d13,-1
80005a12:	ab 05 80 56 	sel %d5,%d6,%d5,0
80005a16:	ee 11       	jnz %d15,80005a38 <gcov_exit.part.3+0x7ac>
80005a18:	9f 05 04 80 	jned %d5,0,80005a20 <gcov_exit.part.3+0x794>
80005a1c:	1d 00 10 02 	j 80005e3c <gcov_exit.part.3+0xbb0>
80005a20:	13 4d 21 6e 	madd %d6,%d14,%d13,20
80005a24:	60 63       	mov.a %a3,%d6
80005a26:	19 36 24 00 	ld.w %d6,[%a3]36
80005a2a:	f6 63       	jnz %d6,80005a30 <gcov_exit.part.3+0x7a4>
80005a2c:	c2 fd       	add %d13,-1
80005a2e:	3c f5       	j 80005a18 <gcov_exit.part.3+0x78c>
80005a30:	09 3a 70 09 	ld.d %e10,[%a3]48
80005a34:	59 a6 38 00 	st.w [%sp]56,%d6
80005a38:	80 a3       	mov.d %d3,%sp
80005a3a:	19 a2 3c 00 	ld.w %d2,[%sp]60
80005a3e:	1b 03 fb 34 	addi %d3,%d3,20400
80005a42:	13 4d 21 33 	madd %d3,%d3,%d13,20
80005a46:	58 0e       	ld.w %d15,[%sp]56
80005a48:	0b ab 10 08 	mov %e0,%d11,%d10
80005a4c:	60 3f       	mov.a %a15,%d3
80005a4e:	19 d3 04 00 	ld.w %d3,[%a13]4
80005a52:	19 f7 6c 2c 	ld.w %d7,[%a15]-15188
80005a56:	19 f5 70 2c 	ld.w %d5,[%a15]-15184
80005a5a:	0b 2f 90 c1 	min.u %d12,%d15,%d2
80005a5e:	19 d2 08 00 	ld.w %d2,[%a13]8
80005a62:	0b 73 40 70 	addx %d7,%d3,%d7
80005a66:	0b 52 50 50 	addc %d5,%d2,%d5
80005a6a:	59 a7 08 10 	st.w [%sp]72,%d7
80005a6e:	60 5f       	mov.a %a15,%d5
80005a70:	7f fc 0c 80 	jge.u %d12,%d15,80005a88 <gcov_exit.part.3+0x7fc>
80005a74:	73 ac 68 40 	mul.u %e4,%d12,%d10
80005a78:	03 bc 0a 55 	madd %d5,%d5,%d12,%d11
80005a7c:	53 1f 40 60 	mul.u %e6,%d15,1
80005a80:	6d 00 c5 02 	call 8000600a <__divdi3>
80005a84:	0b 23 10 08 	mov %e0,%d3,%d2
80005a88:	58 0f       	ld.w %d15,[%sp]60
80005a8a:	0b 89 10 28 	mov %e2,%d9,%d8
80005a8e:	7f fc 12 80 	jge.u %d12,%d15,80005ab2 <gcov_exit.part.3+0x826>
80005a92:	73 8c 68 40 	mul.u %e4,%d12,%d8
80005a96:	03 9c 0a 55 	madd %d5,%d5,%d12,%d9
80005a9a:	53 1f 40 60 	mul.u %e6,%d15,1
80005a9e:	59 a0 18 00 	st.w [%sp]24,%d0
80005aa2:	59 a1 14 00 	st.w [%sp]20,%d1
80005aa6:	6d 00 b2 02 	call 8000600a <__divdi3>
80005aaa:	19 a1 14 00 	ld.w %d1,[%sp]20
80005aae:	19 a0 18 00 	ld.w %d0,[%sp]24
80005ab2:	0b 20 40 f0 	addx %d15,%d0,%d2
80005ab6:	78 16       	st.w [%sp]88,%d15
80005ab8:	0b 31 50 f0 	addc %d15,%d1,%d3
80005abc:	78 17       	st.w [%sp]92,%d15
80005abe:	58 0e       	ld.w %d15,[%sp]56
80005ac0:	0b 0a c0 a0 	subx %d10,%d10,%d0
80005ac4:	a2 cf       	sub %d15,%d12
80005ac6:	0b 1b d0 b0 	subc %d11,%d11,%d1
80005aca:	78 0e       	st.w [%sp]56,%d15
80005acc:	58 0f       	ld.w %d15,[%sp]60
80005ace:	0b 28 c0 80 	subx %d8,%d8,%d2
80005ad2:	80 f5       	mov.d %d5,%a15
80005ad4:	0b 39 d0 90 	subc %d9,%d9,%d3
80005ad8:	a2 cf       	sub %d15,%d12
80005ada:	19 a4 08 10 	ld.w %d4,[%sp]72
80005ade:	78 0f       	st.w [%sp]60,%d15
80005ae0:	6d ff 09 fa 	call 80004ef2 <gcov_histo_index>
80005ae4:	8b c2 8f 72 	ge %d7,%d2,252
80005ae8:	df 07 bb fd 	jne %d7,0,8000565e <gcov_exit.part.3+0x3d2>
80005aec:	80 a3       	mov.d %d3,%sp
80005aee:	58 16       	ld.w %d15,[%sp]88
80005af0:	1b c3 bd 33 	addi %d3,%d3,15324
80005af4:	13 42 21 33 	madd %d3,%d3,%d2,20
80005af8:	80 f4       	mov.d %d4,%a15
80005afa:	60 32       	mov.a %a2,%d3
80005afc:	19 a3 1c 10 	ld.w %d3,[%sp]92
80005b00:	54 26       	ld.w %d6,[%a2]
80005b02:	19 27 0c 00 	ld.w %d7,[%a2]12
80005b06:	42 c6       	add %d6,%d12
80005b08:	74 26       	st.w [%a2],%d6
80005b0a:	19 26 10 00 	ld.w %d6,[%a2]16
80005b0e:	0b f7 40 70 	addx %d7,%d7,%d15
80005b12:	0b 36 50 60 	addc %d6,%d6,%d3
80005b16:	59 26 10 00 	st.w [%a2]16,%d6
80005b1a:	19 26 08 00 	ld.w %d6,[%a2]8
80005b1e:	19 20 04 00 	ld.w %d0,[%a2]4
80005b22:	58 12       	ld.w %d15,[%sp]72
80005b24:	59 27 0c 00 	st.w [%a2]12,%d7
80005b28:	0b 64 00 71 	eq %d7,%d4,%d6
80005b2c:	0b 0f 30 72 	and.lt.u %d7,%d15,%d0
80005b30:	0b 64 90 72 	or.lt %d7,%d4,%d6
80005b34:	a6 06       	or %d6,%d0
80005b36:	8b 06 e0 74 	or.eq %d7,%d6,0
80005b3a:	8f f7 0f 71 	and %d7,%d7,255
80005b3e:	76 73       	jz %d7,80005b44 <gcov_exit.part.3+0x8b8>
80005b40:	6c 21       	st.w [%a2]4,%d15
80005b42:	ec 22       	st.a [%a2]8,%a15
80005b44:	58 0e       	ld.w %d15,[%sp]56
80005b46:	ca fd       	caddn %d13,%d15,-1
80005b48:	1d ff 5d ff 	j 80005a02 <gcov_exit.part.3+0x776>
80005b4c:	82 03       	mov %d3,0
80005b4e:	58 0c       	ld.w %d15,[%sp]48
80005b50:	c2 ff       	add %d15,-1
80005b52:	78 0c       	st.w [%sp]48,%d15
80005b54:	1d ff 45 ff 	j 800059de <gcov_exit.part.3+0x752>
80005b58:	ff 0f 83 7d 	jge %d15,0,8000565e <gcov_exit.part.3+0x3d2>
80005b5c:	58 0e       	ld.w %d15,[%sp]56
80005b5e:	8a fd       	cadd %d13,%d15,-1
80005b60:	1b 1d 00 30 	addi %d3,%d13,1
80005b64:	8b fd 9f 52 	ge %d5,%d13,-1
80005b68:	ab 03 80 35 	sel %d3,%d5,%d3,0
80005b6c:	9f 03 03 80 	jned %d3,0,80005b72 <gcov_exit.part.3+0x8e6>
80005b70:	3c 11       	j 80005b92 <gcov_exit.part.3+0x906>
80005b72:	80 a4       	mov.d %d4,%sp
80005b74:	1b 04 fb 44 	addi %d4,%d4,20400
80005b78:	13 4d 21 44 	madd %d4,%d4,%d13,20
80005b7c:	c2 fd       	add %d13,-1
80005b7e:	60 42       	mov.a %a2,%d4
80005b80:	19 26 74 2c 	ld.w %d6,[%a2]-15180
80005b84:	19 25 78 2c 	ld.w %d5,[%a2]-15176
80005b88:	0b 6a 40 a0 	addx %d10,%d10,%d6
80005b8c:	0b 5b 50 b0 	addc %d11,%d11,%d5
80005b90:	3c ee       	j 80005b6c <gcov_exit.part.3+0x8e0>
80005b92:	8b c2 af 32 	ge.u %d3,%d2,252
80005b96:	df 03 64 fd 	jne %d3,0,8000565e <gcov_exit.part.3+0x3d2>
80005b9a:	53 42 21 f0 	mul %d15,%d2,20
80005b9e:	d9 a2 9c f3 	lea %a2,[%sp]15324
80005ba2:	10 2f       	addsc.a %a15,%a2,%d15,0
80005ba4:	48 02       	ld.w %d2,[%a15]0
80005ba6:	df 02 5c 7d 	jeq %d2,0,8000565e <gcov_exit.part.3+0x3d2>
80005baa:	48 35       	ld.w %d5,[%a15]12
80005bac:	48 43       	ld.w %d3,[%a15]16
80005bae:	0b a5 40 50 	addx %d5,%d5,%d10
80005bb2:	0b b3 50 30 	addc %d3,%d3,%d11
80005bb6:	68 35       	st.w [%a15]12,%d5
80005bb8:	68 43       	st.w [%a15]16,%d3
80005bba:	d9 af ac 02 	lea %a15,[%sp]10284
80005bbe:	c5 03 35 90 	lea %a3,275 <CSA_REGIONS+0x175>
80005bc2:	09 26 48 01 	ld.d %e6,[%a2+]8
80005bc6:	89 f6 48 01 	st.d [%a15+]8,%e6
80005bca:	fc 3c       	loop %a3,80005bc2 <gcov_exit.part.3+0x936>
80005bcc:	3c 0f       	j 80005bea <gcov_exit.part.3+0x95e>
80005bce:	19 c2 08 00 	ld.w %d2,[%a12]8
80005bd2:	76 2c       	jz %d2,80005bea <gcov_exit.part.3+0x95e>
80005bd4:	91 00 00 27 	movh.a %a2,28672
80005bd8:	19 22 44 a6 	ld.w %d2,[%a2]26244 <70006684 <gi_filename>>
80005bdc:	91 10 00 48 	movh.a %a4,32769
80005be0:	74 a2       	st.w [%sp],%d2
80005be2:	d9 44 a9 ea 	lea %a4,[%a4]-21591 <8000aba9 <board_led+0x421>>
80005be6:	1d ff 0b fd 	j 800055fc <gcov_exit.part.3+0x370>
80005bea:	19 a3 28 10 	ld.w %d3,[%sp]104
80005bee:	df 03 19 80 	jne %d3,0,80005c20 <gcov_exit.part.3+0x994>
80005bf2:	19 c5 08 00 	ld.w %d5,[%a12]8
80005bf6:	df 05 15 00 	jeq %d5,0,80005c20 <gcov_exit.part.3+0x994>
80005bfa:	19 c2 04 00 	ld.w %d2,[%a12]4
80005bfe:	59 a5 28 10 	st.w [%sp]104,%d5
80005c02:	59 a2 24 10 	st.w [%sp]100,%d2
80005c06:	09 c2 4c 09 	ld.d %e2,[%a12]12
80005c0a:	89 a2 6c 19 	st.d [%sp]108,%e2
80005c0e:	09 c2 54 09 	ld.d %e2,[%a12]20
80005c12:	89 a2 74 19 	st.d [%sp]116,%e2
80005c16:	09 c2 5c 09 	ld.d %e2,[%a12]28
80005c1a:	89 a2 7c 19 	st.d [%sp]124,%e2
80005c1e:	3c 45       	j 80005ca8 <gcov_exit.part.3+0xa1c>
80005c20:	19 a2 20 10 	ld.w %d2,[%sp]96
80005c24:	df 02 42 80 	jne %d2,0,80005ca8 <gcov_exit.part.3+0xa1c>
80005c28:	19 a2 24 10 	ld.w %d2,[%sp]100
80005c2c:	19 c4 04 00 	ld.w %d4,[%a12]4
80005c30:	5f 42 2e 80 	jne %d2,%d4,80005c8c <gcov_exit.part.3+0xa00>
80005c34:	19 c2 08 00 	ld.w %d2,[%a12]8
80005c38:	5f 23 2a 80 	jne %d3,%d2,80005c8c <gcov_exit.part.3+0xa00>
80005c3c:	19 a5 2c 10 	ld.w %d5,[%sp]108
80005c40:	19 c4 0c 00 	ld.w %d4,[%a12]12
80005c44:	19 a2 30 10 	ld.w %d2,[%sp]112
80005c48:	19 c6 10 00 	ld.w %d6,[%a12]16
80005c4c:	0b 45 10 31 	ne %d3,%d5,%d4
80005c50:	0b 62 80 32 	or.ne %d3,%d2,%d6
80005c54:	df 03 1c 80 	jne %d3,0,80005c8c <gcov_exit.part.3+0xa00>
80005c58:	19 a5 34 10 	ld.w %d5,[%sp]116
80005c5c:	19 c4 14 00 	ld.w %d4,[%a12]20
80005c60:	19 a2 38 10 	ld.w %d2,[%sp]120
80005c64:	19 c6 18 00 	ld.w %d6,[%a12]24
80005c68:	0b 45 10 31 	ne %d3,%d5,%d4
80005c6c:	0b 62 80 32 	or.ne %d3,%d2,%d6
80005c70:	f6 3e       	jnz %d3,80005c8c <gcov_exit.part.3+0xa00>
80005c72:	19 a5 3c 10 	ld.w %d5,[%sp]124
80005c76:	19 c4 1c 00 	ld.w %d4,[%a12]28
80005c7a:	19 a2 00 20 	ld.w %d2,[%sp]128
80005c7e:	19 c6 20 00 	ld.w %d6,[%a12]32
80005c82:	0b 45 00 31 	eq %d3,%d5,%d4
80005c86:	0b 62 00 32 	and.eq %d3,%d2,%d6
80005c8a:	f6 3f       	jnz %d3,80005ca8 <gcov_exit.part.3+0xa1c>
80005c8c:	91 00 00 27 	movh.a %a2,28672
80005c90:	19 23 44 a6 	ld.w %d3,[%a2]26244 <70006684 <gi_filename>>
80005c94:	91 10 00 48 	movh.a %a4,32769
80005c98:	74 a3       	st.w [%sp],%d3
80005c9a:	d9 44 93 fa 	lea %a4,[%a4]-21549 <8000abd3 <board_led+0x44b>>
80005c9e:	6d ff 46 f9 	call 80004f2a <gcov_error>
80005ca2:	82 f3       	mov %d3,-1
80005ca4:	59 a3 20 10 	st.w [%sp]96,%d3
80005ca8:	58 10       	ld.w %d15,[%sp]64
80005caa:	6c c0       	st.w [%a12]0,%d15
80005cac:	58 13       	ld.w %d15,[%sp]76
80005cae:	ee 0f       	jnz %d15,80005ccc <gcov_exit.part.3+0xa40>
80005cb0:	7b 30 76 46 	movh %d4,26467
80005cb4:	7b 00 43 53 	movh %d5,13360
80005cb8:	1b 14 46 46 	addi %d4,%d4,25697
80005cbc:	1b a5 92 53 	addi %d5,%d5,14634
80005cc0:	6d ff db f9 	call 80005076 <__gcov_write_tag_length>
80005cc4:	19 e4 08 00 	ld.w %d4,[%a14]8
80005cc8:	6d ff c8 f9 	call 80005058 <__gcov_write_unsigned>
80005ccc:	58 11       	ld.w %d15,[%sp]68
80005cce:	6e 04       	jz %d15,80005cd6 <gcov_exit.part.3+0xa4a>
80005cd0:	02 f4       	mov %d4,%d15
80005cd2:	6d ff c2 fa 	call 80005256 <__gcov_seek>
80005cd6:	7b 00 30 4a 	movh %d4,41728
80005cda:	40 c4       	mov.aa %a4,%a12
80005cdc:	6d ff d6 f9 	call 80005088 <__gcov_write_summary>
80005ce0:	91 00 00 f7 	movh.a %a15,28672
80005ce4:	d9 ff 7c 96 	lea %a15,[%a15]26236 <7000667c <sum_buffer>>
80005ce8:	c8 04       	ld.a %a4,[%a15]0
80005cea:	bd 04 15 00 	jz.a %a4,80005d14 <gcov_exit.part.3+0xa88>
80005cee:	7b 00 30 4a 	movh %d4,41728
80005cf2:	b0 44       	add.a %a4,4
80005cf4:	6d ff ca f9 	call 80005088 <__gcov_write_summary>
80005cf8:	91 00 00 27 	movh.a %a2,28672
80005cfc:	d9 22 7c 96 	lea %a2,[%a2]26236 <7000667c <sum_buffer>>
80005d00:	d4 24       	ld.a %a4,[%a2]
80005d02:	54 48       	ld.w %d8,[%a4]
80005d04:	6d 00 d9 08 	call 80006eb6 <free>
80005d08:	91 00 00 37 	movh.a %a3,28672
80005d0c:	d9 33 7c 96 	lea %a3,[%a3]26236 <7000667c <sum_buffer>>
80005d10:	74 38       	st.w [%a3],%d8
80005d12:	3c e7       	j 80005ce0 <gcov_exit.part.3+0xa54>
80005d14:	82 08       	mov %d8,0
80005d16:	82 0d       	mov %d13,0
80005d18:	19 e2 34 00 	ld.w %d2,[%a14]52
80005d1c:	5f 28 63 00 	jeq %d8,%d2,80005de2 <gcov_exit.part.3+0xb56>
80005d20:	91 00 00 27 	movh.a %a2,28672
80005d24:	d9 22 40 a6 	lea %a2,[%a2]26240 <70006680 <fn_buffer>>
80005d28:	cc 20       	ld.a %a15,[%a2]0
80005d2a:	bc f8       	jz.a %a15,80005d3a <gcov_exit.part.3+0xaae>
80005d2c:	48 12       	ld.w %d2,[%a15]4
80005d2e:	82 39       	mov %d9,3
80005d30:	d9 ff 08 00 	lea %a15,[%a15]8 <70000008 <__CSA_BASE_CPU0_+0x8>>
80005d34:	82 1b       	mov %d11,1
80005d36:	5f 82 0e 00 	jeq %d2,%d8,80005d52 <gcov_exit.part.3+0xac6>
80005d3a:	cc ee       	ld.a %a15,[%a14]56
80005d3c:	82 09       	mov %d9,0
80005d3e:	82 0b       	mov %d11,0
80005d40:	01 f8 02 f6 	addsc.a %a15,%a15,%d8,2
80005d44:	c8 0f       	ld.a %a15,[%a15]0
80005d46:	bc f6       	jz.a %a15,80005d52 <gcov_exit.part.3+0xac6>
80005d48:	c8 02       	ld.a %a2,[%a15]0
80005d4a:	01 e2 10 94 	ne.a %d9,%a2,%a14
80005d4e:	ab 3d 80 99 	sel %d9,%d9,%d13,3
80005d52:	7b 00 10 40 	movh %d4,256
80005d56:	02 95       	mov %d5,%d9
80005d58:	6d ff 8f f9 	call 80005076 <__gcov_write_tag_length>
80005d5c:	df 09 41 00 	jeq %d9,0,80005dde <gcov_exit.part.3+0xb52>
80005d60:	48 14       	ld.w %d4,[%a15]4
80005d62:	6d ff 7b f9 	call 80005058 <__gcov_write_unsigned>
80005d66:	48 24       	ld.w %d4,[%a15]8
80005d68:	6d ff 78 f9 	call 80005058 <__gcov_write_unsigned>
80005d6c:	48 34       	ld.w %d4,[%a15]12
80005d6e:	6d ff 75 f9 	call 80005058 <__gcov_write_unsigned>
80005d72:	d9 ff 10 00 	lea %a15,[%a15]16
80005d76:	82 09       	mov %d9,0
80005d78:	01 e9 02 26 	addsc.a %a2,%a14,%d9,2
80005d7c:	19 23 10 00 	ld.w %d3,[%a2]16
80005d80:	df 03 19 00 	jeq %d3,0,80005db2 <gcov_exit.part.3+0xb26>
80005d84:	48 0c       	ld.w %d12,[%a15]0
80005d86:	8f 19 01 40 	sh %d4,%d9,17
80005d8a:	9b 14 1a 40 	addih %d4,%d4,417
80005d8e:	8f 1c 00 50 	sh %d5,%d12,1
80005d92:	6d ff 72 f9 	call 80005076 <__gcov_write_tag_length>
80005d96:	c8 1c       	ld.a %a12,[%a15]4
80005d98:	82 0a       	mov %d10,0
80005d9a:	01 ca 03 26 	addsc.a %a2,%a12,%d10,3
80005d9e:	5f ca 08 00 	jeq %d10,%d12,80005dae <gcov_exit.part.3+0xb22>
80005da2:	09 24 40 09 	ld.d %e4,[%a2]
80005da6:	6d ff 5f f9 	call 80005064 <__gcov_write_counter>
80005daa:	c2 1a       	add %d10,1
80005dac:	3c f7       	j 80005d9a <gcov_exit.part.3+0xb0e>
80005dae:	d9 ff 08 00 	lea %a15,[%a15]8
80005db2:	c2 19       	add %d9,1
80005db4:	8b 99 20 32 	ne %d3,%d9,9
80005db8:	df 03 e0 ff 	jne %d3,0,80005d78 <gcov_exit.part.3+0xaec>
80005dbc:	df 0b 11 00 	jeq %d11,0,80005dde <gcov_exit.part.3+0xb52>
80005dc0:	91 00 00 37 	movh.a %a3,28672
80005dc4:	d9 33 40 a6 	lea %a3,[%a3]26240 <70006680 <fn_buffer>>
80005dc8:	d4 35       	ld.a %a5,[%a3]
80005dca:	40 e4       	mov.aa %a4,%a14
80005dcc:	3b 90 00 40 	mov %d4,9
80005dd0:	6d ff 73 f8 	call 80004eb6 <free_fn_data>
80005dd4:	91 00 00 47 	movh.a %a4,28672
80005dd8:	d9 44 40 a6 	lea %a4,[%a4]26240 <70006680 <fn_buffer>>
80005ddc:	f4 42       	st.a [%a4],%a2
80005dde:	c2 18       	add %d8,1
80005de0:	3c 9c       	j 80005d18 <gcov_exit.part.3+0xa8c>
80005de2:	82 04       	mov %d4,0
80005de4:	6d ff 3a f9 	call 80005058 <__gcov_write_unsigned>
80005de8:	1d ff 0c fc 	j 80005600 <gcov_exit.part.3+0x374>
80005dec:	91 00 00 27 	movh.a %a2,28672
80005df0:	d9 22 40 a6 	lea %a2,[%a2]26240 <70006680 <fn_buffer>>
80005df4:	d4 25       	ld.a %a5,[%a2]
80005df6:	bd 05 d9 7b 	jz.a %a5,800055a8 <gcov_exit.part.3+0x31c>
80005dfa:	40 e4       	mov.aa %a4,%a14
80005dfc:	3b 90 00 40 	mov %d4,9
80005e00:	6d ff 5b f8 	call 80004eb6 <free_fn_data>
80005e04:	e8 02       	st.a [%a15]0,%a2
80005e06:	3c f3       	j 80005dec <gcov_exit.part.3+0xb60>
80005e08:	91 10 00 f8 	movh.a %a15,32769
80005e0c:	d9 f4 ae aa 	lea %a4,[%a15]-21842 <8000aaae <board_led+0x326>>
80005e10:	0e 25       	jltz %d2,80005e1a <gcov_exit.part.3+0xb8e>
80005e12:	91 10 00 f8 	movh.a %a15,32769
80005e16:	d9 f4 8d ba 	lea %a4,[%a15]-21811 <8000aacd <board_led+0x345>>
80005e1a:	91 00 00 27 	movh.a %a2,28672
80005e1e:	19 22 44 a6 	ld.w %d2,[%a2]26244 <70006684 <gi_filename>>
80005e22:	74 a2       	st.w [%sp],%d2
80005e24:	6d ff 83 f8 	call 80004f2a <gcov_error>
80005e28:	1d ff c4 fb 	j 800055b0 <gcov_exit.part.3+0x324>
80005e2c:	91 10 00 28 	movh.a %a2,32769
80005e30:	d9 22 8e aa 	lea %a2,[%a2]-21874 <8000aa8e <board_led+0x306>>
80005e34:	02 95       	mov %d5,%d9
80005e36:	80 23       	mov.d %d3,%a2
80005e38:	1d ff ea fc 	j 8000580c <gcov_exit.part.3+0x580>
80005e3c:	58 0c       	ld.w %d15,[%sp]48
80005e3e:	d9 a5 9c f3 	lea %a5,[%sp]15324 <8001000c <__crt0_config+0x3fd0>>
80005e42:	53 4f 21 40 	mul %d4,%d15,20
80005e46:	19 a3 3c 00 	ld.w %d3,[%sp]60
80005e4a:	60 42       	mov.a %a2,%d4
80005e4c:	30 25       	add.a %a5,%a2
80005e4e:	4c 50       	ld.w %d15,[%a5]0
80005e50:	19 55 0c 00 	ld.w %d5,[%a5]12
80005e54:	42 f3       	add %d3,%d15
80005e56:	0b 85 40 50 	addx %d5,%d5,%d8
80005e5a:	74 53       	st.w [%a5],%d3
80005e5c:	19 53 10 00 	ld.w %d3,[%a5]16
80005e60:	59 55 0c 00 	st.w [%a5]12,%d5
80005e64:	19 57 04 00 	ld.w %d7,[%a5]4
80005e68:	19 55 08 00 	ld.w %d5,[%a5]8
80005e6c:	0b 93 50 30 	addc %d3,%d3,%d9
80005e70:	59 53 10 00 	st.w [%a5]16,%d3
80005e74:	0f 75 a0 30 	or %d3,%d5,%d7
80005e78:	76 3c       	jz %d3,80005e90 <gcov_exit.part.3+0xc04>
80005e7a:	19 d6 08 00 	ld.w %d6,[%a13]8
80005e7e:	19 d0 04 00 	ld.w %d0,[%a13]4
80005e82:	0b 56 00 31 	eq %d3,%d6,%d5
80005e86:	0b 70 50 32 	and.ge.u %d3,%d0,%d7
80005e8a:	0b 65 90 32 	or.lt %d3,%d5,%d6
80005e8e:	f6 39       	jnz %d3,80005ea0 <gcov_exit.part.3+0xc14>
80005e90:	60 44       	mov.a %a4,%d4
80005e92:	d9 a2 9c f3 	lea %a2,[%sp]15324
80005e96:	09 d4 44 09 	ld.d %e4,[%a13]4
80005e9a:	30 42       	add.a %a2,%a4
80005e9c:	89 24 44 09 	st.d [%a2]4,%e4
80005ea0:	99 a4 30 00 	ld.a %a4,[%sp]48
80005ea4:	58 0c       	ld.w %d15,[%sp]48
80005ea6:	c2 ff       	add %d15,-1
80005ea8:	78 0c       	st.w [%sp]48,%d15
80005eaa:	fd 40 05 00 	loop %a4,80005eb4 <gcov_exit.part.3+0xc28>
80005eae:	82 13       	mov %d3,1
80005eb0:	1d ff 4f fe 	j 80005b4e <gcov_exit.part.3+0x8c2>
80005eb4:	58 0c       	ld.w %d15,[%sp]48
80005eb6:	d9 a2 9c f3 	lea %a2,[%sp]15324
80005eba:	53 4f 21 00 	mul %d0,%d15,20
80005ebe:	1b 40 02 30 	addi %d3,%d0,36
80005ec2:	60 03       	mov.a %a3,%d0
80005ec4:	01 c3 00 56 	addsc.a %a5,%a12,%d3,0
80005ec8:	30 32       	add.a %a2,%a3
80005eca:	54 24       	ld.w %d4,[%a2]
80005ecc:	54 53       	ld.w %d3,[%a5]
80005ece:	19 56 0c 00 	ld.w %d6,[%a5]12
80005ed2:	42 43       	add %d3,%d4
80005ed4:	74 23       	st.w [%a2],%d3
80005ed6:	19 23 0c 00 	ld.w %d3,[%a2]12
80005eda:	19 24 10 00 	ld.w %d4,[%a2]16
80005ede:	19 55 10 00 	ld.w %d5,[%a5]16
80005ee2:	0b 63 40 60 	addx %d6,%d3,%d6
80005ee6:	0b 54 50 50 	addc %d5,%d4,%d5
80005eea:	59 25 10 00 	st.w [%a2]16,%d5
80005eee:	19 27 04 00 	ld.w %d7,[%a2]4
80005ef2:	19 25 08 00 	ld.w %d5,[%a2]8
80005ef6:	59 26 0c 00 	st.w [%a2]12,%d6
80005efa:	0f 75 a0 30 	or %d3,%d5,%d7
80005efe:	76 3d       	jz %d3,80005f18 <gcov_exit.part.3+0xc8c>
80005f00:	19 56 08 00 	ld.w %d6,[%a5]8
80005f04:	19 54 04 00 	ld.w %d4,[%a5]4
80005f08:	0b 56 00 31 	eq %d3,%d6,%d5
80005f0c:	0b 74 50 32 	and.ge.u %d3,%d4,%d7
80005f10:	0b 65 90 32 	or.lt %d3,%d5,%d6
80005f14:	df 03 c8 ff 	jne %d3,0,80005ea4 <gcov_exit.part.3+0xc18>
80005f18:	60 03       	mov.a %a3,%d0
80005f1a:	d9 a2 9c f3 	lea %a2,[%sp]15324
80005f1e:	09 54 44 09 	ld.d %e4,[%a5]4
80005f22:	30 32       	add.a %a2,%a3
80005f24:	89 24 44 09 	st.d [%a2]4,%e4
80005f28:	3c be       	j 80005ea4 <gcov_exit.part.3+0xc18>
80005f2a:	00 90       	ret 

80005f2c <gcov_exit>:
80005f2c:	91 00 00 f7 	movh.a %a15,28672
80005f30:	19 ff 48 a6 	ld.w %d15,[%a15]26248 <70006688 <gcov_dump_complete>>
80005f34:	ee 03       	jnz %d15,80005f3a <gcov_exit+0xe>
80005f36:	1d ff ab f9 	j 8000528c <gcov_exit.part.3>
80005f3a:	00 90       	ret 

80005f3c <__gcov_init>:
80005f3c:	54 44       	ld.w %d4,[%a4]
80005f3e:	df 04 29 00 	jeq %d4,0,80005f90 <__gcov_init+0x54>
80005f42:	4c 4d       	ld.w %d15,[%a4]52
80005f44:	6e 26       	jz %d15,80005f90 <__gcov_init+0x54>
80005f46:	40 4f       	mov.aa %a15,%a4
80005f48:	a0 05       	mov.a %a5,0
80005f4a:	d9 44 0c 00 	lea %a4,[%a4]12
80005f4e:	6d ff f7 f7 	call 80004f3c <gcov_version.isra.1>
80005f52:	df 02 1d 00 	jeq %d2,0,80005f8c <__gcov_init+0x50>
80005f56:	c8 34       	ld.a %a4,[%a15]12
80005f58:	6d 00 5e 0b 	call 80007614 <strlen>
80005f5c:	91 00 00 27 	movh.a %a2,28672
80005f60:	19 2f 4c a6 	ld.w %d15,[%a2]26252 <7000668c <gcov_max_filename>>
80005f64:	7f 2f 04 80 	jge.u %d15,%d2,80005f6c <__gcov_init+0x30>
80005f68:	59 22 4c a6 	st.w [%a2]26252 <7000668c <gcov_max_filename>>,%d2
80005f6c:	91 00 00 c7 	movh.a %a12,28672
80005f70:	19 cf 50 a6 	ld.w %d15,[%a12]26256 <70006690 <gcov_list>>
80005f74:	ee 07       	jnz %d15,80005f82 <__gcov_init+0x46>
80005f76:	91 00 00 48 	movh.a %a4,32768
80005f7a:	d9 44 ec c5 	lea %a4,[%a4]24364 <80005f2c <gcov_exit>>
80005f7e:	6d 00 36 01 	call 800061ea <atexit>
80005f82:	19 cf 50 a6 	ld.w %d15,[%a12]26256 <70006690 <gcov_list>>
80005f86:	b5 cf 50 a6 	st.a [%a12]26256 <70006690 <gcov_list>>,%a15
80005f8a:	68 1f       	st.w [%a15]4,%d15
80005f8c:	82 0f       	mov %d15,0
80005f8e:	68 0f       	st.w [%a15]0,%d15
80005f90:	00 90       	ret 

80005f92 <__lshrdi3>:
80005f92:	6f 56 0c 80 	jnz.t %d6,5,80005faa <__lshrdi3+0x18>
80005f96:	8b 06 02 71 	rsub %d7,%d6,32
80005f9a:	32 56       	rsub %d6
80005f9c:	17 45 80 27 	dextr %d2,%d5,%d4,%d7
80005fa0:	0f 65 00 30 	sh %d3,%d5,%d6
80005fa4:	2b 42 40 26 	sel %d2,%d6,%d2,%d4
80005fa8:	00 90       	ret 
80005faa:	8b 06 02 60 	add %d6,%d6,32
80005fae:	32 56       	rsub %d6
80005fb0:	0f 65 00 20 	sh %d2,%d5,%d6
80005fb4:	82 03       	mov %d3,0
80005fb6:	00 90       	ret 

80005fb8 <memcpy>:
80005fb8:	40 42       	mov.aa %a2,%a4
80005fba:	76 46       	jz %d4,80005fc6 <memcpy+0xe>
80005fbc:	60 43       	mov.a %a3,%d4
80005fbe:	b0 f3       	add.a %a3,-1
80005fc0:	04 54       	ld.bu %d4,[%a5+]
80005fc2:	24 44       	st.b [%a4+],%d4
80005fc4:	fc 3e       	loop %a3,80005fc0 <memcpy+0x8>
80005fc6:	00 90       	ret 

80005fc8 <__popcountsi2>:
80005fc8:	7b 50 55 25 	movh %d2,21845
80005fcc:	8f f4 1f f0 	sh %d15,%d4,-1
80005fd0:	1b 52 55 25 	addi %d2,%d2,21845
80005fd4:	26 2f       	and %d15,%d2
80005fd6:	a2 f4       	sub %d4,%d15
80005fd8:	7b 30 33 f3 	movh %d15,13107
80005fdc:	1b 3f 33 f3 	addi %d15,%d15,13107
80005fe0:	0f f4 80 30 	and %d3,%d4,%d15
80005fe4:	06 e4       	sh %d4,-2
80005fe6:	26 f4       	and %d4,%d15
80005fe8:	42 34       	add %d4,%d3
80005fea:	8f c4 1f f0 	sh %d15,%d4,-4
80005fee:	7b f0 f0 30 	movh %d3,3855
80005ff2:	42 4f       	add %d15,%d4
80005ff4:	1b f3 f0 30 	addi %d3,%d3,3855
80005ff8:	7b 10 10 20 	movh %d2,257
80005ffc:	26 3f       	and %d15,%d3
80005ffe:	1b 12 10 20 	addi %d2,%d2,257
80006002:	e2 f2       	mul %d2,%d15
80006004:	8f 82 1e 20 	sh %d2,%d2,-24
80006008:	00 90       	ret 

8000600a <__divdi3>:
8000600a:	02 53       	mov %d3,%d5
8000600c:	32 55       	rsub %d5
8000600e:	02 6f       	mov %d15,%d6
80006010:	8b 04 00 81 	rsub %d8,%d4,0
80006014:	ab f5 1f 54 	cadd %d5,%d4,%d5,-1
80006018:	0e 33       	jltz %d3,8000601e <__divdi3+0x14>
8000601a:	02 48       	mov %d8,%d4
8000601c:	02 35       	mov %d5,%d3
8000601e:	0e 75       	jltz %d7,80006028 <__divdi3+0x1e>
80006020:	0f f7 a0 20 	or %d2,%d7,%d15
80006024:	76 28       	jz %d2,80006034 <__divdi3+0x2a>
80006026:	3c 10       	j 80006046 <__divdi3+0x3c>
80006028:	8b 07 00 01 	rsub %d0,%d7,0
8000602c:	8b 0f 00 61 	rsub %d6,%d15,0
80006030:	8a f0       	cadd %d0,%d15,-1
80006032:	3c 0c       	j 8000604a <__divdi3+0x40>
80006034:	82 f1       	mov %d1,-1
80006036:	9b 01 00 f8 	addih %d15,%d1,32768
8000603a:	ff 03 2a 00 	jge %d3,0,8000608e <__divdi3+0x84>
8000603e:	82 01       	mov %d1,0
80006040:	7b 00 00 f8 	movh %d15,32768
80006044:	3c 25       	j 8000608e <__divdi3+0x84>
80006046:	02 f6       	mov %d6,%d15
80006048:	02 70       	mov %d0,%d7
8000604a:	7b 00 00 28 	movh %d2,32768
8000604e:	0b 23 00 21 	eq %d2,%d3,%d2
80006052:	26 7f       	and %d15,%d7
80006054:	ba ff       	eq %d15,%d15,-1
80006056:	8b 04 00 24 	and.eq %d2,%d4,0
8000605a:	26 f2       	and %d2,%d15
8000605c:	82 f1       	mov %d1,-1
8000605e:	9b 01 00 f8 	addih %d15,%d1,32768
80006062:	df 02 16 80 	jne %d2,0,8000608e <__divdi3+0x84>
80006066:	02 7f       	mov %d15,%d7
80006068:	02 84       	mov %d4,%d8
8000606a:	02 07       	mov %d7,%d0
8000606c:	02 39       	mov %d9,%d3
8000606e:	6d 00 13 00 	call 80006094 <__udivdi3>
80006072:	8f 1f 1e 70 	sh %d7,%d15,-31
80006076:	8b 09 80 42 	ge %d4,%d9,0
8000607a:	8b 03 00 f1 	rsub %d15,%d3,0
8000607e:	8b 02 00 11 	rsub %d1,%d2,0
80006082:	ab ff 1f f2 	cadd %d15,%d2,%d15,-1
80006086:	5f 74 04 00 	jeq %d4,%d7,8000608e <__divdi3+0x84>
8000608a:	02 21       	mov %d1,%d2
8000608c:	02 3f       	mov %d15,%d3
8000608e:	0b 1f 10 28 	mov %e2,%d15,%d1
80006092:	00 90       	ret 

80006094 <__udivdi3>:
80006094:	0f 67 a0 20 	or %d2,%d7,%d6
80006098:	0b 45 10 a8 	mov %e10,%d5,%d4
8000609c:	02 6f       	mov %d15,%d6
8000609e:	02 7c       	mov %d12,%d7
800060a0:	d2 f8       	mov %e8,-1
800060a2:	df 02 46 00 	jeq %d2,0,8000612e <__udivdi3+0x9a>
800060a6:	8f 07 40 21 	or %d2,%d7,0
800060aa:	f6 2d       	jnz %d2,800060c4 <__udivdi3+0x30>
800060ac:	4b 6b 11 82 	div.u %e8,%d11,%d6
800060b0:	d2 04       	mov %e4,0
800060b2:	02 a4       	mov %d4,%d10
800060b4:	42 95       	add %d5,%d9
800060b6:	6d 00 4c 00 	call 8000614e <__udiv6432>
800060ba:	82 04       	mov %d4,0
800060bc:	02 85       	mov %d5,%d8
800060be:	13 12 40 84 	madd.u %e8,%e4,%d2,1
800060c2:	3c 36       	j 8000612e <__udivdi3+0x9a>
800060c4:	0b 7b 00 21 	eq %d2,%d11,%d7
800060c8:	0b 64 30 22 	and.lt.u %d2,%d4,%d6
800060cc:	0b 7b a0 22 	or.lt.u %d2,%d11,%d7
800060d0:	d2 08       	mov %e8,0
800060d2:	df 02 2e 80 	jne %d2,0,8000612e <__udivdi3+0x9a>
800060d6:	77 4b 80 5f 	dextr %d5,%d11,%d4,31
800060da:	0f 07 b0 d1 	clz %d13,%d7
800060de:	60 5f       	mov.a %a15,%d5
800060e0:	0b 67 10 48 	mov %e4,%d7,%d6
800060e4:	02 d6       	mov %d6,%d13
800060e6:	6d 00 27 00 	call 80006134 <__ashldi3>
800060ea:	8f fb 1f e0 	sh %d14,%d11,-1
800060ee:	80 f4       	mov.d %d4,%a15
800060f0:	02 36       	mov %d6,%d3
800060f2:	02 e5       	mov %d5,%d14
800060f4:	6d 00 2d 00 	call 8000614e <__udiv6432>
800060f8:	8b fd 01 d1 	rsub %d13,%d13,31
800060fc:	8b 0d 00 31 	rsub %d3,%d13,0
80006100:	0f 32 00 30 	sh %d3,%d2,%d3
80006104:	02 32       	mov %d2,%d3
80006106:	8b f2 9f 80 	addx %d8,%d2,-1
8000610a:	23 f8 68 aa 	msub.u %e10,%e10,%d8,%d15
8000610e:	82 03       	mov %d3,0
80006110:	8b f3 bf 90 	addc %d9,%d3,-1
80006114:	23 c8 0a bb 	msub %d11,%d11,%d8,%d12
80006118:	23 f9 0a bb 	msub %d11,%d11,%d9,%d15
8000611c:	0b cb 00 41 	eq %d4,%d11,%d12
80006120:	0b fa 30 42 	and.lt.u %d4,%d10,%d15
80006124:	0b cb a0 42 	or.lt.u %d4,%d11,%d12
80006128:	f6 43       	jnz %d4,8000612e <__udivdi3+0x9a>
8000612a:	0b 23 10 88 	mov %e8,%d3,%d2
8000612e:	0b 89 10 28 	mov %e2,%d9,%d8
80006132:	00 90       	ret 

80006134 <__ashldi3>:
80006134:	6f 56 07 80 	jnz.t %d6,5,80006142 <__ashldi3+0xe>
80006138:	0f 64 00 20 	sh %d2,%d4,%d6
8000613c:	17 45 80 36 	dextr %d3,%d5,%d4,%d6
80006140:	00 90       	ret 
80006142:	8b 06 1e 60 	add %d6,%d6,-32
80006146:	82 02       	mov %d2,0
80006148:	0f 64 00 30 	sh %d3,%d4,%d6
8000614c:	00 90       	ret 

8000614e <__udiv6432>:
8000614e:	02 53       	mov %d3,%d5
80006150:	82 f2       	mov %d2,-1
80006152:	7f 65 4b 80 	jge.u %d5,%d6,800061e8 <__udiv6432+0x9a>
80006156:	0f 06 b0 21 	clz %d2,%d6
8000615a:	0f 26 00 60 	sh %d6,%d6,%d2
8000615e:	17 45 80 52 	dextr %d5,%d5,%d4,%d2
80006162:	2b 35 40 32 	sel %d3,%d2,%d5,%d3
80006166:	8f 06 1f 70 	sh %d7,%d6,-16
8000616a:	4b 73 11 02 	div.u %e0,%d3,%d7
8000616e:	b7 06 10 88 	insert %d8,%d6,0,16,16
80006172:	0f 24 00 20 	sh %d2,%d4,%d2
80006176:	02 05       	mov %d5,%d0
80006178:	23 07 0a 13 	msub %d1,%d3,%d7,%d0
8000617c:	e2 80       	mul %d0,%d8
8000617e:	8f 02 1f b0 	sh %d11,%d2,-16
80006182:	b7 02 10 28 	insert %d2,%d2,0,16,16
80006186:	82 0c       	mov %d12,0
80006188:	7b 10 00 90 	movh %d9,1
8000618c:	7f 95 09 80 	jge.u %d5,%d9,8000619e <__udiv6432+0x50>
80006190:	8f 01 01 f0 	sh %d15,%d1,16
80006194:	0b 0c 00 a0 	add %d10,%d12,%d0
80006198:	42 bf       	add %d15,%d11
8000619a:	7f af 07 80 	jge.u %d15,%d10,800061a8 <__udiv6432+0x5a>
8000619e:	42 71       	add %d1,%d7
800061a0:	c2 f5       	add %d5,-1
800061a2:	a2 8c       	sub %d12,%d8
800061a4:	3f 91 f4 ff 	jlt.u %d1,%d9,8000618c <__udiv6432+0x3e>
800061a8:	8f 03 01 30 	sh %d3,%d3,16
800061ac:	42 3b       	add %d11,%d3
800061ae:	23 65 0a 6b 	msub %d6,%d11,%d5,%d6
800061b2:	82 0a       	mov %d10,0
800061b4:	4b 76 11 02 	div.u %e0,%d6,%d7
800061b8:	7b 10 00 10 	movh %d1,1
800061bc:	02 03       	mov %d3,%d0
800061be:	23 07 0a 66 	msub %d6,%d6,%d7,%d0
800061c2:	e2 80       	mul %d0,%d8
800061c4:	7f 13 09 80 	jge.u %d3,%d1,800061d6 <__udiv6432+0x88>
800061c8:	8f 06 01 f0 	sh %d15,%d6,16
800061cc:	0b 0a 00 90 	add %d9,%d10,%d0
800061d0:	42 2f       	add %d15,%d2
800061d2:	7f 9f 07 80 	jge.u %d15,%d9,800061e0 <__udiv6432+0x92>
800061d6:	42 76       	add %d6,%d7
800061d8:	c2 f3       	add %d3,-1
800061da:	a2 8a       	sub %d10,%d8
800061dc:	3f 16 f4 ff 	jlt.u %d6,%d1,800061c4 <__udiv6432+0x76>
800061e0:	8f 05 01 50 	sh %d5,%d5,16
800061e4:	0b 53 00 20 	add %d2,%d3,%d5
800061e8:	00 90       	ret 

800061ea <atexit>:
800061ea:	82 04       	mov %d4,0
800061ec:	a0 05       	mov.a %a5,0
800061ee:	a0 06       	mov.a %a6,0
800061f0:	1d 00 5e 14 	j 80008aac <__register_exitproc>

800061f4 <atoi>:
800061f4:	a0 05       	mov.a %a5,0
800061f6:	3b a0 00 40 	mov %d4,10
800061fa:	1d 00 b6 0a 	j 80007766 <strtol>

800061fe <_fclose_r>:
800061fe:	82 02       	mov %d2,0
80006200:	bd 05 41 00 	jz.a %a5,80006282 <_fclose_r+0x84>
80006204:	40 4c       	mov.aa %a12,%a4
80006206:	40 5f       	mov.aa %a15,%a5
80006208:	6d 00 b1 01 	call 8000656a <__sfp_lock_acquire>
8000620c:	bc c6       	jz.a %a12,80006218 <_fclose_r+0x1a>
8000620e:	4c ce       	ld.w %d15,[%a12]56
80006210:	ee 04       	jnz %d15,80006218 <_fclose_r+0x1a>
80006212:	40 c4       	mov.aa %a4,%a12
80006214:	6d 00 f6 00 	call 80006400 <__sinit>
80006218:	8c f6       	ld.h %d15,[%a15]12
8000621a:	ee 05       	jnz %d15,80006224 <_fclose_r+0x26>
8000621c:	6d 00 a8 01 	call 8000656c <__sfp_lock_release>
80006220:	82 02       	mov %d2,0
80006222:	00 90       	ret 
80006224:	40 c4       	mov.aa %a4,%a12
80006226:	40 f5       	mov.aa %a5,%a15
80006228:	6d 00 35 00 	call 80006292 <_fflush_r>
8000622c:	c8 b2       	ld.a %a2,[%a15]44
8000622e:	02 2f       	mov %d15,%d2
80006230:	bc 29       	jz.a %a2,80006242 <_fclose_r+0x44>
80006232:	c8 75       	ld.a %a5,[%a15]28
80006234:	40 c4       	mov.aa %a4,%a12
80006236:	2d 02 00 00 	calli %a2
8000623a:	8b 02 80 22 	ge %d2,%d2,0
8000623e:	ab ff 9f f2 	sel %d15,%d2,%d15,-1
80006242:	88 62       	ld.h %d2,[%a15]12
80006244:	6f 72 06 00 	jz.t %d2,7,80006250 <_fclose_r+0x52>
80006248:	c8 45       	ld.a %a5,[%a15]16
8000624a:	40 c4       	mov.aa %a4,%a12
8000624c:	6d 00 95 02 	call 80006776 <_free_r>
80006250:	c8 c5       	ld.a %a5,[%a15]48
80006252:	bc 5a       	jz.a %a5,80006266 <_fclose_r+0x68>
80006254:	d9 f2 00 10 	lea %a2,[%a15]64
80006258:	7d 25 05 00 	jeq.a %a5,%a2,80006262 <_fclose_r+0x64>
8000625c:	40 c4       	mov.aa %a4,%a12
8000625e:	6d 00 8c 02 	call 80006776 <_free_r>
80006262:	82 02       	mov %d2,0
80006264:	68 c2       	st.w [%a15]48,%d2
80006266:	99 f5 04 10 	ld.a %a5,[%a15]68
8000626a:	bc 57       	jz.a %a5,80006278 <_fclose_r+0x7a>
8000626c:	40 c4       	mov.aa %a4,%a12
8000626e:	6d 00 84 02 	call 80006776 <_free_r>
80006272:	82 02       	mov %d2,0
80006274:	59 f2 04 10 	st.w [%a15]68,%d2
80006278:	82 02       	mov %d2,0
8000627a:	a8 62       	st.h [%a15]12,%d2
8000627c:	6d 00 78 01 	call 8000656c <__sfp_lock_release>
80006280:	02 f2       	mov %d2,%d15
80006282:	00 90       	ret 

80006284 <fclose>:
80006284:	91 00 00 f7 	movh.a %a15,28672
80006288:	40 45       	mov.aa %a5,%a4
8000628a:	99 f4 40 c5 	ld.a %a4,[%a15]22272 <70005700 <_impure_ptr>>
8000628e:	1d ff b8 ff 	j 800061fe <_fclose_r>

80006292 <_fflush_r>:
80006292:	40 4c       	mov.aa %a12,%a4
80006294:	40 5f       	mov.aa %a15,%a5
80006296:	bc 45       	jz.a %a4,800062a0 <_fflush_r+0xe>
80006298:	4c 4e       	ld.w %d15,[%a4]56
8000629a:	ee 03       	jnz %d15,800062a0 <_fflush_r+0xe>
8000629c:	6d 00 b2 00 	call 80006400 <__sinit>
800062a0:	8c f6       	ld.h %d15,[%a15]12
800062a2:	6e 26       	jz %d15,800062ee <_fflush_r+0x5c>
800062a4:	6f 3f 5f 80 	jnz.t %d15,3,80006362 <_fflush_r+0xd0>
800062a8:	b7 ff 81 25 	insert %d2,%d15,15,11,1
800062ac:	a8 62       	st.h [%a15]12,%d2
800062ae:	48 12       	ld.w %d2,[%a15]4
800062b0:	4e 24       	jgtz %d2,800062b8 <_fflush_r+0x26>
800062b2:	48 f2       	ld.w %d2,[%a15]60
800062b4:	bf 12 1d 00 	jlt %d2,1,800062ee <_fflush_r+0x5c>
800062b8:	c8 a2       	ld.a %a2,[%a15]40
800062ba:	bd 02 1a 00 	jz.a %a2,800062ee <_fflush_r+0x5c>
800062be:	82 02       	mov %d2,0
800062c0:	54 c8       	ld.w %d8,[%a12]
800062c2:	74 c2       	st.w [%a12],%d2
800062c4:	2e c4       	jz.t %d15,12,800062cc <_fflush_r+0x3a>
800062c6:	19 f2 10 10 	ld.w %d2,[%a15]80
800062ca:	3c 14       	j 800062f2 <_fflush_r+0x60>
800062cc:	c8 75       	ld.a %a5,[%a15]28
800062ce:	40 c4       	mov.aa %a4,%a12
800062d0:	82 04       	mov %d4,0
800062d2:	82 15       	mov %d5,1
800062d4:	2d 02 00 00 	calli %a2
800062d8:	df f2 0d 80 	jne %d2,-1,800062f2 <_fflush_r+0x60>
800062dc:	4c c0       	ld.w %d15,[%a12]0
800062de:	6e 0a       	jz %d15,800062f2 <_fflush_r+0x60>
800062e0:	8b 6f 01 22 	eq %d2,%d15,22
800062e4:	8b df e1 24 	or.eq %d2,%d15,29
800062e8:	df 02 4a 00 	jeq %d2,0,8000637c <_fflush_r+0xea>
800062ec:	74 c8       	st.w [%a12],%d8
800062ee:	82 02       	mov %d2,0
800062f0:	00 90       	ret 
800062f2:	8c f6       	ld.h %d15,[%a15]12
800062f4:	2e 27       	jz.t %d15,2,80006302 <_fflush_r+0x70>
800062f6:	4c f1       	ld.w %d15,[%a15]4
800062f8:	a2 f2       	sub %d2,%d15
800062fa:	4c fc       	ld.w %d15,[%a15]48
800062fc:	6e 03       	jz %d15,80006302 <_fflush_r+0x70>
800062fe:	4c ff       	ld.w %d15,[%a15]60
80006300:	a2 f2       	sub %d2,%d15
80006302:	c8 a2       	ld.a %a2,[%a15]40
80006304:	c8 75       	ld.a %a5,[%a15]28
80006306:	40 c4       	mov.aa %a4,%a12
80006308:	02 24       	mov %d4,%d2
8000630a:	82 05       	mov %d5,0
8000630c:	2d 02 00 00 	calli %a2
80006310:	df f2 0b 80 	jne %d2,-1,80006326 <_fflush_r+0x94>
80006314:	4c c0       	ld.w %d15,[%a12]0
80006316:	8b 0f 00 32 	eq %d3,%d15,0
8000631a:	8b df e1 34 	or.eq %d3,%d15,29
8000631e:	8b 6f e1 34 	or.eq %d3,%d15,22
80006322:	df 03 2d 00 	jeq %d3,0,8000637c <_fflush_r+0xea>
80006326:	88 63       	ld.h %d3,[%a15]12
80006328:	b7 03 81 f5 	insert %d15,%d3,0,11,1
8000632c:	a8 6f       	st.h [%a15]12,%d15
8000632e:	82 0f       	mov %d15,0
80006330:	68 1f       	st.w [%a15]4,%d15
80006332:	4c f4       	ld.w %d15,[%a15]16
80006334:	68 0f       	st.w [%a15]0,%d15
80006336:	6f c3 08 00 	jz.t %d3,12,80006346 <_fflush_r+0xb4>
8000633a:	df f2 04 80 	jne %d2,-1,80006342 <_fflush_r+0xb0>
8000633e:	4c c0       	ld.w %d15,[%a12]0
80006340:	ee 03       	jnz %d15,80006346 <_fflush_r+0xb4>
80006342:	59 f2 10 10 	st.w [%a15]80,%d2
80006346:	c8 c5       	ld.a %a5,[%a15]48
80006348:	74 c8       	st.w [%a12],%d8
8000634a:	bd 05 d2 7f 	jz.a %a5,800062ee <_fflush_r+0x5c>
8000634e:	d9 f2 00 10 	lea %a2,[%a15]64
80006352:	7d 25 05 00 	jeq.a %a5,%a2,8000635c <_fflush_r+0xca>
80006356:	40 c4       	mov.aa %a4,%a12
80006358:	6d 00 0f 02 	call 80006776 <_free_r>
8000635c:	82 0f       	mov %d15,0
8000635e:	68 cf       	st.w [%a15]48,%d15
80006360:	3c c7       	j 800062ee <_fflush_r+0x5c>
80006362:	c8 4d       	ld.a %a13,[%a15]16
80006364:	bd 0d c5 7f 	jz.a %a13,800062ee <_fflush_r+0x5c>
80006368:	48 08       	ld.w %d8,[%a15]0
8000636a:	80 d2       	mov.d %d2,%a13
8000636c:	e8 0d       	st.a [%a15]0,%a13
8000636e:	16 03       	and %d15,3
80006370:	a2 28       	sub %d8,%d2
80006372:	82 02       	mov %d2,0
80006374:	ee 02       	jnz %d15,80006378 <_fflush_r+0xe6>
80006376:	48 52       	ld.w %d2,[%a15]20
80006378:	68 22       	st.w [%a15]8,%d2
8000637a:	3c 12       	j 8000639e <_fflush_r+0x10c>
8000637c:	8c f6       	ld.h %d15,[%a15]12
8000637e:	82 f2       	mov %d2,-1
80006380:	96 40       	or %d15,64
80006382:	a8 6f       	st.h [%a15]12,%d15
80006384:	00 90       	ret 
80006386:	c8 92       	ld.a %a2,[%a15]36
80006388:	c8 75       	ld.a %a5,[%a15]28
8000638a:	40 c4       	mov.aa %a4,%a12
8000638c:	40 d6       	mov.aa %a6,%a13
8000638e:	02 84       	mov %d4,%d8
80006390:	2d 02 00 00 	calli %a2
80006394:	bf 12 f4 7f 	jlt %d2,1,8000637c <_fflush_r+0xea>
80006398:	01 d2 00 d6 	addsc.a %a13,%a13,%d2,0
8000639c:	a2 28       	sub %d8,%d2
8000639e:	ff 18 f4 7f 	jge %d8,1,80006386 <_fflush_r+0xf4>
800063a2:	3c a6       	j 800062ee <_fflush_r+0x5c>

800063a4 <fflush>:
800063a4:	40 45       	mov.aa %a5,%a4
800063a6:	7c 4b       	jnz.a %a4,800063bc <fflush+0x18>
800063a8:	91 10 00 f8 	movh.a %a15,32769
800063ac:	99 f4 c4 1a 	ld.a %a4,[%a15]-21436 <8000ac44 <_global_impure_ptr>>
800063b0:	91 00 00 58 	movh.a %a5,32768
800063b4:	d9 55 12 a6 	lea %a5,[%a5]25234 <80006292 <_fflush_r>>
800063b8:	1d 00 63 04 	j 80006c7e <_fwalk_reent>
800063bc:	91 00 00 f7 	movh.a %a15,28672
800063c0:	99 f4 40 c5 	ld.a %a4,[%a15]22272 <70005700 <_impure_ptr>>
800063c4:	1d ff 67 ff 	j 80006292 <_fflush_r>

800063c8 <_cleanup_r>:
800063c8:	91 00 00 58 	movh.a %a5,32768
800063cc:	d9 55 04 a6 	lea %a5,[%a5]25220 <80006284 <fclose>>
800063d0:	1d 00 36 04 	j 80006c3c <_fwalk>

800063d4 <__sfmoreglue>:
800063d4:	53 84 26 80 	mul %d8,%d4,104
800063d8:	02 4f       	mov %d15,%d4
800063da:	1b c8 00 40 	addi %d4,%d8,12
800063de:	6d 00 73 05 	call 80006ec4 <_malloc_r>
800063e2:	40 2f       	mov.aa %a15,%a2
800063e4:	bc 2c       	jz.a %a2,800063fc <__sfmoreglue+0x28>
800063e6:	d9 24 0c 00 	lea %a4,[%a2]12
800063ea:	82 02       	mov %d2,0
800063ec:	74 22       	st.w [%a2],%d2
800063ee:	6c 21       	st.w [%a2]4,%d15
800063f0:	b5 24 08 00 	st.a [%a2]8,%a4
800063f4:	82 04       	mov %d4,0
800063f6:	02 85       	mov %d5,%d8
800063f8:	6d 00 b3 07 	call 8000735e <memset>
800063fc:	40 f2       	mov.aa %a2,%a15
800063fe:	00 90       	ret 

80006400 <__sinit>:
80006400:	4c 4e       	ld.w %d15,[%a4]56
80006402:	ee 6f       	jnz %d15,800064e0 <__sinit+0xe0>
80006404:	d9 4f 2c b0 	lea %a15,[%a4]748
80006408:	7b 00 00 28 	movh %d2,32768
8000640c:	b5 4f 28 b0 	st.a [%a4]744,%a15
80006410:	1b 82 3c 26 	addi %d2,%d2,25544
80006414:	cc 41       	ld.a %a15,[%a4]4
80006416:	59 42 3c 00 	st.w [%a4]60,%d2
8000641a:	82 1c       	mov %d12,1
8000641c:	82 32       	mov %d2,3
8000641e:	59 42 24 b0 	st.w [%a4]740,%d2
80006422:	59 4c 38 00 	st.w [%a4]56,%d12
80006426:	59 4f 20 b0 	st.w [%a4]736,%d15
8000642a:	82 42       	mov %d2,4
8000642c:	40 4c       	mov.aa %a12,%a4
8000642e:	a8 62       	st.h [%a15]12,%d2
80006430:	d9 f4 1c 10 	lea %a4,[%a15]92
80006434:	68 0f       	st.w [%a15]0,%d15
80006436:	68 1f       	st.w [%a15]4,%d15
80006438:	68 2f       	st.w [%a15]8,%d15
8000643a:	59 ff 24 10 	st.w [%a15]100,%d15
8000643e:	a8 7f       	st.h [%a15]14,%d15
80006440:	68 4f       	st.w [%a15]16,%d15
80006442:	68 5f       	st.w [%a15]20,%d15
80006444:	68 6f       	st.w [%a15]24,%d15
80006446:	82 04       	mov %d4,0
80006448:	3b 80 00 50 	mov %d5,8
8000644c:	6d 00 89 07 	call 8000735e <memset>
80006450:	7b 00 00 b8 	movh %d11,32768
80006454:	7b 00 00 a8 	movh %d10,32768
80006458:	7b 00 00 98 	movh %d9,32768
8000645c:	7b 00 00 88 	movh %d8,32768
80006460:	1b 0b 59 b7 	addi %d11,%d11,30096
80006464:	1b 6a 5b a7 	addi %d10,%d10,30134
80006468:	1b 29 5e 97 	addi %d9,%d9,30178
8000646c:	1b c8 60 87 	addi %d8,%d8,30220
80006470:	ec f7       	st.a [%a15]28,%a15
80006472:	68 8b       	st.w [%a15]32,%d11
80006474:	68 9a       	st.w [%a15]36,%d10
80006476:	68 a9       	st.w [%a15]40,%d9
80006478:	68 b8       	st.w [%a15]44,%d8
8000647a:	cc c2       	ld.a %a15,[%a12]8
8000647c:	3b 90 00 20 	mov %d2,9
80006480:	82 04       	mov %d4,0
80006482:	a8 62       	st.h [%a15]12,%d2
80006484:	d9 f4 1c 10 	lea %a4,[%a15]92
80006488:	68 0f       	st.w [%a15]0,%d15
8000648a:	68 1f       	st.w [%a15]4,%d15
8000648c:	68 2f       	st.w [%a15]8,%d15
8000648e:	59 ff 24 10 	st.w [%a15]100,%d15
80006492:	a8 7c       	st.h [%a15]14,%d12
80006494:	68 4f       	st.w [%a15]16,%d15
80006496:	68 5f       	st.w [%a15]20,%d15
80006498:	68 6f       	st.w [%a15]24,%d15
8000649a:	3b 80 00 50 	mov %d5,8
8000649e:	6d 00 60 07 	call 8000735e <memset>
800064a2:	ec f7       	st.a [%a15]28,%a15
800064a4:	68 8b       	st.w [%a15]32,%d11
800064a6:	68 9a       	st.w [%a15]36,%d10
800064a8:	68 a9       	st.w [%a15]40,%d9
800064aa:	68 b8       	st.w [%a15]44,%d8
800064ac:	cc c3       	ld.a %a15,[%a12]12
800064ae:	3b 20 01 20 	mov %d2,18
800064b2:	82 04       	mov %d4,0
800064b4:	a8 62       	st.h [%a15]12,%d2
800064b6:	82 22       	mov %d2,2
800064b8:	68 0f       	st.w [%a15]0,%d15
800064ba:	68 1f       	st.w [%a15]4,%d15
800064bc:	68 2f       	st.w [%a15]8,%d15
800064be:	59 ff 24 10 	st.w [%a15]100,%d15
800064c2:	a8 72       	st.h [%a15]14,%d2
800064c4:	68 4f       	st.w [%a15]16,%d15
800064c6:	68 5f       	st.w [%a15]20,%d15
800064c8:	68 6f       	st.w [%a15]24,%d15
800064ca:	d9 f4 1c 10 	lea %a4,[%a15]92
800064ce:	3b 80 00 50 	mov %d5,8
800064d2:	6d 00 46 07 	call 8000735e <memset>
800064d6:	ec f7       	st.a [%a15]28,%a15
800064d8:	68 8b       	st.w [%a15]32,%d11
800064da:	68 9a       	st.w [%a15]36,%d10
800064dc:	68 a9       	st.w [%a15]40,%d9
800064de:	68 b8       	st.w [%a15]44,%d8
800064e0:	00 90       	ret 

800064e2 <__sfp>:
800064e2:	91 10 00 f8 	movh.a %a15,32769
800064e6:	99 fc c4 1a 	ld.a %a12,[%a15]-21436 <8000ac44 <_global_impure_ptr>>
800064ea:	40 4d       	mov.aa %a13,%a4
800064ec:	4c ce       	ld.w %d15,[%a12]56
800064ee:	ee 04       	jnz %d15,800064f6 <__sfp+0x14>
800064f0:	40 c4       	mov.aa %a4,%a12
800064f2:	6d ff 87 ff 	call 80006400 <__sinit>
800064f6:	d9 cc 20 b0 	lea %a12,[%a12]736
800064fa:	19 c2 04 00 	ld.w %d2,[%a12]4
800064fe:	cc c2       	ld.a %a15,[%a12]8
80006500:	9a f2       	add %d15,%d2,-1
80006502:	8b ff 9f f2 	ge %d15,%d15,-1
80006506:	ea 02       	cmovn %d2,%d15,0
80006508:	9f 02 03 80 	jned %d2,0,8000650e <__sfp+0x2c>
8000650c:	3c 06       	j 80006518 <__sfp+0x36>
8000650e:	8c f6       	ld.h %d15,[%a15]12
80006510:	6e 12       	jz %d15,80006534 <__sfp+0x52>
80006512:	d9 ff 28 10 	lea %a15,[%a15]104 <80010068 <__crt0_config+0x402c>>
80006516:	3c f9       	j 80006508 <__sfp+0x26>
80006518:	4c c0       	ld.w %d15,[%a12]0
8000651a:	ee 07       	jnz %d15,80006528 <__sfp+0x46>
8000651c:	40 d4       	mov.aa %a4,%a13
8000651e:	82 44       	mov %d4,4
80006520:	6d ff 5a ff 	call 800063d4 <__sfmoreglue>
80006524:	f4 c2       	st.a [%a12],%a2
80006526:	bc 23       	jz.a %a2,8000652c <__sfp+0x4a>
80006528:	d4 cc       	ld.a %a12,[%a12]
8000652a:	3c e8       	j 800064fa <__sfp+0x18>
8000652c:	da 0c       	mov %d15,12
8000652e:	6c d0       	st.w [%a13]0,%d15
80006530:	a0 02       	mov.a %a2,0
80006532:	00 90       	ret 
80006534:	82 f2       	mov %d2,-1
80006536:	a8 72       	st.h [%a15]14,%d2
80006538:	82 12       	mov %d2,1
8000653a:	a8 62       	st.h [%a15]12,%d2
8000653c:	59 ff 24 10 	st.w [%a15]100,%d15
80006540:	68 0f       	st.w [%a15]0,%d15
80006542:	68 2f       	st.w [%a15]8,%d15
80006544:	68 1f       	st.w [%a15]4,%d15
80006546:	68 4f       	st.w [%a15]16,%d15
80006548:	68 5f       	st.w [%a15]20,%d15
8000654a:	68 6f       	st.w [%a15]24,%d15
8000654c:	d9 f4 1c 10 	lea %a4,[%a15]92
80006550:	82 04       	mov %d4,0
80006552:	3b 80 00 50 	mov %d5,8
80006556:	6d 00 04 07 	call 8000735e <memset>
8000655a:	68 cf       	st.w [%a15]48,%d15
8000655c:	68 df       	st.w [%a15]52,%d15
8000655e:	59 ff 04 10 	st.w [%a15]68,%d15
80006562:	59 ff 08 10 	st.w [%a15]72,%d15
80006566:	40 f2       	mov.aa %a2,%a15
80006568:	00 90       	ret 

8000656a <__sfp_lock_acquire>:
8000656a:	00 90       	ret 

8000656c <__sfp_lock_release>:
8000656c:	00 90       	ret 

8000656e <_fopen_r>:
8000656e:	20 08       	sub.a %sp,8
80006570:	40 5d       	mov.aa %a13,%a5
80006572:	40 65       	mov.aa %a5,%a6
80006574:	d9 a6 04 00 	lea %a6,[%sp]4
80006578:	40 4c       	mov.aa %a12,%a4
8000657a:	6d 00 9d 18 	call 800096b4 <__sflags>
8000657e:	02 2f       	mov %d15,%d2
80006580:	df 02 17 00 	jeq %d2,0,800065ae <_fopen_r+0x40>
80006584:	40 c4       	mov.aa %a4,%a12
80006586:	6d ff ae ff 	call 800064e2 <__sfp>
8000658a:	40 2f       	mov.aa %a15,%a2
8000658c:	bd 02 11 00 	jz.a %a2,800065ae <_fopen_r+0x40>
80006590:	40 c4       	mov.aa %a4,%a12
80006592:	40 d5       	mov.aa %a5,%a13
80006594:	19 a4 04 00 	ld.w %d4,[%sp]4
80006598:	3b 60 1b 50 	mov %d5,438
8000659c:	6d 00 eb 06 	call 80007372 <_open_r>
800065a0:	ce 29       	jgez %d2,800065b2 <_fopen_r+0x44>
800065a2:	82 0f       	mov %d15,0
800065a4:	6d ff e3 ff 	call 8000656a <__sfp_lock_acquire>
800065a8:	a8 6f       	st.h [%a15]12,%d15
800065aa:	6d ff e1 ff 	call 8000656c <__sfp_lock_release>
800065ae:	a0 0f       	mov.a %a15,0
800065b0:	3c 21       	j 800065f2 <_fopen_r+0x84>
800065b2:	a8 72       	st.h [%a15]14,%d2
800065b4:	7b 00 00 28 	movh %d2,32768
800065b8:	1b 02 59 27 	addi %d2,%d2,30096
800065bc:	68 82       	st.w [%a15]32,%d2
800065be:	7b 00 00 28 	movh %d2,32768
800065c2:	1b 62 5b 27 	addi %d2,%d2,30134
800065c6:	68 92       	st.w [%a15]36,%d2
800065c8:	7b 00 00 28 	movh %d2,32768
800065cc:	1b 22 5e 27 	addi %d2,%d2,30178
800065d0:	37 0f 50 f0 	extr %d15,%d15,0,16
800065d4:	68 a2       	st.w [%a15]40,%d2
800065d6:	7b 00 00 28 	movh %d2,32768
800065da:	1b c2 60 27 	addi %d2,%d2,30220
800065de:	a8 6f       	st.h [%a15]12,%d15
800065e0:	ec f7       	st.a [%a15]28,%a15
800065e2:	68 b2       	st.w [%a15]44,%d2
800065e4:	2e 87       	jz.t %d15,8,800065f2 <_fopen_r+0x84>
800065e6:	40 c4       	mov.aa %a4,%a12
800065e8:	40 f5       	mov.aa %a5,%a15
800065ea:	82 04       	mov %d4,0
800065ec:	82 25       	mov %d5,2
800065ee:	6d 00 9a 01 	call 80006922 <_fseek_r>
800065f2:	40 f2       	mov.aa %a2,%a15
800065f4:	00 90       	ret 

800065f6 <fopen>:
800065f6:	91 00 00 27 	movh.a %a2,28672
800065fa:	40 4f       	mov.aa %a15,%a4
800065fc:	99 24 40 c5 	ld.a %a4,[%a2]22272 <70005700 <_impure_ptr>>
80006600:	40 56       	mov.aa %a6,%a5
80006602:	40 f5       	mov.aa %a5,%a15
80006604:	1d ff b5 ff 	j 8000656e <_fopen_r>

80006608 <fprintf>:
80006608:	91 00 00 27 	movh.a %a2,28672
8000660c:	40 4f       	mov.aa %a15,%a4
8000660e:	99 24 40 c5 	ld.a %a4,[%a2]22272 <70005700 <_impure_ptr>>
80006612:	40 56       	mov.aa %a6,%a5
80006614:	40 a7       	mov.aa %a7,%sp
80006616:	40 f5       	mov.aa %a5,%a15
80006618:	1d 00 b0 08 	j 80007778 <_vfprintf_r>

8000661c <_fread_r>:
8000661c:	73 45 0a a0 	mul %d10,%d5,%d4
80006620:	40 4c       	mov.aa %a12,%a4
80006622:	40 5d       	mov.aa %a13,%a5
80006624:	02 49       	mov %d9,%d4
80006626:	02 5b       	mov %d11,%d5
80006628:	40 6f       	mov.aa %a15,%a6
8000662a:	82 02       	mov %d2,0
8000662c:	df 0a 3e 00 	jeq %d10,0,800066a8 <_fread_r+0x8c>
80006630:	bc 45       	jz.a %a4,8000663a <_fread_r+0x1e>
80006632:	4c 4e       	ld.w %d15,[%a4]56
80006634:	ee 03       	jnz %d15,8000663a <_fread_r+0x1e>
80006636:	6d ff e5 fe 	call 80006400 <__sinit>
8000663a:	6d ff 98 ff 	call 8000656a <__sfp_lock_acquire>
8000663e:	8c f6       	ld.h %d15,[%a15]12
80006640:	ae d9       	jnz.t %d15,13,80006652 <_fread_r+0x36>
80006642:	b7 ff 81 f6 	insert %d15,%d15,15,13,1
80006646:	82 0c       	mov %d12,0
80006648:	3b 00 00 d2 	mov %d13,8192
8000664c:	a8 6f       	st.h [%a15]12,%d15
8000664e:	49 fc 64 18 	ldmst [%a15]100,%e12
80006652:	4c f1       	ld.w %d15,[%a15]4
80006654:	ce f3       	jgez %d15,8000665a <_fread_r+0x3e>
80006656:	82 0f       	mov %d15,0
80006658:	68 1f       	st.w [%a15]4,%d15
8000665a:	02 a8       	mov %d8,%d10
8000665c:	4c f1       	ld.w %d15,[%a15]4
8000665e:	40 d4       	mov.aa %a4,%a13
80006660:	c8 05       	ld.a %a5,[%a15]0
80006662:	7f 8f 17 80 	jge.u %d15,%d8,80006690 <_fread_r+0x74>
80006666:	02 f4       	mov %d4,%d15
80006668:	6d ff a8 fc 	call 80005fb8 <memcpy>
8000666c:	48 02       	ld.w %d2,[%a15]0
8000666e:	40 c4       	mov.aa %a4,%a12
80006670:	42 f2       	add %d2,%d15
80006672:	68 02       	st.w [%a15]0,%d2
80006674:	40 f5       	mov.aa %a5,%a15
80006676:	10 dd       	addsc.a %a13,%a13,%d15,0
80006678:	a2 f8       	sub %d8,%d15
8000667a:	6d 00 97 06 	call 800073a8 <__srefill_r>
8000667e:	df 02 ef 7f 	jeq %d2,0,8000665c <_fread_r+0x40>
80006682:	6d ff 75 ff 	call 8000656c <__sfp_lock_release>
80006686:	0b 8a 80 20 	sub %d2,%d10,%d8
8000668a:	4b 92 11 22 	div.u %e2,%d2,%d9
8000668e:	00 90       	ret 
80006690:	02 84       	mov %d4,%d8
80006692:	6d ff 93 fc 	call 80005fb8 <memcpy>
80006696:	48 02       	ld.w %d2,[%a15]0
80006698:	4c f1       	ld.w %d15,[%a15]4
8000669a:	a2 8f       	sub %d15,%d8
8000669c:	42 28       	add %d8,%d2
8000669e:	68 1f       	st.w [%a15]4,%d15
800066a0:	68 08       	st.w [%a15]0,%d8
800066a2:	6d ff 65 ff 	call 8000656c <__sfp_lock_release>
800066a6:	02 b2       	mov %d2,%d11
800066a8:	00 90       	ret 

800066aa <fread>:
800066aa:	91 00 00 27 	movh.a %a2,28672
800066ae:	40 4f       	mov.aa %a15,%a4
800066b0:	99 24 40 c5 	ld.a %a4,[%a2]22272 <70005700 <_impure_ptr>>
800066b4:	40 56       	mov.aa %a6,%a5
800066b6:	40 f5       	mov.aa %a5,%a15
800066b8:	1d ff b2 ff 	j 8000661c <_fread_r>

800066bc <_malloc_trim_r>:
800066bc:	02 4f       	mov %d15,%d4
800066be:	40 4f       	mov.aa %a15,%a4
800066c0:	6d 00 57 06 	call 8000736e <__malloc_lock>
800066c4:	91 00 00 c7 	movh.a %a12,28672
800066c8:	d9 cc b0 c5 	lea %a12,[%a12]23344 <70005b30 <__malloc_av_>>
800066cc:	99 c2 08 00 	ld.a %a2,[%a12]8 <70000008 <__CSA_BASE_CPU0_+0x8>>
800066d0:	3b 00 00 21 	mov %d2,4096
800066d4:	19 28 04 00 	ld.w %d8,[%a2]4
800066d8:	8f 38 c0 81 	andn %d8,%d8,3
800066dc:	5a f8       	sub %d15,%d8,%d15
800066de:	1b ff fe f0 	addi %d15,%d15,4079
800066e2:	b7 0f 0c f0 	insert %d15,%d15,0,0,12
800066e6:	1b 0f 00 ff 	addi %d15,%d15,-4096
800066ea:	7f 2f 07 00 	jge %d15,%d2,800066f8 <_malloc_trim_r+0x3c>
800066ee:	40 f4       	mov.aa %a4,%a15
800066f0:	6d 00 40 06 	call 80007370 <__malloc_unlock>
800066f4:	82 02       	mov %d2,0
800066f6:	00 90       	ret 
800066f8:	40 f4       	mov.aa %a4,%a15
800066fa:	82 04       	mov %d4,0
800066fc:	6d 00 c4 06 	call 80007484 <_sbrk_r>
80006700:	99 c3 08 00 	ld.a %a3,[%a12]8
80006704:	60 84       	mov.a %a4,%d8
80006706:	30 43       	add.a %a3,%a4
80006708:	7d 32 f3 ff 	jne.a %a2,%a3,800066ee <_malloc_trim_r+0x32>
8000670c:	40 f4       	mov.aa %a4,%a15
8000670e:	8b 0f 00 41 	rsub %d4,%d15,0
80006712:	6d 00 b9 06 	call 80007484 <_sbrk_r>
80006716:	80 22       	mov.d %d2,%a2
80006718:	df f2 1c 80 	jne %d2,-1,80006750 <_malloc_trim_r+0x94>
8000671c:	40 f4       	mov.aa %a4,%a15
8000671e:	82 04       	mov %d4,0
80006720:	6d 00 b2 06 	call 80007484 <_sbrk_r>
80006724:	99 c3 08 00 	ld.a %a3,[%a12]8
80006728:	01 32 20 40 	sub.a %a4,%a2,%a3
8000672c:	80 4f       	mov.d %d15,%a4
8000672e:	8b 0f 41 22 	lt %d2,%d15,16
80006732:	df 02 de ff 	jne %d2,0,800066ee <_malloc_trim_r+0x32>
80006736:	91 00 00 47 	movh.a %a4,28672
8000673a:	99 44 a8 c5 	ld.a %a4,[%a4]23336 <70005b28 <__malloc_sbrk_base>>
8000673e:	96 01       	or %d15,1
80006740:	6c 31       	st.w [%a3]4,%d15
80006742:	01 42 20 20 	sub.a %a2,%a2,%a4
80006746:	91 00 00 47 	movh.a %a4,28672
8000674a:	b5 42 78 a7 	st.a [%a4]30392 <700076b8 <__malloc_current_mallinfo>>,%a2
8000674e:	3c d0       	j 800066ee <_malloc_trim_r+0x32>
80006750:	99 c2 08 00 	ld.a %a2,[%a12]8
80006754:	a2 f8       	sub %d8,%d15
80006756:	8f 18 40 81 	or %d8,%d8,1
8000675a:	59 28 04 00 	st.w [%a2]4,%d8
8000675e:	91 00 00 27 	movh.a %a2,28672
80006762:	19 22 78 a7 	ld.w %d2,[%a2]30392 <700076b8 <__malloc_current_mallinfo>>
80006766:	40 f4       	mov.aa %a4,%a15
80006768:	5a f2       	sub %d15,%d2,%d15
8000676a:	59 2f 78 a7 	st.w [%a2]30392 <700076b8 <__malloc_current_mallinfo>>,%d15
8000676e:	6d 00 01 06 	call 80007370 <__malloc_unlock>
80006772:	82 12       	mov %d2,1
80006774:	00 90       	ret 

80006776 <_free_r>:
80006776:	40 4d       	mov.aa %a13,%a4
80006778:	bd 05 d4 00 	jz.a %a5,80006920 <_free_r+0x1aa>
8000677c:	40 5c       	mov.aa %a12,%a5
8000677e:	6d 00 f8 05 	call 8000736e <__malloc_lock>
80006782:	19 c4 fc ff 	ld.w %d4,[%a12]-4
80006786:	d9 cf f8 ff 	lea %a15,[%a12]-8
8000678a:	8f 14 c0 f1 	andn %d15,%d4,1
8000678e:	91 00 00 27 	movh.a %a2,28672
80006792:	10 f3       	addsc.a %a3,%a15,%d15,0
80006794:	d9 22 b0 c5 	lea %a2,[%a2]23344 <70005b30 <__malloc_av_>>
80006798:	99 24 08 00 	ld.a %a4,[%a2]8 <70000008 <__CSA_BASE_CPU0_+0x8>>
8000679c:	19 33 04 00 	ld.w %d3,[%a3]4 <70000008 <__CSA_BASE_CPU0_+0x8>>
800067a0:	8f 14 00 41 	and %d4,%d4,1
800067a4:	8f 33 c0 31 	andn %d3,%d3,3
800067a8:	7d 43 24 80 	jne.a %a3,%a4,800067f0 <_free_r+0x7a>
800067ac:	42 3f       	add %d15,%d3
800067ae:	f6 4d       	jnz %d4,800067c8 <_free_r+0x52>
800067b0:	19 c2 f8 ff 	ld.w %d2,[%a12]-8
800067b4:	60 23       	mov.a %a3,%d2
800067b6:	42 2f       	add %d15,%d2
800067b8:	01 3f 20 f0 	sub.a %a15,%a15,%a3
800067bc:	c8 33       	ld.a %a3,[%a15]12
800067be:	c8 24       	ld.a %a4,[%a15]8
800067c0:	b5 43 0c 00 	st.a [%a4]12,%a3
800067c4:	b5 34 08 00 	st.a [%a3]8,%a4
800067c8:	8f 1f 40 21 	or %d2,%d15,1
800067cc:	68 12       	st.w [%a15]4,%d2
800067ce:	ec 22       	st.a [%a2]8,%a15
800067d0:	91 00 00 f7 	movh.a %a15,28672
800067d4:	19 f2 ac c5 	ld.w %d2,[%a15]23340 <70005b2c <__malloc_trim_threshold>>
800067d8:	3f 2f 09 80 	jlt.u %d15,%d2,800067ea <_free_r+0x74>
800067dc:	91 00 00 f7 	movh.a %a15,28672
800067e0:	40 d4       	mov.aa %a4,%a13
800067e2:	19 f4 68 b7 	ld.w %d4,[%a15]30440 <700076e8 <__malloc_top_pad>>
800067e6:	6d ff 6b ff 	call 800066bc <_malloc_trim_r>
800067ea:	40 d4       	mov.aa %a4,%a13
800067ec:	1d 00 c2 05 	j 80007370 <__malloc_unlock>
800067f0:	59 33 04 00 	st.w [%a3]4,%d3
800067f4:	82 02       	mov %d2,0
800067f6:	df 04 16 80 	jne %d4,0,80006822 <_free_r+0xac>
800067fa:	19 c2 f8 ff 	ld.w %d2,[%a12]-8
800067fe:	60 24       	mov.a %a4,%d2
80006800:	42 2f       	add %d15,%d2
80006802:	01 4f 20 f0 	sub.a %a15,%a15,%a4
80006806:	c8 25       	ld.a %a5,[%a15]8
80006808:	91 00 00 47 	movh.a %a4,28672
8000680c:	d9 44 b8 c5 	lea %a4,[%a4]23352 <70005b38 <__malloc_av_+0x8>>
80006810:	82 12       	mov %d2,1
80006812:	7d 45 08 00 	jeq.a %a5,%a4,80006822 <_free_r+0xac>
80006816:	c8 34       	ld.a %a4,[%a15]12
80006818:	82 02       	mov %d2,0
8000681a:	b5 54 0c 00 	st.a [%a5]12,%a4
8000681e:	b5 45 08 00 	st.a [%a4]8,%a5
80006822:	01 33 00 46 	addsc.a %a4,%a3,%d3,0
80006826:	19 44 04 00 	ld.w %d4,[%a4]4
8000682a:	6f 04 18 80 	jnz.t %d4,0,8000685a <_free_r+0xe4>
8000682e:	42 3f       	add %d15,%d3
80006830:	99 35 08 00 	ld.a %a5,[%a3]8
80006834:	f6 2d       	jnz %d2,8000684e <_free_r+0xd8>
80006836:	91 00 00 47 	movh.a %a4,28672
8000683a:	d9 44 b8 c5 	lea %a4,[%a4]23352 <70005b38 <__malloc_av_+0x8>>
8000683e:	7d 45 08 80 	jne.a %a5,%a4,8000684e <_free_r+0xd8>
80006842:	ec 25       	st.a [%a2]20,%a15
80006844:	ec 24       	st.a [%a2]16,%a15
80006846:	e8 35       	st.a [%a15]12,%a5
80006848:	e8 25       	st.a [%a15]8,%a5
8000684a:	82 12       	mov %d2,1
8000684c:	3c 07       	j 8000685a <_free_r+0xe4>
8000684e:	99 33 0c 00 	ld.a %a3,[%a3]12
80006852:	b5 53 0c 00 	st.a [%a5]12,%a3
80006856:	b5 35 08 00 	st.a [%a3]8,%a5
8000685a:	8f 1f 40 31 	or %d3,%d15,1
8000685e:	10 f3       	addsc.a %a3,%a15,%d15,0
80006860:	68 13       	st.w [%a15]4,%d3
80006862:	6c 30       	st.w [%a3]0,%d15
80006864:	df 02 c3 ff 	jne %d2,0,800067ea <_free_r+0x74>
80006868:	3b 00 20 20 	mov %d2,512
8000686c:	7f 2f 12 80 	jge.u %d15,%d2,80006890 <_free_r+0x11a>
80006870:	19 23 04 00 	ld.w %d3,[%a2]4
80006874:	06 df       	sh %d15,-3
80006876:	8f ef 3f 20 	sha %d2,%d15,-2
8000687a:	d7 13 01 22 	insert %d2,%d3,1,%d2,1
8000687e:	59 22 04 00 	st.w [%a2]4,%d2
80006882:	d0 22       	addsc.a %a2,%a2,%d15,3
80006884:	99 23 08 00 	ld.a %a3,[%a2]8
80006888:	e8 32       	st.a [%a15]12,%a2
8000688a:	e8 23       	st.a [%a15]8,%a3
8000688c:	ec 22       	st.a [%a2]8,%a15
8000688e:	3c 46       	j 8000691a <_free_r+0x1a4>
80006890:	8f af 1f 30 	sh %d3,%d15,-6
80006894:	8f 7f 1f 20 	sh %d2,%d15,-9
80006898:	1b 83 03 30 	addi %d3,%d3,56
8000689c:	bf 52 22 80 	jlt.u %d2,5,800068e0 <_free_r+0x16a>
800068a0:	8b 52 a1 32 	ge.u %d3,%d2,21
800068a4:	f6 34       	jnz %d3,800068ac <_free_r+0x136>
800068a6:	1b b2 05 30 	addi %d3,%d2,91
800068aa:	3c 1b       	j 800068e0 <_free_r+0x16a>
800068ac:	8b 52 a5 32 	ge.u %d3,%d2,85
800068b0:	f6 36       	jnz %d3,800068bc <_free_r+0x146>
800068b2:	8f 4f 1f 30 	sh %d3,%d15,-12
800068b6:	1b e3 06 30 	addi %d3,%d3,110
800068ba:	3c 13       	j 800068e0 <_free_r+0x16a>
800068bc:	8b 52 b5 32 	ge.u %d3,%d2,341
800068c0:	f6 36       	jnz %d3,800068cc <_free_r+0x156>
800068c2:	8f 1f 1f 30 	sh %d3,%d15,-15
800068c6:	1b 73 07 30 	addi %d3,%d3,119
800068ca:	3c 0b       	j 800068e0 <_free_r+0x16a>
800068cc:	3b 50 55 40 	mov %d4,1365
800068d0:	3b e0 07 30 	mov %d3,126
800068d4:	7f 42 06 80 	jge.u %d2,%d4,800068e0 <_free_r+0x16a>
800068d8:	8f ef 1e 30 	sh %d3,%d15,-18
800068dc:	1b c3 07 30 	addi %d3,%d3,124
800068e0:	01 23 03 66 	addsc.a %a6,%a2,%d3,3
800068e4:	99 65 08 00 	ld.a %a5,[%a6]8
800068e8:	40 53       	mov.aa %a3,%a5
800068ea:	7d 65 0d 80 	jne.a %a5,%a6,80006904 <_free_r+0x18e>
800068ee:	4c 21       	ld.w %d15,[%a2]4
800068f0:	86 e3       	sha %d3,-2
800068f2:	d7 1f 01 33 	insert %d3,%d15,1,%d3,1
800068f6:	59 23 04 00 	st.w [%a2]4,%d3
800068fa:	3c 0d       	j 80006914 <_free_r+0x19e>
800068fc:	99 33 08 00 	ld.a %a3,[%a3]8
80006900:	7d 63 08 00 	jeq.a %a3,%a6,80006910 <_free_r+0x19a>
80006904:	19 32 04 00 	ld.w %d2,[%a3]4
80006908:	8f 32 c0 21 	andn %d2,%d2,3
8000690c:	3f 2f f8 ff 	jlt.u %d15,%d2,800068fc <_free_r+0x186>
80006910:	99 35 0c 00 	ld.a %a5,[%a3]12
80006914:	e8 35       	st.a [%a15]12,%a5
80006916:	e8 23       	st.a [%a15]8,%a3
80006918:	ec 52       	st.a [%a5]8,%a15
8000691a:	ec 33       	st.a [%a3]12,%a15
8000691c:	1d ff 67 ff 	j 800067ea <_free_r+0x74>
80006920:	00 90       	ret 

80006922 <_fseek_r>:
80006922:	20 40       	sub.a %sp,64
80006924:	40 4c       	mov.aa %a12,%a4
80006926:	40 5f       	mov.aa %a15,%a5
80006928:	02 4a       	mov %d10,%d4
8000692a:	02 58       	mov %d8,%d5
8000692c:	bc 45       	jz.a %a4,80006936 <_fseek_r+0x14>
8000692e:	4c 4e       	ld.w %d15,[%a4]56
80006930:	ee 03       	jnz %d15,80006936 <_fseek_r+0x14>
80006932:	6d ff 67 fd 	call 80006400 <__sinit>
80006936:	6d ff 1a fe 	call 8000656a <__sfp_lock_acquire>
8000693a:	8c f6       	ld.h %d15,[%a15]12
8000693c:	3b 80 10 20 	mov %d2,264
80006940:	8f 8f 10 f1 	and %d15,%d15,264
80006944:	7e 25       	jne %d15,%d2,8000694e <_fseek_r+0x2c>
80006946:	40 c4       	mov.aa %a4,%a12
80006948:	40 f5       	mov.aa %a5,%a15
8000694a:	6d ff a4 fc 	call 80006292 <_fflush_r>
8000694e:	c8 ad       	ld.a %a13,[%a15]40
80006950:	da 1d       	mov %d15,29
80006952:	bd 0d 31 00 	jz.a %a13,800069b4 <_fseek_r+0x92>
80006956:	df 18 08 00 	jeq %d8,1,80006966 <_fseek_r+0x44>
8000695a:	df 28 33 00 	jeq %d8,2,800069c0 <_fseek_r+0x9e>
8000695e:	da 16       	mov %d15,22
80006960:	df 08 2a 80 	jne %d8,0,800069b4 <_fseek_r+0x92>
80006964:	3c 2e       	j 800069c0 <_fseek_r+0x9e>
80006966:	40 c4       	mov.aa %a4,%a12
80006968:	40 f5       	mov.aa %a5,%a15
8000696a:	6d ff 94 fc 	call 80006292 <_fflush_r>
8000696e:	8c f6       	ld.h %d15,[%a15]12
80006970:	2e c4       	jz.t %d15,12,80006978 <_fseek_r+0x56>
80006972:	19 ff 10 10 	ld.w %d15,[%a15]80
80006976:	3c 0a       	j 8000698a <_fseek_r+0x68>
80006978:	c8 75       	ld.a %a5,[%a15]28
8000697a:	40 c4       	mov.aa %a4,%a12
8000697c:	82 04       	mov %d4,0
8000697e:	82 15       	mov %d5,1
80006980:	2d 0d 00 00 	calli %a13
80006984:	02 2f       	mov %d15,%d2
80006986:	df f2 18 00 	jeq %d2,-1,800069b6 <_fseek_r+0x94>
8000698a:	88 62       	ld.h %d2,[%a15]12
8000698c:	6f 22 09 00 	jz.t %d2,2,8000699e <_fseek_r+0x7c>
80006990:	48 12       	ld.w %d2,[%a15]4
80006992:	a2 2f       	sub %d15,%d2
80006994:	48 c2       	ld.w %d2,[%a15]48
80006996:	76 2b       	jz %d2,800069ac <_fseek_r+0x8a>
80006998:	48 f2       	ld.w %d2,[%a15]60
8000699a:	a2 2f       	sub %d15,%d2
8000699c:	3c 08       	j 800069ac <_fseek_r+0x8a>
8000699e:	6f 32 07 00 	jz.t %d2,3,800069ac <_fseek_r+0x8a>
800069a2:	48 02       	ld.w %d2,[%a15]0
800069a4:	76 24       	jz %d2,800069ac <_fseek_r+0x8a>
800069a6:	48 43       	ld.w %d3,[%a15]16
800069a8:	a2 32       	sub %d2,%d3
800069aa:	42 2f       	add %d15,%d2
800069ac:	42 fa       	add %d10,%d15
800069ae:	82 1b       	mov %d11,1
800069b0:	82 08       	mov %d8,0
800069b2:	3c 09       	j 800069c4 <_fseek_r+0xa2>
800069b4:	6c c0       	st.w [%a12]0,%d15
800069b6:	6d ff db fd 	call 8000656c <__sfp_lock_release>
800069ba:	82 ff       	mov %d15,-1
800069bc:	1d 00 ea 00 	j 80006b90 <_fseek_r+0x26e>
800069c0:	82 0b       	mov %d11,0
800069c2:	82 0f       	mov %d15,0
800069c4:	48 42       	ld.w %d2,[%a15]16
800069c6:	f6 25       	jnz %d2,800069d0 <_fseek_r+0xae>
800069c8:	40 c4       	mov.aa %a4,%a12
800069ca:	40 f5       	mov.aa %a5,%a15
800069cc:	6d 00 05 02 	call 80006dd6 <__smakebuf_r>
800069d0:	88 62       	ld.h %d2,[%a15]12
800069d2:	3b a0 81 30 	mov %d3,2074
800069d6:	26 23       	and %d3,%d2
800069d8:	df 03 b0 80 	jne %d3,0,80006b38 <_fseek_r+0x216>
800069dc:	6f a2 29 80 	jnz.t %d2,10,80006a2e <_fseek_r+0x10c>
800069e0:	91 00 00 28 	movh.a %a2,32768
800069e4:	d9 22 62 77 	lea %a2,[%a2]30178 <800075e2 <__sseek>>
800069e8:	7d 2d 08 00 	jeq.a %a13,%a2,800069f8 <_fseek_r+0xd6>
800069ec:	8c f6       	ld.h %d15,[%a15]12
800069ee:	b7 ff 81 f5 	insert %d15,%d15,15,11,1
800069f2:	a8 6f       	st.h [%a15]12,%d15
800069f4:	1d 00 a2 00 	j 80006b38 <_fseek_r+0x216>
800069f8:	88 74       	ld.h %d4,[%a15]14
800069fa:	bf 04 f9 7f 	jlt %d4,0,800069ec <_fseek_r+0xca>
800069fe:	40 c4       	mov.aa %a4,%a12
80006a00:	d9 a5 04 00 	lea %a5,[%sp]4
80006a04:	6d 00 cf 00 	call 80006ba2 <_fstat_r>
80006a08:	df 02 f2 ff 	jne %d2,0,800069ec <_fseek_r+0xca>
80006a0c:	19 a3 08 00 	ld.w %d3,[%sp]8
80006a10:	bb 00 00 2f 	mov.u %d2,61440
80006a14:	26 32       	and %d2,%d3
80006a16:	bb 00 00 38 	mov.u %d3,32768
80006a1a:	5f 32 e9 ff 	jne %d2,%d3,800069ec <_fseek_r+0xca>
80006a1e:	3b 00 40 20 	mov %d2,1024
80006a22:	59 f2 0c 10 	st.w [%a15]76,%d2
80006a26:	88 62       	ld.h %d2,[%a15]12
80006a28:	b7 f2 01 25 	insert %d2,%d2,15,10,1
80006a2c:	a8 62       	st.h [%a15]12,%d2
80006a2e:	02 a9       	mov %d9,%d10
80006a30:	76 8c       	jz %d8,80006a48 <_fseek_r+0x126>
80006a32:	40 c4       	mov.aa %a4,%a12
80006a34:	88 74       	ld.h %d4,[%a15]14
80006a36:	d9 a5 04 00 	lea %a5,[%sp]4
80006a3a:	6d 00 b4 00 	call 80006ba2 <_fstat_r>
80006a3e:	df 02 7d 80 	jne %d2,0,80006b38 <_fseek_r+0x216>
80006a42:	19 a9 14 00 	ld.w %d9,[%sp]20
80006a46:	42 a9       	add %d9,%d10
80006a48:	df 0b 15 80 	jne %d11,0,80006a72 <_fseek_r+0x150>
80006a4c:	8c f6       	ld.h %d15,[%a15]12
80006a4e:	2e c4       	jz.t %d15,12,80006a56 <_fseek_r+0x134>
80006a50:	19 f2 10 10 	ld.w %d2,[%a15]80
80006a54:	3c 09       	j 80006a66 <_fseek_r+0x144>
80006a56:	c8 75       	ld.a %a5,[%a15]28
80006a58:	40 c4       	mov.aa %a4,%a12
80006a5a:	82 04       	mov %d4,0
80006a5c:	82 15       	mov %d5,1
80006a5e:	2d 0d 00 00 	calli %a13
80006a62:	df f2 6b 00 	jeq %d2,-1,80006b38 <_fseek_r+0x216>
80006a66:	4c f1       	ld.w %d15,[%a15]4
80006a68:	5a f2       	sub %d15,%d2,%d15
80006a6a:	48 c2       	ld.w %d2,[%a15]48
80006a6c:	76 23       	jz %d2,80006a72 <_fseek_r+0x150>
80006a6e:	48 f2       	ld.w %d2,[%a15]60
80006a70:	a2 2f       	sub %d15,%d2
80006a72:	c8 c5       	ld.a %a5,[%a15]48
80006a74:	48 15       	ld.w %d5,[%a15]4
80006a76:	48 42       	ld.w %d2,[%a15]16
80006a78:	bc 58       	jz.a %a5,80006a88 <_fseek_r+0x166>
80006a7a:	48 e3       	ld.w %d3,[%a15]56
80006a7c:	48 f4       	ld.w %d4,[%a15]60
80006a7e:	a2 23       	sub %d3,%d2
80006a80:	42 5f       	add %d15,%d5
80006a82:	a2 3f       	sub %d15,%d3
80006a84:	42 43       	add %d3,%d4
80006a86:	3c 06       	j 80006a92 <_fseek_r+0x170>
80006a88:	48 04       	ld.w %d4,[%a15]0
80006a8a:	a2 24       	sub %d4,%d2
80006a8c:	a2 4f       	sub %d15,%d4
80006a8e:	0b 54 00 30 	add %d3,%d4,%d5
80006a92:	3f f9 19 00 	jlt %d9,%d15,80006ac4 <_fseek_r+0x1a2>
80006a96:	12 34       	add %d4,%d15,%d3
80006a98:	7f 49 16 80 	jge.u %d9,%d4,80006ac4 <_fseek_r+0x1a2>
80006a9c:	5a f9       	sub %d15,%d9,%d15
80006a9e:	42 f2       	add %d2,%d15
80006aa0:	5a f3       	sub %d15,%d3,%d15
80006aa2:	68 02       	st.w [%a15]0,%d2
80006aa4:	68 1f       	st.w [%a15]4,%d15
80006aa6:	bc 5a       	jz.a %a5,80006aba <_fseek_r+0x198>
80006aa8:	d9 f2 00 10 	lea %a2,[%a15]64
80006aac:	7d 25 05 00 	jeq.a %a5,%a2,80006ab6 <_fseek_r+0x194>
80006ab0:	40 c4       	mov.aa %a4,%a12
80006ab2:	6d ff 62 fe 	call 80006776 <_free_r>
80006ab6:	82 0f       	mov %d15,0
80006ab8:	68 cf       	st.w [%a15]48,%d15
80006aba:	8c f6       	ld.h %d15,[%a15]12
80006abc:	8f 0f c2 f1 	andn %d15,%d15,32
80006ac0:	a8 6f       	st.h [%a15]12,%d15
80006ac2:	3c 30       	j 80006b22 <_fseek_r+0x200>
80006ac4:	19 ff 0c 10 	ld.w %d15,[%a15]76
80006ac8:	c8 75       	ld.a %a5,[%a15]28
80006aca:	32 5f       	rsub %d15
80006acc:	26 9f       	and %d15,%d9
80006ace:	40 c4       	mov.aa %a4,%a12
80006ad0:	02 f4       	mov %d4,%d15
80006ad2:	82 05       	mov %d5,0
80006ad4:	2d 0d 00 00 	calli %a13
80006ad8:	df f2 30 00 	jeq %d2,-1,80006b38 <_fseek_r+0x216>
80006adc:	82 02       	mov %d2,0
80006ade:	68 12       	st.w [%a15]4,%d2
80006ae0:	c8 c5       	ld.a %a5,[%a15]48
80006ae2:	48 42       	ld.w %d2,[%a15]16
80006ae4:	68 02       	st.w [%a15]0,%d2
80006ae6:	bc 5a       	jz.a %a5,80006afa <_fseek_r+0x1d8>
80006ae8:	d9 f2 00 10 	lea %a2,[%a15]64
80006aec:	7d 25 05 00 	jeq.a %a5,%a2,80006af6 <_fseek_r+0x1d4>
80006af0:	40 c4       	mov.aa %a4,%a12
80006af2:	6d ff 42 fe 	call 80006776 <_free_r>
80006af6:	82 02       	mov %d2,0
80006af8:	68 c2       	st.w [%a15]48,%d2
80006afa:	88 62       	ld.h %d2,[%a15]12
80006afc:	a2 f9       	sub %d9,%d15
80006afe:	8f 02 c2 21 	andn %d2,%d2,32
80006b02:	a8 62       	st.h [%a15]12,%d2
80006b04:	76 9f       	jz %d9,80006b22 <_fseek_r+0x200>
80006b06:	40 c4       	mov.aa %a4,%a12
80006b08:	40 f5       	mov.aa %a5,%a15
80006b0a:	6d 00 4f 04 	call 800073a8 <__srefill_r>
80006b0e:	df 02 15 80 	jne %d2,0,80006b38 <_fseek_r+0x216>
80006b12:	4c f1       	ld.w %d15,[%a15]4
80006b14:	3f 9f 12 80 	jlt.u %d15,%d9,80006b38 <_fseek_r+0x216>
80006b18:	48 02       	ld.w %d2,[%a15]0
80006b1a:	42 92       	add %d2,%d9
80006b1c:	52 99       	sub %d9,%d15,%d9
80006b1e:	68 02       	st.w [%a15]0,%d2
80006b20:	68 19       	st.w [%a15]4,%d9
80006b22:	d9 f4 1c 10 	lea %a4,[%a15]92
80006b26:	82 04       	mov %d4,0
80006b28:	3b 80 00 50 	mov %d5,8
80006b2c:	6d 00 19 04 	call 8000735e <memset>
80006b30:	6d ff 1e fd 	call 8000656c <__sfp_lock_release>
80006b34:	82 0f       	mov %d15,0
80006b36:	3c 2d       	j 80006b90 <_fseek_r+0x26e>
80006b38:	40 c4       	mov.aa %a4,%a12
80006b3a:	40 f5       	mov.aa %a5,%a15
80006b3c:	6d ff ab fb 	call 80006292 <_fflush_r>
80006b40:	02 2f       	mov %d15,%d2
80006b42:	df 02 3a ff 	jne %d2,0,800069b6 <_fseek_r+0x94>
80006b46:	c8 75       	ld.a %a5,[%a15]28
80006b48:	40 c4       	mov.aa %a4,%a12
80006b4a:	0b a8 10 48 	mov %e4,%d8,%d10
80006b4e:	2d 0d 00 00 	calli %a13
80006b52:	df f2 32 7f 	jeq %d2,-1,800069b6 <_fseek_r+0x94>
80006b56:	c8 c5       	ld.a %a5,[%a15]48
80006b58:	bc 5a       	jz.a %a5,80006b6c <_fseek_r+0x24a>
80006b5a:	d9 f2 00 10 	lea %a2,[%a15]64
80006b5e:	7d 25 05 00 	jeq.a %a5,%a2,80006b68 <_fseek_r+0x246>
80006b62:	40 c4       	mov.aa %a4,%a12
80006b64:	6d ff 09 fe 	call 80006776 <_free_r>
80006b68:	82 02       	mov %d2,0
80006b6a:	68 c2       	st.w [%a15]48,%d2
80006b6c:	48 43       	ld.w %d3,[%a15]16
80006b6e:	82 02       	mov %d2,0
80006b70:	68 12       	st.w [%a15]4,%d2
80006b72:	88 62       	ld.h %d2,[%a15]12
80006b74:	68 03       	st.w [%a15]0,%d3
80006b76:	3b f0 7d 3f 	mov %d3,-2081
80006b7a:	26 32       	and %d2,%d3
80006b7c:	a8 62       	st.h [%a15]12,%d2
80006b7e:	d9 f4 1c 10 	lea %a4,[%a15]92
80006b82:	82 04       	mov %d4,0
80006b84:	3b 80 00 50 	mov %d5,8
80006b88:	6d 00 eb 03 	call 8000735e <memset>
80006b8c:	6d ff f0 fc 	call 8000656c <__sfp_lock_release>
80006b90:	02 f2       	mov %d2,%d15
80006b92:	00 90       	ret 

80006b94 <fseek>:
80006b94:	91 00 00 f7 	movh.a %a15,28672
80006b98:	40 45       	mov.aa %a5,%a4
80006b9a:	99 f4 40 c5 	ld.a %a4,[%a15]22272 <70005700 <_impure_ptr>>
80006b9e:	1d ff c2 fe 	j 80006922 <_fseek_r>

80006ba2 <_fstat_r>:
80006ba2:	40 4f       	mov.aa %a15,%a4
80006ba4:	91 00 00 c7 	movh.a %a12,28672
80006ba8:	82 0f       	mov %d15,0
80006baa:	40 54       	mov.aa %a4,%a5
80006bac:	59 cf 70 b7 	st.w [%a12]30448 <700076f0 <errno>>,%d15
80006bb0:	6d 00 4f 1c 	call 8000a44e <fstat>
80006bb4:	df f2 06 80 	jne %d2,-1,80006bc0 <_fstat_r+0x1e>
80006bb8:	19 cf 70 b7 	ld.w %d15,[%a12]30448 <700076f0 <errno>>
80006bbc:	6e 02       	jz %d15,80006bc0 <_fstat_r+0x1e>
80006bbe:	68 0f       	st.w [%a15]0,%d15
80006bc0:	00 90       	ret 

80006bc2 <_ftell_r>:
80006bc2:	40 4c       	mov.aa %a12,%a4
80006bc4:	40 5f       	mov.aa %a15,%a5
80006bc6:	bc 45       	jz.a %a4,80006bd0 <_ftell_r+0xe>
80006bc8:	4c 4e       	ld.w %d15,[%a4]56
80006bca:	ee 03       	jnz %d15,80006bd0 <_ftell_r+0xe>
80006bcc:	6d ff 1a fc 	call 80006400 <__sinit>
80006bd0:	4c fa       	ld.w %d15,[%a15]40
80006bd2:	ee 05       	jnz %d15,80006bdc <_ftell_r+0x1a>
80006bd4:	da 1d       	mov %d15,29
80006bd6:	6c c0       	st.w [%a12]0,%d15
80006bd8:	82 ff       	mov %d15,-1
80006bda:	3c 28       	j 80006c2a <_ftell_r+0x68>
80006bdc:	8c f6       	ld.h %d15,[%a15]12
80006bde:	2e 35       	jz.t %d15,3,80006be8 <_ftell_r+0x26>
80006be0:	40 c4       	mov.aa %a4,%a12
80006be2:	40 f5       	mov.aa %a5,%a15
80006be4:	6d ff 57 fb 	call 80006292 <_fflush_r>
80006be8:	8c f6       	ld.h %d15,[%a15]12
80006bea:	2e c4       	jz.t %d15,12,80006bf2 <_ftell_r+0x30>
80006bec:	19 f2 10 10 	ld.w %d2,[%a15]80
80006bf0:	3c 0b       	j 80006c06 <_ftell_r+0x44>
80006bf2:	c8 a2       	ld.a %a2,[%a15]40
80006bf4:	c8 75       	ld.a %a5,[%a15]28
80006bf6:	40 c4       	mov.aa %a4,%a12
80006bf8:	82 04       	mov %d4,0
80006bfa:	82 15       	mov %d5,1
80006bfc:	2d 02 00 00 	calli %a2
80006c00:	82 ff       	mov %d15,-1
80006c02:	df f2 14 00 	jeq %d2,-1,80006c2a <_ftell_r+0x68>
80006c06:	88 63       	ld.h %d3,[%a15]12
80006c08:	6f 23 09 00 	jz.t %d3,2,80006c1a <_ftell_r+0x58>
80006c0c:	4c f1       	ld.w %d15,[%a15]4
80006c0e:	48 c3       	ld.w %d3,[%a15]48
80006c10:	5a f2       	sub %d15,%d2,%d15
80006c12:	76 3c       	jz %d3,80006c2a <_ftell_r+0x68>
80006c14:	48 f2       	ld.w %d2,[%a15]60
80006c16:	a2 2f       	sub %d15,%d2
80006c18:	3c 09       	j 80006c2a <_ftell_r+0x68>
80006c1a:	02 2f       	mov %d15,%d2
80006c1c:	6f 33 07 00 	jz.t %d3,3,80006c2a <_ftell_r+0x68>
80006c20:	48 02       	ld.w %d2,[%a15]0
80006c22:	76 24       	jz %d2,80006c2a <_ftell_r+0x68>
80006c24:	48 43       	ld.w %d3,[%a15]16
80006c26:	a2 32       	sub %d2,%d3
80006c28:	42 2f       	add %d15,%d2
80006c2a:	02 f2       	mov %d2,%d15
80006c2c:	00 90       	ret 

80006c2e <ftell>:
80006c2e:	91 00 00 f7 	movh.a %a15,28672
80006c32:	40 45       	mov.aa %a5,%a4
80006c34:	99 f4 40 c5 	ld.a %a4,[%a15]22272 <70005700 <_impure_ptr>>
80006c38:	1d ff c5 ff 	j 80006bc2 <_ftell_r>

80006c3c <_fwalk>:
80006c3c:	40 4f       	mov.aa %a15,%a4
80006c3e:	40 5d       	mov.aa %a13,%a5
80006c40:	6d ff 95 fc 	call 8000656a <__sfp_lock_acquire>
80006c44:	d9 ff 20 b0 	lea %a15,[%a15]736
80006c48:	82 0f       	mov %d15,0
80006c4a:	bd 0f 16 00 	jz.a %a15,80006c76 <_fwalk+0x3a>
80006c4e:	c8 2c       	ld.a %a12,[%a15]8
80006c50:	48 18       	ld.w %d8,[%a15]4
80006c52:	c2 f8       	add %d8,-1
80006c54:	0e 8f       	jltz %d8,80006c72 <_fwalk+0x36>
80006c56:	c9 c2 0c 00 	ld.h %d2,[%a12]12
80006c5a:	76 29       	jz %d2,80006c6c <_fwalk+0x30>
80006c5c:	c9 c2 0e 00 	ld.h %d2,[%a12]14
80006c60:	df f2 06 00 	jeq %d2,-1,80006c6c <_fwalk+0x30>
80006c64:	40 c4       	mov.aa %a4,%a12
80006c66:	2d 0d 00 00 	calli %a13
80006c6a:	a6 2f       	or %d15,%d2
80006c6c:	d9 cc 28 10 	lea %a12,[%a12]104
80006c70:	3c f1       	j 80006c52 <_fwalk+0x16>
80006c72:	c8 0f       	ld.a %a15,[%a15]0
80006c74:	3c eb       	j 80006c4a <_fwalk+0xe>
80006c76:	6d ff 7b fc 	call 8000656c <__sfp_lock_release>
80006c7a:	02 f2       	mov %d2,%d15
80006c7c:	00 90       	ret 

80006c7e <_fwalk_reent>:
80006c7e:	40 5e       	mov.aa %a14,%a5
80006c80:	40 4d       	mov.aa %a13,%a4
80006c82:	6d ff 74 fc 	call 8000656a <__sfp_lock_acquire>
80006c86:	d9 df 20 b0 	lea %a15,[%a13]736
80006c8a:	82 0f       	mov %d15,0
80006c8c:	bd 0f 18 00 	jz.a %a15,80006cbc <_fwalk_reent+0x3e>
80006c90:	c8 2c       	ld.a %a12,[%a15]8
80006c92:	48 18       	ld.w %d8,[%a15]4
80006c94:	c2 f8       	add %d8,-1
80006c96:	bf 08 11 00 	jlt %d8,0,80006cb8 <_fwalk_reent+0x3a>
80006c9a:	c9 c2 0c 00 	ld.h %d2,[%a12]12
80006c9e:	76 2a       	jz %d2,80006cb2 <_fwalk_reent+0x34>
80006ca0:	c9 c2 0e 00 	ld.h %d2,[%a12]14
80006ca4:	df f2 07 00 	jeq %d2,-1,80006cb2 <_fwalk_reent+0x34>
80006ca8:	40 d4       	mov.aa %a4,%a13
80006caa:	40 c5       	mov.aa %a5,%a12
80006cac:	2d 0e 00 00 	calli %a14
80006cb0:	a6 2f       	or %d15,%d2
80006cb2:	d9 cc 28 10 	lea %a12,[%a12]104
80006cb6:	3c ef       	j 80006c94 <_fwalk_reent+0x16>
80006cb8:	c8 0f       	ld.a %a15,[%a15]0
80006cba:	3c e9       	j 80006c8c <_fwalk_reent+0xe>
80006cbc:	6d ff 58 fc 	call 8000656c <__sfp_lock_release>
80006cc0:	02 f2       	mov %d2,%d15
80006cc2:	00 90       	ret 

80006cc4 <_fwrite_r>:
80006cc4:	0b 45 10 88 	mov %e8,%d5,%d4
80006cc8:	73 89 0a f0 	mul %d15,%d9,%d8
80006ccc:	20 18       	sub.a %sp,24
80006cce:	d9 a2 04 00 	lea %a2,[%sp]4
80006cd2:	82 12       	mov %d2,1
80006cd4:	b5 a5 04 00 	st.a [%sp]4,%a5
80006cd8:	78 02       	st.w [%sp]8,%d15
80006cda:	78 05       	st.w [%sp]20,%d15
80006cdc:	b5 a2 0c 00 	st.a [%sp]12,%a2
80006ce0:	59 a2 10 00 	st.w [%sp]16,%d2
80006ce4:	40 4f       	mov.aa %a15,%a4
80006ce6:	40 6c       	mov.aa %a12,%a6
80006ce8:	bc 46       	jz.a %a4,80006cf4 <_fwrite_r+0x30>
80006cea:	19 42 38 00 	ld.w %d2,[%a4]56
80006cee:	f6 23       	jnz %d2,80006cf4 <_fwrite_r+0x30>
80006cf0:	6d ff 88 fb 	call 80006400 <__sinit>
80006cf4:	c9 c2 0c 00 	ld.h %d2,[%a12]12
80006cf8:	6f d2 0b 80 	jnz.t %d2,13,80006d0e <_fwrite_r+0x4a>
80006cfc:	b7 f2 81 26 	insert %d2,%d2,15,13,1
80006d00:	82 0a       	mov %d10,0
80006d02:	3b 00 00 b2 	mov %d11,8192
80006d06:	f9 c2 0c 00 	st.h [%a12]12,%d2
80006d0a:	49 ca 64 18 	ldmst [%a12]100,%e10
80006d0e:	40 f4       	mov.aa %a4,%a15
80006d10:	40 c5       	mov.aa %a5,%a12
80006d12:	d9 a6 0c 00 	lea %a6,[%sp]12
80006d16:	6d 00 fe 14 	call 80009712 <__sfvwrite_r>
80006d1a:	02 95       	mov %d5,%d9
80006d1c:	76 27       	jz %d2,80006d2a <_fwrite_r+0x66>
80006d1e:	19 a2 14 00 	ld.w %d2,[%sp]20
80006d22:	52 22       	sub %d2,%d15,%d2
80006d24:	4b 82 11 22 	div.u %e2,%d2,%d8
80006d28:	02 25       	mov %d5,%d2
80006d2a:	02 52       	mov %d2,%d5
80006d2c:	00 90       	ret 

80006d2e <fwrite>:
80006d2e:	91 00 00 27 	movh.a %a2,28672
80006d32:	40 4f       	mov.aa %a15,%a4
80006d34:	99 24 40 c5 	ld.a %a4,[%a2]22272 <70005700 <_impure_ptr>>
80006d38:	40 56       	mov.aa %a6,%a5
80006d3a:	40 f5       	mov.aa %a5,%a15
80006d3c:	1d ff c4 ff 	j 80006cc4 <_fwrite_r>

80006d40 <getenv>:
80006d40:	91 00 00 f7 	movh.a %a15,28672
80006d44:	40 45       	mov.aa %a5,%a4
80006d46:	99 f4 40 c5 	ld.a %a4,[%a15]22272 <70005700 <_impure_ptr>>
80006d4a:	20 08       	sub.a %sp,8
80006d4c:	d9 a6 04 00 	lea %a6,[%sp]4
80006d50:	1d 00 02 00 	j 80006d54 <_findenv_r>

80006d54 <_findenv_r>:
80006d54:	40 5c       	mov.aa %a12,%a5
80006d56:	40 4d       	mov.aa %a13,%a4
80006d58:	80 68       	mov.d %d8,%a6
80006d5a:	6d 00 ab 14 	call 800096b0 <__env_lock>
80006d5e:	91 00 00 27 	movh.a %a2,28672
80006d62:	99 2f c0 d5 	ld.a %a15,[%a2]24384 <70005f40 <environ>>
80006d66:	80 29       	mov.d %d9,%a2
80006d68:	40 c2       	mov.aa %a2,%a12
80006d6a:	7c f6       	jnz.a %a15,80006d76 <_findenv_r+0x22>
80006d6c:	40 d4       	mov.aa %a4,%a13
80006d6e:	6d 00 a2 14 	call 800096b2 <__env_unlock>
80006d72:	a0 02       	mov.a %a2,0
80006d74:	00 90       	ret 
80006d76:	79 2f 00 00 	ld.b %d15,[%a2]0
80006d7a:	8b 0f 20 22 	ne %d2,%d15,0
80006d7e:	8b df 23 24 	and.ne %d2,%d15,61
80006d82:	8b df 23 32 	ne %d3,%d15,61
80006d86:	76 23       	jz %d2,80006d8c <_findenv_r+0x38>
80006d88:	b0 12       	add.a %a2,1
80006d8a:	3c f6       	j 80006d76 <_findenv_r+0x22>
80006d8c:	01 c2 20 20 	sub.a %a2,%a2,%a12
80006d90:	80 2f       	mov.d %d15,%a2
80006d92:	df 03 ed 7f 	jeq %d3,0,80006d6c <_findenv_r+0x18>
80006d96:	c8 04       	ld.a %a4,[%a15]0
80006d98:	bd 04 ea 7f 	jz.a %a4,80006d6c <_findenv_r+0x18>
80006d9c:	40 c5       	mov.aa %a5,%a12
80006d9e:	02 f4       	mov %d4,%d15
80006da0:	6d 00 44 04 	call 80007628 <strncmp>
80006da4:	df 02 17 80 	jne %d2,0,80006dd2 <_findenv_r+0x7e>
80006da8:	c8 02       	ld.a %a2,[%a15]0
80006daa:	10 2e       	addsc.a %a14,%a2,%d15,0
80006dac:	79 e2 00 00 	ld.b %d2,[%a14]0
80006db0:	8b d2 23 22 	ne %d2,%d2,61
80006db4:	f6 2f       	jnz %d2,80006dd2 <_findenv_r+0x7e>
80006db6:	60 92       	mov.a %a2,%d9
80006db8:	80 f2       	mov.d %d2,%a15
80006dba:	19 2f c0 d5 	ld.w %d15,[%a2]24384
80006dbe:	60 82       	mov.a %a2,%d8
80006dc0:	5a f2       	sub %d15,%d2,%d15
80006dc2:	86 ef       	sha %d15,-2
80006dc4:	6c 20       	st.w [%a2]0,%d15
80006dc6:	40 d4       	mov.aa %a4,%a13
80006dc8:	6d 00 75 14 	call 800096b2 <__env_unlock>
80006dcc:	d9 e2 01 00 	lea %a2,[%a14]1
80006dd0:	00 90       	ret 
80006dd2:	b0 4f       	add.a %a15,4
80006dd4:	3c e1       	j 80006d96 <_findenv_r+0x42>

80006dd6 <__smakebuf_r>:
80006dd6:	8c 56       	ld.h %d15,[%a5]12
80006dd8:	20 40       	sub.a %sp,64
80006dda:	40 4c       	mov.aa %a12,%a4
80006ddc:	2e 18       	jz.t %d15,1,80006dec <__smakebuf_r+0x16>
80006dde:	d9 5f 03 10 	lea %a15,[%a5]67
80006de2:	82 1f       	mov %d15,1
80006de4:	ec 50       	st.a [%a5]0,%a15
80006de6:	ec 54       	st.a [%a5]16,%a15
80006de8:	6c 55       	st.w [%a5]20,%d15
80006dea:	00 90       	ret 
80006dec:	c9 54 0e 00 	ld.h %d4,[%a5]14
80006df0:	40 5f       	mov.aa %a15,%a5
80006df2:	ce 4d       	jgez %d4,80006e0c <__smakebuf_r+0x36>
80006df4:	88 62       	ld.h %d2,[%a15]12
80006df6:	3b 00 40 f0 	mov %d15,1024
80006dfa:	8f 02 08 31 	and %d3,%d2,128
80006dfe:	b7 f2 81 25 	insert %d2,%d2,15,11,1
80006e02:	ab 0f a4 f3 	seln %d15,%d3,%d15,64
80006e06:	a8 62       	st.h [%a15]12,%d2
80006e08:	82 08       	mov %d8,0
80006e0a:	3c 28       	j 80006e5a <__smakebuf_r+0x84>
80006e0c:	d9 a5 04 00 	lea %a5,[%sp]4
80006e10:	6d ff c9 fe 	call 80006ba2 <_fstat_r>
80006e14:	bf 02 f0 7f 	jlt %d2,0,80006df4 <__smakebuf_r+0x1e>
80006e18:	58 02       	ld.w %d15,[%sp]8
80006e1a:	bb 00 00 2f 	mov.u %d2,61440
80006e1e:	26 f2       	and %d2,%d15
80006e20:	3b 00 00 82 	mov %d8,8192
80006e24:	bb 00 00 38 	mov.u %d3,32768
80006e28:	0b 82 00 81 	eq %d8,%d2,%d8
80006e2c:	8c f6       	ld.h %d15,[%a15]12
80006e2e:	5f 32 11 80 	jne %d2,%d3,80006e50 <__smakebuf_r+0x7a>
80006e32:	7b 00 00 28 	movh %d2,32768
80006e36:	48 a3       	ld.w %d3,[%a15]40
80006e38:	1b 22 5e 27 	addi %d2,%d2,30178
80006e3c:	5f 23 0a 80 	jne %d3,%d2,80006e50 <__smakebuf_r+0x7a>
80006e40:	b7 ff 01 f5 	insert %d15,%d15,15,10,1
80006e44:	a8 6f       	st.h [%a15]12,%d15
80006e46:	3b 00 40 f0 	mov %d15,1024
80006e4a:	59 ff 0c 10 	st.w [%a15]76,%d15
80006e4e:	3c 06       	j 80006e5a <__smakebuf_r+0x84>
80006e50:	b7 ff 81 f5 	insert %d15,%d15,15,11,1
80006e54:	a8 6f       	st.h [%a15]12,%d15
80006e56:	3b 00 40 f0 	mov %d15,1024
80006e5a:	40 c4       	mov.aa %a4,%a12
80006e5c:	02 f4       	mov %d4,%d15
80006e5e:	6d 00 33 00 	call 80006ec4 <_malloc_r>
80006e62:	7c 2d       	jnz.a %a2,80006e7c <__smakebuf_r+0xa6>
80006e64:	8c f6       	ld.h %d15,[%a15]12
80006e66:	6f 9f 21 80 	jnz.t %d15,9,80006ea8 <__smakebuf_r+0xd2>
80006e6a:	96 02       	or %d15,2
80006e6c:	d9 f2 03 10 	lea %a2,[%a15]67
80006e70:	a8 6f       	st.h [%a15]12,%d15
80006e72:	82 1f       	mov %d15,1
80006e74:	e8 02       	st.a [%a15]0,%a2
80006e76:	e8 42       	st.a [%a15]16,%a2
80006e78:	68 5f       	st.w [%a15]20,%d15
80006e7a:	00 90       	ret 
80006e7c:	7b 00 00 28 	movh %d2,32768
80006e80:	1b 82 3c 26 	addi %d2,%d2,25544
80006e84:	59 c2 3c 00 	st.w [%a12]60,%d2
80006e88:	88 62       	ld.h %d2,[%a15]12
80006e8a:	e8 02       	st.a [%a15]0,%a2
80006e8c:	8f 02 48 21 	or %d2,%d2,128
80006e90:	a8 62       	st.h [%a15]12,%d2
80006e92:	e8 42       	st.a [%a15]16,%a2
80006e94:	68 5f       	st.w [%a15]20,%d15
80006e96:	76 89       	jz %d8,80006ea8 <__smakebuf_r+0xd2>
80006e98:	40 c4       	mov.aa %a4,%a12
80006e9a:	88 74       	ld.h %d4,[%a15]14
80006e9c:	6d 00 71 15 	call 8000997e <_isatty_r>
80006ea0:	76 24       	jz %d2,80006ea8 <__smakebuf_r+0xd2>
80006ea2:	8c f6       	ld.h %d15,[%a15]12
80006ea4:	96 01       	or %d15,1
80006ea6:	a8 6f       	st.h [%a15]12,%d15
80006ea8:	00 90       	ret 

80006eaa <malloc>:
80006eaa:	91 00 00 f7 	movh.a %a15,28672
80006eae:	99 f4 40 c5 	ld.a %a4,[%a15]22272 <70005700 <_impure_ptr>>
80006eb2:	1d 00 09 00 	j 80006ec4 <_malloc_r>

80006eb6 <free>:
80006eb6:	91 00 00 f7 	movh.a %a15,28672
80006eba:	40 45       	mov.aa %a5,%a4
80006ebc:	99 f4 40 c5 	ld.a %a4,[%a15]22272 <70005700 <_impure_ptr>>
80006ec0:	1d ff 5b fc 	j 80006776 <_free_r>

80006ec4 <_malloc_r>:
80006ec4:	1b b4 00 f0 	addi %d15,%d4,11
80006ec8:	8b 7f 61 82 	lt.u %d8,%d15,23
80006ecc:	8f 7f c0 f1 	andn %d15,%d15,7
80006ed0:	ab 0f a1 88 	seln %d8,%d8,%d15,16
80006ed4:	0b 48 30 41 	lt.u %d4,%d8,%d4
80006ed8:	8b 08 20 45 	or.lt %d4,%d8,0
80006edc:	40 4d       	mov.aa %a13,%a4
80006ede:	76 45       	jz %d4,80006ee8 <_malloc_r+0x24>
80006ee0:	da 0c       	mov %d15,12
80006ee2:	6c 40       	st.w [%a4]0,%d15
80006ee4:	1d 00 2a 02 	j 80007338 <_malloc_r+0x474>
80006ee8:	91 00 00 f7 	movh.a %a15,28672
80006eec:	8b 88 bf f2 	ge.u %d15,%d8,504
80006ef0:	6d 00 3f 02 	call 8000736e <__malloc_lock>
80006ef4:	d9 ff b0 c5 	lea %a15,[%a15]23344 <70005b30 <__malloc_av_>>
80006ef8:	ee 19       	jnz %d15,80006f2a <_malloc_r+0x66>
80006efa:	8f d8 1f 20 	sh %d2,%d8,-3
80006efe:	01 f2 03 26 	addsc.a %a2,%a15,%d2,3
80006f02:	99 2c 0c 00 	ld.a %a12,[%a2]12
80006f06:	7d 2c 09 80 	jne.a %a12,%a2,80006f18 <_malloc_r+0x54>
80006f0a:	d9 c2 08 00 	lea %a2,[%a12]8
80006f0e:	99 cc 14 00 	ld.a %a12,[%a12]20
80006f12:	c2 22       	add %d2,2
80006f14:	7d 2c 58 00 	jeq.a %a12,%a2,80006fc4 <_malloc_r+0x100>
80006f18:	cc c3       	ld.a %a15,[%a12]12
80006f1a:	99 c2 08 00 	ld.a %a2,[%a12]8
80006f1e:	4c c1       	ld.w %d15,[%a12]4
80006f20:	ec 23       	st.a [%a2]12,%a15
80006f22:	8f 3f c0 f1 	andn %d15,%d15,3
80006f26:	e8 22       	st.a [%a15]8,%a2
80006f28:	3c 74       	j 80007010 <_malloc_r+0x14c>
80006f2a:	8f 78 1f f0 	sh %d15,%d8,-9
80006f2e:	3b f0 03 20 	mov %d2,63
80006f32:	6e 27       	jz %d15,80006f80 <_malloc_r+0xbc>
80006f34:	8f a8 1f 20 	sh %d2,%d8,-6
80006f38:	1b 82 03 20 	addi %d2,%d2,56
80006f3c:	bf 5f 22 80 	jlt.u %d15,5,80006f80 <_malloc_r+0xbc>
80006f40:	8b 5f a1 22 	ge.u %d2,%d15,21
80006f44:	f6 24       	jnz %d2,80006f4c <_malloc_r+0x88>
80006f46:	1b bf 05 20 	addi %d2,%d15,91
80006f4a:	3c 1b       	j 80006f80 <_malloc_r+0xbc>
80006f4c:	8b 5f a5 22 	ge.u %d2,%d15,85
80006f50:	f6 26       	jnz %d2,80006f5c <_malloc_r+0x98>
80006f52:	8f 48 1f 20 	sh %d2,%d8,-12
80006f56:	1b e2 06 20 	addi %d2,%d2,110
80006f5a:	3c 13       	j 80006f80 <_malloc_r+0xbc>
80006f5c:	8b 5f b5 22 	ge.u %d2,%d15,341
80006f60:	f6 26       	jnz %d2,80006f6c <_malloc_r+0xa8>
80006f62:	8f 18 1f 20 	sh %d2,%d8,-15
80006f66:	1b 72 07 20 	addi %d2,%d2,119
80006f6a:	3c 0b       	j 80006f80 <_malloc_r+0xbc>
80006f6c:	3b 50 55 30 	mov %d3,1365
80006f70:	3b e0 07 20 	mov %d2,126
80006f74:	7f 3f 06 80 	jge.u %d15,%d3,80006f80 <_malloc_r+0xbc>
80006f78:	8f e8 1e 20 	sh %d2,%d8,-18
80006f7c:	1b c2 07 20 	addi %d2,%d2,124
80006f80:	01 f2 03 26 	addsc.a %a2,%a15,%d2,3
80006f84:	99 2c 0c 00 	ld.a %a12,[%a2]12
80006f88:	7d 2c 1d 00 	jeq.a %a12,%a2,80006fc2 <_malloc_r+0xfe>
80006f8c:	19 c4 04 00 	ld.w %d4,[%a12]4
80006f90:	8f 34 c0 41 	andn %d4,%d4,3
80006f94:	5a 84       	sub %d15,%d4,%d8
80006f96:	8b 0f 41 32 	lt %d3,%d15,16
80006f9a:	f6 33       	jnz %d3,80006fa0 <_malloc_r+0xdc>
80006f9c:	c2 f2       	add %d2,-1
80006f9e:	3c 12       	j 80006fc2 <_malloc_r+0xfe>
80006fa0:	0e fe       	jltz %d15,80006fbc <_malloc_r+0xf8>
80006fa2:	cc c3       	ld.a %a15,[%a12]12
80006fa4:	99 c2 08 00 	ld.a %a2,[%a12]8
80006fa8:	ec 23       	st.a [%a2]12,%a15
80006faa:	e8 22       	st.a [%a15]8,%a2
80006fac:	01 c4 00 f6 	addsc.a %a15,%a12,%d4,0
80006fb0:	b7 10 21 20 	imask %e2,1,0,1
80006fb4:	49 f2 44 08 	ldmst [%a15]4,%e2
80006fb8:	1d 00 cc 01 	j 80007350 <_malloc_r+0x48c>
80006fbc:	99 cc 0c 00 	ld.a %a12,[%a12]12
80006fc0:	3c e4       	j 80006f88 <_malloc_r+0xc4>
80006fc2:	c2 12       	add %d2,1
80006fc4:	c8 4c       	ld.a %a12,[%a15]16
80006fc6:	91 00 00 37 	movh.a %a3,28672
80006fca:	d9 33 b8 c5 	lea %a3,[%a3]23352 <70005b38 <__malloc_av_+0x8>>
80006fce:	7d 3c 83 00 	jeq.a %a12,%a3,800070d4 <_malloc_r+0x210>
80006fd2:	4c c1       	ld.w %d15,[%a12]4
80006fd4:	8f 3f c0 f1 	andn %d15,%d15,3
80006fd8:	52 83       	sub %d3,%d15,%d8
80006fda:	8b 03 41 42 	lt %d4,%d3,16
80006fde:	df 04 16 80 	jne %d4,0,8000700a <_malloc_r+0x146>
80006fe2:	01 c8 00 26 	addsc.a %a2,%a12,%d8,0
80006fe6:	8f 18 40 81 	or %d8,%d8,1
80006fea:	59 c8 04 00 	st.w [%a12]4,%d8
80006fee:	e8 52       	st.a [%a15]20,%a2
80006ff0:	e8 42       	st.a [%a15]16,%a2
80006ff2:	8f 13 40 f1 	or %d15,%d3,1
80006ff6:	b5 23 0c 00 	st.a [%a2]12,%a3
80006ffa:	b5 23 08 00 	st.a [%a2]8,%a3
80006ffe:	6c 21       	st.w [%a2]4,%d15
80007000:	01 23 00 26 	addsc.a %a2,%a2,%d3,0
80007004:	74 23       	st.w [%a2],%d3
80007006:	1d 00 a5 01 	j 80007350 <_malloc_r+0x48c>
8000700a:	e8 53       	st.a [%a15]20,%a3
8000700c:	e8 43       	st.a [%a15]16,%a3
8000700e:	0e 33       	jltz %d3,80007014 <_malloc_r+0x150>
80007010:	10 cf       	addsc.a %a15,%a12,%d15,0
80007012:	3c cf       	j 80006fb0 <_malloc_r+0xec>
80007014:	3b 00 20 30 	mov %d3,512
80007018:	7f 3f 15 80 	jge.u %d15,%d3,80007042 <_malloc_r+0x17e>
8000701c:	06 df       	sh %d15,-3
8000701e:	d0 f2       	addsc.a %a2,%a15,%d15,3
80007020:	48 14       	ld.w %d4,[%a15]4
80007022:	99 24 08 00 	ld.a %a4,[%a2]8
80007026:	8f ef 3f 30 	sha %d3,%d15,-2
8000702a:	b5 c2 0c 00 	st.a [%a12]12,%a2
8000702e:	b5 c4 08 00 	st.a [%a12]8,%a4
80007032:	d7 14 01 33 	insert %d3,%d4,1,%d3,1
80007036:	b5 2c 08 00 	st.a [%a2]8,%a12
8000703a:	68 13       	st.w [%a15]4,%d3
8000703c:	b5 4c 0c 00 	st.a [%a4]12,%a12
80007040:	3c 4a       	j 800070d4 <_malloc_r+0x210>
80007042:	8f af 1f 40 	sh %d4,%d15,-6
80007046:	8f 7f 1f 30 	sh %d3,%d15,-9
8000704a:	1b 84 03 40 	addi %d4,%d4,56
8000704e:	bf 53 22 80 	jlt.u %d3,5,80007092 <_malloc_r+0x1ce>
80007052:	8b 53 a1 42 	ge.u %d4,%d3,21
80007056:	f6 44       	jnz %d4,8000705e <_malloc_r+0x19a>
80007058:	1b b3 05 40 	addi %d4,%d3,91
8000705c:	3c 1b       	j 80007092 <_malloc_r+0x1ce>
8000705e:	8b 53 a5 42 	ge.u %d4,%d3,85
80007062:	f6 46       	jnz %d4,8000706e <_malloc_r+0x1aa>
80007064:	8f 4f 1f 40 	sh %d4,%d15,-12
80007068:	1b e4 06 40 	addi %d4,%d4,110
8000706c:	3c 13       	j 80007092 <_malloc_r+0x1ce>
8000706e:	8b 53 b5 42 	ge.u %d4,%d3,341
80007072:	f6 46       	jnz %d4,8000707e <_malloc_r+0x1ba>
80007074:	8f 1f 1f 40 	sh %d4,%d15,-15
80007078:	1b 74 07 40 	addi %d4,%d4,119
8000707c:	3c 0b       	j 80007092 <_malloc_r+0x1ce>
8000707e:	3b 50 55 50 	mov %d5,1365
80007082:	3b e0 07 40 	mov %d4,126
80007086:	7f 53 06 80 	jge.u %d3,%d5,80007092 <_malloc_r+0x1ce>
8000708a:	8f ef 1e 40 	sh %d4,%d15,-18
8000708e:	1b c4 07 40 	addi %d4,%d4,124
80007092:	01 f4 03 46 	addsc.a %a4,%a15,%d4,3
80007096:	99 42 08 00 	ld.a %a2,[%a4]8
8000709a:	7d 42 0d 80 	jne.a %a2,%a4,800070b4 <_malloc_r+0x1f0>
8000709e:	4c f1       	ld.w %d15,[%a15]4
800070a0:	86 e4       	sha %d4,-2
800070a2:	d7 1f 01 44 	insert %d4,%d15,1,%d4,1
800070a6:	40 24       	mov.aa %a4,%a2
800070a8:	68 14       	st.w [%a15]4,%d4
800070aa:	3c 0d       	j 800070c4 <_malloc_r+0x200>
800070ac:	99 22 08 00 	ld.a %a2,[%a2]8
800070b0:	7d 42 08 00 	jeq.a %a2,%a4,800070c0 <_malloc_r+0x1fc>
800070b4:	19 23 04 00 	ld.w %d3,[%a2]4
800070b8:	8f 33 c0 31 	andn %d3,%d3,3
800070bc:	3f 3f f8 ff 	jlt.u %d15,%d3,800070ac <_malloc_r+0x1e8>
800070c0:	99 24 0c 00 	ld.a %a4,[%a2]12
800070c4:	b5 c4 0c 00 	st.a [%a12]12,%a4
800070c8:	b5 c2 08 00 	st.a [%a12]8,%a2
800070cc:	b5 4c 08 00 	st.a [%a4]8,%a12
800070d0:	b5 2c 0c 00 	st.a [%a2]12,%a12
800070d4:	8f e2 3f 30 	sha %d3,%d2,-2
800070d8:	82 1f       	mov %d15,1
800070da:	0f 3f 00 f0 	sh %d15,%d15,%d3
800070de:	48 13       	ld.w %d3,[%a15]4
800070e0:	3f f3 73 80 	jlt.u %d3,%d15,800071c6 <_malloc_r+0x302>
800070e4:	0f 3f 80 40 	and %d4,%d15,%d3
800070e8:	f6 49       	jnz %d4,800070fa <_malloc_r+0x236>
800070ea:	8f 32 c0 21 	andn %d2,%d2,3
800070ee:	06 1f       	sh %d15,1
800070f0:	0f 3f 80 40 	and %d4,%d15,%d3
800070f4:	c2 42       	add %d2,4
800070f6:	df 04 fc 7f 	jeq %d4,0,800070ee <_malloc_r+0x22a>
800070fa:	01 f2 03 26 	addsc.a %a2,%a15,%d2,3
800070fe:	02 24       	mov %d4,%d2
80007100:	40 24       	mov.aa %a4,%a2
80007102:	99 4c 0c 00 	ld.a %a12,[%a4]12
80007106:	7d 4c 3c 00 	jeq.a %a12,%a4,8000717e <_malloc_r+0x2ba>
8000710a:	19 c6 04 00 	ld.w %d6,[%a12]4
8000710e:	8f 36 c0 61 	andn %d6,%d6,3
80007112:	0b 86 80 30 	sub %d3,%d6,%d8
80007116:	8b 03 41 52 	lt %d5,%d3,16
8000711a:	df 05 1d 80 	jne %d5,0,80007154 <_malloc_r+0x290>
8000711e:	01 c8 00 26 	addsc.a %a2,%a12,%d8,0
80007122:	8f 18 40 81 	or %d8,%d8,1
80007126:	59 c8 04 00 	st.w [%a12]4,%d8
8000712a:	99 c4 0c 00 	ld.a %a4,[%a12]12
8000712e:	09 c5 88 05 	ld.a %a5,[+%a12]8
80007132:	8f 13 40 f1 	or %d15,%d3,1
80007136:	b5 54 0c 00 	st.a [%a5]12,%a4
8000713a:	b5 45 08 00 	st.a [%a4]8,%a5
8000713e:	e8 52       	st.a [%a15]20,%a2
80007140:	e8 42       	st.a [%a15]16,%a2
80007142:	b5 23 0c 00 	st.a [%a2]12,%a3
80007146:	b5 23 08 00 	st.a [%a2]8,%a3
8000714a:	6c 21       	st.w [%a2]4,%d15
8000714c:	01 23 00 26 	addsc.a %a2,%a2,%d3,0
80007150:	74 23       	st.w [%a2],%d3
80007152:	3c 0e       	j 8000716e <_malloc_r+0x2aa>
80007154:	bf 03 12 00 	jlt %d3,0,80007178 <_malloc_r+0x2b4>
80007158:	01 c6 00 f6 	addsc.a %a15,%a12,%d6,0
8000715c:	b7 10 21 20 	imask %e2,1,0,1
80007160:	49 f2 44 08 	ldmst [%a15]4,%e2
80007164:	cc c3       	ld.a %a15,[%a12]12
80007166:	09 c2 88 05 	ld.a %a2,[+%a12]8
8000716a:	ec 23       	st.a [%a2]12,%a15
8000716c:	e8 22       	st.a [%a15]8,%a2
8000716e:	40 d4       	mov.aa %a4,%a13
80007170:	6d 00 00 01 	call 80007370 <__malloc_unlock>
80007174:	1d 00 f3 00 	j 8000735a <_malloc_r+0x496>
80007178:	99 cc 0c 00 	ld.a %a12,[%a12]12
8000717c:	3c c5       	j 80007106 <_malloc_r+0x242>
8000717e:	c2 14       	add %d4,1
80007180:	8f 34 00 31 	and %d3,%d4,3
80007184:	d9 44 08 00 	lea %a4,[%a4]8
80007188:	df 03 bd ff 	jne %d3,0,80007102 <_malloc_r+0x23e>
8000718c:	8f 32 00 31 	and %d3,%d2,3
80007190:	f6 36       	jnz %d3,8000719c <_malloc_r+0x2d8>
80007192:	48 12       	ld.w %d2,[%a15]4
80007194:	0f f2 e0 20 	andn %d2,%d2,%d15
80007198:	68 12       	st.w [%a15]4,%d2
8000719a:	3c 07       	j 800071a8 <_malloc_r+0x2e4>
8000719c:	d9 24 f8 ff 	lea %a4,[%a2]-8
800071a0:	d4 22       	ld.a %a2,[%a2]
800071a2:	c2 f2       	add %d2,-1
800071a4:	7d 42 f4 7f 	jeq.a %a2,%a4,8000718c <_malloc_r+0x2c8>
800071a8:	06 1f       	sh %d15,1
800071aa:	48 12       	ld.w %d2,[%a15]4
800071ac:	8b 0f 20 32 	ne %d3,%d15,0
800071b0:	0b f2 50 32 	and.ge.u %d3,%d2,%d15
800071b4:	76 39       	jz %d3,800071c6 <_malloc_r+0x302>
800071b6:	0f 2f 80 30 	and %d3,%d15,%d2
800071ba:	f6 34       	jnz %d3,800071c2 <_malloc_r+0x2fe>
800071bc:	c2 44       	add %d4,4
800071be:	06 1f       	sh %d15,1
800071c0:	3c fb       	j 800071b6 <_malloc_r+0x2f2>
800071c2:	02 42       	mov %d2,%d4
800071c4:	3c 9b       	j 800070fa <_malloc_r+0x236>
800071c6:	c8 2c       	ld.a %a12,[%a15]8
800071c8:	19 ca 04 00 	ld.w %d10,[%a12]4
800071cc:	8f 3a c0 a1 	andn %d10,%d10,3
800071d0:	5a 8a       	sub %d15,%d10,%d8
800071d2:	8b 0f 41 22 	lt %d2,%d15,16
800071d6:	0b 8a a0 22 	or.lt.u %d2,%d10,%d8
800071da:	df 02 b1 00 	jeq %d2,0,8000733c <_malloc_r+0x478>
800071de:	91 00 00 27 	movh.a %a2,28672
800071e2:	19 2b 68 b7 	ld.w %d11,[%a2]30440 <700076e8 <__malloc_top_pad>>
800071e6:	91 00 00 27 	movh.a %a2,28672
800071ea:	42 8b       	add %d11,%d8
800071ec:	19 23 a8 c5 	ld.w %d3,[%a2]23336 <70005b28 <__malloc_sbrk_base>>
800071f0:	1b fb 00 f1 	addi %d15,%d11,4111
800071f4:	b7 0f 0c f0 	insert %d15,%d15,0,0,12
800071f8:	1b 0b 01 20 	addi %d2,%d11,16
800071fc:	8b f3 3f b2 	ne %d11,%d3,-1
80007200:	2b 2f 40 bb 	sel %d11,%d11,%d15,%d2
80007204:	40 d4       	mov.aa %a4,%a13
80007206:	02 b4       	mov %d4,%d11
80007208:	80 2c       	mov.d %d12,%a2
8000720a:	6d 00 3d 01 	call 80007484 <_sbrk_r>
8000720e:	80 29       	mov.d %d9,%a2
80007210:	df f9 86 00 	jeq %d9,-1,8000731c <_malloc_r+0x458>
80007214:	80 c2       	mov.d %d2,%a12
80007216:	80 c3       	mov.d %d3,%a12
80007218:	42 a2       	add %d2,%d10
8000721a:	80 f4       	mov.d %d4,%a15
8000721c:	0b 29 30 f1 	lt.u %d15,%d9,%d2
80007220:	0b 43 10 f2 	and.ne %d15,%d3,%d4
80007224:	01 fc 10 d4 	ne.a %d13,%a12,%a15
80007228:	ee 7a       	jnz %d15,8000731c <_malloc_r+0x458>
8000722a:	91 00 00 e7 	movh.a %a14,28672
8000722e:	19 e3 78 a7 	ld.w %d3,[%a14]30392 <700076b8 <__malloc_current_mallinfo>>
80007232:	42 b3       	add %d3,%d11
80007234:	59 e3 78 a7 	st.w [%a14]30392 <700076b8 <__malloc_current_mallinfo>>,%d3
80007238:	5f 29 0c 80 	jne %d9,%d2,80007250 <_malloc_r+0x38c>
8000723c:	b7 09 14 f6 	insert %d15,%d9,0,12,20
80007240:	ee 08       	jnz %d15,80007250 <_malloc_r+0x38c>
80007242:	c8 22       	ld.a %a2,[%a15]8
80007244:	42 ba       	add %d10,%d11
80007246:	8f 1a 40 a1 	or %d10,%d10,1
8000724a:	59 2a 04 00 	st.w [%a2]4,%d10
8000724e:	3c 55       	j 800072f8 <_malloc_r+0x434>
80007250:	60 c2       	mov.a %a2,%d12
80007252:	19 2f a8 c5 	ld.w %d15,[%a2]23336
80007256:	5e f6       	jne %d15,-1,80007262 <_malloc_r+0x39e>
80007258:	91 00 00 27 	movh.a %a2,28672
8000725c:	59 29 a8 c5 	st.w [%a2]23336 <70005b28 <__malloc_sbrk_base>>,%d9
80007260:	3c 06       	j 8000726c <_malloc_r+0x3a8>
80007262:	0b 29 80 20 	sub %d2,%d9,%d2
80007266:	42 23       	add %d3,%d2
80007268:	59 e3 78 a7 	st.w [%a14]30392 <700076b8 <__malloc_current_mallinfo>>,%d3
8000726c:	8f 79 00 21 	and %d2,%d9,7
80007270:	82 0f       	mov %d15,0
80007272:	76 24       	jz %d2,8000727a <_malloc_r+0x3b6>
80007274:	8b 82 00 f1 	rsub %d15,%d2,8
80007278:	42 f9       	add %d9,%d15
8000727a:	42 9b       	add %d11,%d9
8000727c:	b7 0b 14 b6 	insert %d11,%d11,0,12,20
80007280:	1b 0f 00 21 	addi %d2,%d15,4096
80007284:	5a b2       	sub %d15,%d2,%d11
80007286:	40 d4       	mov.aa %a4,%a13
80007288:	02 f4       	mov %d4,%d15
8000728a:	6d 00 fd 00 	call 80007484 <_sbrk_r>
8000728e:	80 22       	mov.d %d2,%a2
80007290:	df f2 04 80 	jne %d2,-1,80007298 <_malloc_r+0x3d4>
80007294:	60 92       	mov.a %a2,%d9
80007296:	82 0f       	mov %d15,0
80007298:	80 2b       	mov.d %d11,%a2
8000729a:	19 e2 78 a7 	ld.w %d2,[%a14]30392 <700076b8 <__malloc_current_mallinfo>>
8000729e:	a2 9b       	sub %d11,%d9
800072a0:	42 f2       	add %d2,%d15
800072a2:	60 92       	mov.a %a2,%d9
800072a4:	42 bf       	add %d15,%d11
800072a6:	68 29       	st.w [%a15]8,%d9
800072a8:	8f 1f 40 31 	or %d3,%d15,1
800072ac:	59 e2 78 a7 	st.w [%a14]30392 <700076b8 <__malloc_current_mallinfo>>,%d2
800072b0:	59 23 04 00 	st.w [%a2]4 <700076b8 <__malloc_current_mallinfo>>,%d3
800072b4:	df 0d 22 00 	jeq %d13,0,800072f8 <_malloc_r+0x434>
800072b8:	8b 0a a1 f2 	ge.u %d15,%d10,16
800072bc:	ee 05       	jnz %d15,800072c6 <_malloc_r+0x402>
800072be:	82 12       	mov %d2,1
800072c0:	59 22 04 00 	st.w [%a2]4,%d2
800072c4:	3c 2c       	j 8000731c <_malloc_r+0x458>
800072c6:	1b 4a ff af 	addi %d10,%d10,-12
800072ca:	8f 7a c0 f1 	andn %d15,%d10,7
800072ce:	10 c2       	addsc.a %a2,%a12,%d15,0
800072d0:	82 52       	mov %d2,5
800072d2:	59 22 04 00 	st.w [%a2]4,%d2
800072d6:	59 22 08 00 	st.w [%a2]8,%d2
800072da:	19 c2 04 00 	ld.w %d2,[%a12]4
800072de:	8f 12 00 21 	and %d2,%d2,1
800072e2:	a6 f2       	or %d2,%d15
800072e4:	59 c2 04 00 	st.w [%a12]4,%d2
800072e8:	8b 0f 61 f2 	lt.u %d15,%d15,16
800072ec:	ee 06       	jnz %d15,800072f8 <_malloc_r+0x434>
800072ee:	40 d4       	mov.aa %a4,%a13
800072f0:	d9 c5 08 00 	lea %a5,[%a12]8
800072f4:	6d ff 41 fa 	call 80006776 <_free_r>
800072f8:	91 00 00 27 	movh.a %a2,28672
800072fc:	19 ef 78 a7 	ld.w %d15,[%a14]30392 <700076b8 <__malloc_current_mallinfo>>
80007300:	19 22 64 b7 	ld.w %d2,[%a2]30436 <700076e4 <__malloc_max_sbrked_mem>>
80007304:	7f f2 04 80 	jge.u %d2,%d15,8000730c <_malloc_r+0x448>
80007308:	59 2f 64 b7 	st.w [%a2]30436 <700076e4 <__malloc_max_sbrked_mem>>,%d15
8000730c:	91 00 00 27 	movh.a %a2,28672
80007310:	19 22 60 b7 	ld.w %d2,[%a2]30432 <700076e0 <__malloc_max_total_mem>>
80007314:	7f f2 04 80 	jge.u %d2,%d15,8000731c <_malloc_r+0x458>
80007318:	59 2f 60 b7 	st.w [%a2]30432 <700076e0 <__malloc_max_total_mem>>,%d15
8000731c:	c8 22       	ld.a %a2,[%a15]8
8000731e:	19 22 04 00 	ld.w %d2,[%a2]4 <700076e0 <__malloc_max_total_mem>>
80007322:	8f 32 c0 21 	andn %d2,%d2,3
80007326:	5a 82       	sub %d15,%d2,%d8
80007328:	8b 0f 41 32 	lt %d3,%d15,16
8000732c:	0b 82 a0 32 	or.lt.u %d3,%d2,%d8
80007330:	76 36       	jz %d3,8000733c <_malloc_r+0x478>
80007332:	40 d4       	mov.aa %a4,%a13
80007334:	6d 00 1e 00 	call 80007370 <__malloc_unlock>
80007338:	a0 0c       	mov.a %a12,0
8000733a:	3c 10       	j 8000735a <_malloc_r+0x496>
8000733c:	c8 2c       	ld.a %a12,[%a15]8
8000733e:	8f 18 40 21 	or %d2,%d8,1
80007342:	96 01       	or %d15,1
80007344:	01 c8 00 26 	addsc.a %a2,%a12,%d8,0
80007348:	59 c2 04 00 	st.w [%a12]4,%d2
8000734c:	e8 22       	st.a [%a15]8,%a2
8000734e:	6c 21       	st.w [%a2]4,%d15
80007350:	40 d4       	mov.aa %a4,%a13
80007352:	6d 00 0f 00 	call 80007370 <__malloc_unlock>
80007356:	d9 cc 08 00 	lea %a12,[%a12]8
8000735a:	40 c2       	mov.aa %a2,%a12
8000735c:	00 90       	ret 

8000735e <memset>:
8000735e:	40 42       	mov.aa %a2,%a4
80007360:	40 4f       	mov.aa %a15,%a4
80007362:	9f 05 03 80 	jned %d5,0,80007368 <memset+0xa>
80007366:	00 90       	ret 
80007368:	28 04       	st.b [%a15]0,%d4
8000736a:	b0 1f       	add.a %a15,1
8000736c:	3c fb       	j 80007362 <memset+0x4>

8000736e <__malloc_lock>:
8000736e:	00 90       	ret 

80007370 <__malloc_unlock>:
80007370:	00 90       	ret 

80007372 <_open_r>:
80007372:	20 08       	sub.a %sp,8
80007374:	40 4f       	mov.aa %a15,%a4
80007376:	91 00 00 c7 	movh.a %a12,28672
8000737a:	82 0f       	mov %d15,0
8000737c:	74 a5       	st.w [%sp],%d5
8000737e:	40 54       	mov.aa %a4,%a5
80007380:	59 cf 70 b7 	st.w [%a12]30448 <700076f0 <errno>>,%d15
80007384:	6d 00 7d 18 	call 8000a47e <open>
80007388:	df f2 06 80 	jne %d2,-1,80007394 <_open_r+0x22>
8000738c:	19 cf 70 b7 	ld.w %d15,[%a12]30448 <700076f0 <errno>>
80007390:	6e 02       	jz %d15,80007394 <_open_r+0x22>
80007392:	68 0f       	st.w [%a15]0,%d15
80007394:	00 90       	ret 

80007396 <lflush>:
80007396:	8c 46       	ld.h %d15,[%a4]12
80007398:	16 09       	and %d15,9
8000739a:	8b 9f 20 f2 	ne %d15,%d15,9
8000739e:	ee 03       	jnz %d15,800073a4 <lflush+0xe>
800073a0:	1d ff 02 f8 	j 800063a4 <fflush>
800073a4:	82 02       	mov %d2,0
800073a6:	00 90       	ret 

800073a8 <__srefill_r>:
800073a8:	40 4c       	mov.aa %a12,%a4
800073aa:	40 5f       	mov.aa %a15,%a5
800073ac:	bc 45       	jz.a %a4,800073b6 <__srefill_r+0xe>
800073ae:	4c 4e       	ld.w %d15,[%a4]56
800073b0:	ee 03       	jnz %d15,800073b6 <__srefill_r+0xe>
800073b2:	6d ff 27 f8 	call 80006400 <__sinit>
800073b6:	8c f6       	ld.h %d15,[%a15]12
800073b8:	ae d9       	jnz.t %d15,13,800073ca <__srefill_r+0x22>
800073ba:	b7 ff 81 f6 	insert %d15,%d15,15,13,1
800073be:	82 08       	mov %d8,0
800073c0:	3b 00 00 92 	mov %d9,8192
800073c4:	a8 6f       	st.h [%a15]12,%d15
800073c6:	49 f8 64 18 	ldmst [%a15]100,%e8
800073ca:	82 0f       	mov %d15,0
800073cc:	68 1f       	st.w [%a15]4,%d15
800073ce:	8c f6       	ld.h %d15,[%a15]12
800073d0:	6f 5f 57 80 	jnz.t %d15,5,8000747e <__srefill_r+0xd6>
800073d4:	6f 2f 1a 80 	jnz.t %d15,2,80007408 <__srefill_r+0x60>
800073d8:	ae 47       	jnz.t %d15,4,800073e6 <__srefill_r+0x3e>
800073da:	3b 90 00 20 	mov %d2,9
800073de:	74 c2       	st.w [%a12],%d2
800073e0:	96 40       	or %d15,64
800073e2:	a8 6f       	st.h [%a15]12,%d15
800073e4:	3c 4d       	j 8000747e <__srefill_r+0xd6>
800073e6:	2e 3d       	jz.t %d15,3,80007400 <__srefill_r+0x58>
800073e8:	40 c4       	mov.aa %a4,%a12
800073ea:	40 f5       	mov.aa %a5,%a15
800073ec:	6d ff 53 f7 	call 80006292 <_fflush_r>
800073f0:	df 02 47 80 	jne %d2,0,8000747e <__srefill_r+0xd6>
800073f4:	8c f6       	ld.h %d15,[%a15]12
800073f6:	68 22       	st.w [%a15]8,%d2
800073f8:	8f 8f c0 f1 	andn %d15,%d15,8
800073fc:	a8 6f       	st.h [%a15]12,%d15
800073fe:	68 62       	st.w [%a15]24,%d2
80007400:	8c f6       	ld.h %d15,[%a15]12
80007402:	96 04       	or %d15,4
80007404:	a8 6f       	st.h [%a15]12,%d15
80007406:	3c 14       	j 8000742e <__srefill_r+0x86>
80007408:	c8 c5       	ld.a %a5,[%a15]48
8000740a:	bd 05 12 00 	jz.a %a5,8000742e <__srefill_r+0x86>
8000740e:	d9 f2 00 10 	lea %a2,[%a15]64
80007412:	7d 25 05 00 	jeq.a %a5,%a2,8000741c <__srefill_r+0x74>
80007416:	40 c4       	mov.aa %a4,%a12
80007418:	6d ff af f9 	call 80006776 <_free_r>
8000741c:	82 0f       	mov %d15,0
8000741e:	68 cf       	st.w [%a15]48,%d15
80007420:	4c ff       	ld.w %d15,[%a15]60
80007422:	68 1f       	st.w [%a15]4,%d15
80007424:	6e 05       	jz %d15,8000742e <__srefill_r+0x86>
80007426:	4c fe       	ld.w %d15,[%a15]56
80007428:	68 0f       	st.w [%a15]0,%d15
8000742a:	82 0f       	mov %d15,0
8000742c:	3c 2a       	j 80007480 <__srefill_r+0xd8>
8000742e:	4c f4       	ld.w %d15,[%a15]16
80007430:	ee 05       	jnz %d15,8000743a <__srefill_r+0x92>
80007432:	40 c4       	mov.aa %a4,%a12
80007434:	40 f5       	mov.aa %a5,%a15
80007436:	6d ff d0 fc 	call 80006dd6 <__smakebuf_r>
8000743a:	8c f6       	ld.h %d15,[%a15]12
8000743c:	16 03       	and %d15,3
8000743e:	6e 0b       	jz %d15,80007454 <__srefill_r+0xac>
80007440:	91 10 00 28 	movh.a %a2,32769
80007444:	99 24 c4 1a 	ld.a %a4,[%a2]-21436 <8000ac44 <_global_impure_ptr>>
80007448:	91 00 00 58 	movh.a %a5,32768
8000744c:	d9 55 16 e7 	lea %a5,[%a5]29590 <80007396 <lflush>>
80007450:	6d ff f6 fb 	call 80006c3c <_fwalk>
80007454:	4c f4       	ld.w %d15,[%a15]16
80007456:	c8 82       	ld.a %a2,[%a15]32
80007458:	c8 75       	ld.a %a5,[%a15]28
8000745a:	60 f6       	mov.a %a6,%d15
8000745c:	68 0f       	st.w [%a15]0,%d15
8000745e:	40 c4       	mov.aa %a4,%a12
80007460:	48 54       	ld.w %d4,[%a15]20
80007462:	2d 02 00 00 	calli %a2
80007466:	68 12       	st.w [%a15]4,%d2
80007468:	82 0f       	mov %d15,0
8000746a:	4e 2b       	jgtz %d2,80007480 <__srefill_r+0xd8>
8000746c:	88 63       	ld.h %d3,[%a15]12
8000746e:	f6 24       	jnz %d2,80007476 <__srefill_r+0xce>
80007470:	8f 03 42 31 	or %d3,%d3,32
80007474:	3c 04       	j 8000747c <__srefill_r+0xd4>
80007476:	68 1f       	st.w [%a15]4,%d15
80007478:	8f 03 44 31 	or %d3,%d3,64
8000747c:	a8 63       	st.h [%a15]12,%d3
8000747e:	82 ff       	mov %d15,-1
80007480:	02 f2       	mov %d2,%d15
80007482:	00 90       	ret 

80007484 <_sbrk_r>:
80007484:	82 0f       	mov %d15,0
80007486:	91 00 00 c7 	movh.a %a12,28672
8000748a:	59 cf 70 b7 	st.w [%a12]30448 <700076f0 <errno>>,%d15
8000748e:	40 4f       	mov.aa %a15,%a4
80007490:	6d 00 68 18 	call 8000a560 <sbrk>
80007494:	80 2f       	mov.d %d15,%a2
80007496:	5e f5       	jne %d15,-1,800074a0 <_sbrk_r+0x1c>
80007498:	19 cf 70 b7 	ld.w %d15,[%a12]30448 <700076f0 <errno>>
8000749c:	6e 02       	jz %d15,800074a0 <_sbrk_r+0x1c>
8000749e:	68 0f       	st.w [%a15]0,%d15
800074a0:	00 90       	ret 

800074a2 <setbuf>:
800074a2:	80 5f       	mov.d %d15,%a5
800074a4:	82 04       	mov %d4,0
800074a6:	ca 24       	caddn %d4,%d15,2
800074a8:	3b 00 40 50 	mov %d5,1024
800074ac:	1d 00 02 00 	j 800074b0 <setvbuf>

800074b0 <setvbuf>:
800074b0:	91 00 00 d7 	movh.a %a13,28672
800074b4:	40 4f       	mov.aa %a15,%a4
800074b6:	99 d4 40 c5 	ld.a %a4,[%a13]22272 <70005700 <_impure_ptr>>
800074ba:	40 5c       	mov.aa %a12,%a5
800074bc:	02 48       	mov %d8,%d4
800074be:	02 5f       	mov %d15,%d5
800074c0:	bc 46       	jz.a %a4,800074cc <setvbuf+0x1c>
800074c2:	19 42 38 00 	ld.w %d2,[%a4]56
800074c6:	f6 23       	jnz %d2,800074cc <setvbuf+0x1c>
800074c8:	6d ff 9c f7 	call 80006400 <__sinit>
800074cc:	8f 1f 1e 90 	sh %d9,%d15,-31
800074d0:	8b 38 80 95 	or.ge.u %d9,%d8,3
800074d4:	82 f2       	mov %d2,-1
800074d6:	df 09 5c 80 	jne %d9,0,8000758e <setvbuf+0xde>
800074da:	99 d4 40 c5 	ld.a %a4,[%a13]22272 <70005700 <_impure_ptr>>
800074de:	40 f5       	mov.aa %a5,%a15
800074e0:	6d ff d9 f6 	call 80006292 <_fflush_r>
800074e4:	88 62       	ld.h %d2,[%a15]12
800074e6:	68 19       	st.w [%a15]4,%d9
800074e8:	68 69       	st.w [%a15]24,%d9
800074ea:	6f 72 09 00 	jz.t %d2,7,800074fc <setvbuf+0x4c>
800074ee:	91 00 00 27 	movh.a %a2,28672
800074f2:	99 24 40 c5 	ld.a %a4,[%a2]22272 <70005700 <_impure_ptr>>
800074f6:	c8 45       	ld.a %a5,[%a15]16
800074f8:	6d ff 3f f9 	call 80006776 <_free_r>
800074fc:	88 62       	ld.h %d2,[%a15]12
800074fe:	8f 32 c8 21 	andn %d2,%d2,131
80007502:	a8 62       	st.h [%a15]12,%d2
80007504:	df 28 15 00 	jeq %d8,2,8000752e <setvbuf+0x7e>
80007508:	bd 0c 26 80 	jnz.a %a12,80007554 <setvbuf+0xa4>
8000750c:	3b 00 40 20 	mov %d2,1024
80007510:	6a 2f       	cmovn %d15,%d15,%d2
80007512:	02 f4       	mov %d4,%d15
80007514:	6d ff cb fc 	call 80006eaa <malloc>
80007518:	40 2c       	mov.aa %a12,%a2
8000751a:	bd 02 19 80 	jnz.a %a2,8000754c <setvbuf+0x9c>
8000751e:	3b 00 40 40 	mov %d4,1024
80007522:	6d ff c4 fc 	call 80006eaa <malloc>
80007526:	82 f2       	mov %d2,-1
80007528:	40 2c       	mov.aa %a12,%a2
8000752a:	bc 23       	jz.a %a2,80007530 <setvbuf+0x80>
8000752c:	3c 0e       	j 80007548 <setvbuf+0x98>
8000752e:	82 02       	mov %d2,0
80007530:	8c f6       	ld.h %d15,[%a15]12
80007532:	d9 f2 03 10 	lea %a2,[%a15]67
80007536:	96 02       	or %d15,2
80007538:	a8 6f       	st.h [%a15]12,%d15
8000753a:	82 0f       	mov %d15,0
8000753c:	68 2f       	st.w [%a15]8,%d15
8000753e:	82 1f       	mov %d15,1
80007540:	e8 02       	st.a [%a15]0,%a2
80007542:	e8 42       	st.a [%a15]16,%a2
80007544:	68 5f       	st.w [%a15]20,%d15
80007546:	00 90       	ret 
80007548:	3b 00 40 f0 	mov %d15,1024
8000754c:	88 62       	ld.h %d2,[%a15]12
8000754e:	8f 02 48 21 	or %d2,%d2,128
80007552:	a8 62       	st.h [%a15]12,%d2
80007554:	df 18 09 80 	jne %d8,1,80007566 <setvbuf+0xb6>
80007558:	88 62       	ld.h %d2,[%a15]12
8000755a:	8f 12 40 21 	or %d2,%d2,1
8000755e:	a8 62       	st.h [%a15]12,%d2
80007560:	8b 0f 00 21 	rsub %d2,%d15,0
80007564:	68 62       	st.w [%a15]24,%d2
80007566:	99 d2 40 c5 	ld.a %a2,[%a13]22272
8000756a:	7b 00 00 28 	movh %d2,32768
8000756e:	1b 82 3c 26 	addi %d2,%d2,25544
80007572:	59 22 3c 00 	st.w [%a2]60,%d2
80007576:	88 63       	ld.h %d3,[%a15]12
80007578:	e8 0c       	st.a [%a15]0,%a12
8000757a:	e8 4c       	st.a [%a15]16,%a12
8000757c:	68 5f       	st.w [%a15]20,%d15
8000757e:	82 02       	mov %d2,0
80007580:	6f 33 07 00 	jz.t %d3,3,8000758e <setvbuf+0xde>
80007584:	8f 33 00 31 	and %d3,%d3,3
80007588:	ab 0f a0 f3 	seln %d15,%d3,%d15,0
8000758c:	68 2f       	st.w [%a15]8,%d15
8000758e:	00 90       	ret 

80007590 <__sread>:
80007590:	40 5f       	mov.aa %a15,%a5
80007592:	02 45       	mov %d5,%d4
80007594:	c9 54 0e 00 	ld.h %d4,[%a5]14
80007598:	40 65       	mov.aa %a5,%a6
8000759a:	6d 00 f3 14 	call 80009f80 <_read_r>
8000759e:	0e 27       	jltz %d2,800075ac <__sread+0x1c>
800075a0:	19 ff 10 10 	ld.w %d15,[%a15]80
800075a4:	42 2f       	add %d15,%d2
800075a6:	59 ff 10 10 	st.w [%a15]80,%d15
800075aa:	00 90       	ret 
800075ac:	8c f6       	ld.h %d15,[%a15]12
800075ae:	b7 0f 01 f6 	insert %d15,%d15,0,12,1
800075b2:	a8 6f       	st.h [%a15]12,%d15
800075b4:	00 90       	ret 

800075b6 <__swrite>:
800075b6:	8c 56       	ld.h %d15,[%a5]12
800075b8:	40 4c       	mov.aa %a12,%a4
800075ba:	40 5f       	mov.aa %a15,%a5
800075bc:	40 6d       	mov.aa %a13,%a6
800075be:	02 48       	mov %d8,%d4
800075c0:	2e 87       	jz.t %d15,8,800075ce <__swrite+0x18>
800075c2:	c9 54 0e 00 	ld.h %d4,[%a5]14
800075c6:	82 05       	mov %d5,0
800075c8:	82 26       	mov %d6,2
800075ca:	6d 00 ee 11 	call 800099a6 <_lseek_r>
800075ce:	8c f6       	ld.h %d15,[%a15]12
800075d0:	40 c4       	mov.aa %a4,%a12
800075d2:	b7 0f 01 f6 	insert %d15,%d15,0,12,1
800075d6:	88 74       	ld.h %d4,[%a15]14
800075d8:	a8 6f       	st.h [%a15]12,%d15
800075da:	40 d5       	mov.aa %a5,%a13
800075dc:	02 85       	mov %d5,%d8
800075de:	1d 00 0e 0a 	j 800089fa <_write_r>

800075e2 <__sseek>:
800075e2:	02 4f       	mov %d15,%d4
800075e4:	02 56       	mov %d6,%d5
800075e6:	c9 54 0e 00 	ld.h %d4,[%a5]14
800075ea:	02 f5       	mov %d5,%d15
800075ec:	40 5f       	mov.aa %a15,%a5
800075ee:	6d 00 dc 11 	call 800099a6 <_lseek_r>
800075f2:	8c f6       	ld.h %d15,[%a15]12
800075f4:	df f2 06 80 	jne %d2,-1,80007600 <__sseek+0x1e>
800075f8:	b7 0f 01 f6 	insert %d15,%d15,0,12,1
800075fc:	a8 6f       	st.h [%a15]12,%d15
800075fe:	00 90       	ret 
80007600:	b7 ff 01 f6 	insert %d15,%d15,15,12,1
80007604:	59 f2 10 10 	st.w [%a15]80,%d2
80007608:	a8 6f       	st.h [%a15]12,%d15
8000760a:	00 90       	ret 

8000760c <__sclose>:
8000760c:	c9 54 0e 00 	ld.h %d4,[%a5]14
80007610:	1d 00 98 0a 	j 80008b40 <_close_r>

80007614 <strlen>:
80007614:	80 42       	mov.d %d2,%a4
80007616:	80 4f       	mov.d %d15,%a4
80007618:	60 ff       	mov.a %a15,%d15
8000761a:	79 f3 00 00 	ld.b %d3,[%a15]0
8000761e:	76 33       	jz %d3,80007624 <strlen+0x10>
80007620:	c2 1f       	add %d15,1
80007622:	3c fb       	j 80007618 <strlen+0x4>
80007624:	52 22       	sub %d2,%d15,%d2
80007626:	00 90       	ret 

80007628 <strncmp>:
80007628:	82 02       	mov %d2,0
8000762a:	df 04 1a 00 	jeq %d4,0,8000765e <strncmp+0x36>
8000762e:	02 4f       	mov %d15,%d4
80007630:	0b f4 80 20 	sub %d2,%d4,%d15
80007634:	01 52 00 f6 	addsc.a %a15,%a5,%d2,0
80007638:	01 42 00 26 	addsc.a %a2,%a4,%d2,0
8000763c:	79 f5 00 00 	ld.b %d5,[%a15]0
80007640:	79 22 00 00 	ld.b %d2,[%a2]0
80007644:	c2 ff       	add %d15,-1
80007646:	0b 25 10 31 	ne %d3,%d5,%d2
8000764a:	8b 02 e0 34 	or.eq %d3,%d2,0
8000764e:	02 32       	mov %d2,%d3
80007650:	8b 0f e0 24 	or.eq %d2,%d15,0
80007654:	df 02 ee 7f 	jeq %d2,0,80007630 <strncmp+0x8>
80007658:	14 22       	ld.bu %d2,[%a2]
8000765a:	0c f0       	ld.bu %d15,[%a15]0
8000765c:	a2 f2       	sub %d2,%d15
8000765e:	00 90       	ret 

80007660 <_strtol_r>:
80007660:	91 00 00 f7 	movh.a %a15,28672
80007664:	99 f7 f8 c5 	ld.a %a7,[%a15]24376 <70005f38 <__ctype_ptr__>>
80007668:	40 52       	mov.aa %a2,%a5
8000766a:	79 2f 00 00 	ld.b %d15,[%a2]0
8000766e:	d9 2f 01 00 	lea %a15,[%a2]1
80007672:	10 73       	addsc.a %a3,%a7,%d15,0
80007674:	39 32 01 00 	ld.bu %d2,[%a3]1
80007678:	6f 32 04 00 	jz.t %d2,3,80007680 <_strtol_r+0x20>
8000767c:	40 f2       	mov.aa %a2,%a15
8000767e:	3c f6       	j 8000766a <_strtol_r+0xa>
80007680:	8b df 22 22 	ne %d2,%d15,45
80007684:	f6 27       	jnz %d2,80007692 <_strtol_r+0x32>
80007686:	d9 2f 02 00 	lea %a15,[%a2]2 <70000002 <__CSA_BASE_CPU0_+0x2>>
8000768a:	79 2f 01 00 	ld.b %d15,[%a2]1 <70000001 <__CSA_BASE_CPU0_+0x1>>
8000768e:	82 12       	mov %d2,1
80007690:	3c 09       	j 800076a2 <_strtol_r+0x42>
80007692:	8b bf 22 52 	ne %d5,%d15,43
80007696:	82 02       	mov %d2,0
80007698:	f6 55       	jnz %d5,800076a2 <_strtol_r+0x42>
8000769a:	79 2f 01 00 	ld.b %d15,[%a2]1 <70000001 <__CSA_BASE_CPU0_+0x1>>
8000769e:	d9 2f 02 00 	lea %a15,[%a2]2 <70000002 <__CSA_BASE_CPU0_+0x2>>
800076a2:	8f 04 c1 51 	andn %d5,%d4,16
800076a6:	df 05 19 80 	jne %d5,0,800076d8 <_strtol_r+0x78>
800076aa:	8b 0f 23 32 	ne %d3,%d15,48
800076ae:	8b 04 00 62 	eq %d6,%d4,0
800076b2:	df 03 11 80 	jne %d3,0,800076d4 <_strtol_r+0x74>
800076b6:	79 f5 00 00 	ld.b %d5,[%a15]0 <70000000 <__CSA_BASE_CPU0_>>
800076ba:	ab 84 a0 46 	seln %d4,%d6,%d4,8
800076be:	8f 05 c2 51 	andn %d5,%d5,32
800076c2:	8b 85 25 52 	ne %d5,%d5,88
800076c6:	f6 59       	jnz %d5,800076d8 <_strtol_r+0x78>
800076c8:	79 ff 01 00 	ld.b %d15,[%a15]1 <70000001 <__CSA_BASE_CPU0_+0x1>>
800076cc:	3b 00 01 40 	mov %d4,16
800076d0:	b0 2f       	add.a %a15,2
800076d2:	3c 03       	j 800076d8 <_strtol_r+0x78>
800076d4:	ab a4 a0 46 	seln %d4,%d6,%d4,10
800076d8:	7b 00 00 68 	movh %d6,32768
800076dc:	1b f6 ff 3f 	addi %d3,%d6,-1
800076e0:	2b 36 40 62 	sel %d6,%d2,%d6,%d3
800076e4:	4b 46 11 62 	div.u %e6,%d6,%d4
800076e8:	82 05       	mov %d5,0
800076ea:	82 03       	mov %d3,0
800076ec:	02 70       	mov %d0,%d7
800076ee:	3b 70 03 10 	mov %d1,55
800076f2:	10 72       	addsc.a %a2,%a7,%d15,0
800076f4:	39 27 01 00 	ld.bu %d7,[%a2]1
800076f8:	6f 27 05 00 	jz.t %d7,2,80007702 <_strtol_r+0xa2>
800076fc:	1b 0f fd ff 	addi %d15,%d15,-48
80007700:	3c 0a       	j 80007714 <_strtol_r+0xb4>
80007702:	8f 37 00 71 	and %d7,%d7,3
80007706:	df 07 1b 00 	jeq %d7,0,8000773c <_strtol_r+0xdc>
8000770a:	8b 17 00 72 	eq %d7,%d7,1
8000770e:	ab 71 85 77 	sel %d7,%d7,%d1,87
80007712:	a2 7f       	sub %d15,%d7
80007714:	7f 4f 14 00 	jge %d15,%d4,8000773c <_strtol_r+0xdc>
80007718:	0b 36 30 71 	lt.u %d7,%d6,%d3
8000771c:	8b 05 20 75 	or.lt %d7,%d5,0
80007720:	82 f5       	mov %d5,-1
80007722:	f6 79       	jnz %d7,80007734 <_strtol_r+0xd4>
80007724:	0b 63 00 71 	eq %d7,%d3,%d6
80007728:	0b f0 20 72 	and.lt %d7,%d0,%d15
8000772c:	f6 74       	jnz %d7,80007734 <_strtol_r+0xd4>
8000772e:	03 43 0a 3f 	madd %d3,%d15,%d3,%d4
80007732:	82 15       	mov %d5,1
80007734:	79 ff 00 00 	ld.b %d15,[%a15]0
80007738:	b0 1f       	add.a %a15,1
8000773a:	3c dc       	j 800076f2 <_strtol_r+0x92>
8000773c:	df f5 0b 80 	jne %d5,-1,80007752 <_strtol_r+0xf2>
80007740:	7b 00 00 38 	movh %d3,32768
80007744:	9a f3       	add %d15,%d3,-1
80007746:	2b f3 40 22 	sel %d2,%d2,%d3,%d15
8000774a:	da 22       	mov %d15,34
8000774c:	6c 40       	st.w [%a4]0,%d15
8000774e:	7c 68       	jnz.a %a6,8000775e <_strtol_r+0xfe>
80007750:	00 90       	ret 
80007752:	8b 03 00 f1 	rsub %d15,%d3,0
80007756:	2b 3f 40 22 	sel %d2,%d2,%d15,%d3
8000775a:	bc 65       	jz.a %a6,80007764 <_strtol_r+0x104>
8000775c:	76 53       	jz %d5,80007762 <_strtol_r+0x102>
8000775e:	d9 f5 ff ff 	lea %a5,[%a15]-1
80007762:	f4 65       	st.a [%a6],%a5
80007764:	00 90       	ret 

80007766 <strtol>:
80007766:	91 00 00 27 	movh.a %a2,28672
8000776a:	40 4f       	mov.aa %a15,%a4
8000776c:	99 24 40 c5 	ld.a %a4,[%a2]22272 <70005700 <_impure_ptr>>
80007770:	40 56       	mov.aa %a6,%a5
80007772:	40 f5       	mov.aa %a5,%a15
80007774:	1d ff 76 ff 	j 80007660 <_strtol_r>

80007778 <_vfprintf_r>:
80007778:	d9 aa 80 df 	lea %sp,[%sp]-1216
8000777c:	40 5e       	mov.aa %a14,%a5
8000777e:	80 4b       	mov.d %d11,%a4
80007780:	b5 a6 10 00 	st.a [%sp]16,%a6
80007784:	40 7f       	mov.aa %a15,%a7
80007786:	6d 00 0b 11 	call 8000999c <_localeconv_r>
8000778a:	d4 22       	ld.a %a2,[%a2]
8000778c:	40 24       	mov.aa %a4,%a2
8000778e:	b5 a2 24 00 	st.a [%sp]36,%a2
80007792:	6d ff 41 ff 	call 80007614 <strlen>
80007796:	59 a2 18 00 	st.w [%sp]24,%d2
8000779a:	76 b7       	jz %d11,800077a8 <_vfprintf_r+0x30>
8000779c:	60 b2       	mov.a %a2,%d11
8000779e:	4c 2e       	ld.w %d15,[%a2]56
800077a0:	ee 04       	jnz %d15,800077a8 <_vfprintf_r+0x30>
800077a2:	60 b4       	mov.a %a4,%d11
800077a4:	6d ff 2e f6 	call 80006400 <__sinit>
800077a8:	8c e6       	ld.h %d15,[%a14]12
800077aa:	ae d9       	jnz.t %d15,13,800077bc <_vfprintf_r+0x44>
800077ac:	b7 ff 81 f6 	insert %d15,%d15,15,13,1
800077b0:	82 08       	mov %d8,0
800077b2:	3b 00 00 92 	mov %d9,8192
800077b6:	ac e6       	st.h [%a14]12,%d15
800077b8:	49 e8 64 18 	ldmst [%a14]100,%e8
800077bc:	8c e6       	ld.h %d15,[%a14]12
800077be:	2e 3d       	jz.t %d15,3,800077d8 <_vfprintf_r+0x60>
800077c0:	4c e4       	ld.w %d15,[%a14]16
800077c2:	6e 0b       	jz %d15,800077d8 <_vfprintf_r+0x60>
800077c4:	c9 e3 0c 00 	ld.h %d3,[%a14]12
800077c8:	d9 a2 00 30 	lea %a2,[%sp]192
800077cc:	8f a3 01 f1 	and %d15,%d3,26
800077d0:	8b af 00 f2 	eq %d15,%d15,10
800077d4:	6e 44       	jz %d15,8000785c <_vfprintf_r+0xe4>
800077d6:	3c 09       	j 800077e8 <_vfprintf_r+0x70>
800077d8:	60 b4       	mov.a %a4,%d11
800077da:	40 e5       	mov.aa %a5,%a14
800077dc:	6d 00 1f 09 	call 80008a1a <__swsetup_r>
800077e0:	df 02 f2 7f 	jeq %d2,0,800077c4 <_vfprintf_r+0x4c>
800077e4:	82 f2       	mov %d2,-1
800077e6:	00 90       	ret 
800077e8:	8c e7       	ld.h %d15,[%a14]14
800077ea:	bf 0f 39 00 	jlt %d15,0,8000785c <_vfprintf_r+0xe4>
800077ee:	19 e2 24 10 	ld.w %d2,[%a14]100
800077f2:	f9 af 26 10 	st.h [%sp]102,%d15
800077f6:	4c e7       	ld.w %d15,[%a14]28
800077f8:	99 a6 10 00 	ld.a %a6,[%sp]16
800077fc:	59 a2 3c 20 	st.w [%sp]188,%d2
80007800:	78 1d       	st.w [%sp]116,%d15
80007802:	19 e2 24 00 	ld.w %d2,[%a14]36
80007806:	3b 00 40 f0 	mov %d15,1024
8000780a:	60 b4       	mov.a %a4,%d11
8000780c:	8f 23 c0 31 	andn %d3,%d3,2
80007810:	78 18       	st.w [%sp]96,%d15
80007812:	78 1b       	st.w [%sp]108,%d15
80007814:	d9 a5 18 10 	lea %a5,[%sp]88
80007818:	82 0f       	mov %d15,0
8000781a:	40 f7       	mov.aa %a7,%a15
8000781c:	78 1c       	st.w [%sp]112,%d15
8000781e:	f9 a3 24 10 	st.h [%sp]100,%d3
80007822:	59 a2 3c 10 	st.w [%sp]124,%d2
80007826:	b5 a2 18 10 	st.a [%sp]88,%a2
8000782a:	b5 a2 28 10 	st.a [%sp]104,%a2
8000782e:	6d ff a5 ff 	call 80007778 <_vfprintf_r>
80007832:	02 2f       	mov %d15,%d2
80007834:	0e 28       	jltz %d2,80007844 <_vfprintf_r+0xcc>
80007836:	60 b4       	mov.a %a4,%d11
80007838:	d9 a5 18 10 	lea %a5,[%sp]88
8000783c:	6d ff 2b f5 	call 80006292 <_fflush_r>
80007840:	ab ff bf f2 	seln %d15,%d2,%d15,-1
80007844:	c9 a2 24 10 	ld.h %d2,[%sp]100
80007848:	6f 62 08 00 	jz.t %d2,6,80007858 <_vfprintf_r+0xe0>
8000784c:	c9 e2 0c 00 	ld.h %d2,[%a14]12
80007850:	8f 02 44 21 	or %d2,%d2,64
80007854:	f9 e2 0c 00 	st.h [%a14]12,%d2
80007858:	02 f2       	mov %d2,%d15
8000785a:	00 90       	ret 
8000785c:	82 0f       	mov %d15,0
8000785e:	a0 03       	mov.a %a3,0
80007860:	b5 a2 0c 10 	st.a [%sp]76,%a2
80007864:	78 15       	st.w [%sp]84,%d15
80007866:	78 14       	st.w [%sp]80,%d15
80007868:	78 03       	st.w [%sp]12,%d15
8000786a:	78 08       	st.w [%sp]32,%d15
8000786c:	b5 a3 2c 00 	st.a [%sp]44,%a3
80007870:	78 0a       	st.w [%sp]40,%d15
80007872:	78 07       	st.w [%sp]28,%d15
80007874:	40 2d       	mov.aa %a13,%a2
80007876:	99 ac 10 00 	ld.a %a12,[%sp]16
8000787a:	79 c3 00 00 	ld.b %d3,[%a12]0
8000787e:	8b 03 20 42 	ne %d4,%d3,0
80007882:	8b 53 22 44 	and.ne %d4,%d3,37
80007886:	76 43       	jz %d4,8000788c <_vfprintf_r+0x114>
80007888:	b0 1c       	add.a %a12,1
8000788a:	3c f8       	j 8000787a <_vfprintf_r+0x102>
8000788c:	99 a3 10 00 	ld.a %a3,[%sp]16
80007890:	01 3c 20 30 	sub.a %a3,%a12,%a3
80007894:	80 38       	mov.d %d8,%a3
80007896:	df 08 23 00 	jeq %d8,0,800078dc <_vfprintf_r+0x164>
8000789a:	19 a3 14 10 	ld.w %d3,[%sp]84
8000789e:	99 a3 10 00 	ld.a %a3,[%sp]16
800078a2:	42 83       	add %d3,%d8
800078a4:	59 a3 14 10 	st.w [%sp]84,%d3
800078a8:	19 a3 10 10 	ld.w %d3,[%sp]80
800078ac:	f4 d3       	st.a [%a13],%a3
800078ae:	c2 13       	add %d3,1
800078b0:	59 d8 04 00 	st.w [%a13]4,%d8
800078b4:	59 a3 10 10 	st.w [%sp]80,%d3
800078b8:	8b 83 80 32 	ge %d3,%d3,8
800078bc:	d9 dd 08 00 	lea %a13,[%a13]8
800078c0:	76 3b       	jz %d3,800078d6 <_vfprintf_r+0x15e>
800078c2:	60 b4       	mov.a %a4,%d11
800078c4:	40 e5       	mov.aa %a5,%a14
800078c6:	d9 a6 0c 10 	lea %a6,[%sp]76
800078ca:	6d 00 7c 15 	call 8000a3c2 <__sprint_r>
800078ce:	df 02 83 88 	jne %d2,0,800089d4 <_vfprintf_r+0x125c>
800078d2:	d9 ad 00 30 	lea %a13,[%sp]192
800078d6:	58 07       	ld.w %d15,[%sp]28
800078d8:	42 8f       	add %d15,%d8
800078da:	78 07       	st.w [%sp]28,%d15
800078dc:	79 c3 00 00 	ld.b %d3,[%a12]0
800078e0:	df 03 72 08 	jeq %d3,0,800089c4 <_vfprintf_r+0x124c>
800078e4:	82 03       	mov %d3,0
800078e6:	82 02       	mov %d2,0
800078e8:	b0 1c       	add.a %a12,1
800078ea:	e9 a3 31 00 	st.b [%sp]49,%d3
800078ee:	82 0f       	mov %d15,0
800078f0:	82 fe       	mov %d14,-1
800078f2:	59 a2 14 00 	st.w [%sp]20,%d2
800078f6:	82 0a       	mov %d10,0
800078f8:	d9 c3 01 00 	lea %a3,[%a12]1
800078fc:	79 cd 00 00 	ld.b %d13,[%a12]0
80007900:	b5 a3 10 00 	st.a [%sp]16,%a3
80007904:	1b 0d fe 3f 	addi %d3,%d13,-32
80007908:	8b 93 a5 42 	ge.u %d4,%d3,89
8000790c:	df 04 10 84 	jne %d4,0,8000812c <_vfprintf_r+0x9b4>
80007910:	91 00 00 48 	movh.a %a4,32768
80007914:	d9 44 a0 47 	lea %a4,[%a4]31008 <80007920 <_vfprintf_r+0x1a8>>
80007918:	01 43 02 26 	addsc.a %a2,%a4,%d3,2
8000791c:	dc 02       	ji %a2
8000791e:	00 00       	nop 
80007920:	1d 00 c4 00 	j 80007aa8 <_vfprintf_r+0x330>
80007924:	1d 00 04 04 	j 8000812c <_vfprintf_r+0x9b4>
80007928:	1d 00 02 04 	j 8000812c <_vfprintf_r+0x9b4>
8000792c:	1d 00 c1 00 	j 80007aae <_vfprintf_r+0x336>
80007930:	1d 00 fe 03 	j 8000812c <_vfprintf_r+0x9b4>
80007934:	1d 00 fc 03 	j 8000812c <_vfprintf_r+0x9b4>
80007938:	1d 00 fa 03 	j 8000812c <_vfprintf_r+0x9b4>
8000793c:	1d 00 f8 03 	j 8000812c <_vfprintf_r+0x9b4>
80007940:	1d 00 f6 03 	j 8000812c <_vfprintf_r+0x9b4>
80007944:	1d 00 f4 03 	j 8000812c <_vfprintf_r+0x9b4>
80007948:	1d 00 b6 00 	j 80007ab4 <_vfprintf_r+0x33c>
8000794c:	1d 00 9c 00 	j 80007a84 <_vfprintf_r+0x30c>
80007950:	1d 00 ee 03 	j 8000812c <_vfprintf_r+0x9b4>
80007954:	1d 00 b9 00 	j 80007ac6 <_vfprintf_r+0x34e>
80007958:	1d 00 ba 00 	j 80007acc <_vfprintf_r+0x354>
8000795c:	1d 00 e8 03 	j 8000812c <_vfprintf_r+0x9b4>
80007960:	1d 00 d9 00 	j 80007b12 <_vfprintf_r+0x39a>
80007964:	1d 00 da 00 	j 80007b18 <_vfprintf_r+0x3a0>
80007968:	1d 00 d8 00 	j 80007b18 <_vfprintf_r+0x3a0>
8000796c:	1d 00 d6 00 	j 80007b18 <_vfprintf_r+0x3a0>
80007970:	1d 00 d4 00 	j 80007b18 <_vfprintf_r+0x3a0>
80007974:	1d 00 d2 00 	j 80007b18 <_vfprintf_r+0x3a0>
80007978:	1d 00 d0 00 	j 80007b18 <_vfprintf_r+0x3a0>
8000797c:	1d 00 ce 00 	j 80007b18 <_vfprintf_r+0x3a0>
80007980:	1d 00 cc 00 	j 80007b18 <_vfprintf_r+0x3a0>
80007984:	1d 00 ca 00 	j 80007b18 <_vfprintf_r+0x3a0>
80007988:	1d 00 d2 03 	j 8000812c <_vfprintf_r+0x9b4>
8000798c:	1d 00 d0 03 	j 8000812c <_vfprintf_r+0x9b4>
80007990:	1d 00 ce 03 	j 8000812c <_vfprintf_r+0x9b4>
80007994:	1d 00 cc 03 	j 8000812c <_vfprintf_r+0x9b4>
80007998:	1d 00 ca 03 	j 8000812c <_vfprintf_r+0x9b4>
8000799c:	1d 00 c8 03 	j 8000812c <_vfprintf_r+0x9b4>
800079a0:	1d 00 c6 03 	j 8000812c <_vfprintf_r+0x9b4>
800079a4:	1d 00 c4 03 	j 8000812c <_vfprintf_r+0x9b4>
800079a8:	1d 00 c2 03 	j 8000812c <_vfprintf_r+0x9b4>
800079ac:	1d 00 c0 03 	j 8000812c <_vfprintf_r+0x9b4>
800079b0:	1d 00 f1 00 	j 80007b92 <_vfprintf_r+0x41a>
800079b4:	1d 00 1e 01 	j 80007bf0 <_vfprintf_r+0x478>
800079b8:	1d 00 ba 03 	j 8000812c <_vfprintf_r+0x9b4>
800079bc:	1d 00 1a 01 	j 80007bf0 <_vfprintf_r+0x478>
800079c0:	1d 00 b6 03 	j 8000812c <_vfprintf_r+0x9b4>
800079c4:	1d 00 b4 03 	j 8000812c <_vfprintf_r+0x9b4>
800079c8:	1d 00 b2 03 	j 8000812c <_vfprintf_r+0x9b4>
800079cc:	1d 00 b0 03 	j 8000812c <_vfprintf_r+0x9b4>
800079d0:	1d 00 bd 00 	j 80007b4a <_vfprintf_r+0x3d2>
800079d4:	1d 00 ac 03 	j 8000812c <_vfprintf_r+0x9b4>
800079d8:	1d 00 aa 03 	j 8000812c <_vfprintf_r+0x9b4>
800079dc:	1d 00 7b 02 	j 80007ed2 <_vfprintf_r+0x75a>
800079e0:	1d 00 a6 03 	j 8000812c <_vfprintf_r+0x9b4>
800079e4:	1d 00 a4 03 	j 8000812c <_vfprintf_r+0x9b4>
800079e8:	1d 00 a2 03 	j 8000812c <_vfprintf_r+0x9b4>
800079ec:	1d 00 a0 03 	j 8000812c <_vfprintf_r+0x9b4>
800079f0:	1d 00 9e 03 	j 8000812c <_vfprintf_r+0x9b4>
800079f4:	1d 00 c2 02 	j 80007f78 <_vfprintf_r+0x800>
800079f8:	1d 00 9a 03 	j 8000812c <_vfprintf_r+0x9b4>
800079fc:	1d 00 98 03 	j 8000812c <_vfprintf_r+0x9b4>
80007a00:	1d 00 4c 00 	j 80007a98 <_vfprintf_r+0x320>
80007a04:	1d 00 94 03 	j 8000812c <_vfprintf_r+0x9b4>
80007a08:	1d 00 92 03 	j 8000812c <_vfprintf_r+0x9b4>
80007a0c:	1d 00 90 03 	j 8000812c <_vfprintf_r+0x9b4>
80007a10:	1d 00 8e 03 	j 8000812c <_vfprintf_r+0x9b4>
80007a14:	1d 00 8c 03 	j 8000812c <_vfprintf_r+0x9b4>
80007a18:	1d 00 8a 03 	j 8000812c <_vfprintf_r+0x9b4>
80007a1c:	1d 00 88 03 	j 8000812c <_vfprintf_r+0x9b4>
80007a20:	1d 00 86 03 	j 8000812c <_vfprintf_r+0x9b4>
80007a24:	1d 00 84 03 	j 8000812c <_vfprintf_r+0x9b4>
80007a28:	1d 00 82 03 	j 8000812c <_vfprintf_r+0x9b4>
80007a2c:	1d 00 a6 00 	j 80007b78 <_vfprintf_r+0x400>
80007a30:	1d 00 2f 00 	j 80007a8e <_vfprintf_r+0x316>
80007a34:	1d 00 de 00 	j 80007bf0 <_vfprintf_r+0x478>
80007a38:	1d 00 dc 00 	j 80007bf0 <_vfprintf_r+0x478>
80007a3c:	1d 00 da 00 	j 80007bf0 <_vfprintf_r+0x478>
80007a40:	1d 00 88 00 	j 80007b50 <_vfprintf_r+0x3d8>
80007a44:	1d 00 25 00 	j 80007a8e <_vfprintf_r+0x316>
80007a48:	1d 00 72 03 	j 8000812c <_vfprintf_r+0x9b4>
80007a4c:	1d 00 70 03 	j 8000812c <_vfprintf_r+0x9b4>
80007a50:	1d 00 83 00 	j 80007b56 <_vfprintf_r+0x3de>
80007a54:	1d 00 6c 03 	j 8000812c <_vfprintf_r+0x9b4>
80007a58:	1d 00 22 02 	j 80007e9c <_vfprintf_r+0x724>
80007a5c:	1d 00 3d 02 	j 80007ed6 <_vfprintf_r+0x75e>
80007a60:	1d 00 56 02 	j 80007f0c <_vfprintf_r+0x794>
80007a64:	1d 00 87 00 	j 80007b72 <_vfprintf_r+0x3fa>
80007a68:	1d 00 62 03 	j 8000812c <_vfprintf_r+0x9b4>
80007a6c:	1d 00 68 02 	j 80007f3c <_vfprintf_r+0x7c4>
80007a70:	1d 00 5e 03 	j 8000812c <_vfprintf_r+0x9b4>
80007a74:	1d 00 84 02 	j 80007f7c <_vfprintf_r+0x804>
80007a78:	1d 00 5a 03 	j 8000812c <_vfprintf_r+0x9b4>
80007a7c:	1d 00 58 03 	j 8000812c <_vfprintf_r+0x9b4>
80007a80:	1d 00 98 02 	j 80007fb0 <_vfprintf_r+0x838>
80007a84:	da 2b       	mov %d15,43
80007a86:	99 ac 10 00 	ld.a %a12,[%sp]16
80007a8a:	1d ff 37 ff 	j 800078f8 <_vfprintf_r+0x180>
80007a8e:	e9 af 31 00 	st.b [%sp]49,%d15
80007a92:	02 ac       	mov %d12,%d10
80007a94:	1d 00 83 00 	j 80007b9a <_vfprintf_r+0x422>
80007a98:	e9 af 31 00 	st.b [%sp]49,%d15
80007a9c:	7b 10 00 f8 	movh %d15,32769
80007aa0:	1b cf c5 fa 	addi %d15,%d15,-21412
80007aa4:	1d 00 8c 02 	j 80007fbc <_vfprintf_r+0x844>
80007aa8:	ab 0f 82 ff 	sel %d15,%d15,%d15,32
80007aac:	3c ed       	j 80007a86 <_vfprintf_r+0x30e>
80007aae:	8f 1a 40 a1 	or %d10,%d10,1
80007ab2:	3c ea       	j 80007a86 <_vfprintf_r+0x30e>
80007ab4:	48 02       	ld.w %d2,[%a15]0
80007ab6:	b0 4f       	add.a %a15,4
80007ab8:	59 a2 14 00 	st.w [%sp]20,%d2
80007abc:	ff 02 e5 7f 	jge %d2,0,80007a86 <_vfprintf_r+0x30e>
80007ac0:	32 52       	rsub %d2
80007ac2:	59 a2 14 00 	st.w [%sp]20,%d2
80007ac6:	8f 4a 40 a1 	or %d10,%d10,4
80007aca:	3c de       	j 80007a86 <_vfprintf_r+0x30e>
80007acc:	99 a3 10 00 	ld.a %a3,[%sp]16
80007ad0:	99 a2 10 00 	ld.a %a2,[%sp]16
80007ad4:	79 3d 00 00 	ld.b %d13,[%a3]0
80007ad8:	b0 12       	add.a %a2,1
80007ada:	8b ad 02 42 	eq %d4,%d13,42
80007ade:	f6 43       	jnz %d4,80007ae4 <_vfprintf_r+0x36c>
80007ae0:	82 08       	mov %d8,0
80007ae2:	3c 08       	j 80007af2 <_vfprintf_r+0x37a>
80007ae4:	48 0e       	ld.w %d14,[%a15]0
80007ae6:	b5 a2 10 00 	st.a [%sp]16,%a2
80007aea:	b0 4f       	add.a %a15,4
80007aec:	8b fe 5f e3 	max %d14,%d14,-1
80007af0:	3c cb       	j 80007a86 <_vfprintf_r+0x30e>
80007af2:	1b 0d fd 3f 	addi %d3,%d13,-48
80007af6:	ff a3 08 80 	jge.u %d3,10,80007b06 <_vfprintf_r+0x38e>
80007afa:	79 2d 00 00 	ld.b %d13,[%a2]0
80007afe:	13 a8 20 83 	madd %d8,%d3,%d8,10
80007b02:	b0 12       	add.a %a2,1
80007b04:	3c f7       	j 80007af2 <_vfprintf_r+0x37a>
80007b06:	8b f8 5f e3 	max %d14,%d8,-1
80007b0a:	b5 a2 10 00 	st.a [%sp]16,%a2
80007b0e:	1d ff fb fe 	j 80007904 <_vfprintf_r+0x18c>
80007b12:	8f 0a 48 a1 	or %d10,%d10,128
80007b16:	3c b8       	j 80007a86 <_vfprintf_r+0x30e>
80007b18:	82 02       	mov %d2,0
80007b1a:	59 a2 14 00 	st.w [%sp]20,%d2
80007b1e:	19 a2 14 00 	ld.w %d2,[%sp]20
80007b22:	99 a3 10 00 	ld.a %a3,[%sp]16
80007b26:	1b 0d fd 3f 	addi %d3,%d13,-48
80007b2a:	99 a2 10 00 	ld.a %a2,[%sp]16
80007b2e:	13 a2 20 23 	madd %d2,%d3,%d2,10
80007b32:	79 3d 00 00 	ld.b %d13,[%a3]0
80007b36:	b0 12       	add.a %a2,1
80007b38:	59 a2 14 00 	st.w [%sp]20,%d2
80007b3c:	b5 a2 10 00 	st.a [%sp]16,%a2
80007b40:	1b 0d fd 4f 	addi %d4,%d13,-48
80007b44:	bf a4 ed ff 	jlt.u %d4,10,80007b1e <_vfprintf_r+0x3a6>
80007b48:	3c e1       	j 80007b0a <_vfprintf_r+0x392>
80007b4a:	8f 8a 40 a1 	or %d10,%d10,8
80007b4e:	3c 9c       	j 80007a86 <_vfprintf_r+0x30e>
80007b50:	8f 0a 44 a1 	or %d10,%d10,64
80007b54:	3c 99       	j 80007a86 <_vfprintf_r+0x30e>
80007b56:	99 a3 10 00 	ld.a %a3,[%sp]16
80007b5a:	79 33 00 00 	ld.b %d3,[%a3]0
80007b5e:	8b c3 26 32 	ne %d3,%d3,108
80007b62:	f6 35       	jnz %d3,80007b6c <_vfprintf_r+0x3f4>
80007b64:	b0 13       	add.a %a3,1
80007b66:	b5 a3 10 00 	st.a [%sp]16,%a3
80007b6a:	3c 04       	j 80007b72 <_vfprintf_r+0x3fa>
80007b6c:	8f 0a 41 a1 	or %d10,%d10,16
80007b70:	3c 8b       	j 80007a86 <_vfprintf_r+0x30e>
80007b72:	8f 0a 42 a1 	or %d10,%d10,32
80007b76:	3c 88       	j 80007a86 <_vfprintf_r+0x30e>
80007b78:	48 04       	ld.w %d4,[%a15]0
80007b7a:	d9 f3 04 00 	lea %a3,[%a15]4
80007b7e:	e9 a4 18 10 	st.b [%sp]88,%d4
80007b82:	82 04       	mov %d4,0
80007b84:	b5 a3 08 00 	st.a [%sp]8,%a3
80007b88:	e9 a4 31 00 	st.b [%sp]49,%d4
80007b8c:	02 ac       	mov %d12,%d10
80007b8e:	1d 00 da 02 	j 80008142 <_vfprintf_r+0x9ca>
80007b92:	e9 af 31 00 	st.b [%sp]49,%d15
80007b96:	8f 0a 41 c1 	or %d12,%d10,16
80007b9a:	6f 5c 09 00 	jz.t %d12,5,80007bac <_vfprintf_r+0x434>
80007b9e:	d9 f3 08 00 	lea %a3,[%a15]8
80007ba2:	b5 a3 08 00 	st.a [%sp]8,%a3
80007ba6:	09 f8 40 09 	ld.d %e8,[%a15]
80007baa:	3c 16       	j 80007bd6 <_vfprintf_r+0x45e>
80007bac:	d9 f2 04 00 	lea %a2,[%a15]4
80007bb0:	6f 4c 08 00 	jz.t %d12,4,80007bc0 <_vfprintf_r+0x448>
80007bb4:	48 08       	ld.w %d8,[%a15]0
80007bb6:	b5 a2 08 00 	st.a [%sp]8,%a2
80007bba:	0b 80 00 88 	mov %e8,%d8
80007bbe:	3c 0c       	j 80007bd6 <_vfprintf_r+0x45e>
80007bc0:	48 03       	ld.w %d3,[%a15]0
80007bc2:	b5 a2 08 00 	st.a [%sp]8,%a2
80007bc6:	0b 30 00 88 	mov %e8,%d3
80007bca:	6f 6c 06 00 	jz.t %d12,6,80007bd6 <_vfprintf_r+0x45e>
80007bce:	37 03 50 40 	extr %d4,%d3,0,16
80007bd2:	0b 40 00 88 	mov %e8,%d4
80007bd6:	82 13       	mov %d3,1
80007bd8:	ff 09 1d 02 	jge %d9,0,80008012 <_vfprintf_r+0x89a>
80007bdc:	32 59       	rsub %d9
80007bde:	32 58       	rsub %d8
80007be0:	3b d0 02 40 	mov %d4,45
80007be4:	ab f9 1f 98 	cadd %d9,%d8,%d9,-1
80007be8:	e9 a4 31 00 	st.b [%sp]49,%d4
80007bec:	1d 00 13 02 	j 80008012 <_vfprintf_r+0x89a>
80007bf0:	e9 af 31 00 	st.b [%sp]49,%d15
80007bf4:	6f 3a 0d 00 	jz.t %d10,3,80007c0e <_vfprintf_r+0x496>
80007bf8:	d9 f3 08 00 	lea %a3,[%a15]8
80007bfc:	09 f4 40 09 	ld.d %e4,[%a15]
80007c00:	b5 a3 08 00 	st.a [%sp]8,%a3
80007c04:	6d 00 cc 14 	call 8000a59c <__truncdfsf2>
80007c08:	59 a2 20 00 	st.w [%sp]32,%d2
80007c0c:	3c 07       	j 80007c1a <_vfprintf_r+0x4a2>
80007c0e:	4c f0       	ld.w %d15,[%a15]0
80007c10:	d9 f3 04 00 	lea %a3,[%a15]4
80007c14:	b5 a3 08 00 	st.a [%sp]8,%a3
80007c18:	78 08       	st.w [%sp]32,%d15
80007c1a:	19 a8 20 00 	ld.w %d8,[%sp]32
80007c1e:	02 84       	mov %d4,%d8
80007c20:	6d 00 b8 13 	call 8000a390 <__fpclassifyf>
80007c24:	df 12 18 80 	jne %d2,1,80007c54 <_vfprintf_r+0x4dc>
80007c28:	82 05       	mov %d5,0
80007c2a:	4b 58 01 40 	cmp.f %d4,%d8,%d5
80007c2e:	6f 04 06 00 	jz.t %d4,0,80007c3a <_vfprintf_r+0x4c2>
80007c32:	3b d0 02 40 	mov %d4,45
80007c36:	e9 a4 31 00 	st.b [%sp]49,%d4
80007c3a:	91 10 00 c8 	movh.a %a12,32769
80007c3e:	8b 8d 84 42 	ge %d4,%d13,72
80007c42:	d9 cc d0 1a 	lea %a12,[%a12]-21424 <8000ac50 <_global_impure_ptr+0xc>>
80007c46:	df 04 18 80 	jne %d4,0,80007c76 <_vfprintf_r+0x4fe>
80007c4a:	91 10 00 c8 	movh.a %a12,32769
80007c4e:	d9 cc cc 1a 	lea %a12,[%a12]-21428 <8000ac4c <_global_impure_ptr+0x8>>
80007c52:	3c 12       	j 80007c76 <_vfprintf_r+0x4fe>
80007c54:	19 a4 20 00 	ld.w %d4,[%sp]32
80007c58:	6d 00 9c 13 	call 8000a390 <__fpclassifyf>
80007c5c:	df 02 12 80 	jne %d2,0,80007c80 <_vfprintf_r+0x508>
80007c60:	91 10 00 c8 	movh.a %a12,32769
80007c64:	8b 8d 84 42 	ge %d4,%d13,72
80007c68:	d9 cc d8 1a 	lea %a12,[%a12]-21416 <8000ac58 <_global_impure_ptr+0x14>>
80007c6c:	f6 45       	jnz %d4,80007c76 <_vfprintf_r+0x4fe>
80007c6e:	91 10 00 c8 	movh.a %a12,32769
80007c72:	d9 cc d4 1a 	lea %a12,[%a12]-21420 <8000ac54 <_global_impure_ptr+0x10>>
80007c76:	8f 0a c8 c1 	andn %d12,%d10,128
80007c7a:	82 3f       	mov %d15,3
80007c7c:	1d 00 68 02 	j 8000814c <_vfprintf_r+0x9d4>
80007c80:	8f 0d c2 21 	andn %d2,%d13,32
80007c84:	60 2f       	mov.a %a15,%d2
80007c86:	df fe 09 00 	jeq %d14,-1,80007c98 <_vfprintf_r+0x520>
80007c8a:	8b 0e 00 52 	eq %d5,%d14,0
80007c8e:	8b 72 04 54 	and.eq %d5,%d2,71
80007c92:	ab 1e a0 e5 	seln %d14,%d5,%d14,1
80007c96:	3c 02       	j 80007c9a <_vfprintf_r+0x522>
80007c98:	82 6e       	mov %d14,6
80007c9a:	82 0f       	mov %d15,0
80007c9c:	78 01       	st.w [%sp]4,%d15
80007c9e:	58 08       	ld.w %d15,[%sp]32
80007ca0:	8f 0a 50 c1 	or %d12,%d10,256
80007ca4:	ce f5       	jgez %d15,80007cae <_vfprintf_r+0x536>
80007ca6:	da 2d       	mov %d15,45
80007ca8:	9b 08 00 88 	addih %d8,%d8,32768
80007cac:	78 01       	st.w [%sp]4,%d15
80007cae:	80 f2       	mov.d %d2,%a15
80007cb0:	02 e9       	mov %d9,%d14
80007cb2:	8b 62 04 f2 	eq %d15,%d2,70
80007cb6:	82 35       	mov %d5,3
80007cb8:	ee 08       	jnz %d15,80007cc8 <_vfprintf_r+0x550>
80007cba:	8b 52 24 72 	ne %d7,%d2,69
80007cbe:	1b 1e 00 30 	addi %d3,%d14,1
80007cc2:	82 25       	mov %d5,2
80007cc4:	2b e3 50 97 	seln %d9,%d7,%d3,%d14
80007cc8:	60 b4       	mov.a %a4,%d11
80007cca:	02 84       	mov %d4,%d8
80007ccc:	02 96       	mov %d6,%d9
80007cce:	d9 a5 34 00 	lea %a5,[%sp]52
80007cd2:	d9 a6 38 00 	lea %a6,[%sp]56
80007cd6:	d9 a7 04 10 	lea %a7,[%sp]68
80007cda:	6d 00 cf 07 	call 80008c78 <_dtoa_r>
80007cde:	80 f2       	mov.d %d2,%a15
80007ce0:	40 2c       	mov.aa %a12,%a2
80007ce2:	8b 72 24 52 	ne %d5,%d2,71
80007ce6:	df 05 12 80 	jne %d5,0,80007d0a <_vfprintf_r+0x592>
80007cea:	6f 0a 10 80 	jnz.t %d10,0,80007d0a <_vfprintf_r+0x592>
80007cee:	99 a3 04 10 	ld.a %a3,[%sp]68
80007cf2:	80 f2       	mov.d %d2,%a15
80007cf4:	01 c3 20 30 	sub.a %a3,%a3,%a12
80007cf8:	8b 72 04 42 	eq %d4,%d2,71
80007cfc:	b5 a3 0c 00 	st.a [%sp]12,%a3
80007d00:	19 a2 34 00 	ld.w %d2,[%sp]52
80007d04:	df 04 2d 80 	jne %d4,0,80007d5e <_vfprintf_r+0x5e6>
80007d08:	3c 32       	j 80007d6c <_vfprintf_r+0x5f4>
80007d0a:	80 c0       	mov.d %d0,%a12
80007d0c:	42 90       	add %d0,%d9
80007d0e:	6e 13       	jz %d15,80007d34 <_vfprintf_r+0x5bc>
80007d10:	82 05       	mov %d5,0
80007d12:	4b 58 01 50 	cmp.f %d5,%d8,%d5
80007d16:	79 cf 00 00 	ld.b %d15,[%a12]0
80007d1a:	8f d5 00 51 	and %d5,%d5,13
80007d1e:	8b 05 20 72 	ne %d7,%d5,0
80007d22:	8b 0f 03 74 	and.eq %d7,%d15,48
80007d26:	76 75       	jz %d7,80007d30 <_vfprintf_r+0x5b8>
80007d28:	8b 19 00 61 	rsub %d6,%d9,1
80007d2c:	59 a6 34 00 	st.w [%sp]52,%d6
80007d30:	58 0d       	ld.w %d15,[%sp]52
80007d32:	42 f0       	add %d0,%d15
80007d34:	82 06       	mov %d6,0
80007d36:	4b 68 01 40 	cmp.f %d4,%d8,%d6
80007d3a:	8f d4 00 41 	and %d4,%d4,13
80007d3e:	f6 43       	jnz %d4,80007d44 <_vfprintf_r+0x5cc>
80007d40:	59 a0 04 10 	st.w [%sp]68,%d0
80007d44:	3b 00 03 50 	mov %d5,48
80007d48:	19 a3 04 10 	ld.w %d3,[%sp]68
80007d4c:	7f 03 d1 ff 	jge.u %d3,%d0,80007cee <_vfprintf_r+0x576>
80007d50:	1b 13 00 60 	addi %d6,%d3,1
80007d54:	60 32       	mov.a %a2,%d3
80007d56:	59 a6 04 10 	st.w [%sp]68,%d6
80007d5a:	34 25       	st.b [%a2],%d5
80007d5c:	3c f6       	j 80007d48 <_vfprintf_r+0x5d0>
80007d5e:	0b 2e 20 41 	lt %d4,%d14,%d2
80007d62:	8b d2 3f 45 	or.lt %d4,%d2,-3
80007d66:	c2 ed       	add %d13,-2
80007d68:	f6 46       	jnz %d4,80007d74 <_vfprintf_r+0x5fc>
80007d6a:	3c 7d       	j 80007e64 <_vfprintf_r+0x6ec>
80007d6c:	8b 6d 86 42 	ge %d4,%d13,102
80007d70:	df 04 67 80 	jne %d4,0,80007e3e <_vfprintf_r+0x6c6>
80007d74:	9a f2       	add %d15,%d2,-1
80007d76:	78 0d       	st.w [%sp]52,%d15
80007d78:	e9 ad 3d 00 	st.b [%sp]61,%d13
80007d7c:	3b b0 02 40 	mov %d4,43
80007d80:	ce f4       	jgez %d15,80007d88 <_vfprintf_r+0x610>
80007d82:	32 5f       	rsub %d15
80007d84:	3b d0 02 40 	mov %d4,45
80007d88:	e9 a4 3e 00 	st.b [%sp]62,%d4
80007d8c:	8b af 40 42 	lt %d4,%d15,10
80007d90:	df 04 3d 80 	jne %d4,0,80007e0a <_vfprintf_r+0x692>
80007d94:	82 03       	mov %d3,0
80007d96:	3b a0 00 70 	mov %d7,10
80007d9a:	4b 7f 01 42 	div %e4,%d15,%d7
80007d9e:	8b 63 00 61 	rsub %d6,%d3,6
80007da2:	60 64       	mov.a %a4,%d6
80007da4:	d9 a3 04 10 	lea %a3,[%sp]68
80007da8:	30 43       	add.a %a3,%a4
80007daa:	1b 05 03 50 	addi %d5,%d5,48
80007dae:	02 4f       	mov %d15,%d4
80007db0:	34 35       	st.b [%a3],%d5
80007db2:	8b a4 80 42 	ge %d4,%d4,10
80007db6:	c2 13       	add %d3,1
80007db8:	df 04 f1 ff 	jne %d4,0,80007d9a <_vfprintf_r+0x622>
80007dbc:	d9 a2 40 30 	lea %a2,[%sp]1216
80007dc0:	30 42       	add.a %a2,%a4
80007dc2:	d9 af 0b 10 	lea %a15,[%sp]75
80007dc6:	80 22       	mov.d %d2,%a2
80007dc8:	1b 0f 03 40 	addi %d4,%d15,48
80007dcc:	80 ff       	mov.d %d15,%a15
80007dce:	e9 34 ff ff 	st.b [%a3]-1,%d4
80007dd2:	d9 37 ff ff 	lea %a7,[%a3]-1
80007dd6:	1b 32 b8 6f 	addi %d6,%d2,-1149
80007dda:	82 04       	mov %d4,0
80007ddc:	01 7f 20 30 	sub.a %a3,%a15,%a7
80007de0:	3f 6f 08 80 	jlt.u %d15,%d6,80007df0 <_vfprintf_r+0x678>
80007de4:	c5 0f 75 10 	lea %a15,475 <CSA_REGIONS+0x375>
80007de8:	d9 a2 40 30 	lea %a2,[%sp]1216
80007dec:	7d f2 07 80 	jne.a %a2,%a15,80007dfa <_vfprintf_r+0x682>
80007df0:	a0 03       	mov.a %a3,0
80007df2:	3c 04       	j 80007dfa <_vfprintf_r+0x682>
80007df4:	0c 70       	ld.bu %d15,[%a7]0
80007df6:	b0 17       	add.a %a7,1
80007df8:	28 0f       	st.b [%a15]0,%d15
80007dfa:	60 4f       	mov.a %a15,%d4
80007dfc:	d9 a4 3d 00 	lea %a4,[%sp]61
80007e00:	b0 2f       	add.a %a15,2
80007e02:	30 4f       	add.a %a15,%a4
80007e04:	c2 14       	add %d4,1
80007e06:	fc 37       	loop %a3,80007df4 <_vfprintf_r+0x67c>
80007e08:	3c 0b       	j 80007e1e <_vfprintf_r+0x6a6>
80007e0a:	3b 00 03 40 	mov %d4,48
80007e0e:	e9 a4 3f 00 	st.b [%sp]63,%d4
80007e12:	1b 0f 03 40 	addi %d4,%d15,48
80007e16:	e9 a4 00 10 	st.b [%sp]64,%d4
80007e1a:	d9 af 01 10 	lea %a15,[%sp]65
80007e1e:	d9 a3 3d 00 	lea %a3,[%sp]61
80007e22:	01 3f 20 30 	sub.a %a3,%a15,%a3
80007e26:	80 3f       	mov.d %d15,%a3
80007e28:	19 a2 0c 00 	ld.w %d2,[%sp]12
80007e2c:	b5 a3 28 00 	st.a [%sp]40,%a3
80007e30:	42 2f       	add %d15,%d2
80007e32:	ff 22 04 00 	jge %d2,2,80007e3a <_vfprintf_r+0x6c2>
80007e36:	6f 0a 28 00 	jz.t %d10,0,80007e86 <_vfprintf_r+0x70e>
80007e3a:	c2 1f       	add %d15,1
80007e3c:	3c 25       	j 80007e86 <_vfprintf_r+0x70e>
80007e3e:	8b 6d 26 42 	ne %d4,%d13,102
80007e42:	df 04 13 80 	jne %d4,0,80007e68 <_vfprintf_r+0x6f0>
80007e46:	02 2f       	mov %d15,%d2
80007e48:	8e 28       	jlez %d2,80007e58 <_vfprintf_r+0x6e0>
80007e4a:	f6 e3       	jnz %d14,80007e50 <_vfprintf_r+0x6d8>
80007e4c:	6f 0a 1d 00 	jz.t %d10,0,80007e86 <_vfprintf_r+0x70e>
80007e50:	1b 1e 00 80 	addi %d8,%d14,1
80007e54:	1a 82       	add %d15,%d2,%d8
80007e56:	3c 18       	j 80007e86 <_vfprintf_r+0x70e>
80007e58:	f6 e4       	jnz %d14,80007e60 <_vfprintf_r+0x6e8>
80007e5a:	82 1f       	mov %d15,1
80007e5c:	6f 0a 15 00 	jz.t %d10,0,80007e86 <_vfprintf_r+0x70e>
80007e60:	9a 2e       	add %d15,%d14,2
80007e62:	3c 12       	j 80007e86 <_vfprintf_r+0x70e>
80007e64:	3b 70 06 d0 	mov %d13,103
80007e68:	58 03       	ld.w %d15,[%sp]12
80007e6a:	3f f2 06 00 	jlt %d2,%d15,80007e76 <_vfprintf_r+0x6fe>
80007e6e:	8f 1a 00 a1 	and %d10,%d10,1
80007e72:	1a a2       	add %d15,%d2,%d10
80007e74:	3c 09       	j 80007e86 <_vfprintf_r+0x70e>
80007e76:	8b 22 00 41 	rsub %d4,%d2,2
80007e7a:	8b 12 40 a2 	lt %d10,%d2,1
80007e7e:	58 03       	ld.w %d15,[%sp]12
80007e80:	ab 14 80 aa 	sel %d10,%d10,%d4,1
80007e84:	42 af       	add %d15,%d10
80007e86:	19 a2 04 00 	ld.w %d2,[%sp]4
80007e8a:	82 0e       	mov %d14,0
80007e8c:	df 02 61 01 	jeq %d2,0,8000814e <_vfprintf_r+0x9d6>
80007e90:	3b d0 02 40 	mov %d4,45
80007e94:	e9 a4 31 00 	st.b [%sp]49,%d4
80007e98:	1d 00 5b 01 	j 8000814e <_vfprintf_r+0x9d6>
80007e9c:	e9 af 31 00 	st.b [%sp]49,%d15
80007ea0:	d9 f3 04 00 	lea %a3,[%a15]4
80007ea4:	6f 5a 09 00 	jz.t %d10,5,80007eb6 <_vfprintf_r+0x73e>
80007ea8:	58 07       	ld.w %d15,[%sp]28
80007eaa:	c8 02       	ld.a %a2,[%a15]0
80007eac:	0b f0 00 48 	mov %e4,%d15
80007eb0:	89 24 40 09 	st.d [%a2],%e4
80007eb4:	3c 0c       	j 80007ecc <_vfprintf_r+0x754>
80007eb6:	6f 4a 08 80 	jnz.t %d10,4,80007ec6 <_vfprintf_r+0x74e>
80007eba:	6f 6a 06 00 	jz.t %d10,6,80007ec6 <_vfprintf_r+0x74e>
80007ebe:	c8 02       	ld.a %a2,[%a15]0
80007ec0:	58 07       	ld.w %d15,[%sp]28
80007ec2:	ac 20       	st.h [%a2]0,%d15
80007ec4:	3c 04       	j 80007ecc <_vfprintf_r+0x754>
80007ec6:	c8 02       	ld.a %a2,[%a15]0
80007ec8:	58 07       	ld.w %d15,[%sp]28
80007eca:	6c 20       	st.w [%a2]0,%d15
80007ecc:	40 3f       	mov.aa %a15,%a3
80007ece:	1d ff d4 fc 	j 80007876 <_vfprintf_r+0xfe>
80007ed2:	8f 0a 41 a1 	or %d10,%d10,16
80007ed6:	6f 5a 09 00 	jz.t %d10,5,80007ee8 <_vfprintf_r+0x770>
80007eda:	d9 f3 08 00 	lea %a3,[%a15]8
80007ede:	b5 a3 08 00 	st.a [%sp]8,%a3
80007ee2:	09 f8 40 09 	ld.d %e8,[%a15]
80007ee6:	3c 10       	j 80007f06 <_vfprintf_r+0x78e>
80007ee8:	d9 f2 04 00 	lea %a2,[%a15]4
80007eec:	b5 a2 08 00 	st.a [%sp]8,%a2
80007ef0:	6f 4a 09 80 	jnz.t %d10,4,80007f02 <_vfprintf_r+0x78a>
80007ef4:	6f 6a 07 00 	jz.t %d10,6,80007f02 <_vfprintf_r+0x78a>
80007ef8:	b9 f4 00 00 	ld.hu %d4,[%a15]0
80007efc:	53 14 40 80 	mul.u %e8,%d4,1
80007f00:	3c 03       	j 80007f06 <_vfprintf_r+0x78e>
80007f02:	48 08       	ld.w %d8,[%a15]0
80007f04:	82 09       	mov %d9,0
80007f06:	82 03       	mov %d3,0
80007f08:	1d 00 81 00 	j 8000800a <_vfprintf_r+0x892>
80007f0c:	3b 00 03 40 	mov %d4,48
80007f10:	7b 10 00 f8 	movh %d15,32769
80007f14:	d9 f3 04 00 	lea %a3,[%a15]4
80007f18:	e9 a4 32 00 	st.b [%sp]50,%d4
80007f1c:	1b df c6 fa 	addi %d15,%d15,-21395
80007f20:	3b 80 07 40 	mov %d4,120
80007f24:	b5 a3 08 00 	st.a [%sp]8,%a3
80007f28:	48 08       	ld.w %d8,[%a15]0
80007f2a:	82 09       	mov %d9,0
80007f2c:	8f 2a 40 a1 	or %d10,%d10,2
80007f30:	e9 a4 33 00 	st.b [%sp]51,%d4
80007f34:	78 0b       	st.w [%sp]44,%d15
80007f36:	82 23       	mov %d3,2
80007f38:	02 4d       	mov %d13,%d4
80007f3a:	3c 68       	j 8000800a <_vfprintf_r+0x892>
80007f3c:	c8 0c       	ld.a %a12,[%a15]0
80007f3e:	82 04       	mov %d4,0
80007f40:	d9 f3 04 00 	lea %a3,[%a15]4
80007f44:	e9 a4 31 00 	st.b [%sp]49,%d4
80007f48:	b5 a3 08 00 	st.a [%sp]8,%a3
80007f4c:	02 ef       	mov %d15,%d14
80007f4e:	02 ac       	mov %d12,%d10
80007f50:	40 c4       	mov.aa %a4,%a12
80007f52:	0e ee       	jltz %d14,80007f6e <_vfprintf_r+0x7f6>
80007f54:	82 04       	mov %d4,0
80007f56:	02 e5       	mov %d5,%d14
80007f58:	6d 00 36 0d 	call 800099c4 <memchr>
80007f5c:	bd 02 f8 00 	jz.a %a2,8000814c <_vfprintf_r+0x9d4>
80007f60:	01 c2 20 20 	sub.a %a2,%a2,%a12
80007f64:	80 2a       	mov.d %d10,%a2
80007f66:	0b ea 80 f1 	min %d15,%d10,%d14
80007f6a:	1d 00 f1 00 	j 8000814c <_vfprintf_r+0x9d4>
80007f6e:	6d ff 53 fb 	call 80007614 <strlen>
80007f72:	02 2f       	mov %d15,%d2
80007f74:	1d 00 ec 00 	j 8000814c <_vfprintf_r+0x9d4>
80007f78:	8f 0a 41 a1 	or %d10,%d10,16
80007f7c:	6f 5a 09 00 	jz.t %d10,5,80007f8e <_vfprintf_r+0x816>
80007f80:	d9 f3 08 00 	lea %a3,[%a15]8
80007f84:	b5 a3 08 00 	st.a [%sp]8,%a3
80007f88:	09 f8 40 09 	ld.d %e8,[%a15]
80007f8c:	3c 10       	j 80007fac <_vfprintf_r+0x834>
80007f8e:	d9 f2 04 00 	lea %a2,[%a15]4
80007f92:	b5 a2 08 00 	st.a [%sp]8,%a2
80007f96:	6f 4a 09 80 	jnz.t %d10,4,80007fa8 <_vfprintf_r+0x830>
80007f9a:	6f 6a 07 00 	jz.t %d10,6,80007fa8 <_vfprintf_r+0x830>
80007f9e:	b9 f4 00 00 	ld.hu %d4,[%a15]0
80007fa2:	53 14 40 80 	mul.u %e8,%d4,1
80007fa6:	3c 03       	j 80007fac <_vfprintf_r+0x834>
80007fa8:	48 08       	ld.w %d8,[%a15]0
80007faa:	82 09       	mov %d9,0
80007fac:	82 13       	mov %d3,1
80007fae:	3c 2e       	j 8000800a <_vfprintf_r+0x892>
80007fb0:	e9 af 31 00 	st.b [%sp]49,%d15
80007fb4:	7b 10 00 f8 	movh %d15,32769
80007fb8:	1b df c6 fa 	addi %d15,%d15,-21395
80007fbc:	78 0b       	st.w [%sp]44,%d15
80007fbe:	6f 5a 09 00 	jz.t %d10,5,80007fd0 <_vfprintf_r+0x858>
80007fc2:	d9 f3 08 00 	lea %a3,[%a15]8
80007fc6:	b5 a3 08 00 	st.a [%sp]8,%a3
80007fca:	09 f8 40 09 	ld.d %e8,[%a15]
80007fce:	3c 10       	j 80007fee <_vfprintf_r+0x876>
80007fd0:	d9 f2 04 00 	lea %a2,[%a15]4
80007fd4:	b5 a2 08 00 	st.a [%sp]8,%a2
80007fd8:	6f 4a 09 80 	jnz.t %d10,4,80007fea <_vfprintf_r+0x872>
80007fdc:	6f 6a 07 00 	jz.t %d10,6,80007fea <_vfprintf_r+0x872>
80007fe0:	b9 f4 00 00 	ld.hu %d4,[%a15]0
80007fe4:	53 14 40 80 	mul.u %e8,%d4,1
80007fe8:	3c 03       	j 80007fee <_vfprintf_r+0x876>
80007fea:	48 08       	ld.w %d8,[%a15]0
80007fec:	82 09       	mov %d9,0
80007fee:	82 23       	mov %d3,2
80007ff0:	6f 0a 0d 00 	jz.t %d10,0,8000800a <_vfprintf_r+0x892>
80007ff4:	0f 89 a0 40 	or %d4,%d9,%d8
80007ff8:	76 49       	jz %d4,8000800a <_vfprintf_r+0x892>
80007ffa:	3b 00 03 40 	mov %d4,48
80007ffe:	e9 a4 32 00 	st.b [%sp]50,%d4
80008002:	e9 ad 33 00 	st.b [%sp]51,%d13
80008006:	8f 2a 40 a1 	or %d10,%d10,2
8000800a:	82 04       	mov %d4,0
8000800c:	e9 a4 31 00 	st.b [%sp]49,%d4
80008010:	02 ac       	mov %d12,%d10
80008012:	8f 0c c8 41 	andn %d4,%d12,128
80008016:	8b 0e 80 52 	ge %d5,%d14,0
8000801a:	2b c4 40 c5 	sel %d12,%d5,%d4,%d12
8000801e:	0f 98 a0 60 	or %d6,%d8,%d9
80008022:	8b 0e 20 42 	ne %d4,%d14,0
80008026:	8b 06 00 45 	or.ne %d4,%d6,0
8000802a:	df 04 70 00 	jeq %d4,0,8000810a <_vfprintf_r+0x992>
8000802e:	df 13 06 00 	jeq %d3,1,8000803a <_vfprintf_r+0x8c2>
80008032:	df 23 56 00 	jeq %d3,2,800080de <_vfprintf_r+0x966>
80008036:	82 03       	mov %d3,0
80008038:	3c 03       	j 8000803e <_vfprintf_r+0x8c6>
8000803a:	82 04       	mov %d4,0
8000803c:	3c 21       	j 8000807e <_vfprintf_r+0x906>
8000803e:	8b 73 02 41 	rsub %d4,%d3,39
80008042:	60 44       	mov.a %a4,%d4
80008044:	d9 a3 18 10 	lea %a3,[%sp]88
80008048:	8f 78 00 41 	and %d4,%d8,7
8000804c:	77 89 80 8e 	dextr %d8,%d9,%d8,29
80008050:	30 43       	add.a %a3,%a4
80008052:	1b 04 03 40 	addi %d4,%d4,48
80008056:	06 d9       	sh %d9,-3
80008058:	34 34       	st.b [%a3],%d4
8000805a:	0f 89 a0 60 	or %d6,%d9,%d8
8000805e:	c2 13       	add %d3,1
80008060:	df 06 ef ff 	jne %d6,0,8000803e <_vfprintf_r+0x8c6>
80008064:	40 3c       	mov.aa %a12,%a3
80008066:	6f 0c 5d 00 	jz.t %d12,0,80008120 <_vfprintf_r+0x9a8>
8000806a:	8b 04 03 42 	eq %d4,%d4,48
8000806e:	df 04 59 80 	jne %d4,0,80008120 <_vfprintf_r+0x9a8>
80008072:	3b 00 03 40 	mov %d4,48
80008076:	b0 fc       	add.a %a12,-1
80008078:	e9 34 ff ff 	st.b [%a3]-1,%d4
8000807c:	3c 52       	j 80008120 <_vfprintf_r+0x9a8>
8000807e:	8b 84 02 51 	rsub %d5,%d4,40
80008082:	8b 09 00 32 	eq %d3,%d9,0
80008086:	60 52       	mov.a %a2,%d5
80008088:	8b a8 a0 34 	and.ge.u %d3,%d8,10
8000808c:	d9 a5 18 10 	lea %a5,[%sp]88
80008090:	8b 09 00 35 	or.ne %d3,%d9,0
80008094:	30 25       	add.a %a5,%a2
80008096:	1b 14 00 a0 	addi %d10,%d4,1
8000809a:	df 03 1b 00 	jeq %d3,0,800080d0 <_vfprintf_r+0x958>
8000809e:	8b 74 02 41 	rsub %d4,%d4,39
800080a2:	60 4f       	mov.a %a15,%d4
800080a4:	fb a0 00 60 	mov %e6,10
800080a8:	0b 89 10 48 	mov %e4,%d9,%d8
800080ac:	d9 ac 18 10 	lea %a12,[%sp]88
800080b0:	6d 00 94 12 	call 8000a5d8 <__umoddi3>
800080b4:	30 fc       	add.a %a12,%a15
800080b6:	0b 89 10 48 	mov %e4,%d9,%d8
800080ba:	1b 02 03 20 	addi %d2,%d2,48
800080be:	fb a0 00 60 	mov %e6,10
800080c2:	34 c2       	st.b [%a12],%d2
800080c4:	6d ff e8 ef 	call 80006094 <__udivdi3>
800080c8:	02 a4       	mov %d4,%d10
800080ca:	0b 23 10 88 	mov %e8,%d3,%d2
800080ce:	3c d8       	j 8000807e <_vfprintf_r+0x906>
800080d0:	1b 08 03 80 	addi %d8,%d8,48
800080d4:	d9 5c ff ff 	lea %a12,[%a5]-1
800080d8:	e9 58 ff ff 	st.b [%a5]-1,%d8
800080dc:	3c 22       	j 80008120 <_vfprintf_r+0x9a8>
800080de:	82 03       	mov %d3,0
800080e0:	d8 0b       	ld.a %a15,[%sp]44
800080e2:	8f f8 00 f1 	and %d15,%d8,15
800080e6:	8b 73 02 41 	rsub %d4,%d3,39
800080ea:	10 f5       	addsc.a %a5,%a15,%d15,0
800080ec:	60 43       	mov.a %a3,%d4
800080ee:	77 89 00 8e 	dextr %d8,%d9,%d8,28
800080f2:	d9 ac 18 10 	lea %a12,[%sp]88
800080f6:	0c 50       	ld.bu %d15,[%a5]0
800080f8:	30 3c       	add.a %a12,%a3
800080fa:	06 c9       	sh %d9,-4
800080fc:	2c c0       	st.b [%a12]0,%d15
800080fe:	0f 89 a0 40 	or %d4,%d9,%d8
80008102:	c2 13       	add %d3,1
80008104:	df 04 ee ff 	jne %d4,0,800080e0 <_vfprintf_r+0x968>
80008108:	3c 0c       	j 80008120 <_vfprintf_r+0x9a8>
8000810a:	d9 ac 00 20 	lea %a12,[%sp]128
8000810e:	f6 39       	jnz %d3,80008120 <_vfprintf_r+0x9a8>
80008110:	6f 0c 08 00 	jz.t %d12,0,80008120 <_vfprintf_r+0x9a8>
80008114:	3b 00 03 40 	mov %d4,48
80008118:	e9 a4 3f 10 	st.b [%sp]127,%d4
8000811c:	d9 ac 3f 10 	lea %a12,[%sp]127
80008120:	d9 a5 00 20 	lea %a5,[%sp]128
80008124:	01 c5 20 50 	sub.a %a5,%a5,%a12
80008128:	80 5f       	mov.d %d15,%a5
8000812a:	3c 12       	j 8000814e <_vfprintf_r+0x9d6>
8000812c:	e9 af 31 00 	st.b [%sp]49,%d15
80008130:	df 0d 4a 04 	jeq %d13,0,800089c4 <_vfprintf_r+0x124c>
80008134:	82 04       	mov %d4,0
80008136:	e9 ad 18 10 	st.b [%sp]88,%d13
8000813a:	e9 a4 31 00 	st.b [%sp]49,%d4
8000813e:	02 ac       	mov %d12,%d10
80008140:	f8 02       	st.a [%sp]8,%a15
80008142:	82 1f       	mov %d15,1
80008144:	82 0e       	mov %d14,0
80008146:	d9 ac 18 10 	lea %a12,[%sp]88
8000814a:	3c 02       	j 8000814e <_vfprintf_r+0x9d6>
8000814c:	82 0e       	mov %d14,0
8000814e:	79 a4 31 00 	ld.b %d4,[%sp]49
80008152:	8f 4c 08 21 	and %d2,%d12,132
80008156:	0b ef a0 a1 	max %d10,%d15,%d14
8000815a:	60 2f       	mov.a %a15,%d2
8000815c:	ab 1a 00 a4 	cadd %d10,%d4,%d10,1
80008160:	8f 2c 00 91 	and %d9,%d12,2
80008164:	ab 2a 00 a9 	cadd %d10,%d9,%d10,2
80008168:	bd 0f 4c 80 	jnz.a %a15,80008200 <_vfprintf_r+0xa88>
8000816c:	19 a8 14 00 	ld.w %d8,[%sp]20
80008170:	a2 a8       	sub %d8,%d10
80008172:	bf 18 47 00 	jlt %d8,1,80008200 <_vfprintf_r+0xa88>
80008176:	91 10 00 28 	movh.a %a2,32769
8000817a:	d9 22 d0 2a 	lea %a2,[%a2]-21360 <8000ac90 <blanks.3917>>
8000817e:	f4 d2       	st.a [%a13],%a2
80008180:	8b 18 81 52 	ge %d5,%d8,17
80008184:	df 05 23 00 	jeq %d5,0,800081ca <_vfprintf_r+0xa52>
80008188:	3b 00 01 20 	mov %d2,16
8000818c:	59 d2 04 00 	st.w [%a13]4,%d2
80008190:	19 a2 14 10 	ld.w %d2,[%sp]84
80008194:	d9 dd 08 00 	lea %a13,[%a13]8
80008198:	1b 02 01 50 	addi %d5,%d2,16
8000819c:	59 a5 14 10 	st.w [%sp]84,%d5
800081a0:	19 a5 10 10 	ld.w %d5,[%sp]80
800081a4:	c2 15       	add %d5,1
800081a6:	59 a5 10 10 	st.w [%sp]80,%d5
800081aa:	8b 85 80 52 	ge %d5,%d5,8
800081ae:	76 5b       	jz %d5,800081c4 <_vfprintf_r+0xa4c>
800081b0:	60 b4       	mov.a %a4,%d11
800081b2:	40 e5       	mov.aa %a5,%a14
800081b4:	d9 a6 0c 10 	lea %a6,[%sp]76
800081b8:	6d 00 05 11 	call 8000a3c2 <__sprint_r>
800081bc:	df 02 0c 84 	jne %d2,0,800089d4 <_vfprintf_r+0x125c>
800081c0:	d9 ad 00 30 	lea %a13,[%sp]192
800081c4:	1b 08 ff 8f 	addi %d8,%d8,-16
800081c8:	3c d7       	j 80008176 <_vfprintf_r+0x9fe>
800081ca:	19 a4 14 10 	ld.w %d4,[%sp]84
800081ce:	19 a3 10 10 	ld.w %d3,[%sp]80
800081d2:	42 84       	add %d4,%d8
800081d4:	c2 13       	add %d3,1
800081d6:	59 d8 04 00 	st.w [%a13]4,%d8
800081da:	59 a4 14 10 	st.w [%sp]84,%d4
800081de:	59 a3 10 10 	st.w [%sp]80,%d3
800081e2:	8b 83 80 42 	ge %d4,%d3,8
800081e6:	d9 dd 08 00 	lea %a13,[%a13]8
800081ea:	76 4b       	jz %d4,80008200 <_vfprintf_r+0xa88>
800081ec:	60 b4       	mov.a %a4,%d11
800081ee:	40 e5       	mov.aa %a5,%a14
800081f0:	d9 a6 0c 10 	lea %a6,[%sp]76
800081f4:	6d 00 e7 10 	call 8000a3c2 <__sprint_r>
800081f8:	df 02 ee 83 	jne %d2,0,800089d4 <_vfprintf_r+0x125c>
800081fc:	d9 ad 00 30 	lea %a13,[%sp]192
80008200:	79 a4 31 00 	ld.b %d4,[%sp]49
80008204:	df 04 21 00 	jeq %d4,0,80008246 <_vfprintf_r+0xace>
80008208:	19 a4 14 10 	ld.w %d4,[%sp]84
8000820c:	19 a3 10 10 	ld.w %d3,[%sp]80
80008210:	c2 14       	add %d4,1
80008212:	c2 13       	add %d3,1
80008214:	d9 a5 31 00 	lea %a5,[%sp]49
80008218:	82 15       	mov %d5,1
8000821a:	f4 d5       	st.a [%a13],%a5
8000821c:	59 d5 04 00 	st.w [%a13]4,%d5
80008220:	59 a4 14 10 	st.w [%sp]84,%d4
80008224:	59 a3 10 10 	st.w [%sp]80,%d3
80008228:	8b 83 80 42 	ge %d4,%d3,8
8000822c:	d9 dd 08 00 	lea %a13,[%a13]8
80008230:	76 4b       	jz %d4,80008246 <_vfprintf_r+0xace>
80008232:	60 b4       	mov.a %a4,%d11
80008234:	40 e5       	mov.aa %a5,%a14
80008236:	d9 a6 0c 10 	lea %a6,[%sp]76
8000823a:	6d 00 c4 10 	call 8000a3c2 <__sprint_r>
8000823e:	df 02 cb 83 	jne %d2,0,800089d4 <_vfprintf_r+0x125c>
80008242:	d9 ad 00 30 	lea %a13,[%sp]192
80008246:	df 09 21 00 	jeq %d9,0,80008288 <_vfprintf_r+0xb10>
8000824a:	19 a4 14 10 	ld.w %d4,[%sp]84
8000824e:	19 a3 10 10 	ld.w %d3,[%sp]80
80008252:	c2 24       	add %d4,2
80008254:	c2 13       	add %d3,1
80008256:	d9 a5 32 00 	lea %a5,[%sp]50
8000825a:	82 25       	mov %d5,2
8000825c:	f4 d5       	st.a [%a13],%a5
8000825e:	59 d5 04 00 	st.w [%a13]4,%d5
80008262:	59 a4 14 10 	st.w [%sp]84,%d4
80008266:	59 a3 10 10 	st.w [%sp]80,%d3
8000826a:	8b 83 80 42 	ge %d4,%d3,8
8000826e:	d9 dd 08 00 	lea %a13,[%a13]8
80008272:	76 4b       	jz %d4,80008288 <_vfprintf_r+0xb10>
80008274:	60 b4       	mov.a %a4,%d11
80008276:	40 e5       	mov.aa %a5,%a14
80008278:	d9 a6 0c 10 	lea %a6,[%sp]76
8000827c:	6d 00 a3 10 	call 8000a3c2 <__sprint_r>
80008280:	df 02 aa 83 	jne %d2,0,800089d4 <_vfprintf_r+0x125c>
80008284:	d9 ad 00 30 	lea %a13,[%sp]192
80008288:	80 f2       	mov.d %d2,%a15
8000828a:	8b 02 28 42 	ne %d4,%d2,128
8000828e:	df 04 4b 80 	jne %d4,0,80008324 <_vfprintf_r+0xbac>
80008292:	19 a9 14 00 	ld.w %d9,[%sp]20
80008296:	7b 10 00 88 	movh %d8,32769
8000829a:	a2 a9       	sub %d9,%d10
8000829c:	1b 08 c8 8a 	addi %d8,%d8,-21376
800082a0:	c5 0f 10 00 	lea %a15,10 <CSA_REGIONS-0xf0>
800082a4:	bf 19 40 00 	jlt %d9,1,80008324 <_vfprintf_r+0xbac>
800082a8:	74 d8       	st.w [%a13],%d8
800082aa:	8b 19 81 42 	ge %d4,%d9,17
800082ae:	df 04 20 00 	jeq %d4,0,800082ee <_vfprintf_r+0xb76>
800082b2:	19 a2 14 10 	ld.w %d2,[%sp]84
800082b6:	19 a3 10 10 	ld.w %d3,[%sp]80
800082ba:	1b 02 01 40 	addi %d4,%d2,16
800082be:	c2 13       	add %d3,1
800082c0:	ec d1       	st.a [%a13]4,%a15
800082c2:	59 a4 14 10 	st.w [%sp]84,%d4
800082c6:	59 a3 10 10 	st.w [%sp]80,%d3
800082ca:	8b 83 80 42 	ge %d4,%d3,8
800082ce:	d9 dd 08 00 	lea %a13,[%a13]8
800082d2:	76 4b       	jz %d4,800082e8 <_vfprintf_r+0xb70>
800082d4:	60 b4       	mov.a %a4,%d11
800082d6:	40 e5       	mov.aa %a5,%a14
800082d8:	d9 a6 0c 10 	lea %a6,[%sp]76
800082dc:	6d 00 73 10 	call 8000a3c2 <__sprint_r>
800082e0:	df 02 7a 83 	jne %d2,0,800089d4 <_vfprintf_r+0x125c>
800082e4:	d9 ad 00 30 	lea %a13,[%sp]192
800082e8:	1b 09 ff 9f 	addi %d9,%d9,-16
800082ec:	3c de       	j 800082a8 <_vfprintf_r+0xb30>
800082ee:	19 a2 14 10 	ld.w %d2,[%sp]84
800082f2:	19 a3 10 10 	ld.w %d3,[%sp]80
800082f6:	59 d9 04 00 	st.w [%a13]4,%d9
800082fa:	c2 13       	add %d3,1
800082fc:	42 29       	add %d9,%d2
800082fe:	59 a9 14 10 	st.w [%sp]84,%d9
80008302:	59 a3 10 10 	st.w [%sp]80,%d3
80008306:	8b 83 80 42 	ge %d4,%d3,8
8000830a:	d9 dd 08 00 	lea %a13,[%a13]8
8000830e:	76 4b       	jz %d4,80008324 <_vfprintf_r+0xbac>
80008310:	60 b4       	mov.a %a4,%d11
80008312:	40 e5       	mov.aa %a5,%a14
80008314:	d9 a6 0c 10 	lea %a6,[%sp]76
80008318:	6d 00 55 10 	call 8000a3c2 <__sprint_r>
8000831c:	df 02 5c 83 	jne %d2,0,800089d4 <_vfprintf_r+0x125c>
80008320:	d9 ad 00 30 	lea %a13,[%sp]192
80008324:	0b fe 80 80 	sub %d8,%d14,%d15
80008328:	7b 10 00 98 	movh %d9,32769
8000832c:	1b 09 c8 9a 	addi %d9,%d9,-21376
80008330:	3b 00 01 e0 	mov %d14,16
80008334:	bf 18 41 00 	jlt %d8,1,800083b6 <_vfprintf_r+0xc3e>
80008338:	74 d9       	st.w [%a13],%d9
8000833a:	8b 18 81 42 	ge %d4,%d8,17
8000833e:	df 04 21 00 	jeq %d4,0,80008380 <_vfprintf_r+0xc08>
80008342:	19 a2 14 10 	ld.w %d2,[%sp]84
80008346:	19 a3 10 10 	ld.w %d3,[%sp]80
8000834a:	1b 02 01 40 	addi %d4,%d2,16
8000834e:	c2 13       	add %d3,1
80008350:	59 de 04 00 	st.w [%a13]4,%d14
80008354:	59 a4 14 10 	st.w [%sp]84,%d4
80008358:	59 a3 10 10 	st.w [%sp]80,%d3
8000835c:	8b 83 80 42 	ge %d4,%d3,8
80008360:	d9 dd 08 00 	lea %a13,[%a13]8
80008364:	76 4b       	jz %d4,8000837a <_vfprintf_r+0xc02>
80008366:	60 b4       	mov.a %a4,%d11
80008368:	40 e5       	mov.aa %a5,%a14
8000836a:	d9 a6 0c 10 	lea %a6,[%sp]76
8000836e:	6d 00 2a 10 	call 8000a3c2 <__sprint_r>
80008372:	df 02 31 83 	jne %d2,0,800089d4 <_vfprintf_r+0x125c>
80008376:	d9 ad 00 30 	lea %a13,[%sp]192
8000837a:	1b 08 ff 8f 	addi %d8,%d8,-16
8000837e:	3c dd       	j 80008338 <_vfprintf_r+0xbc0>
80008380:	19 a2 14 10 	ld.w %d2,[%sp]84
80008384:	19 a3 10 10 	ld.w %d3,[%sp]80
80008388:	59 d8 04 00 	st.w [%a13]4,%d8
8000838c:	c2 13       	add %d3,1
8000838e:	42 28       	add %d8,%d2
80008390:	59 a8 14 10 	st.w [%sp]84,%d8
80008394:	59 a3 10 10 	st.w [%sp]80,%d3
80008398:	8b 83 80 42 	ge %d4,%d3,8
8000839c:	d9 dd 08 00 	lea %a13,[%a13]8
800083a0:	76 4b       	jz %d4,800083b6 <_vfprintf_r+0xc3e>
800083a2:	60 b4       	mov.a %a4,%d11
800083a4:	40 e5       	mov.aa %a5,%a14
800083a6:	d9 a6 0c 10 	lea %a6,[%sp]76
800083aa:	6d 00 0c 10 	call 8000a3c2 <__sprint_r>
800083ae:	df 02 13 83 	jne %d2,0,800089d4 <_vfprintf_r+0x125c>
800083b2:	d9 ad 00 30 	lea %a13,[%sp]192
800083b6:	6f 8c 1f 80 	jnz.t %d12,8,800083f4 <_vfprintf_r+0xc7c>
800083ba:	19 a2 14 10 	ld.w %d2,[%sp]84
800083be:	19 a3 10 10 	ld.w %d3,[%sp]80
800083c2:	6c d1       	st.w [%a13]4,%d15
800083c4:	c2 13       	add %d3,1
800083c6:	42 2f       	add %d15,%d2
800083c8:	59 a3 10 10 	st.w [%sp]80,%d3
800083cc:	f4 dc       	st.a [%a13],%a12
800083ce:	78 15       	st.w [%sp]84,%d15
800083d0:	8b 83 80 32 	ge %d3,%d3,8
800083d4:	d9 df 08 00 	lea %a15,[%a13]8
800083d8:	df 03 94 02 	jeq %d3,0,80008900 <_vfprintf_r+0x1188>
800083dc:	60 b4       	mov.a %a4,%d11
800083de:	40 e5       	mov.aa %a5,%a14
800083e0:	d9 a6 0c 10 	lea %a6,[%sp]76
800083e4:	6d 00 ef 0f 	call 8000a3c2 <__sprint_r>
800083e8:	df 02 f6 82 	jne %d2,0,800089d4 <_vfprintf_r+0x125c>
800083ec:	d9 af 00 30 	lea %a15,[%sp]192
800083f0:	1d 00 88 02 	j 80008900 <_vfprintf_r+0x1188>
800083f4:	8b 6d 46 32 	lt %d3,%d13,102
800083f8:	df 03 d2 81 	jne %d3,0,8000879c <_vfprintf_r+0x1024>
800083fc:	58 08       	ld.w %d15,[%sp]32
800083fe:	82 03       	mov %d3,0
80008400:	4b 3f 01 30 	cmp.f %d3,%d15,%d3
80008404:	8f d3 00 31 	and %d3,%d3,13
80008408:	df 03 7d 80 	jne %d3,0,80008502 <_vfprintf_r+0xd8a>
8000840c:	19 a3 14 10 	ld.w %d3,[%sp]84
80008410:	7b 10 00 48 	movh %d4,32769
80008414:	c2 13       	add %d3,1
80008416:	59 a3 14 10 	st.w [%sp]84,%d3
8000841a:	19 a3 10 10 	ld.w %d3,[%sp]80
8000841e:	1b e4 c7 4a 	addi %d4,%d4,-21378
80008422:	c2 13       	add %d3,1
80008424:	74 d4       	st.w [%a13],%d4
80008426:	82 14       	mov %d4,1
80008428:	59 a3 10 10 	st.w [%sp]80,%d3
8000842c:	59 d4 04 00 	st.w [%a13]4,%d4
80008430:	8b 83 80 32 	ge %d3,%d3,8
80008434:	d9 df 08 00 	lea %a15,[%a13]8
80008438:	76 3b       	jz %d3,8000844e <_vfprintf_r+0xcd6>
8000843a:	60 b4       	mov.a %a4,%d11
8000843c:	40 e5       	mov.aa %a5,%a14
8000843e:	d9 a6 0c 10 	lea %a6,[%sp]76
80008442:	6d 00 c0 0f 	call 8000a3c2 <__sprint_r>
80008446:	df 02 c7 82 	jne %d2,0,800089d4 <_vfprintf_r+0x125c>
8000844a:	d9 af 00 30 	lea %a15,[%sp]192
8000844e:	58 0d       	ld.w %d15,[%sp]52
80008450:	19 a2 0c 00 	ld.w %d2,[%sp]12
80008454:	3f 2f 04 00 	jlt %d15,%d2,8000845c <_vfprintf_r+0xce4>
80008458:	6f 0c 54 02 	jz.t %d12,0,80008900 <_vfprintf_r+0x1188>
8000845c:	58 06       	ld.w %d15,[%sp]24
8000845e:	19 a2 14 10 	ld.w %d2,[%sp]84
80008462:	02 f3       	mov %d3,%d15
80008464:	42 23       	add %d3,%d2
80008466:	99 a3 24 00 	ld.a %a3,[%sp]36
8000846a:	59 a3 14 10 	st.w [%sp]84,%d3
8000846e:	19 a3 10 10 	ld.w %d3,[%sp]80
80008472:	e8 03       	st.a [%a15]0,%a3
80008474:	c2 13       	add %d3,1
80008476:	68 1f       	st.w [%a15]4,%d15
80008478:	59 a3 10 10 	st.w [%sp]80,%d3
8000847c:	8b 83 80 32 	ge %d3,%d3,8
80008480:	d9 ff 08 00 	lea %a15,[%a15]8
80008484:	76 3b       	jz %d3,8000849a <_vfprintf_r+0xd22>
80008486:	60 b4       	mov.a %a4,%d11
80008488:	40 e5       	mov.aa %a5,%a14
8000848a:	d9 a6 0c 10 	lea %a6,[%sp]76
8000848e:	6d 00 9a 0f 	call 8000a3c2 <__sprint_r>
80008492:	df 02 a1 82 	jne %d2,0,800089d4 <_vfprintf_r+0x125c>
80008496:	d9 af 00 30 	lea %a15,[%sp]192
8000849a:	19 a8 0c 00 	ld.w %d8,[%sp]12
8000849e:	7b 10 00 98 	movh %d9,32769
800084a2:	c2 f8       	add %d8,-1
800084a4:	1b 09 c8 9a 	addi %d9,%d9,-21376
800084a8:	da 10       	mov %d15,16
800084aa:	bf 18 2b 02 	jlt %d8,1,80008900 <_vfprintf_r+0x1188>
800084ae:	68 09       	st.w [%a15]0,%d9
800084b0:	8b 18 81 32 	ge %d3,%d8,17
800084b4:	df 03 20 00 	jeq %d3,0,800084f4 <_vfprintf_r+0xd7c>
800084b8:	19 a2 14 10 	ld.w %d2,[%sp]84
800084bc:	68 1f       	st.w [%a15]4,%d15
800084be:	1b 02 01 30 	addi %d3,%d2,16
800084c2:	59 a3 14 10 	st.w [%sp]84,%d3
800084c6:	19 a3 10 10 	ld.w %d3,[%sp]80
800084ca:	d9 ff 08 00 	lea %a15,[%a15]8
800084ce:	c2 13       	add %d3,1
800084d0:	59 a3 10 10 	st.w [%sp]80,%d3
800084d4:	8b 83 80 32 	ge %d3,%d3,8
800084d8:	76 3b       	jz %d3,800084ee <_vfprintf_r+0xd76>
800084da:	60 b4       	mov.a %a4,%d11
800084dc:	40 e5       	mov.aa %a5,%a14
800084de:	d9 a6 0c 10 	lea %a6,[%sp]76
800084e2:	6d 00 70 0f 	call 8000a3c2 <__sprint_r>
800084e6:	df 02 77 82 	jne %d2,0,800089d4 <_vfprintf_r+0x125c>
800084ea:	d9 af 00 30 	lea %a15,[%sp]192
800084ee:	1b 08 ff 8f 	addi %d8,%d8,-16
800084f2:	3c de       	j 800084ae <_vfprintf_r+0xd36>
800084f4:	58 15       	ld.w %d15,[%sp]84
800084f6:	68 18       	st.w [%a15]4,%d8
800084f8:	42 f8       	add %d8,%d15
800084fa:	59 a8 14 10 	st.w [%sp]84,%d8
800084fe:	1d 00 f6 01 	j 800088ea <_vfprintf_r+0x1172>
80008502:	19 a3 34 00 	ld.w %d3,[%sp]52
80008506:	ff 13 94 00 	jge %d3,1,8000862e <_vfprintf_r+0xeb6>
8000850a:	19 a3 14 10 	ld.w %d3,[%sp]84
8000850e:	7b 10 00 48 	movh %d4,32769
80008512:	c2 13       	add %d3,1
80008514:	59 a3 14 10 	st.w [%sp]84,%d3
80008518:	19 a3 10 10 	ld.w %d3,[%sp]80
8000851c:	1b e4 c7 4a 	addi %d4,%d4,-21378
80008520:	c2 13       	add %d3,1
80008522:	74 d4       	st.w [%a13],%d4
80008524:	82 14       	mov %d4,1
80008526:	59 a3 10 10 	st.w [%sp]80,%d3
8000852a:	59 d4 04 00 	st.w [%a13]4,%d4
8000852e:	8b 83 80 32 	ge %d3,%d3,8
80008532:	d9 df 08 00 	lea %a15,[%a13]8
80008536:	76 3b       	jz %d3,8000854c <_vfprintf_r+0xdd4>
80008538:	60 b4       	mov.a %a4,%d11
8000853a:	40 e5       	mov.aa %a5,%a14
8000853c:	d9 a6 0c 10 	lea %a6,[%sp]76
80008540:	6d 00 41 0f 	call 8000a3c2 <__sprint_r>
80008544:	df 02 48 82 	jne %d2,0,800089d4 <_vfprintf_r+0x125c>
80008548:	d9 af 00 30 	lea %a15,[%sp]192
8000854c:	19 a3 34 00 	ld.w %d3,[%sp]52
80008550:	58 03       	ld.w %d15,[%sp]12
80008552:	a6 f3       	or %d3,%d15
80008554:	f6 33       	jnz %d3,8000855a <_vfprintf_r+0xde2>
80008556:	6f 0c d5 01 	jz.t %d12,0,80008900 <_vfprintf_r+0x1188>
8000855a:	58 06       	ld.w %d15,[%sp]24
8000855c:	19 a2 14 10 	ld.w %d2,[%sp]84
80008560:	02 f3       	mov %d3,%d15
80008562:	42 23       	add %d3,%d2
80008564:	99 a3 24 00 	ld.a %a3,[%sp]36
80008568:	59 a3 14 10 	st.w [%sp]84,%d3
8000856c:	19 a3 10 10 	ld.w %d3,[%sp]80
80008570:	e8 03       	st.a [%a15]0,%a3
80008572:	c2 13       	add %d3,1
80008574:	68 1f       	st.w [%a15]4,%d15
80008576:	59 a3 10 10 	st.w [%sp]80,%d3
8000857a:	8b 83 80 32 	ge %d3,%d3,8
8000857e:	d9 ff 08 00 	lea %a15,[%a15]8
80008582:	76 3b       	jz %d3,80008598 <_vfprintf_r+0xe20>
80008584:	60 b4       	mov.a %a4,%d11
80008586:	40 e5       	mov.aa %a5,%a14
80008588:	d9 a6 0c 10 	lea %a6,[%sp]76
8000858c:	6d 00 1b 0f 	call 8000a3c2 <__sprint_r>
80008590:	df 02 22 82 	jne %d2,0,800089d4 <_vfprintf_r+0x125c>
80008594:	d9 af 00 30 	lea %a15,[%sp]192
80008598:	58 0d       	ld.w %d15,[%sp]52
8000859a:	7b 10 00 88 	movh %d8,32769
8000859e:	32 5f       	rsub %d15
800085a0:	1b 08 c8 8a 	addi %d8,%d8,-21376
800085a4:	3b 00 01 90 	mov %d9,16
800085a8:	bf 1f 3f 00 	jlt %d15,1,80008626 <_vfprintf_r+0xeae>
800085ac:	68 08       	st.w [%a15]0,%d8
800085ae:	8b 1f 81 32 	ge %d3,%d15,17
800085b2:	df 03 20 00 	jeq %d3,0,800085f2 <_vfprintf_r+0xe7a>
800085b6:	19 a2 14 10 	ld.w %d2,[%sp]84
800085ba:	68 19       	st.w [%a15]4,%d9
800085bc:	1b 02 01 30 	addi %d3,%d2,16
800085c0:	59 a3 14 10 	st.w [%sp]84,%d3
800085c4:	19 a3 10 10 	ld.w %d3,[%sp]80
800085c8:	d9 ff 08 00 	lea %a15,[%a15]8
800085cc:	c2 13       	add %d3,1
800085ce:	59 a3 10 10 	st.w [%sp]80,%d3
800085d2:	8b 83 80 32 	ge %d3,%d3,8
800085d6:	76 3b       	jz %d3,800085ec <_vfprintf_r+0xe74>
800085d8:	60 b4       	mov.a %a4,%d11
800085da:	40 e5       	mov.aa %a5,%a14
800085dc:	d9 a6 0c 10 	lea %a6,[%sp]76
800085e0:	6d 00 f1 0e 	call 8000a3c2 <__sprint_r>
800085e4:	df 02 f8 81 	jne %d2,0,800089d4 <_vfprintf_r+0x125c>
800085e8:	d9 af 00 30 	lea %a15,[%sp]192
800085ec:	1b 0f ff ff 	addi %d15,%d15,-16
800085f0:	3c de       	j 800085ac <_vfprintf_r+0xe34>
800085f2:	19 a3 14 10 	ld.w %d3,[%sp]84
800085f6:	68 1f       	st.w [%a15]4,%d15
800085f8:	42 f3       	add %d3,%d15
800085fa:	59 a3 14 10 	st.w [%sp]84,%d3
800085fe:	19 a3 10 10 	ld.w %d3,[%sp]80
80008602:	d9 ff 08 00 	lea %a15,[%a15]8
80008606:	c2 13       	add %d3,1
80008608:	59 a3 10 10 	st.w [%sp]80,%d3
8000860c:	8b 83 80 32 	ge %d3,%d3,8
80008610:	76 3b       	jz %d3,80008626 <_vfprintf_r+0xeae>
80008612:	60 b4       	mov.a %a4,%d11
80008614:	40 e5       	mov.aa %a5,%a14
80008616:	d9 a6 0c 10 	lea %a6,[%sp]76
8000861a:	6d 00 d4 0e 	call 8000a3c2 <__sprint_r>
8000861e:	df 02 db 81 	jne %d2,0,800089d4 <_vfprintf_r+0x125c>
80008622:	d9 af 00 30 	lea %a15,[%sp]192
80008626:	e8 0c       	st.a [%a15]0,%a12
80008628:	58 03       	ld.w %d15,[%sp]12
8000862a:	1d 00 5a 01 	j 800088de <_vfprintf_r+0x1166>
8000862e:	58 03       	ld.w %d15,[%sp]12
80008630:	f4 dc       	st.a [%a13],%a12
80008632:	3f f3 6e 00 	jlt %d3,%d15,8000870e <_vfprintf_r+0xf96>
80008636:	19 a3 14 10 	ld.w %d3,[%sp]84
8000863a:	6c d1       	st.w [%a13]4,%d15
8000863c:	42 f3       	add %d3,%d15
8000863e:	59 a3 14 10 	st.w [%sp]84,%d3
80008642:	19 a3 10 10 	ld.w %d3,[%sp]80
80008646:	d9 df 08 00 	lea %a15,[%a13]8
8000864a:	c2 13       	add %d3,1
8000864c:	59 a3 10 10 	st.w [%sp]80,%d3
80008650:	8b 83 80 32 	ge %d3,%d3,8
80008654:	76 3b       	jz %d3,8000866a <_vfprintf_r+0xef2>
80008656:	60 b4       	mov.a %a4,%d11
80008658:	40 e5       	mov.aa %a5,%a14
8000865a:	d9 a6 0c 10 	lea %a6,[%sp]76
8000865e:	6d 00 b2 0e 	call 8000a3c2 <__sprint_r>
80008662:	df 02 b9 81 	jne %d2,0,800089d4 <_vfprintf_r+0x125c>
80008666:	d9 af 00 30 	lea %a15,[%sp]192
8000866a:	58 0d       	ld.w %d15,[%sp]52
8000866c:	19 a2 0c 00 	ld.w %d2,[%sp]12
80008670:	7b 10 00 88 	movh %d8,32769
80008674:	a2 2f       	sub %d15,%d2
80008676:	1b 08 c8 8a 	addi %d8,%d8,-21376
8000867a:	3b 00 01 90 	mov %d9,16
8000867e:	bf 1f 3f 00 	jlt %d15,1,800086fc <_vfprintf_r+0xf84>
80008682:	68 08       	st.w [%a15]0,%d8
80008684:	8b 1f 81 32 	ge %d3,%d15,17
80008688:	df 03 20 00 	jeq %d3,0,800086c8 <_vfprintf_r+0xf50>
8000868c:	19 a2 14 10 	ld.w %d2,[%sp]84
80008690:	68 19       	st.w [%a15]4,%d9
80008692:	1b 02 01 30 	addi %d3,%d2,16
80008696:	59 a3 14 10 	st.w [%sp]84,%d3
8000869a:	19 a3 10 10 	ld.w %d3,[%sp]80
8000869e:	d9 ff 08 00 	lea %a15,[%a15]8
800086a2:	c2 13       	add %d3,1
800086a4:	59 a3 10 10 	st.w [%sp]80,%d3
800086a8:	8b 83 80 32 	ge %d3,%d3,8
800086ac:	76 3b       	jz %d3,800086c2 <_vfprintf_r+0xf4a>
800086ae:	60 b4       	mov.a %a4,%d11
800086b0:	40 e5       	mov.aa %a5,%a14
800086b2:	d9 a6 0c 10 	lea %a6,[%sp]76
800086b6:	6d 00 86 0e 	call 8000a3c2 <__sprint_r>
800086ba:	df 02 8d 81 	jne %d2,0,800089d4 <_vfprintf_r+0x125c>
800086be:	d9 af 00 30 	lea %a15,[%sp]192
800086c2:	1b 0f ff ff 	addi %d15,%d15,-16
800086c6:	3c de       	j 80008682 <_vfprintf_r+0xf0a>
800086c8:	19 a3 14 10 	ld.w %d3,[%sp]84
800086cc:	68 1f       	st.w [%a15]4,%d15
800086ce:	42 f3       	add %d3,%d15
800086d0:	59 a3 14 10 	st.w [%sp]84,%d3
800086d4:	19 a3 10 10 	ld.w %d3,[%sp]80
800086d8:	d9 ff 08 00 	lea %a15,[%a15]8
800086dc:	c2 13       	add %d3,1
800086de:	59 a3 10 10 	st.w [%sp]80,%d3
800086e2:	8b 83 80 32 	ge %d3,%d3,8
800086e6:	76 3b       	jz %d3,800086fc <_vfprintf_r+0xf84>
800086e8:	60 b4       	mov.a %a4,%d11
800086ea:	40 e5       	mov.aa %a5,%a14
800086ec:	d9 a6 0c 10 	lea %a6,[%sp]76
800086f0:	6d 00 69 0e 	call 8000a3c2 <__sprint_r>
800086f4:	df 02 70 81 	jne %d2,0,800089d4 <_vfprintf_r+0x125c>
800086f8:	d9 af 00 30 	lea %a15,[%sp]192
800086fc:	6f 0c 02 01 	jz.t %d12,0,80008900 <_vfprintf_r+0x1188>
80008700:	99 a3 24 00 	ld.a %a3,[%sp]36
80008704:	58 06       	ld.w %d15,[%sp]24
80008706:	e8 03       	st.a [%a15]0,%a3
80008708:	68 1f       	st.w [%a15]4,%d15
8000870a:	02 f3       	mov %d3,%d15
8000870c:	3c 43       	j 80008792 <_vfprintf_r+0x101a>
8000870e:	58 15       	ld.w %d15,[%sp]84
80008710:	59 d3 04 00 	st.w [%a13]4,%d3
80008714:	42 f3       	add %d3,%d15
80008716:	59 a3 14 10 	st.w [%sp]84,%d3
8000871a:	19 a3 10 10 	ld.w %d3,[%sp]80
8000871e:	d9 df 08 00 	lea %a15,[%a13]8
80008722:	c2 13       	add %d3,1
80008724:	59 a3 10 10 	st.w [%sp]80,%d3
80008728:	8b 83 80 32 	ge %d3,%d3,8
8000872c:	76 3b       	jz %d3,80008742 <_vfprintf_r+0xfca>
8000872e:	60 b4       	mov.a %a4,%d11
80008730:	40 e5       	mov.aa %a5,%a14
80008732:	d9 a6 0c 10 	lea %a6,[%sp]76
80008736:	6d 00 46 0e 	call 8000a3c2 <__sprint_r>
8000873a:	df 02 4d 81 	jne %d2,0,800089d4 <_vfprintf_r+0x125c>
8000873e:	d9 af 00 30 	lea %a15,[%sp]192
80008742:	58 06       	ld.w %d15,[%sp]24
80008744:	19 a2 14 10 	ld.w %d2,[%sp]84
80008748:	02 f3       	mov %d3,%d15
8000874a:	42 23       	add %d3,%d2
8000874c:	99 a3 24 00 	ld.a %a3,[%sp]36
80008750:	59 a3 14 10 	st.w [%sp]84,%d3
80008754:	19 a3 10 10 	ld.w %d3,[%sp]80
80008758:	99 a2 34 00 	ld.a %a2,[%sp]52
8000875c:	c2 13       	add %d3,1
8000875e:	e8 03       	st.a [%a15]0,%a3
80008760:	68 1f       	st.w [%a15]4,%d15
80008762:	59 a3 10 10 	st.w [%sp]80,%d3
80008766:	8b 83 80 32 	ge %d3,%d3,8
8000876a:	30 2c       	add.a %a12,%a2
8000876c:	d9 ff 08 00 	lea %a15,[%a15]8
80008770:	76 3b       	jz %d3,80008786 <_vfprintf_r+0x100e>
80008772:	60 b4       	mov.a %a4,%d11
80008774:	40 e5       	mov.aa %a5,%a14
80008776:	d9 a6 0c 10 	lea %a6,[%sp]76
8000877a:	6d 00 24 0e 	call 8000a3c2 <__sprint_r>
8000877e:	df 02 2b 81 	jne %d2,0,800089d4 <_vfprintf_r+0x125c>
80008782:	d9 af 00 30 	lea %a15,[%sp]192
80008786:	19 a3 34 00 	ld.w %d3,[%sp]52
8000878a:	58 03       	ld.w %d15,[%sp]12
8000878c:	e8 0c       	st.a [%a15]0,%a12
8000878e:	52 33       	sub %d3,%d15,%d3
80008790:	68 13       	st.w [%a15]4,%d3
80008792:	19 a2 14 10 	ld.w %d2,[%sp]84
80008796:	42 23       	add %d3,%d2
80008798:	1d 00 a7 00 	j 800088e6 <_vfprintf_r+0x116e>
8000879c:	19 a3 14 10 	ld.w %d3,[%sp]84
800087a0:	82 14       	mov %d4,1
800087a2:	c2 13       	add %d3,1
800087a4:	59 a3 14 10 	st.w [%sp]84,%d3
800087a8:	19 a3 10 10 	ld.w %d3,[%sp]80
800087ac:	58 03       	ld.w %d15,[%sp]12
800087ae:	c2 13       	add %d3,1
800087b0:	59 a3 10 10 	st.w [%sp]80,%d3
800087b4:	f4 dc       	st.a [%a13],%a12
800087b6:	59 d4 04 00 	st.w [%a13]4,%d4
800087ba:	8b 83 80 32 	ge %d3,%d3,8
800087be:	ff 2f 04 00 	jge %d15,2,800087c6 <_vfprintf_r+0x104e>
800087c2:	6f 0c 86 00 	jz.t %d12,0,800088ce <_vfprintf_r+0x1156>
800087c6:	d9 df 08 00 	lea %a15,[%a13]8
800087ca:	76 3b       	jz %d3,800087e0 <_vfprintf_r+0x1068>
800087cc:	60 b4       	mov.a %a4,%d11
800087ce:	40 e5       	mov.aa %a5,%a14
800087d0:	d9 a6 0c 10 	lea %a6,[%sp]76
800087d4:	6d 00 f7 0d 	call 8000a3c2 <__sprint_r>
800087d8:	df 02 fe 80 	jne %d2,0,800089d4 <_vfprintf_r+0x125c>
800087dc:	d9 af 00 30 	lea %a15,[%sp]192
800087e0:	58 06       	ld.w %d15,[%sp]24
800087e2:	19 a2 14 10 	ld.w %d2,[%sp]84
800087e6:	02 f3       	mov %d3,%d15
800087e8:	42 23       	add %d3,%d2
800087ea:	99 a3 24 00 	ld.a %a3,[%sp]36
800087ee:	59 a3 14 10 	st.w [%sp]84,%d3
800087f2:	19 a3 10 10 	ld.w %d3,[%sp]80
800087f6:	e8 03       	st.a [%a15]0,%a3
800087f8:	c2 13       	add %d3,1
800087fa:	68 1f       	st.w [%a15]4,%d15
800087fc:	59 a3 10 10 	st.w [%sp]80,%d3
80008800:	8b 83 80 32 	ge %d3,%d3,8
80008804:	d9 ff 08 00 	lea %a15,[%a15]8
80008808:	76 3b       	jz %d3,8000881e <_vfprintf_r+0x10a6>
8000880a:	60 b4       	mov.a %a4,%d11
8000880c:	40 e5       	mov.aa %a5,%a14
8000880e:	d9 a6 0c 10 	lea %a6,[%sp]76
80008812:	6d 00 d8 0d 	call 8000a3c2 <__sprint_r>
80008816:	df 02 df 80 	jne %d2,0,800089d4 <_vfprintf_r+0x125c>
8000881a:	d9 af 00 30 	lea %a15,[%sp]192
8000881e:	58 08       	ld.w %d15,[%sp]32
80008820:	82 04       	mov %d4,0
80008822:	19 a3 0c 00 	ld.w %d3,[%sp]12
80008826:	4b 4f 01 40 	cmp.f %d4,%d15,%d4
8000882a:	c2 f3       	add %d3,-1
8000882c:	6f 14 09 80 	jnz.t %d4,1,8000883e <_vfprintf_r+0x10c6>
80008830:	19 a2 14 10 	ld.w %d2,[%sp]84
80008834:	b0 1c       	add.a %a12,1
80008836:	68 13       	st.w [%a15]4,%d3
80008838:	e8 0c       	st.a [%a15]0,%a12
8000883a:	42 23       	add %d3,%d2
8000883c:	3c 31       	j 8000889e <_vfprintf_r+0x1126>
8000883e:	7b 10 00 88 	movh %d8,32769
80008842:	02 3f       	mov %d15,%d3
80008844:	1b 08 c8 8a 	addi %d8,%d8,-21376
80008848:	3b 00 01 90 	mov %d9,16
8000884c:	bf 13 45 00 	jlt %d3,1,800088d6 <_vfprintf_r+0x115e>
80008850:	68 08       	st.w [%a15]0,%d8
80008852:	8b 1f 81 32 	ge %d3,%d15,17
80008856:	df 03 20 00 	jeq %d3,0,80008896 <_vfprintf_r+0x111e>
8000885a:	19 a2 14 10 	ld.w %d2,[%sp]84
8000885e:	68 19       	st.w [%a15]4,%d9
80008860:	1b 02 01 30 	addi %d3,%d2,16
80008864:	59 a3 14 10 	st.w [%sp]84,%d3
80008868:	19 a3 10 10 	ld.w %d3,[%sp]80
8000886c:	d9 ff 08 00 	lea %a15,[%a15]8
80008870:	c2 13       	add %d3,1
80008872:	59 a3 10 10 	st.w [%sp]80,%d3
80008876:	8b 83 80 32 	ge %d3,%d3,8
8000887a:	76 3b       	jz %d3,80008890 <_vfprintf_r+0x1118>
8000887c:	60 b4       	mov.a %a4,%d11
8000887e:	40 e5       	mov.aa %a5,%a14
80008880:	d9 a6 0c 10 	lea %a6,[%sp]76
80008884:	6d 00 9f 0d 	call 8000a3c2 <__sprint_r>
80008888:	df 02 a6 80 	jne %d2,0,800089d4 <_vfprintf_r+0x125c>
8000888c:	d9 af 00 30 	lea %a15,[%sp]192
80008890:	1b 0f ff ff 	addi %d15,%d15,-16
80008894:	3c de       	j 80008850 <_vfprintf_r+0x10d8>
80008896:	19 a3 14 10 	ld.w %d3,[%sp]84
8000889a:	68 1f       	st.w [%a15]4,%d15
8000889c:	42 f3       	add %d3,%d15
8000889e:	59 a3 14 10 	st.w [%sp]84,%d3
800088a2:	19 a3 10 10 	ld.w %d3,[%sp]80
800088a6:	d9 ff 08 00 	lea %a15,[%a15]8
800088aa:	c2 13       	add %d3,1
800088ac:	59 a3 10 10 	st.w [%sp]80,%d3
800088b0:	8b 83 80 32 	ge %d3,%d3,8
800088b4:	df 03 11 00 	jeq %d3,0,800088d6 <_vfprintf_r+0x115e>
800088b8:	60 b4       	mov.a %a4,%d11
800088ba:	40 e5       	mov.aa %a5,%a14
800088bc:	d9 a6 0c 10 	lea %a6,[%sp]76
800088c0:	6d 00 81 0d 	call 8000a3c2 <__sprint_r>
800088c4:	df 02 88 80 	jne %d2,0,800089d4 <_vfprintf_r+0x125c>
800088c8:	d9 af 00 30 	lea %a15,[%sp]192
800088cc:	3c 05       	j 800088d6 <_vfprintf_r+0x115e>
800088ce:	df 03 f5 ff 	jne %d3,0,800088b8 <_vfprintf_r+0x1140>
800088d2:	d9 df 08 00 	lea %a15,[%a13]8
800088d6:	d9 a3 3d 00 	lea %a3,[%sp]61
800088da:	58 0a       	ld.w %d15,[%sp]40
800088dc:	e8 03       	st.a [%a15]0,%a3
800088de:	19 a3 14 10 	ld.w %d3,[%sp]84
800088e2:	68 1f       	st.w [%a15]4,%d15
800088e4:	42 f3       	add %d3,%d15
800088e6:	59 a3 14 10 	st.w [%sp]84,%d3
800088ea:	19 a3 10 10 	ld.w %d3,[%sp]80
800088ee:	c2 13       	add %d3,1
800088f0:	59 a3 10 10 	st.w [%sp]80,%d3
800088f4:	8b 83 80 32 	ge %d3,%d3,8
800088f8:	df 03 72 fd 	jne %d3,0,800083dc <_vfprintf_r+0xc64>
800088fc:	d9 ff 08 00 	lea %a15,[%a15]8
80008900:	6f 2c 0b 80 	jnz.t %d12,2,80008916 <_vfprintf_r+0x119e>
80008904:	58 05       	ld.w %d15,[%sp]20
80008906:	0b fa a0 31 	max %d3,%d10,%d15
8000890a:	58 07       	ld.w %d15,[%sp]28
8000890c:	42 3f       	add %d15,%d3
8000890e:	78 07       	st.w [%sp]28,%d15
80008910:	58 15       	ld.w %d15,[%sp]84
80008912:	6e 51       	jz %d15,800089b4 <_vfprintf_r+0x123c>
80008914:	3c 48       	j 800089a4 <_vfprintf_r+0x122c>
80008916:	19 a8 14 00 	ld.w %d8,[%sp]20
8000891a:	3b 00 01 90 	mov %d9,16
8000891e:	a2 a8       	sub %d8,%d10
80008920:	bf 18 f2 7f 	jlt %d8,1,80008904 <_vfprintf_r+0x118c>
80008924:	91 10 00 28 	movh.a %a2,32769
80008928:	8b 18 81 32 	ge %d3,%d8,17
8000892c:	d9 22 d0 2a 	lea %a2,[%a2]-21360 <8000ac90 <blanks.3917>>
80008930:	df 03 21 00 	jeq %d3,0,80008972 <_vfprintf_r+0x11fa>
80008934:	19 a2 14 10 	ld.w %d2,[%sp]84
80008938:	e8 02       	st.a [%a15]0,%a2
8000893a:	1b 02 01 30 	addi %d3,%d2,16
8000893e:	59 a3 14 10 	st.w [%sp]84,%d3
80008942:	19 a3 10 10 	ld.w %d3,[%sp]80
80008946:	68 19       	st.w [%a15]4,%d9
80008948:	c2 13       	add %d3,1
8000894a:	59 a3 10 10 	st.w [%sp]80,%d3
8000894e:	8b 83 80 32 	ge %d3,%d3,8
80008952:	d9 ff 08 00 	lea %a15,[%a15]8
80008956:	76 3b       	jz %d3,8000896c <_vfprintf_r+0x11f4>
80008958:	60 b4       	mov.a %a4,%d11
8000895a:	40 e5       	mov.aa %a5,%a14
8000895c:	d9 a6 0c 10 	lea %a6,[%sp]76
80008960:	6d 00 31 0d 	call 8000a3c2 <__sprint_r>
80008964:	df 02 38 80 	jne %d2,0,800089d4 <_vfprintf_r+0x125c>
80008968:	d9 af 00 30 	lea %a15,[%sp]192
8000896c:	1b 08 ff 8f 	addi %d8,%d8,-16
80008970:	3c da       	j 80008924 <_vfprintf_r+0x11ac>
80008972:	19 a2 14 10 	ld.w %d2,[%sp]84
80008976:	19 a3 10 10 	ld.w %d3,[%sp]80
8000897a:	68 18       	st.w [%a15]4,%d8
8000897c:	c2 13       	add %d3,1
8000897e:	42 28       	add %d8,%d2
80008980:	59 a3 10 10 	st.w [%sp]80,%d3
80008984:	e8 02       	st.a [%a15]0,%a2
80008986:	59 a8 14 10 	st.w [%sp]84,%d8
8000898a:	8b 83 40 32 	lt %d3,%d3,8
8000898e:	df 03 bb ff 	jne %d3,0,80008904 <_vfprintf_r+0x118c>
80008992:	60 b4       	mov.a %a4,%d11
80008994:	40 e5       	mov.aa %a5,%a14
80008996:	d9 a6 0c 10 	lea %a6,[%sp]76
8000899a:	6d 00 14 0d 	call 8000a3c2 <__sprint_r>
8000899e:	df 02 b3 7f 	jeq %d2,0,80008904 <_vfprintf_r+0x118c>
800089a2:	3c 19       	j 800089d4 <_vfprintf_r+0x125c>
800089a4:	60 b4       	mov.a %a4,%d11
800089a6:	40 e5       	mov.aa %a5,%a14
800089a8:	d9 a6 0c 10 	lea %a6,[%sp]76
800089ac:	6d 00 0b 0d 	call 8000a3c2 <__sprint_r>
800089b0:	df 02 12 80 	jne %d2,0,800089d4 <_vfprintf_r+0x125c>
800089b4:	82 03       	mov %d3,0
800089b6:	59 a3 10 10 	st.w [%sp]80,%d3
800089ba:	d8 02       	ld.a %a15,[%sp]8
800089bc:	d9 ad 00 30 	lea %a13,[%sp]192
800089c0:	1d ff 5b f7 	j 80007876 <_vfprintf_r+0xfe>
800089c4:	58 15       	ld.w %d15,[%sp]84
800089c6:	6e 07       	jz %d15,800089d4 <_vfprintf_r+0x125c>
800089c8:	60 b4       	mov.a %a4,%d11
800089ca:	40 e5       	mov.aa %a5,%a14
800089cc:	d9 a6 0c 10 	lea %a6,[%sp]76
800089d0:	6d 00 f9 0c 	call 8000a3c2 <__sprint_r>
800089d4:	c9 e3 0c 00 	ld.h %d3,[%a14]12
800089d8:	6f 63 06 f7 	jnz.t %d3,6,800077e4 <_vfprintf_r+0x6c>
800089dc:	19 a2 1c 00 	ld.w %d2,[%sp]28
800089e0:	00 90       	ret 
	...

800089e4 <vfprintf>:
800089e4:	91 00 00 37 	movh.a %a3,28672
800089e8:	40 42       	mov.aa %a2,%a4
800089ea:	99 34 40 c5 	ld.a %a4,[%a3]22272 <70005700 <_impure_ptr>>
800089ee:	40 5f       	mov.aa %a15,%a5
800089f0:	40 67       	mov.aa %a7,%a6
800089f2:	40 25       	mov.aa %a5,%a2
800089f4:	40 f6       	mov.aa %a6,%a15
800089f6:	1d ff c1 f6 	j 80007778 <_vfprintf_r>

800089fa <_write_r>:
800089fa:	40 4f       	mov.aa %a15,%a4
800089fc:	91 00 00 c7 	movh.a %a12,28672
80008a00:	82 0f       	mov %d15,0
80008a02:	40 54       	mov.aa %a4,%a5
80008a04:	59 cf 70 b7 	st.w [%a12]30448 <700076f0 <errno>>,%d15
80008a08:	6d 00 4b 0d 	call 8000a49e <write>
80008a0c:	df f2 06 80 	jne %d2,-1,80008a18 <_write_r+0x1e>
80008a10:	19 cf 70 b7 	ld.w %d15,[%a12]30448 <700076f0 <errno>>
80008a14:	6e 02       	jz %d15,80008a18 <_write_r+0x1e>
80008a16:	68 0f       	st.w [%a15]0,%d15
80008a18:	00 90       	ret 

80008a1a <__swsetup_r>:
80008a1a:	91 00 00 27 	movh.a %a2,28672
80008a1e:	40 4c       	mov.aa %a12,%a4
80008a20:	99 24 40 c5 	ld.a %a4,[%a2]22272 <70005700 <_impure_ptr>>
80008a24:	40 5f       	mov.aa %a15,%a5
80008a26:	bc 45       	jz.a %a4,80008a30 <__swsetup_r+0x16>
80008a28:	4c 4e       	ld.w %d15,[%a4]56
80008a2a:	ee 03       	jnz %d15,80008a30 <__swsetup_r+0x16>
80008a2c:	6d ff ea ec 	call 80006400 <__sinit>
80008a30:	8c f6       	ld.h %d15,[%a15]12
80008a32:	6f 3f 1d 80 	jnz.t %d15,3,80008a6c <__swsetup_r+0x52>
80008a36:	ae 43       	jnz.t %d15,4,80008a3c <__swsetup_r+0x22>
80008a38:	82 f2       	mov %d2,-1
80008a3a:	00 90       	ret 
80008a3c:	6f 2f 15 00 	jz.t %d15,2,80008a66 <__swsetup_r+0x4c>
80008a40:	c8 c5       	ld.a %a5,[%a15]48
80008a42:	bc 5a       	jz.a %a5,80008a56 <__swsetup_r+0x3c>
80008a44:	d9 f2 00 10 	lea %a2,[%a15]64
80008a48:	7d 25 05 00 	jeq.a %a5,%a2,80008a52 <__swsetup_r+0x38>
80008a4c:	40 c4       	mov.aa %a4,%a12
80008a4e:	6d ff 94 ee 	call 80006776 <_free_r>
80008a52:	82 0f       	mov %d15,0
80008a54:	68 cf       	st.w [%a15]48,%d15
80008a56:	8c f6       	ld.h %d15,[%a15]12
80008a58:	8f 4f c2 f1 	andn %d15,%d15,36
80008a5c:	a8 6f       	st.h [%a15]12,%d15
80008a5e:	82 0f       	mov %d15,0
80008a60:	68 1f       	st.w [%a15]4,%d15
80008a62:	4c f4       	ld.w %d15,[%a15]16
80008a64:	68 0f       	st.w [%a15]0,%d15
80008a66:	8c f6       	ld.h %d15,[%a15]12
80008a68:	96 08       	or %d15,8
80008a6a:	a8 6f       	st.h [%a15]12,%d15
80008a6c:	4c f4       	ld.w %d15,[%a15]16
80008a6e:	ee 0c       	jnz %d15,80008a86 <__swsetup_r+0x6c>
80008a70:	8c f6       	ld.h %d15,[%a15]12
80008a72:	3b 00 28 20 	mov %d2,640
80008a76:	26 2f       	and %d15,%d2
80008a78:	3b 00 20 20 	mov %d2,512
80008a7c:	3e 25       	jeq %d15,%d2,80008a86 <__swsetup_r+0x6c>
80008a7e:	40 c4       	mov.aa %a4,%a12
80008a80:	40 f5       	mov.aa %a5,%a15
80008a82:	6d ff aa f1 	call 80006dd6 <__smakebuf_r>
80008a86:	8c f6       	ld.h %d15,[%a15]12
80008a88:	2e 07       	jz.t %d15,0,80008a96 <__swsetup_r+0x7c>
80008a8a:	82 0f       	mov %d15,0
80008a8c:	68 2f       	st.w [%a15]8,%d15
80008a8e:	4c f5       	ld.w %d15,[%a15]20
80008a90:	32 5f       	rsub %d15
80008a92:	68 6f       	st.w [%a15]24,%d15
80008a94:	3c 05       	j 80008a9e <__swsetup_r+0x84>
80008a96:	82 02       	mov %d2,0
80008a98:	ae 12       	jnz.t %d15,1,80008a9c <__swsetup_r+0x82>
80008a9a:	48 52       	ld.w %d2,[%a15]20
80008a9c:	68 22       	st.w [%a15]8,%d2
80008a9e:	4c f4       	ld.w %d15,[%a15]16
80008aa0:	82 02       	mov %d2,0
80008aa2:	ee 04       	jnz %d15,80008aaa <__swsetup_r+0x90>
80008aa4:	8c f6       	ld.h %d15,[%a15]12
80008aa6:	6f 7f c9 ff 	jnz.t %d15,7,80008a38 <__swsetup_r+0x1e>
80008aaa:	00 90       	ret 

80008aac <__register_exitproc>:
80008aac:	91 10 00 f8 	movh.a %a15,32769
80008ab0:	99 ff c4 1a 	ld.a %a15,[%a15]-21436 <8000ac44 <_global_impure_ptr>>
80008ab4:	99 f2 08 50 	ld.a %a2,[%a15]328 <8000ac44 <_global_impure_ptr>>
80008ab8:	02 4c       	mov %d12,%d4
80008aba:	40 4c       	mov.aa %a12,%a4
80008abc:	40 5e       	mov.aa %a14,%a5
80008abe:	40 6d       	mov.aa %a13,%a6
80008ac0:	7c 25       	jnz.a %a2,80008aca <__register_exitproc+0x1e>
80008ac2:	d9 f2 0c 50 	lea %a2,[%a15]332
80008ac6:	b5 f2 08 50 	st.a [%a15]328,%a2
80008aca:	4c 21       	ld.w %d15,[%a2]4
80008acc:	8b 0f 42 f2 	lt %d15,%d15,32
80008ad0:	ee 19       	jnz %d15,80008b02 <__register_exitproc+0x56>
80008ad2:	7b 00 00 f8 	movh %d15,32768
80008ad6:	1b af ea f6 	addi %d15,%d15,28330
80008ada:	ee 03       	jnz %d15,80008ae0 <__register_exitproc+0x34>
80008adc:	82 f2       	mov %d2,-1
80008ade:	00 90       	ret 
80008ae0:	3b 00 19 40 	mov %d4,400
80008ae4:	6d ff e3 f1 	call 80006eaa <malloc>
80008ae8:	bd 02 fa 7f 	jz.a %a2,80008adc <__register_exitproc+0x30>
80008aec:	19 f2 08 50 	ld.w %d2,[%a15]328
80008af0:	82 0f       	mov %d15,0
80008af2:	6c 21       	st.w [%a2]4,%d15
80008af4:	74 22       	st.w [%a2],%d2
80008af6:	b5 f2 08 50 	st.a [%a15]328,%a2
80008afa:	59 2f 08 60 	st.w [%a2]392,%d15
80008afe:	59 2f 0c 60 	st.w [%a2]396,%d15
80008b02:	19 22 04 00 	ld.w %d2,[%a2]4
80008b06:	df 0c 15 00 	jeq %d12,0,80008b30 <__register_exitproc+0x84>
80008b0a:	01 22 02 f6 	addsc.a %a15,%a2,%d2,2
80008b0e:	82 1f       	mov %d15,1
80008b10:	0f 2f 00 f0 	sh %d15,%d15,%d2
80008b14:	b5 fe 08 20 	st.a [%a15]136,%a14
80008b18:	02 fa       	mov %d10,%d15
80008b1a:	02 fb       	mov %d11,%d15
80008b1c:	49 2a 48 68 	ldmst [%a2]392,%e10
80008b20:	b5 fd 08 40 	st.a [%a15]264,%a13
80008b24:	df 2c 06 80 	jne %d12,2,80008b30 <__register_exitproc+0x84>
80008b28:	02 f8       	mov %d8,%d15
80008b2a:	02 f9       	mov %d9,%d15
80008b2c:	49 28 4c 68 	ldmst [%a2]396,%e8
80008b30:	9a 12       	add %d15,%d2,1
80008b32:	6c 21       	st.w [%a2]4,%d15
80008b34:	01 22 02 26 	addsc.a %a2,%a2,%d2,2
80008b38:	82 02       	mov %d2,0
80008b3a:	b5 2c 08 00 	st.a [%a2]8,%a12
80008b3e:	00 90       	ret 

80008b40 <_close_r>:
80008b40:	91 00 00 c7 	movh.a %a12,28672
80008b44:	82 0f       	mov %d15,0
80008b46:	40 4f       	mov.aa %a15,%a4
80008b48:	59 cf 70 b7 	st.w [%a12]30448 <700076f0 <errno>>,%d15
80008b4c:	6d 00 91 0c 	call 8000a46e <close>
80008b50:	df f2 06 80 	jne %d2,-1,80008b5c <_close_r+0x1c>
80008b54:	19 cf 70 b7 	ld.w %d15,[%a12]30448 <700076f0 <errno>>
80008b58:	6e 02       	jz %d15,80008b5c <_close_r+0x1c>
80008b5a:	68 0f       	st.w [%a15]0,%d15
80008b5c:	00 90       	ret 

80008b5e <quorem>:
80008b5e:	19 58 10 00 	ld.w %d8,[%a5]16
80008b62:	4c 44       	ld.w %d15,[%a4]16
80008b64:	82 02       	mov %d2,0
80008b66:	3f 8f 88 00 	jlt %d15,%d8,80008c76 <quorem+0x118>
80008b6a:	c2 f8       	add %d8,-1
80008b6c:	80 4f       	mov.d %d15,%a4
80008b6e:	8f 28 00 20 	sh %d2,%d8,2
80008b72:	60 2f       	mov.a %a15,%d2
80008b74:	1b 4f 01 90 	addi %d9,%d15,20
80008b78:	d9 5c 14 00 	lea %a12,[%a5]20
80008b7c:	01 fc 10 d0 	add.a %a13,%a12,%a15
80008b80:	01 f9 00 f6 	addsc.a %a15,%a15,%d9,0
80008b84:	54 dc       	ld.w %d12,[%a13]
80008b86:	4c f0       	ld.w %d15,[%a15]0
80008b88:	c2 1c       	add %d12,1
80008b8a:	4b cf 11 c2 	div.u %e12,%d15,%d12
80008b8e:	02 ca       	mov %d10,%d12
80008b90:	df 0c 3d 00 	jeq %d12,0,80008c0a <quorem+0xac>
80008b94:	60 96       	mov.a %a6,%d9
80008b96:	40 c2       	mov.aa %a2,%a12
80008b98:	82 05       	mov %d5,0
80008b9a:	82 06       	mov %d6,0
80008b9c:	54 22       	ld.w %d2,[%a2]
80008b9e:	40 63       	mov.aa %a3,%a6
80008ba0:	b7 02 10 38 	insert %d3,%d2,0,16,16
80008ba4:	8f 02 1f 20 	sh %d2,%d2,-16
80008ba8:	03 a3 0a 35 	madd %d3,%d5,%d3,%d10
80008bac:	b0 42       	add.a %a2,4
80008bae:	8f 03 1f 40 	sh %d4,%d3,-16
80008bb2:	03 a2 0a 24 	madd %d2,%d4,%d2,%d10
80008bb6:	44 34       	ld.w %d4,[%a3+]
80008bb8:	b7 03 10 38 	insert %d3,%d3,0,16,16
80008bbc:	b7 04 10 f8 	insert %d15,%d4,0,16,16
80008bc0:	8f 02 1f 50 	sh %d5,%d2,-16
80008bc4:	42 f6       	add %d6,%d15
80008bc6:	b7 02 10 28 	insert %d2,%d2,0,16,16
80008bca:	0b 36 80 30 	sub %d3,%d6,%d3
80008bce:	8f 04 1f 40 	sh %d4,%d4,-16
80008bd2:	8f 03 3f f0 	sha %d15,%d3,-16
80008bd6:	0b 24 80 20 	sub %d2,%d4,%d2
80008bda:	42 f2       	add %d2,%d15
80008bdc:	37 23 10 38 	insert %d3,%d3,%d2,16,16
80008be0:	8f 02 3f 60 	sha %d6,%d2,-16
80008be4:	80 2f       	mov.d %d15,%a2
80008be6:	80 d2       	mov.d %d2,%a13
80008be8:	74 63       	st.w [%a6],%d3
80008bea:	40 36       	mov.aa %a6,%a3
80008bec:	7f f2 d8 ff 	jge.u %d2,%d15,80008b9c <quorem+0x3e>
80008bf0:	4c f0       	ld.w %d15,[%a15]0
80008bf2:	ee 0c       	jnz %d15,80008c0a <quorem+0xac>
80008bf4:	b0 cf       	add.a %a15,-4
80008bf6:	80 f2       	mov.d %d2,%a15
80008bf8:	3f 29 05 80 	jlt.u %d9,%d2,80008c02 <quorem+0xa4>
80008bfc:	59 48 10 00 	st.w [%a4]16,%d8
80008c00:	3c 05       	j 80008c0a <quorem+0xac>
80008c02:	4c f0       	ld.w %d15,[%a15]0
80008c04:	ee fc       	jnz %d15,80008bfc <quorem+0x9e>
80008c06:	c2 f8       	add %d8,-1
80008c08:	3c f6       	j 80008bf4 <quorem+0x96>
80008c0a:	40 4e       	mov.aa %a14,%a4
80008c0c:	6d 00 09 09 	call 80009e1e <__mcmp>
80008c10:	bf 02 32 00 	jlt %d2,0,80008c74 <quorem+0x116>
80008c14:	60 92       	mov.a %a2,%d9
80008c16:	1b 1c 00 a0 	addi %d10,%d12,1
80008c1a:	82 04       	mov %d4,0
80008c1c:	40 2f       	mov.aa %a15,%a2
80008c1e:	44 f3       	ld.w %d3,[%a15+]
80008c20:	54 c5       	ld.w %d5,[%a12]
80008c22:	b7 03 10 28 	insert %d2,%d3,0,16,16
80008c26:	8f 05 1f f0 	sh %d15,%d5,-16
80008c2a:	42 42       	add %d2,%d4
80008c2c:	b7 05 10 48 	insert %d4,%d5,0,16,16
80008c30:	8f 03 1f 30 	sh %d3,%d3,-16
80008c34:	a2 42       	sub %d2,%d4
80008c36:	8f 02 3f 40 	sha %d4,%d2,-16
80008c3a:	a2 f3       	sub %d3,%d15
80008c3c:	42 43       	add %d3,%d4
80008c3e:	8f 03 3f 40 	sha %d4,%d3,-16
80008c42:	b0 4c       	add.a %a12,4
80008c44:	37 32 10 38 	insert %d3,%d2,%d3,16,16
80008c48:	80 df       	mov.d %d15,%a13
80008c4a:	80 c2       	mov.d %d2,%a12
80008c4c:	74 23       	st.w [%a2],%d3
80008c4e:	40 f2       	mov.aa %a2,%a15
80008c50:	7f 2f e6 ff 	jge.u %d15,%d2,80008c1c <quorem+0xbe>
80008c54:	60 92       	mov.a %a2,%d9
80008c56:	01 28 02 f6 	addsc.a %a15,%a2,%d8,2
80008c5a:	4c f0       	ld.w %d15,[%a15]0
80008c5c:	ee 0c       	jnz %d15,80008c74 <quorem+0x116>
80008c5e:	b0 cf       	add.a %a15,-4
80008c60:	80 f2       	mov.d %d2,%a15
80008c62:	3f 29 05 80 	jlt.u %d9,%d2,80008c6c <quorem+0x10e>
80008c66:	59 e8 10 00 	st.w [%a14]16,%d8
80008c6a:	3c 05       	j 80008c74 <quorem+0x116>
80008c6c:	4c f0       	ld.w %d15,[%a15]0
80008c6e:	ee fc       	jnz %d15,80008c66 <quorem+0x108>
80008c70:	c2 f8       	add %d8,-1
80008c72:	3c f6       	j 80008c5e <quorem+0x100>
80008c74:	02 a2       	mov %d2,%d10
80008c76:	00 90       	ret 

80008c78 <_dtoa_r>:
80008c78:	20 40       	sub.a %sp,64
80008c7a:	b5 a5 30 00 	st.a [%sp]48,%a5
80008c7e:	99 45 00 10 	ld.a %a5,[%a4]64
80008c82:	59 a5 10 00 	st.w [%sp]16,%d5
80008c86:	59 a6 18 00 	st.w [%sp]24,%d6
80008c8a:	b5 a7 24 00 	st.a [%sp]36,%a7
80008c8e:	80 4c       	mov.d %d12,%a4
80008c90:	02 49       	mov %d9,%d4
80008c92:	40 6c       	mov.aa %a12,%a6
80008c94:	bd 05 11 00 	jz.a %a5,80008cb6 <_dtoa_r+0x3e>
80008c98:	19 43 04 10 	ld.w %d3,[%a4]68
80008c9c:	82 17       	mov %d7,1
80008c9e:	0f 37 00 70 	sh %d7,%d7,%d3
80008ca2:	59 53 04 00 	st.w [%a5]4,%d3
80008ca6:	59 57 08 00 	st.w [%a5]8,%d7
80008caa:	6d 00 ec 06 	call 80009a82 <_Bfree>
80008cae:	60 c2       	mov.a %a2,%d12
80008cb0:	82 02       	mov %d2,0
80008cb2:	59 22 00 10 	st.w [%a2]64,%d2
80008cb6:	ce 96       	jgez %d9,80008cc2 <_dtoa_r+0x4a>
80008cb8:	82 13       	mov %d3,1
80008cba:	74 c3       	st.w [%a12],%d3
80008cbc:	b7 09 81 9f 	insert %d9,%d9,0,31,1
80008cc0:	3c 03       	j 80008cc6 <_dtoa_r+0x4e>
80008cc2:	82 03       	mov %d3,0
80008cc4:	74 c3       	st.w [%a12],%d3
80008cc6:	7b 00 f8 37 	movh %d3,32640
80008cca:	02 92       	mov %d2,%d9
80008ccc:	26 32       	and %d2,%d3
80008cce:	59 a9 28 00 	st.w [%sp]40,%d9
80008cd2:	59 a2 34 00 	st.w [%sp]52,%d2
80008cd6:	5f 32 22 80 	jne %d2,%d3,80008d1a <_dtoa_r+0xa2>
80008cda:	99 a3 30 00 	ld.a %a3,[%sp]48
80008cde:	3b f0 70 32 	mov %d3,9999
80008ce2:	b7 09 0c 2a 	insert %d2,%d9,0,20,12
80008ce6:	91 10 00 f8 	movh.a %a15,32769
80008cea:	74 33       	st.w [%a3],%d3
80008cec:	d9 ff e1 ca 	lea %a15,[%a15]-20703 <8000af21 <_ctype_b+0x180>>
80008cf0:	76 25       	jz %d2,80008cfa <_dtoa_r+0x82>
80008cf2:	91 10 00 f8 	movh.a %a15,32769
80008cf6:	d9 ff ea ca 	lea %a15,[%a15]-20694 <8000af2a <_ctype_b+0x189>>
80008cfa:	99 a3 24 00 	ld.a %a3,[%sp]36 <8000af2a <_ctype_b+0x189>>
80008cfe:	40 f2       	mov.aa %a2,%a15
80008d00:	bd 03 d6 04 	jz.a %a3,800096ac <_dtoa_r+0xa34>
80008d04:	80 f4       	mov.d %d4,%a15
80008d06:	80 ff       	mov.d %d15,%a15
80008d08:	79 f3 03 00 	ld.b %d3,[%a15]3 <80010003 <__crt0_config+0x3fc7>>
80008d0c:	1b 84 00 20 	addi %d2,%d4,8
80008d10:	c2 3f       	add %d15,3
80008d12:	2b 2f 50 f3 	seln %d15,%d3,%d15,%d2
80008d16:	6c 30       	st.w [%a3]0,%d15
80008d18:	00 90       	ret 
80008d1a:	82 07       	mov %d7,0
80008d1c:	4b 79 01 30 	cmp.f %d3,%d9,%d7
80008d20:	8f d3 00 31 	and %d3,%d3,13
80008d24:	82 08       	mov %d8,0
80008d26:	df 03 13 80 	jne %d3,0,80008d4c <_dtoa_r+0xd4>
80008d2a:	99 a3 30 00 	ld.a %a3,[%sp]48
80008d2e:	d8 09       	ld.a %a15,[%sp]36
80008d30:	82 1f       	mov %d15,1
80008d32:	91 10 00 28 	movh.a %a2,32769
80008d36:	6c 30       	st.w [%a3]0,%d15
80008d38:	d9 22 ee ca 	lea %a2,[%a2]-20690 <8000af2e <_ctype_b+0x18d>>
80008d3c:	bd 0f b8 04 	jz.a %a15,800096ac <_dtoa_r+0xa34>
80008d40:	7b 10 00 f8 	movh %d15,32769
80008d44:	1b ff f2 fa 	addi %d15,%d15,-20689
80008d48:	68 0f       	st.w [%a15]0,%d15
80008d4a:	00 90       	ret 
80008d4c:	60 c4       	mov.a %a4,%d12
80008d4e:	02 94       	mov %d4,%d9
80008d50:	d9 a5 3c 00 	lea %a5,[%sp]60
80008d54:	d9 a6 38 00 	lea %a6,[%sp]56
80008d58:	6d 00 e9 08 	call 80009f2a <__d2b>
80008d5c:	19 a2 28 00 	ld.w %d2,[%sp]40
80008d60:	40 2e       	mov.aa %a14,%a2
80008d62:	37 02 e8 1b 	extr.u %d1,%d2,23,8
80008d66:	19 ab 38 00 	ld.w %d11,[%sp]56
80008d6a:	76 1a       	jz %d1,80008d7e <_dtoa_r+0x106>
80008d6c:	b7 02 89 0b 	insert %d0,%d2,0,23,9
80008d70:	7b 00 f8 33 	movh %d3,16256
80008d74:	a6 30       	or %d0,%d3
80008d76:	1b 11 f8 7f 	addi %d7,%d1,-127
80008d7a:	a0 0c       	mov.a %a12,0
80008d7c:	3c 11       	j 80008d9e <_dtoa_r+0x126>
80008d7e:	19 a1 3c 00 	ld.w %d1,[%sp]60
80008d82:	19 a3 28 00 	ld.w %d3,[%sp]40
80008d86:	42 b1       	add %d1,%d11
80008d88:	8b b1 18 01 	rsub %d0,%d1,-117
80008d8c:	0f 03 00 00 	sh %d0,%d3,%d0
80008d90:	4b 00 61 01 	utof %d0,%d0
80008d94:	1b f1 ff 7f 	addi %d7,%d1,-1
80008d98:	9b 00 08 0f 	addih %d0,%d0,61568
80008d9c:	a0 1c       	mov.a %a12,1
80008d9e:	7b 00 fc 33 	movh %d3,16320
80008da2:	6b 03 31 00 	sub.f %d0,%d0,%d3
80008da6:	7b 40 e3 f3 	movh %d15,15924
80008daa:	7b 40 e9 a3 	movh %d10,16020
80008dae:	1b 5f 14 f5 	addi %d15,%d15,20805
80008db2:	1b ba d3 a3 	addi %d10,%d10,15675
80008db6:	6b a0 61 0f 	madd.f %d0,%d15,%d0,%d10
80008dba:	4b 07 41 11 	itof %d1,%d7
80008dbe:	7b a0 e9 33 	movh %d3,16026
80008dc2:	1b b3 09 32 	addi %d3,%d3,8347
80008dc6:	6b 31 61 30 	madd.f %d3,%d0,%d1,%d3
80008dca:	4b 83 01 00 	cmp.f %d0,%d3,%d8
80008dce:	4b 03 31 e1 	ftoiz %d14,%d3
80008dd2:	6f 00 0a 00 	jz.t %d0,0,80008de6 <_dtoa_r+0x16e>
80008dd6:	4b 0e 41 01 	itof %d0,%d14
80008dda:	4b 03 01 30 	cmp.f %d3,%d3,%d0
80008dde:	37 03 e1 30 	extr.u %d3,%d3,1,1
80008de2:	ab fe 3f e3 	caddn %d14,%d3,%d14,-1
80008de6:	82 13       	mov %d3,1
80008de8:	59 a3 2c 00 	st.w [%sp]44,%d3
80008dec:	ff be 11 80 	jge.u %d14,11,80008e0e <_dtoa_r+0x196>
80008df0:	91 10 00 f8 	movh.a %a15,32769
80008df4:	d9 ff d0 ea 	lea %a15,[%a15]-20592 <8000af90 <__mprec_tens>>
80008df8:	01 fe 02 f6 	addsc.a %a15,%a15,%d14,2
80008dfc:	48 03       	ld.w %d3,[%a15]0
80008dfe:	4b 39 01 30 	cmp.f %d3,%d9,%d3
80008e02:	6f 03 03 00 	jz.t %d3,0,80008e08 <_dtoa_r+0x190>
80008e06:	c2 fe       	add %d14,-1
80008e08:	82 03       	mov %d3,0
80008e0a:	59 a3 2c 00 	st.w [%sp]44,%d3
80008e0e:	0b 7b 80 70 	sub %d7,%d11,%d7
80008e12:	9a f7       	add %d15,%d7,-1
80008e14:	78 03       	st.w [%sp]12,%d15
80008e16:	a0 0d       	mov.a %a13,0
80008e18:	ce f6       	jgez %d15,80008e24 <_dtoa_r+0x1ac>
80008e1a:	32 5f       	rsub %d15
80008e1c:	82 03       	mov %d3,0
80008e1e:	60 fd       	mov.a %a13,%d15
80008e20:	59 a3 0c 00 	st.w [%sp]12,%d3
80008e24:	0e ea       	jltz %d14,80008e38 <_dtoa_r+0x1c0>
80008e26:	19 a3 0c 00 	ld.w %d3,[%sp]12
80008e2a:	59 ae 20 00 	st.w [%sp]32,%d14
80008e2e:	42 e3       	add %d3,%d14
80008e30:	59 a3 0c 00 	st.w [%sp]12,%d3
80008e34:	a0 07       	mov.a %a7,0
80008e36:	3c 0a       	j 80008e4a <_dtoa_r+0x1d2>
80008e38:	02 e2       	mov %d2,%d14
80008e3a:	60 e2       	mov.a %a2,%d14
80008e3c:	32 52       	rsub %d2
80008e3e:	82 03       	mov %d3,0
80008e40:	60 27       	mov.a %a7,%d2
80008e42:	01 2d 20 d0 	sub.a %a13,%a13,%a2
80008e46:	59 a3 20 00 	st.w [%sp]32,%d3
80008e4a:	19 a3 10 00 	ld.w %d3,[%sp]16
80008e4e:	82 18       	mov %d8,1
80008e50:	ff a3 3d 80 	jge.u %d3,10,80008eca <_dtoa_r+0x252>
80008e54:	bf 63 06 00 	jlt %d3,6,80008e60 <_dtoa_r+0x1e8>
80008e58:	c2 c3       	add %d3,-4
80008e5a:	59 a3 10 00 	st.w [%sp]16,%d3
80008e5e:	82 08       	mov %d8,0
80008e60:	19 a3 10 00 	ld.w %d3,[%sp]16
80008e64:	c2 e3       	add %d3,-2
80008e66:	ff 43 35 80 	jge.u %d3,4,80008ed0 <_dtoa_r+0x258>
80008e6a:	91 10 00 f8 	movh.a %a15,32769
80008e6e:	d9 ff f8 98 	lea %a15,[%a15]-29064 <80008e78 <_dtoa_r+0x200>>
80008e72:	01 f3 02 f6 	addsc.a %a15,%a15,%d3,2
80008e76:	dc 0f       	ji %a15
80008e78:	1d 00 08 00 	j 80008e88 <_dtoa_r+0x210>
80008e7c:	1d 00 18 00 	j 80008eac <_dtoa_r+0x234>
80008e80:	1d 00 06 00 	j 80008e8c <_dtoa_r+0x214>
80008e84:	1d 00 16 00 	j 80008eb0 <_dtoa_r+0x238>
80008e88:	82 03       	mov %d3,0
80008e8a:	3c 02       	j 80008e8e <_dtoa_r+0x216>
80008e8c:	82 13       	mov %d3,1
80008e8e:	59 a3 14 00 	st.w [%sp]20,%d3
80008e92:	19 a3 18 00 	ld.w %d3,[%sp]24
80008e96:	59 a3 1c 00 	st.w [%sp]28,%d3
80008e9a:	02 3d       	mov %d13,%d3
80008e9c:	ff 13 26 00 	jge %d3,1,80008ee8 <_dtoa_r+0x270>
80008ea0:	82 13       	mov %d3,1
80008ea2:	59 a3 1c 00 	st.w [%sp]28,%d3
80008ea6:	82 1d       	mov %d13,1
80008ea8:	82 14       	mov %d4,1
80008eaa:	3c 1d       	j 80008ee4 <_dtoa_r+0x26c>
80008eac:	82 03       	mov %d3,0
80008eae:	3c 02       	j 80008eb2 <_dtoa_r+0x23a>
80008eb0:	82 13       	mov %d3,1
80008eb2:	59 a3 14 00 	st.w [%sp]20,%d3
80008eb6:	19 a3 18 00 	ld.w %d3,[%sp]24
80008eba:	42 e3       	add %d3,%d14
80008ebc:	02 3d       	mov %d13,%d3
80008ebe:	c2 1d       	add %d13,1
80008ec0:	59 a3 1c 00 	st.w [%sp]28,%d3
80008ec4:	8b 1d 40 33 	max %d3,%d13,1
80008ec8:	3c 10       	j 80008ee8 <_dtoa_r+0x270>
80008eca:	82 03       	mov %d3,0
80008ecc:	59 a3 10 00 	st.w [%sp]16,%d3
80008ed0:	82 13       	mov %d3,1
80008ed2:	59 a3 14 00 	st.w [%sp]20,%d3
80008ed6:	82 f3       	mov %d3,-1
80008ed8:	59 a3 1c 00 	st.w [%sp]28,%d3
80008edc:	82 fd       	mov %d13,-1
80008ede:	3b 20 01 30 	mov %d3,18
80008ee2:	82 04       	mov %d4,0
80008ee4:	59 a4 18 00 	st.w [%sp]24,%d4
80008ee8:	60 c2       	mov.a %a2,%d12
80008eea:	82 0f       	mov %d15,0
80008eec:	59 2f 04 10 	st.w [%a2]68,%d15
80008ef0:	82 47       	mov %d7,4
80008ef2:	1b 47 01 00 	addi %d0,%d7,20
80008ef6:	3f 03 0b 80 	jlt.u %d3,%d0,80008f0c <_dtoa_r+0x294>
80008efa:	60 c3       	mov.a %a3,%d12
80008efc:	06 17       	sh %d7,1
80008efe:	19 30 04 10 	ld.w %d0,[%a3]68
80008f02:	1b 10 00 20 	addi %d2,%d0,1
80008f06:	59 32 04 10 	st.w [%a3]68,%d2
80008f0a:	3c f4       	j 80008ef2 <_dtoa_r+0x27a>
80008f0c:	60 c4       	mov.a %a4,%d12
80008f0e:	19 44 04 10 	ld.w %d4,[%a4]68
80008f12:	b5 a7 04 00 	st.a [%sp]4,%a7
80008f16:	6d 00 8b 05 	call 80009a2c <_Balloc>
80008f1a:	60 c3       	mov.a %a3,%d12
80008f1c:	8b 6d 60 32 	lt.u %d3,%d13,6
80008f20:	b5 a2 08 00 	st.a [%sp]8,%a2
80008f24:	b5 32 00 10 	st.a [%a3]64,%a2
80008f28:	26 38       	and %d8,%d3
80008f2a:	99 a7 04 00 	ld.a %a7,[%sp]4
80008f2e:	df 08 02 01 	jeq %d8,0,80009132 <_dtoa_r+0x4ba>
80008f32:	bf 1e 30 00 	jlt %d14,1,80008f92 <_dtoa_r+0x31a>
80008f36:	91 10 00 38 	movh.a %a3,32769
80008f3a:	8f fe 00 31 	and %d3,%d14,15
80008f3e:	d9 33 d0 ea 	lea %a3,[%a3]-20592 <8000af90 <__mprec_tens>>
80008f42:	01 33 02 36 	addsc.a %a3,%a3,%d3,2
80008f46:	8f ce 3f 70 	sha %d7,%d14,-4
80008f4a:	54 33       	ld.w %d3,[%a3]
80008f4c:	02 90       	mov %d0,%d9
80008f4e:	82 2a       	mov %d10,2
80008f50:	6f 17 0d 00 	jz.t %d7,1,80008f6a <_dtoa_r+0x2f2>
80008f54:	91 10 00 38 	movh.a %a3,32769
80008f58:	d9 33 c8 ea 	lea %a3,[%a3]-20600 <8000af88 <__mprec_bigtens>>
80008f5c:	19 31 10 00 	ld.w %d1,[%a3]16 <80010010 <__crt0_config+0x3fd4>>
80008f60:	8f 17 00 71 	and %d7,%d7,1
80008f64:	4b 19 51 00 	div.f %d0,%d9,%d1
80008f68:	82 3a       	mov %d10,3
80008f6a:	91 10 00 f8 	movh.a %a15,32769
80008f6e:	82 01       	mov %d1,0
80008f70:	d9 ff c8 ea 	lea %a15,[%a15]-20600 <8000af88 <__mprec_bigtens>>
80008f74:	76 7c       	jz %d7,80008f8c <_dtoa_r+0x314>
80008f76:	6f 07 08 00 	jz.t %d7,0,80008f86 <_dtoa_r+0x30e>
80008f7a:	01 f1 02 36 	addsc.a %a3,%a15,%d1,2
80008f7e:	c2 1a       	add %d10,1
80008f80:	54 38       	ld.w %d8,[%a3]
80008f82:	4b 83 41 30 	mul.f %d3,%d3,%d8
80008f86:	86 f7       	sha %d7,-1
80008f88:	c2 11       	add %d1,1
80008f8a:	3c f5       	j 80008f74 <_dtoa_r+0x2fc>
80008f8c:	4b 30 51 b0 	div.f %d11,%d0,%d3
80008f90:	3c 24       	j 80008fd8 <_dtoa_r+0x360>
80008f92:	8b 0e 00 31 	rsub %d3,%d14,0
80008f96:	02 9b       	mov %d11,%d9
80008f98:	82 2a       	mov %d10,2
80008f9a:	df 03 1f 00 	jeq %d3,0,80008fd8 <_dtoa_r+0x360>
80008f9e:	91 10 00 38 	movh.a %a3,32769
80008fa2:	8f f3 00 01 	and %d0,%d3,15
80008fa6:	d9 33 d0 ea 	lea %a3,[%a3]-20592 <8000af90 <__mprec_tens>>
80008faa:	01 30 02 36 	addsc.a %a3,%a3,%d0,2
80008fae:	91 10 00 48 	movh.a %a4,32769
80008fb2:	54 30       	ld.w %d0,[%a3]
80008fb4:	86 c3       	sha %d3,-4
80008fb6:	4b 09 41 b0 	mul.f %d11,%d9,%d0
80008fba:	82 01       	mov %d1,0
80008fbc:	d9 44 c8 ea 	lea %a4,[%a4]-20600 <8000af88 <__mprec_bigtens>>
80008fc0:	76 3c       	jz %d3,80008fd8 <_dtoa_r+0x360>
80008fc2:	6f 03 08 00 	jz.t %d3,0,80008fd2 <_dtoa_r+0x35a>
80008fc6:	01 41 02 36 	addsc.a %a3,%a4,%d1,2
80008fca:	c2 1a       	add %d10,1
80008fcc:	54 38       	ld.w %d8,[%a3]
80008fce:	4b 8b 41 b0 	mul.f %d11,%d11,%d8
80008fd2:	86 f3       	sha %d3,-1
80008fd4:	c2 11       	add %d1,1
80008fd6:	3c f5       	j 80008fc0 <_dtoa_r+0x348>
80008fd8:	19 a3 2c 00 	ld.w %d3,[%sp]44
80008fdc:	df 03 17 00 	jeq %d3,0,8000900a <_dtoa_r+0x392>
80008fe0:	7b 00 f8 83 	movh %d8,16256
80008fe4:	4b 8b 01 80 	cmp.f %d8,%d11,%d8
80008fe8:	6f 08 11 00 	jz.t %d8,0,8000900a <_dtoa_r+0x392>
80008fec:	df 0d 12 00 	jeq %d13,0,80009010 <_dtoa_r+0x398>
80008ff0:	19 a3 1c 00 	ld.w %d3,[%sp]28
80008ff4:	bf 13 9f 00 	jlt %d3,1,80009132 <_dtoa_r+0x4ba>
80008ff8:	7b 00 12 84 	movh %d8,16672
80008ffc:	1b fe ff 2f 	addi %d2,%d14,-1
80009000:	4b 8b 41 b0 	mul.f %d11,%d11,%d8
80009004:	c2 1a       	add %d10,1
80009006:	02 37       	mov %d7,%d3
80009008:	3c 06       	j 80009014 <_dtoa_r+0x39c>
8000900a:	02 e2       	mov %d2,%d14
8000900c:	02 d7       	mov %d7,%d13
8000900e:	3c 03       	j 80009014 <_dtoa_r+0x39c>
80009010:	02 e2       	mov %d2,%d14
80009012:	82 07       	mov %d7,0
80009014:	4b 0a 41 31 	itof %d3,%d10
80009018:	7b 00 0e 14 	movh %d1,16608
8000901c:	6b b3 61 11 	madd.f %d1,%d1,%d3,%d11
80009020:	9b 01 48 3f 	addih %d3,%d1,62592
80009024:	df 07 11 80 	jne %d7,0,80009046 <_dtoa_r+0x3ce>
80009028:	7b 00 0a 84 	movh %d8,16544
8000902c:	6b 08 31 0b 	sub.f %d0,%d11,%d8
80009030:	4b 30 01 10 	cmp.f %d1,%d0,%d3
80009034:	6f 21 07 82 	jnz.t %d1,2,80009442 <_dtoa_r+0x7ca>
80009038:	9b 03 00 38 	addih %d3,%d3,32768
8000903c:	4b 30 01 00 	cmp.f %d0,%d0,%d3
80009040:	6f 00 f9 81 	jnz.t %d0,0,80009432 <_dtoa_r+0x7ba>
80009044:	3c 77       	j 80009132 <_dtoa_r+0x4ba>
80009046:	91 10 00 38 	movh.a %a3,32769
8000904a:	1b f7 ff 1f 	addi %d1,%d7,-1
8000904e:	d9 33 d0 ea 	lea %a3,[%a3]-20592 <8000af90 <__mprec_tens>>
80009052:	01 31 02 36 	addsc.a %a3,%a3,%d1,2
80009056:	19 a4 14 00 	ld.w %d4,[%sp]20
8000905a:	54 31       	ld.w %d1,[%a3]
8000905c:	df 04 34 00 	jeq %d4,0,800090c4 <_dtoa_r+0x44c>
80009060:	7b 00 f0 83 	movh %d8,16128
80009064:	4b 18 51 10 	div.f %d1,%d8,%d1
80009068:	d8 02       	ld.a %a15,[%sp]8
8000906a:	80 f0       	mov.d %d0,%a15
8000906c:	46 00       	not %d0
8000906e:	7b 00 f8 63 	movh %d6,16256
80009072:	6b 03 31 11 	sub.f %d1,%d1,%d3
80009076:	80 f3       	mov.d %d3,%a15
80009078:	7b 00 12 44 	movh %d4,16672
8000907c:	42 30       	add %d0,%d3
8000907e:	42 70       	add %d0,%d7
80009080:	8b 17 80 32 	ge %d3,%d7,1
80009084:	ab 00 80 53 	sel %d5,%d3,%d0,0
80009088:	4b 0b 31 81 	ftoiz %d8,%d11
8000908c:	80 fa       	mov.d %d10,%a15
8000908e:	4b 08 41 01 	itof %d0,%d8
80009092:	1b 08 03 80 	addi %d8,%d8,48
80009096:	6b 00 31 0b 	sub.f %d0,%d11,%d0
8000909a:	28 08       	st.b [%a15]0,%d8
8000909c:	4b 10 01 80 	cmp.f %d8,%d0,%d1
800090a0:	c2 1a       	add %d10,1
800090a2:	6f 08 f4 82 	jnz.t %d8,0,8000968a <_dtoa_r+0xa12>
800090a6:	6b 00 31 86 	sub.f %d8,%d6,%d0
800090aa:	4b 18 01 80 	cmp.f %d8,%d8,%d1
800090ae:	6f 08 90 80 	jnz.t %d8,0,800091ce <_dtoa_r+0x556>
800090b2:	9f 05 03 80 	jned %d5,0,800090b8 <_dtoa_r+0x440>
800090b6:	3c 3e       	j 80009132 <_dtoa_r+0x4ba>
800090b8:	4b 41 41 10 	mul.f %d1,%d1,%d4
800090bc:	4b 40 41 b0 	mul.f %d11,%d0,%d4
800090c0:	60 af       	mov.a %a15,%d10
800090c2:	3c e3       	j 80009088 <_dtoa_r+0x410>
800090c4:	99 a2 08 00 	ld.a %a2,[%sp]8
800090c8:	19 aa 08 00 	ld.w %d10,[%sp]8
800090cc:	4b 31 41 30 	mul.f %d3,%d1,%d3
800090d0:	80 28       	mov.d %d8,%a2
800090d2:	42 7a       	add %d10,%d7
800090d4:	46 08       	not %d8
800090d6:	1a 8a       	add %d15,%d10,%d8
800090d8:	60 ff       	mov.a %a15,%d15
800090da:	7b 00 12 44 	movh %d4,16672
800090de:	4b 0b 31 51 	ftoiz %d5,%d11
800090e2:	d9 23 01 00 	lea %a3,[%a2]1
800090e6:	4b 05 41 81 	itof %d8,%d5
800090ea:	1b 05 03 50 	addi %d5,%d5,48
800090ee:	34 25       	st.b [%a2],%d5
800090f0:	6b 08 31 bb 	sub.f %d11,%d11,%d8
800090f4:	fd f0 1b 00 	loop %a15,8000912a <_dtoa_r+0x4b2>
800090f8:	7b 00 f0 03 	movh %d0,16128
800090fc:	6b 00 21 13 	add.f %d1,%d3,%d0
80009100:	4b 1b 01 10 	cmp.f %d1,%d11,%d1
80009104:	6f 21 65 80 	jnz.t %d1,2,800091ce <_dtoa_r+0x556>
80009108:	6b 03 31 00 	sub.f %d0,%d0,%d3
8000910c:	4b 0b 01 00 	cmp.f %d0,%d11,%d0
80009110:	6f 00 11 00 	jz.t %d0,0,80009132 <_dtoa_r+0x4ba>
80009114:	60 a2       	mov.a %a2,%d10
80009116:	60 a3       	mov.a %a3,%d10
80009118:	79 2f ff ff 	ld.b %d15,[%a2]-1
8000911c:	b0 f3       	add.a %a3,-1
8000911e:	8b 0f 03 f2 	eq %d15,%d15,48
80009122:	df 0f b4 02 	jeq %d15,0,8000968a <_dtoa_r+0xa12>
80009126:	80 3a       	mov.d %d10,%a3
80009128:	3c f6       	j 80009114 <_dtoa_r+0x49c>
8000912a:	4b 4b 41 b0 	mul.f %d11,%d11,%d4
8000912e:	40 32       	mov.aa %a2,%a3
80009130:	3c d7       	j 800090de <_dtoa_r+0x466>
80009132:	19 a0 3c 00 	ld.w %d0,[%sp]60
80009136:	8b 00 80 32 	ge %d3,%d0,0
8000913a:	8b 7e 40 34 	and.lt %d3,%d14,7
8000913e:	df 03 6e 00 	jeq %d3,0,8000921a <_dtoa_r+0x5a2>
80009142:	91 10 00 38 	movh.a %a3,32769
80009146:	d9 33 d0 ea 	lea %a3,[%a3]-20592 <8000af90 <__mprec_tens>>
8000914a:	19 a4 18 00 	ld.w %d4,[%sp]24 <8000af90 <__mprec_tens>>
8000914e:	01 3e 02 36 	addsc.a %a3,%a3,%d14,2
80009152:	8b 1d 40 32 	lt %d3,%d13,1
80009156:	87 34 1f 30 	and.t %d3,%d4,31,%d3,0
8000915a:	54 32       	ld.w %d2,[%a3]
8000915c:	df 03 12 00 	jeq %d3,0,80009180 <_dtoa_r+0x508>
80009160:	df 0d 69 81 	jne %d13,0,80009432 <_dtoa_r+0x7ba>
80009164:	7b 00 0a 34 	movh %d3,16544
80009168:	4b 32 41 20 	mul.f %d2,%d2,%d3
8000916c:	a0 0c       	mov.a %a12,0
8000916e:	4b 29 01 20 	cmp.f %d2,%d9,%d2
80009172:	87 22 a0 20 	or.t %d2,%d2,0,%d2,1
80009176:	a0 0f       	mov.a %a15,0
80009178:	df 02 5f 81 	jne %d2,0,80009436 <_dtoa_r+0x7be>
8000917c:	1d 00 66 01 	j 80009448 <_dtoa_r+0x7d0>
80009180:	99 a3 08 00 	ld.a %a3,[%sp]8
80009184:	7b 00 12 64 	movh %d6,16672
80009188:	82 05       	mov %d5,0
8000918a:	80 3f       	mov.d %d15,%a3
8000918c:	46 0f       	not %d15
8000918e:	10 34       	addsc.a %a4,%a3,%d15,0
80009190:	01 4d 00 f6 	addsc.a %a15,%a4,%d13,0
80009194:	4b 29 51 30 	div.f %d3,%d9,%d2
80009198:	80 3a       	mov.d %d10,%a3
8000919a:	c2 1a       	add %d10,1
8000919c:	4b 03 31 31 	ftoiz %d3,%d3
800091a0:	4b 03 41 71 	itof %d7,%d3
800091a4:	1b 03 03 40 	addi %d4,%d3,48
800091a8:	34 34       	st.b [%a3],%d4
800091aa:	6b 27 71 f9 	msub.f %d15,%d9,%d7,%d2
800091ae:	fd f0 2d 00 	loop %a15,80009208 <_dtoa_r+0x590>
800091b2:	6b 0f 21 ff 	add.f %d15,%d15,%d15
800091b6:	4b 2f 01 40 	cmp.f %d4,%d15,%d2
800091ba:	6f 24 0b 80 	jnz.t %d4,2,800091d0 <_dtoa_r+0x558>
800091be:	8f d4 00 21 	and %d2,%d4,13
800091c2:	df 02 65 82 	jne %d2,0,8000968c <_dtoa_r+0xa14>
800091c6:	6f 03 05 80 	jnz.t %d3,0,800091d0 <_dtoa_r+0x558>
800091ca:	1d 00 61 02 	j 8000968c <_dtoa_r+0xa14>
800091ce:	02 2e       	mov %d14,%d2
800091d0:	58 02       	ld.w %d15,[%sp]8
800091d2:	a2 af       	sub %d15,%d10
800091d4:	46 0f       	not %d15
800091d6:	60 a2       	mov.a %a2,%d10
800091d8:	60 af       	mov.a %a15,%d10
800091da:	79 22 ff ff 	ld.b %d2,[%a2]-1
800091de:	b0 ff       	add.a %a15,-1
800091e0:	8b 92 03 22 	eq %d2,%d2,57
800091e4:	76 2d       	jz %d2,800091fe <_dtoa_r+0x586>
800091e6:	9f 0f 0a 80 	jned %d15,0,800091fa <_dtoa_r+0x582>
800091ea:	99 a3 08 00 	ld.a %a3,[%sp]8
800091ee:	3b 00 03 20 	mov %d2,48
800091f2:	c2 1e       	add %d14,1
800091f4:	34 32       	st.b [%a3],%d2
800091f6:	40 3f       	mov.aa %a15,%a3
800091f8:	3c 03       	j 800091fe <_dtoa_r+0x586>
800091fa:	80 fa       	mov.d %d10,%a15
800091fc:	3c ed       	j 800091d6 <_dtoa_r+0x55e>
800091fe:	08 02       	ld.bu %d2,[%a15]0
80009200:	c2 12       	add %d2,1
80009202:	28 02       	st.b [%a15]0,%d2
80009204:	1d 00 44 02 	j 8000968c <_dtoa_r+0xa14>
80009208:	4b 6f 41 90 	mul.f %d9,%d15,%d6
8000920c:	60 a3       	mov.a %a3,%d10
8000920e:	4b 59 01 30 	cmp.f %d3,%d9,%d5
80009212:	6f 13 c1 7f 	jz.t %d3,1,80009194 <_dtoa_r+0x51c>
80009216:	1d 00 3b 02 	j 8000968c <_dtoa_r+0xa14>
8000921a:	19 a3 14 00 	ld.w %d3,[%sp]20
8000921e:	80 79       	mov.d %d9,%a7
80009220:	80 d8       	mov.d %d8,%a13
80009222:	a0 0f       	mov.a %a15,0
80009224:	df 03 37 00 	jeq %d3,0,80009292 <_dtoa_r+0x61a>
80009228:	19 a3 10 00 	ld.w %d3,[%sp]16
8000922c:	ff 23 0d 00 	jge %d3,2,80009246 <_dtoa_r+0x5ce>
80009230:	1b 60 09 20 	addi %d2,%d0,150
80009234:	bd 0c 1f 80 	jnz.a %a12,80009272 <_dtoa_r+0x5fa>
80009238:	19 a2 38 00 	ld.w %d2,[%sp]56
8000923c:	80 79       	mov.d %d9,%a7
8000923e:	8b 92 01 21 	rsub %d2,%d2,25
80009242:	80 d8       	mov.d %d8,%a13
80009244:	3c 17       	j 80009272 <_dtoa_r+0x5fa>
80009246:	80 74       	mov.d %d4,%a7
80009248:	1b fd ff 9f 	addi %d9,%d13,-1
8000924c:	3f 94 05 00 	jlt %d4,%d9,80009256 <_dtoa_r+0x5de>
80009250:	80 7f       	mov.d %d15,%a7
80009252:	52 99       	sub %d9,%d15,%d9
80009254:	3c 0a       	j 80009268 <_dtoa_r+0x5f0>
80009256:	02 92       	mov %d2,%d9
80009258:	19 a3 20 00 	ld.w %d3,[%sp]32
8000925c:	a2 42       	sub %d2,%d4
8000925e:	42 23       	add %d3,%d2
80009260:	60 97       	mov.a %a7,%d9
80009262:	59 a3 20 00 	st.w [%sp]32,%d3
80009266:	82 09       	mov %d9,0
80009268:	80 d8       	mov.d %d8,%a13
8000926a:	02 d2       	mov %d2,%d13
8000926c:	ce d3       	jgez %d13,80009272 <_dtoa_r+0x5fa>
8000926e:	a2 d8       	sub %d8,%d13
80009270:	82 02       	mov %d2,0
80009272:	19 a3 0c 00 	ld.w %d3,[%sp]12
80009276:	60 c4       	mov.a %a4,%d12
80009278:	42 23       	add %d3,%d2
8000927a:	82 14       	mov %d4,1
8000927c:	b5 a7 04 00 	st.a [%sp]4,%a7
80009280:	01 d2 00 d6 	addsc.a %a13,%a13,%d2,0
80009284:	59 a3 0c 00 	st.w [%sp]12,%d3
80009288:	6d 00 9b 04 	call 80009bbe <__i2b>
8000928c:	99 a7 04 00 	ld.a %a7,[%sp]4
80009290:	40 2f       	mov.aa %a15,%a2
80009292:	19 a3 0c 00 	ld.w %d3,[%sp]12
80009296:	8b 18 80 22 	ge %d2,%d8,1
8000929a:	8b 13 80 24 	and.ge %d2,%d3,1
8000929e:	76 2a       	jz %d2,800092b2 <_dtoa_r+0x63a>
800092a0:	0b 83 80 21 	min %d2,%d3,%d8
800092a4:	60 22       	mov.a %a2,%d2
800092a6:	a2 23       	sub %d3,%d2
800092a8:	01 2d 20 d0 	sub.a %a13,%a13,%a2
800092ac:	a2 28       	sub %d8,%d2
800092ae:	59 a3 0c 00 	st.w [%sp]12,%d3
800092b2:	80 72       	mov.d %d2,%a7
800092b4:	bf 12 29 00 	jlt %d2,1,80009306 <_dtoa_r+0x68e>
800092b8:	19 a3 14 00 	ld.w %d3,[%sp]20
800092bc:	df 03 1f 00 	jeq %d3,0,800092fa <_dtoa_r+0x682>
800092c0:	bf 19 17 00 	jlt %d9,1,800092ee <_dtoa_r+0x676>
800092c4:	60 c4       	mov.a %a4,%d12
800092c6:	40 f5       	mov.aa %a5,%a15
800092c8:	02 94       	mov %d4,%d9
800092ca:	b5 a7 04 00 	st.a [%sp]4,%a7
800092ce:	6d 00 0d 05 	call 80009ce8 <__pow5mult>
800092d2:	60 c4       	mov.a %a4,%d12
800092d4:	40 e6       	mov.aa %a6,%a14
800092d6:	40 25       	mov.aa %a5,%a2
800092d8:	40 2f       	mov.aa %a15,%a2
800092da:	6d 00 7a 04 	call 80009bce <__multiply>
800092de:	60 c4       	mov.a %a4,%d12
800092e0:	40 e5       	mov.aa %a5,%a14
800092e2:	40 2c       	mov.aa %a12,%a2
800092e4:	6d 00 cf 03 	call 80009a82 <_Bfree>
800092e8:	99 a7 04 00 	ld.a %a7,[%sp]4
800092ec:	40 ce       	mov.aa %a14,%a12
800092ee:	80 74       	mov.d %d4,%a7
800092f0:	60 c4       	mov.a %a4,%d12
800092f2:	a2 94       	sub %d4,%d9
800092f4:	40 e5       	mov.aa %a5,%a14
800092f6:	76 48       	jz %d4,80009306 <_dtoa_r+0x68e>
800092f8:	3c 04       	j 80009300 <_dtoa_r+0x688>
800092fa:	60 c4       	mov.a %a4,%d12
800092fc:	80 74       	mov.d %d4,%a7
800092fe:	40 e5       	mov.aa %a5,%a14
80009300:	6d 00 f4 04 	call 80009ce8 <__pow5mult>
80009304:	40 2e       	mov.aa %a14,%a2
80009306:	60 c4       	mov.a %a4,%d12
80009308:	82 14       	mov %d4,1
8000930a:	6d 00 5a 04 	call 80009bbe <__i2b>
8000930e:	19 a2 20 00 	ld.w %d2,[%sp]32
80009312:	40 2c       	mov.aa %a12,%a2
80009314:	8e 2d       	jlez %d2,8000932e <_dtoa_r+0x6b6>
80009316:	60 c4       	mov.a %a4,%d12
80009318:	40 25       	mov.aa %a5,%a2
8000931a:	02 24       	mov %d4,%d2
8000931c:	6d 00 e6 04 	call 80009ce8 <__pow5mult>
80009320:	19 a3 10 00 	ld.w %d3,[%sp]16
80009324:	40 2c       	mov.aa %a12,%a2
80009326:	82 09       	mov %d9,0
80009328:	ff 23 1f 00 	jge %d3,2,80009366 <_dtoa_r+0x6ee>
8000932c:	3c 06       	j 80009338 <_dtoa_r+0x6c0>
8000932e:	19 a3 10 00 	ld.w %d3,[%sp]16
80009332:	82 09       	mov %d9,0
80009334:	ff 23 15 00 	jge %d3,2,8000935e <_dtoa_r+0x6e6>
80009338:	19 a2 28 00 	ld.w %d2,[%sp]40
8000933c:	19 a3 34 00 	ld.w %d3,[%sp]52
80009340:	b7 02 89 fb 	insert %d15,%d2,0,23,9
80009344:	8b 03 20 22 	ne %d2,%d3,0
80009348:	8b 0f 00 24 	and.eq %d2,%d15,0
8000934c:	82 09       	mov %d9,0
8000934e:	76 28       	jz %d2,8000935e <_dtoa_r+0x6e6>
80009350:	19 a3 0c 00 	ld.w %d3,[%sp]12
80009354:	b0 1d       	add.a %a13,1
80009356:	c2 13       	add %d3,1
80009358:	59 a3 0c 00 	st.w [%sp]12,%d3
8000935c:	82 19       	mov %d9,1
8000935e:	19 a3 20 00 	ld.w %d3,[%sp]32
80009362:	82 12       	mov %d2,1
80009364:	76 39       	jz %d3,80009376 <_dtoa_r+0x6fe>
80009366:	4c c4       	ld.w %d15,[%a12]16
80009368:	90 c3       	addsc.a %a3,%a12,%d15,2
8000936a:	19 34 10 00 	ld.w %d4,[%a3]16
8000936e:	6d 00 d4 03 	call 80009b16 <__hi0bits>
80009372:	8b 02 02 21 	rsub %d2,%d2,32
80009376:	19 a3 0c 00 	ld.w %d3,[%sp]12
8000937a:	42 32       	add %d2,%d3
8000937c:	8f f2 01 21 	and %d2,%d2,31
80009380:	76 2d       	jz %d2,8000939a <_dtoa_r+0x722>
80009382:	8b 02 02 f1 	rsub %d15,%d2,32
80009386:	bf 5f 08 00 	jlt %d15,5,80009396 <_dtoa_r+0x71e>
8000938a:	8b c2 01 21 	rsub %d2,%d2,28
8000938e:	01 d2 00 d6 	addsc.a %a13,%a13,%d2,0
80009392:	42 28       	add %d8,%d2
80009394:	3c 0a       	j 800093a8 <_dtoa_r+0x730>
80009396:	1e 4c       	jeq %d15,4,800093ae <_dtoa_r+0x736>
80009398:	02 f2       	mov %d2,%d15
8000939a:	1b c2 01 20 	addi %d2,%d2,28
8000939e:	01 d2 00 d6 	addsc.a %a13,%a13,%d2,0
800093a2:	19 a3 0c 00 	ld.w %d3,[%sp]12
800093a6:	42 28       	add %d8,%d2
800093a8:	42 23       	add %d3,%d2
800093aa:	59 a3 0c 00 	st.w [%sp]12,%d3
800093ae:	80 d4       	mov.d %d4,%a13
800093b0:	8e 46       	jlez %d4,800093bc <_dtoa_r+0x744>
800093b2:	60 c4       	mov.a %a4,%d12
800093b4:	40 e5       	mov.aa %a5,%a14
800093b6:	6d 00 d7 04 	call 80009d64 <__lshift>
800093ba:	40 2e       	mov.aa %a14,%a2
800093bc:	19 a3 0c 00 	ld.w %d3,[%sp]12
800093c0:	8e 37       	jlez %d3,800093ce <_dtoa_r+0x756>
800093c2:	60 c4       	mov.a %a4,%d12
800093c4:	40 c5       	mov.aa %a5,%a12
800093c6:	02 34       	mov %d4,%d3
800093c8:	6d 00 ce 04 	call 80009d64 <__lshift>
800093cc:	40 2c       	mov.aa %a12,%a2
800093ce:	19 a3 2c 00 	ld.w %d3,[%sp]44
800093d2:	df 03 1c 00 	jeq %d3,0,8000940a <_dtoa_r+0x792>
800093d6:	40 e4       	mov.aa %a4,%a14
800093d8:	40 c5       	mov.aa %a5,%a12
800093da:	6d 00 22 05 	call 80009e1e <__mcmp>
800093de:	ff 02 16 00 	jge %d2,0,8000940a <_dtoa_r+0x792>
800093e2:	60 c4       	mov.a %a4,%d12
800093e4:	40 e5       	mov.aa %a5,%a14
800093e6:	fb a0 00 40 	mov %e4,10
800093ea:	6d 00 55 03 	call 80009a94 <__multadd>
800093ee:	19 a3 14 00 	ld.w %d3,[%sp]20
800093f2:	c2 fe       	add %d14,-1
800093f4:	40 2e       	mov.aa %a14,%a2
800093f6:	19 ad 1c 00 	ld.w %d13,[%sp]28
800093fa:	76 38       	jz %d3,8000940a <_dtoa_r+0x792>
800093fc:	60 c4       	mov.a %a4,%d12
800093fe:	40 f5       	mov.aa %a5,%a15
80009400:	fb a0 00 40 	mov %e4,10
80009404:	6d 00 48 03 	call 80009a94 <__multadd>
80009408:	40 2f       	mov.aa %a15,%a2
8000940a:	19 a3 10 00 	ld.w %d3,[%sp]16
8000940e:	8b 33 80 f2 	ge %d15,%d3,3
80009412:	8b 1d 40 f4 	and.lt %d15,%d13,1
80009416:	6e 26       	jz %d15,80009462 <_dtoa_r+0x7ea>
80009418:	f6 df       	jnz %d13,80009436 <_dtoa_r+0x7be>
8000941a:	60 c4       	mov.a %a4,%d12
8000941c:	40 c5       	mov.aa %a5,%a12
8000941e:	d2 54       	mov %e4,5
80009420:	6d 00 3a 03 	call 80009a94 <__multadd>
80009424:	40 e4       	mov.aa %a4,%a14
80009426:	40 25       	mov.aa %a5,%a2
80009428:	40 2c       	mov.aa %a12,%a2
8000942a:	6d 00 fa 04 	call 80009e1e <__mcmp>
8000942e:	4e 2d       	jgtz %d2,80009448 <_dtoa_r+0x7d0>
80009430:	3c 03       	j 80009436 <_dtoa_r+0x7be>
80009432:	a0 0c       	mov.a %a12,0
80009434:	a0 0f       	mov.a %a15,0
80009436:	19 ae 18 00 	ld.w %d14,[%sp]24
8000943a:	19 aa 08 00 	ld.w %d10,[%sp]8
8000943e:	46 0e       	not %d14
80009440:	3c 0d       	j 8000945a <_dtoa_r+0x7e2>
80009442:	02 2e       	mov %d14,%d2
80009444:	a0 0c       	mov.a %a12,0
80009446:	a0 0f       	mov.a %a15,0
80009448:	99 a3 08 00 	ld.a %a3,[%sp]8
8000944c:	19 aa 08 00 	ld.w %d10,[%sp]8
80009450:	3b 10 03 20 	mov %d2,49
80009454:	c2 1a       	add %d10,1
80009456:	34 32       	st.b [%a3],%d2
80009458:	c2 1e       	add %d14,1
8000945a:	40 fd       	mov.aa %a13,%a15
8000945c:	a0 0f       	mov.a %a15,0
8000945e:	1d 00 00 01 	j 8000965e <_dtoa_r+0x9e6>
80009462:	19 a3 14 00 	ld.w %d3,[%sp]20
80009466:	99 ad 08 00 	ld.a %a13,[%sp]8
8000946a:	df 03 b5 00 	jeq %d3,0,800095d4 <_dtoa_r+0x95c>
8000946e:	8e 87       	jlez %d8,8000947c <_dtoa_r+0x804>
80009470:	60 c4       	mov.a %a4,%d12
80009472:	40 f5       	mov.aa %a5,%a15
80009474:	02 84       	mov %d4,%d8
80009476:	6d 00 77 04 	call 80009d64 <__lshift>
8000947a:	40 2f       	mov.aa %a15,%a2
8000947c:	40 fd       	mov.aa %a13,%a15
8000947e:	df 09 16 00 	jeq %d9,0,800094aa <_dtoa_r+0x832>
80009482:	60 c4       	mov.a %a4,%d12
80009484:	48 14       	ld.w %d4,[%a15]4
80009486:	6d 00 d3 02 	call 80009a2c <_Balloc>
8000948a:	48 44       	ld.w %d4,[%a15]16
8000948c:	d9 24 0c 00 	lea %a4,[%a2]12
80009490:	c2 24       	add %d4,2
80009492:	d9 f5 0c 00 	lea %a5,[%a15]12
80009496:	06 24       	sh %d4,2
80009498:	40 2d       	mov.aa %a13,%a2
8000949a:	6d ff 8f e5 	call 80005fb8 <memcpy>
8000949e:	60 c4       	mov.a %a4,%d12
800094a0:	40 d5       	mov.aa %a5,%a13
800094a2:	82 14       	mov %d4,1
800094a4:	6d 00 60 04 	call 80009d64 <__lshift>
800094a8:	40 2d       	mov.aa %a13,%a2
800094aa:	19 ab 08 00 	ld.w %d11,[%sp]8
800094ae:	40 e4       	mov.aa %a4,%a14
800094b0:	40 c5       	mov.aa %a5,%a12
800094b2:	6d ff 56 fb 	call 80008b5e <quorem>
800094b6:	40 e4       	mov.aa %a4,%a14
800094b8:	40 f5       	mov.aa %a5,%a15
800094ba:	59 a2 0c 00 	st.w [%sp]12,%d2
800094be:	1b 02 03 f0 	addi %d15,%d2,48
800094c2:	6d 00 ae 04 	call 80009e1e <__mcmp>
800094c6:	60 c4       	mov.a %a4,%d12
800094c8:	40 c5       	mov.aa %a5,%a12
800094ca:	40 d6       	mov.aa %a6,%a13
800094cc:	02 29       	mov %d9,%d2
800094ce:	6d 00 c9 04 	call 80009e60 <__mdiff>
800094d2:	19 22 0c 00 	ld.w %d2,[%a2]12
800094d6:	80 28       	mov.d %d8,%a2
800094d8:	82 1a       	mov %d10,1
800094da:	f6 26       	jnz %d2,800094e6 <_dtoa_r+0x86e>
800094dc:	40 e4       	mov.aa %a4,%a14
800094de:	40 25       	mov.aa %a5,%a2
800094e0:	6d 00 9f 04 	call 80009e1e <__mcmp>
800094e4:	02 2a       	mov %d10,%d2
800094e6:	60 85       	mov.a %a5,%d8
800094e8:	60 c4       	mov.a %a4,%d12
800094ea:	1b 1b 00 80 	addi %d8,%d11,1
800094ee:	6d 00 ca 02 	call 80009a82 <_Bfree>
800094f2:	19 a2 10 00 	ld.w %d2,[%sp]16
800094f6:	a6 a2       	or %d2,%d10
800094f8:	f6 2f       	jnz %d2,80009516 <_dtoa_r+0x89e>
800094fa:	8b 9f 03 22 	eq %d2,%d15,57
800094fe:	df 02 32 80 	jne %d2,0,80009562 <_dtoa_r+0x8ea>
80009502:	19 a4 0c 00 	ld.w %d4,[%sp]12
80009506:	8b 19 80 92 	ge %d9,%d9,1
8000950a:	1b 14 03 20 	addi %d2,%d4,49
8000950e:	2b f2 40 f9 	sel %d15,%d9,%d2,%d15
80009512:	02 8a       	mov %d10,%d8
80009514:	3c 2d       	j 8000956e <_dtoa_r+0x8f6>
80009516:	ce 94       	jgez %d9,8000951e <_dtoa_r+0x8a6>
80009518:	02 f9       	mov %d9,%d15
8000951a:	4e a8       	jgtz %d10,8000952a <_dtoa_r+0x8b2>
8000951c:	3c 18       	j 8000954c <_dtoa_r+0x8d4>
8000951e:	19 a3 10 00 	ld.w %d3,[%sp]16
80009522:	a6 39       	or %d9,%d3
80009524:	df 09 19 80 	jne %d9,0,80009556 <_dtoa_r+0x8de>
80009528:	3c f8       	j 80009518 <_dtoa_r+0x8a0>
8000952a:	60 c4       	mov.a %a4,%d12
8000952c:	40 e5       	mov.aa %a5,%a14
8000952e:	82 14       	mov %d4,1
80009530:	6d 00 1a 04 	call 80009d64 <__lshift>
80009534:	40 c5       	mov.aa %a5,%a12
80009536:	40 2e       	mov.aa %a14,%a2
80009538:	40 24       	mov.aa %a4,%a2
8000953a:	6d 00 72 04 	call 80009e1e <__mcmp>
8000953e:	4e 23       	jgtz %d2,80009544 <_dtoa_r+0x8cc>
80009540:	f6 26       	jnz %d2,8000954c <_dtoa_r+0x8d4>
80009542:	2e 05       	jz.t %d15,0,8000954c <_dtoa_r+0x8d4>
80009544:	92 19       	add %d9,%d15,1
80009546:	8b 9f 03 f2 	eq %d15,%d15,57
8000954a:	ee 0c       	jnz %d15,80009562 <_dtoa_r+0x8ea>
8000954c:	60 b2       	mov.a %a2,%d11
8000954e:	02 8a       	mov %d10,%d8
80009550:	34 29       	st.b [%a2],%d9
80009552:	1d 00 86 00 	j 8000965e <_dtoa_r+0x9e6>
80009556:	8e af       	jlez %d10,80009574 <_dtoa_r+0x8fc>
80009558:	8b 9f 23 22 	ne %d2,%d15,57
8000955c:	02 8a       	mov %d10,%d8
8000955e:	c2 1f       	add %d15,1
80009560:	f6 27       	jnz %d2,8000956e <_dtoa_r+0x8f6>
80009562:	60 b3       	mov.a %a3,%d11
80009564:	3b 90 03 20 	mov %d2,57
80009568:	02 8a       	mov %d10,%d8
8000956a:	34 32       	st.b [%a3],%d2
8000956c:	3c 57       	j 8000961a <_dtoa_r+0x9a2>
8000956e:	60 b2       	mov.a %a2,%d11
80009570:	2c 20       	st.b [%a2]0,%d15
80009572:	3c 76       	j 8000965e <_dtoa_r+0x9e6>
80009574:	60 b3       	mov.a %a3,%d11
80009576:	19 a3 08 00 	ld.w %d3,[%sp]8
8000957a:	02 82       	mov %d2,%d8
8000957c:	2c 30       	st.b [%a3]0,%d15
8000957e:	a2 32       	sub %d2,%d3
80009580:	02 8a       	mov %d10,%d8
80009582:	5f d2 3d 00 	jeq %d2,%d13,800095fc <_dtoa_r+0x984>
80009586:	60 c4       	mov.a %a4,%d12
80009588:	40 e5       	mov.aa %a5,%a14
8000958a:	fb a0 00 40 	mov %e4,10
8000958e:	6d 00 83 02 	call 80009a94 <__multadd>
80009592:	60 c4       	mov.a %a4,%d12
80009594:	40 2e       	mov.aa %a14,%a2
80009596:	40 f5       	mov.aa %a5,%a15
80009598:	fb a0 00 40 	mov %e4,10
8000959c:	7d df 07 80 	jne.a %a15,%a13,800095aa <_dtoa_r+0x932>
800095a0:	6d 00 7a 02 	call 80009a94 <__multadd>
800095a4:	40 2f       	mov.aa %a15,%a2
800095a6:	40 2d       	mov.aa %a13,%a2
800095a8:	3c 0b       	j 800095be <_dtoa_r+0x946>
800095aa:	6d 00 75 02 	call 80009a94 <__multadd>
800095ae:	60 c4       	mov.a %a4,%d12
800095b0:	40 d5       	mov.aa %a5,%a13
800095b2:	fb a0 00 40 	mov %e4,10
800095b6:	40 2f       	mov.aa %a15,%a2
800095b8:	6d 00 6e 02 	call 80009a94 <__multadd>
800095bc:	40 2d       	mov.aa %a13,%a2
800095be:	02 8b       	mov %d11,%d8
800095c0:	1d ff 77 ff 	j 800094ae <_dtoa_r+0x836>
800095c4:	60 c4       	mov.a %a4,%d12
800095c6:	40 e5       	mov.aa %a5,%a14
800095c8:	fb a0 00 40 	mov %e4,10
800095cc:	6d 00 64 02 	call 80009a94 <__multadd>
800095d0:	60 8d       	mov.a %a13,%d8
800095d2:	40 2e       	mov.aa %a14,%a2
800095d4:	40 e4       	mov.aa %a4,%a14
800095d6:	40 c5       	mov.aa %a5,%a12
800095d8:	6d ff c3 fa 	call 80008b5e <quorem>
800095dc:	80 d8       	mov.d %d8,%a13
800095de:	19 a3 08 00 	ld.w %d3,[%sp]8
800095e2:	c2 18       	add %d8,1
800095e4:	1b 02 03 f0 	addi %d15,%d2,48
800095e8:	02 82       	mov %d2,%d8
800095ea:	2c d0       	st.b [%a13]0,%d15
800095ec:	a2 32       	sub %d2,%d3
800095ee:	3f d2 eb 7f 	jlt %d2,%d13,800095c4 <_dtoa_r+0x94c>
800095f2:	8b 1d 40 a3 	max %d10,%d13,1
800095f6:	40 fd       	mov.aa %a13,%a15
800095f8:	42 3a       	add %d10,%d3
800095fa:	a0 0f       	mov.a %a15,0
800095fc:	60 c4       	mov.a %a4,%d12
800095fe:	40 e5       	mov.aa %a5,%a14
80009600:	82 14       	mov %d4,1
80009602:	6d 00 b1 03 	call 80009d64 <__lshift>
80009606:	40 c5       	mov.aa %a5,%a12
80009608:	40 2e       	mov.aa %a14,%a2
8000960a:	40 24       	mov.aa %a4,%a2
8000960c:	6d 00 09 04 	call 80009e1e <__mcmp>
80009610:	4e 25       	jgtz %d2,8000961a <_dtoa_r+0x9a2>
80009612:	df 02 1c 80 	jne %d2,0,8000964a <_dtoa_r+0x9d2>
80009616:	6f 0f 1a 00 	jz.t %d15,0,8000964a <_dtoa_r+0x9d2>
8000961a:	58 02       	ld.w %d15,[%sp]8
8000961c:	a2 af       	sub %d15,%d10
8000961e:	46 0f       	not %d15
80009620:	60 a2       	mov.a %a2,%d10
80009622:	60 a3       	mov.a %a3,%d10
80009624:	79 22 ff ff 	ld.b %d2,[%a2]-1
80009628:	b0 f3       	add.a %a3,-1
8000962a:	8b 92 03 32 	eq %d3,%d2,57
8000962e:	76 3b       	jz %d3,80009644 <_dtoa_r+0x9cc>
80009630:	9f 0f 08 80 	jned %d15,0,80009640 <_dtoa_r+0x9c8>
80009634:	c2 1e       	add %d14,1
80009636:	3b 10 03 20 	mov %d2,49
8000963a:	99 a3 08 00 	ld.a %a3,[%sp]8
8000963e:	3c 04       	j 80009646 <_dtoa_r+0x9ce>
80009640:	80 3a       	mov.d %d10,%a3
80009642:	3c ef       	j 80009620 <_dtoa_r+0x9a8>
80009644:	c2 12       	add %d2,1
80009646:	34 32       	st.b [%a3],%d2
80009648:	3c 0b       	j 8000965e <_dtoa_r+0x9e6>
8000964a:	60 a2       	mov.a %a2,%d10
8000964c:	60 a3       	mov.a %a3,%d10
8000964e:	79 2f ff ff 	ld.b %d15,[%a2]-1
80009652:	b0 f3       	add.a %a3,-1
80009654:	8b 0f 03 f2 	eq %d15,%d15,48
80009658:	6e 03       	jz %d15,8000965e <_dtoa_r+0x9e6>
8000965a:	80 3a       	mov.d %d10,%a3
8000965c:	3c f7       	j 8000964a <_dtoa_r+0x9d2>
8000965e:	60 c4       	mov.a %a4,%d12
80009660:	40 c5       	mov.aa %a5,%a12
80009662:	6d 00 10 02 	call 80009a82 <_Bfree>
80009666:	bd 0d 13 00 	jz.a %a13,8000968c <_dtoa_r+0xa14>
8000966a:	80 f2       	mov.d %d2,%a15
8000966c:	80 d3       	mov.d %d3,%a13
8000966e:	8b 02 20 f2 	ne %d15,%d2,0
80009672:	0b 32 10 f2 	and.ne %d15,%d2,%d3
80009676:	6e 05       	jz %d15,80009680 <_dtoa_r+0xa08>
80009678:	60 c4       	mov.a %a4,%d12
8000967a:	40 f5       	mov.aa %a5,%a15
8000967c:	6d 00 03 02 	call 80009a82 <_Bfree>
80009680:	60 c4       	mov.a %a4,%d12
80009682:	40 d5       	mov.aa %a5,%a13
80009684:	6d 00 ff 01 	call 80009a82 <_Bfree>
80009688:	3c 02       	j 8000968c <_dtoa_r+0xa14>
8000968a:	02 2e       	mov %d14,%d2
8000968c:	60 c4       	mov.a %a4,%d12
8000968e:	40 e5       	mov.aa %a5,%a14
80009690:	6d 00 f9 01 	call 80009a82 <_Bfree>
80009694:	60 a2       	mov.a %a2,%d10
80009696:	99 a3 30 00 	ld.a %a3,[%sp]48
8000969a:	82 02       	mov %d2,0
8000969c:	d8 09       	ld.a %a15,[%sp]36
8000969e:	34 22       	st.b [%a2],%d2
800096a0:	9a 1e       	add %d15,%d14,1
800096a2:	6c 30       	st.w [%a3]0,%d15
800096a4:	99 a2 08 00 	ld.a %a2,[%sp]8
800096a8:	bc f2       	jz.a %a15,800096ac <_dtoa_r+0xa34>
800096aa:	68 0a       	st.w [%a15]0,%d10
800096ac:	00 90       	ret 
	...

800096b0 <__env_lock>:
800096b0:	00 90       	ret 

800096b2 <__env_unlock>:
800096b2:	00 90       	ret 

800096b4 <__sflags>:
800096b4:	79 5f 00 00 	ld.b %d15,[%a5]0
800096b8:	8b 2f 07 22 	eq %d2,%d15,114
800096bc:	df 02 12 80 	jne %d2,0,800096e0 <__sflags+0x2c>
800096c0:	8b 7f 07 22 	eq %d2,%d15,119
800096c4:	f6 28       	jnz %d2,800096d4 <__sflags+0x20>
800096c6:	8b 1f 06 f2 	eq %d15,%d15,97
800096ca:	ee 0e       	jnz %d15,800096e6 <__sflags+0x32>
800096cc:	da 16       	mov %d15,22
800096ce:	6c 40       	st.w [%a4]0,%d15
800096d0:	82 02       	mov %d2,0
800096d2:	00 90       	ret 
800096d4:	3b 00 60 f0 	mov %d15,1536
800096d8:	82 13       	mov %d3,1
800096da:	3b 80 00 20 	mov %d2,8
800096de:	3c 09       	j 800096f0 <__sflags+0x3c>
800096e0:	82 0f       	mov %d15,0
800096e2:	d2 42       	mov %e2,4
800096e4:	3c 06       	j 800096f0 <__sflags+0x3c>
800096e6:	3b 80 20 f0 	mov %d15,520
800096ea:	82 13       	mov %d3,1
800096ec:	3b 80 10 20 	mov %d2,264
800096f0:	79 54 01 00 	ld.b %d4,[%a5]1
800096f4:	76 4c       	jz %d4,8000970c <__sflags+0x58>
800096f6:	8b b4 02 42 	eq %d4,%d4,43
800096fa:	f6 46       	jnz %d4,80009706 <__sflags+0x52>
800096fc:	79 54 02 00 	ld.b %d4,[%a5]2
80009700:	8b b4 22 42 	ne %d4,%d4,43
80009704:	f6 44       	jnz %d4,8000970c <__sflags+0x58>
80009706:	b7 42 03 21 	insert %d2,%d2,4,2,3
8000970a:	82 23       	mov %d3,2
8000970c:	a6 3f       	or %d15,%d3
8000970e:	6c 60       	st.w [%a6]0,%d15
80009710:	00 90       	ret 

80009712 <__sfvwrite_r>:
80009712:	4c 62       	ld.w %d15,[%a6]8
80009714:	ee 03       	jnz %d15,8000971a <__sfvwrite_r+0x8>
80009716:	82 02       	mov %d2,0
80009718:	00 90       	ret 
8000971a:	8c 56       	ld.h %d15,[%a5]12
8000971c:	40 6d       	mov.aa %a13,%a6
8000971e:	40 5f       	mov.aa %a15,%a5
80009720:	40 4c       	mov.aa %a12,%a4
80009722:	2e 33       	jz.t %d15,3,80009728 <__sfvwrite_r+0x16>
80009724:	4c 54       	ld.w %d15,[%a5]16
80009726:	ee 0d       	jnz %d15,80009740 <__sfvwrite_r+0x2e>
80009728:	40 c4       	mov.aa %a4,%a12
8000972a:	40 f5       	mov.aa %a5,%a15
8000972c:	6d ff 77 f9 	call 80008a1a <__swsetup_r>
80009730:	76 28       	jz %d2,80009740 <__sfvwrite_r+0x2e>
80009732:	8c f6       	ld.h %d15,[%a15]12
80009734:	96 40       	or %d15,64
80009736:	a8 6f       	st.h [%a15]12,%d15
80009738:	da 09       	mov %d15,9
8000973a:	6c c0       	st.w [%a12]0,%d15
8000973c:	1d 00 1f 01 	j 8000997a <__sfvwrite_r+0x268>
80009740:	8c f6       	ld.h %d15,[%a15]12
80009742:	d4 de       	ld.a %a14,[%a13]
80009744:	6f 1f 1f 00 	jz.t %d15,1,80009782 <__sfvwrite_r+0x70>
80009748:	d2 08       	mov %e8,0
8000974a:	f6 97       	jnz %d9,80009758 <__sfvwrite_r+0x46>
8000974c:	54 e8       	ld.w %d8,[%a14]
8000974e:	19 e9 04 00 	ld.w %d9,[%a14]4
80009752:	d9 ee 08 00 	lea %a14,[%a14]8
80009756:	3c fa       	j 8000974a <__sfvwrite_r+0x38>
80009758:	c8 92       	ld.a %a2,[%a15]36
8000975a:	c8 75       	ld.a %a5,[%a15]28
8000975c:	3b 00 40 20 	mov %d2,1024
80009760:	60 86       	mov.a %a6,%d8
80009762:	40 c4       	mov.aa %a4,%a12
80009764:	0b 29 90 41 	min.u %d4,%d9,%d2
80009768:	2d 02 00 00 	calli %a2
8000976c:	bf 12 04 01 	jlt %d2,1,80009974 <__sfvwrite_r+0x262>
80009770:	4c d2       	ld.w %d15,[%a13]8
80009772:	42 28       	add %d8,%d2
80009774:	a2 29       	sub %d9,%d2
80009776:	52 22       	sub %d2,%d15,%d2
80009778:	59 d2 08 00 	st.w [%a13]8,%d2
8000977c:	df 02 e7 ff 	jne %d2,0,8000974a <__sfvwrite_r+0x38>
80009780:	3c cb       	j 80009716 <__sfvwrite_r+0x4>
80009782:	2e 07       	jz.t %d15,0,80009790 <__sfvwrite_r+0x7e>
80009784:	82 0b       	mov %d11,0
80009786:	82 0c       	mov %d12,0
80009788:	82 08       	mov %d8,0
8000978a:	82 0a       	mov %d10,0
8000978c:	1d 00 bd 00 	j 80009906 <__sfvwrite_r+0x1f4>
80009790:	82 0a       	mov %d10,0
80009792:	82 09       	mov %d9,0
80009794:	3b 00 48 c0 	mov %d12,1152
80009798:	82 2e       	mov %d14,2
8000979a:	3b f0 b7 df 	mov %d13,-1153
8000979e:	f6 97       	jnz %d9,800097ac <__sfvwrite_r+0x9a>
800097a0:	54 ea       	ld.w %d10,[%a14]
800097a2:	19 e9 04 00 	ld.w %d9,[%a14]4
800097a6:	d9 ee 08 00 	lea %a14,[%a14]8
800097aa:	3c fa       	j 8000979e <__sfvwrite_r+0x8c>
800097ac:	88 62       	ld.h %d2,[%a15]12
800097ae:	48 28       	ld.w %d8,[%a15]8
800097b0:	6f 92 4c 00 	jz.t %d2,9,80009848 <__sfvwrite_r+0x136>
800097b4:	3f 89 3c 80 	jlt.u %d9,%d8,8000982c <__sfvwrite_r+0x11a>
800097b8:	0f c2 80 f0 	and %d15,%d2,%d12
800097bc:	6e 36       	jz %d15,80009828 <__sfvwrite_r+0x116>
800097be:	c8 45       	ld.a %a5,[%a15]16
800097c0:	48 5b       	ld.w %d11,[%a15]20
800097c2:	4c f0       	ld.w %d15,[%a15]0
800097c4:	53 3b 20 b0 	mul %d11,%d11,3
800097c8:	80 53       	mov.d %d3,%a5
800097ca:	40 c4       	mov.aa %a4,%a12
800097cc:	a2 3f       	sub %d15,%d3
800097ce:	4b eb 01 62 	div %e6,%d11,%d14
800097d2:	92 13       	add %d3,%d15,1
800097d4:	42 93       	add %d3,%d9
800097d6:	0b 36 b0 b1 	max.u %d11,%d6,%d3
800097da:	02 b4       	mov %d4,%d11
800097dc:	6f a2 12 00 	jz.t %d2,10,80009800 <__sfvwrite_r+0xee>
800097e0:	6d ff 72 eb 	call 80006ec4 <_malloc_r>
800097e4:	80 28       	mov.d %d8,%a2
800097e6:	df 08 15 00 	jeq %d8,0,80009810 <__sfvwrite_r+0xfe>
800097ea:	c8 45       	ld.a %a5,[%a15]16
800097ec:	40 24       	mov.aa %a4,%a2
800097ee:	02 f4       	mov %d4,%d15
800097f0:	6d ff e4 e3 	call 80005fb8 <memcpy>
800097f4:	88 62       	ld.h %d2,[%a15]12
800097f6:	26 d2       	and %d2,%d13
800097f8:	8f 02 48 21 	or %d2,%d2,128
800097fc:	a8 62       	st.h [%a15]12,%d2
800097fe:	3c 0d       	j 80009818 <__sfvwrite_r+0x106>
80009800:	6d 00 d0 03 	call 80009fa0 <_realloc_r>
80009804:	80 28       	mov.d %d8,%a2
80009806:	f6 89       	jnz %d8,80009818 <__sfvwrite_r+0x106>
80009808:	c8 45       	ld.a %a5,[%a15]16
8000980a:	40 c4       	mov.aa %a4,%a12
8000980c:	6d ff b5 e7 	call 80006776 <_free_r>
80009810:	da 0c       	mov %d15,12
80009812:	6c c0       	st.w [%a12]0,%d15
80009814:	1d 00 b0 00 	j 80009974 <__sfvwrite_r+0x262>
80009818:	60 83       	mov.a %a3,%d8
8000981a:	10 32       	addsc.a %a2,%a3,%d15,0
8000981c:	68 5b       	st.w [%a15]20,%d11
8000981e:	a2 fb       	sub %d11,%d15
80009820:	68 48       	st.w [%a15]16,%d8
80009822:	e8 02       	st.a [%a15]0,%a2
80009824:	02 98       	mov %d8,%d9
80009826:	68 2b       	st.w [%a15]8,%d11
80009828:	7f 89 03 80 	jge.u %d9,%d8,8000982e <__sfvwrite_r+0x11c>
8000982c:	02 98       	mov %d8,%d9
8000982e:	c8 04       	ld.a %a4,[%a15]0
80009830:	60 a5       	mov.a %a5,%d10
80009832:	02 84       	mov %d4,%d8
80009834:	6d 00 d4 00 	call 800099dc <memmove>
80009838:	4c f2       	ld.w %d15,[%a15]8
8000983a:	48 02       	ld.w %d2,[%a15]0
8000983c:	a2 8f       	sub %d15,%d8
8000983e:	42 28       	add %d8,%d2
80009840:	68 08       	st.w [%a15]0,%d8
80009842:	68 2f       	st.w [%a15]8,%d15
80009844:	02 98       	mov %d8,%d9
80009846:	3c 2e       	j 800098a2 <__sfvwrite_r+0x190>
80009848:	c8 04       	ld.a %a4,[%a15]0
8000984a:	4c f4       	ld.w %d15,[%a15]16
8000984c:	80 43       	mov.d %d3,%a4
8000984e:	7f 3f 13 80 	jge.u %d15,%d3,80009874 <__sfvwrite_r+0x162>
80009852:	7f 98 11 80 	jge.u %d8,%d9,80009874 <__sfvwrite_r+0x162>
80009856:	60 a5       	mov.a %a5,%d10
80009858:	02 84       	mov %d4,%d8
8000985a:	6d 00 c1 00 	call 800099dc <memmove>
8000985e:	4c f0       	ld.w %d15,[%a15]0
80009860:	40 c4       	mov.aa %a4,%a12
80009862:	42 8f       	add %d15,%d8
80009864:	68 0f       	st.w [%a15]0,%d15
80009866:	40 f5       	mov.aa %a5,%a15
80009868:	6d ff 15 e5 	call 80006292 <_fflush_r>
8000986c:	df 02 1b 00 	jeq %d2,0,800098a2 <__sfvwrite_r+0x190>
80009870:	1d 00 82 00 	j 80009974 <__sfvwrite_r+0x262>
80009874:	48 54       	ld.w %d4,[%a15]20
80009876:	3f 49 0b 80 	jlt.u %d9,%d4,8000988c <__sfvwrite_r+0x17a>
8000987a:	c8 92       	ld.a %a2,[%a15]36
8000987c:	c8 75       	ld.a %a5,[%a15]28
8000987e:	60 a6       	mov.a %a6,%d10
80009880:	40 c4       	mov.aa %a4,%a12
80009882:	2d 02 00 00 	calli %a2
80009886:	02 28       	mov %d8,%d2
80009888:	4e 2d       	jgtz %d2,800098a2 <__sfvwrite_r+0x190>
8000988a:	3c 75       	j 80009974 <__sfvwrite_r+0x262>
8000988c:	60 a5       	mov.a %a5,%d10
8000988e:	02 94       	mov %d4,%d9
80009890:	6d 00 a6 00 	call 800099dc <memmove>
80009894:	4c f2       	ld.w %d15,[%a15]8
80009896:	02 98       	mov %d8,%d9
80009898:	a2 9f       	sub %d15,%d9
8000989a:	68 2f       	st.w [%a15]8,%d15
8000989c:	4c f0       	ld.w %d15,[%a15]0
8000989e:	42 9f       	add %d15,%d9
800098a0:	68 0f       	st.w [%a15]0,%d15
800098a2:	4c d2       	ld.w %d15,[%a13]8
800098a4:	42 8a       	add %d10,%d8
800098a6:	a2 89       	sub %d9,%d8
800098a8:	52 88       	sub %d8,%d15,%d8
800098aa:	59 d8 08 00 	st.w [%a13]8,%d8
800098ae:	df 08 78 ff 	jne %d8,0,8000979e <__sfvwrite_r+0x8c>
800098b2:	1d ff 32 ff 	j 80009716 <__sfvwrite_r+0x4>
800098b6:	df 0c 31 00 	jeq %d12,0,80009918 <__sfvwrite_r+0x206>
800098ba:	c8 04       	ld.a %a4,[%a15]0
800098bc:	48 54       	ld.w %d4,[%a15]20
800098be:	4c f2       	ld.w %d15,[%a15]8
800098c0:	48 43       	ld.w %d3,[%a15]16
800098c2:	80 45       	mov.d %d5,%a4
800098c4:	0b ab 90 91 	min.u %d9,%d11,%d10
800098c8:	42 4f       	add %d15,%d4
800098ca:	0b 53 30 21 	lt.u %d2,%d3,%d5
800098ce:	0b 9f 20 22 	and.lt %d2,%d15,%d9
800098d2:	df 02 32 00 	jeq %d2,0,80009936 <__sfvwrite_r+0x224>
800098d6:	60 85       	mov.a %a5,%d8
800098d8:	02 f4       	mov %d4,%d15
800098da:	6d 00 81 00 	call 800099dc <memmove>
800098de:	48 02       	ld.w %d2,[%a15]0
800098e0:	40 c4       	mov.aa %a4,%a12
800098e2:	42 f2       	add %d2,%d15
800098e4:	68 02       	st.w [%a15]0,%d2
800098e6:	40 f5       	mov.aa %a5,%a15
800098e8:	6d ff d5 e4 	call 80006292 <_fflush_r>
800098ec:	df 02 44 80 	jne %d2,0,80009974 <__sfvwrite_r+0x262>
800098f0:	a2 fb       	sub %d11,%d15
800098f2:	df 0b 3a 00 	jeq %d11,0,80009966 <__sfvwrite_r+0x254>
800098f6:	19 d2 08 00 	ld.w %d2,[%a13]8
800098fa:	42 f8       	add %d8,%d15
800098fc:	a2 fa       	sub %d10,%d15
800098fe:	5a f2       	sub %d15,%d2,%d15
80009900:	6c d2       	st.w [%a13]8,%d15
80009902:	df 0f 0a 7f 	jeq %d15,0,80009716 <__sfvwrite_r+0x4>
80009906:	df 0a d8 ff 	jne %d10,0,800098b6 <__sfvwrite_r+0x1a4>
8000990a:	54 e8       	ld.w %d8,[%a14]
8000990c:	19 ea 04 00 	ld.w %d10,[%a14]4
80009910:	82 0c       	mov %d12,0
80009912:	d9 ee 08 00 	lea %a14,[%a14]8
80009916:	3c f8       	j 80009906 <__sfvwrite_r+0x1f4>
80009918:	60 84       	mov.a %a4,%d8
8000991a:	3b a0 00 40 	mov %d4,10
8000991e:	02 a5       	mov %d5,%d10
80009920:	6d 00 52 00 	call 800099c4 <memchr>
80009924:	1b 1a 00 b0 	addi %d11,%d10,1
80009928:	82 1c       	mov %d12,1
8000992a:	bd 02 c8 7f 	jz.a %a2,800098ba <__sfvwrite_r+0x1a8>
8000992e:	b0 12       	add.a %a2,1
80009930:	80 2b       	mov.d %d11,%a2
80009932:	a2 8b       	sub %d11,%d8
80009934:	3c c3       	j 800098ba <__sfvwrite_r+0x1a8>
80009936:	3f 49 0c 00 	jlt %d9,%d4,8000994e <__sfvwrite_r+0x23c>
8000993a:	c8 92       	ld.a %a2,[%a15]36
8000993c:	c8 75       	ld.a %a5,[%a15]28
8000993e:	60 86       	mov.a %a6,%d8
80009940:	40 c4       	mov.aa %a4,%a12
80009942:	2d 02 00 00 	calli %a2
80009946:	02 2f       	mov %d15,%d2
80009948:	ff 12 d4 7f 	jge %d2,1,800098f0 <__sfvwrite_r+0x1de>
8000994c:	3c 14       	j 80009974 <__sfvwrite_r+0x262>
8000994e:	60 85       	mov.a %a5,%d8
80009950:	02 94       	mov %d4,%d9
80009952:	6d 00 45 00 	call 800099dc <memmove>
80009956:	4c f2       	ld.w %d15,[%a15]8
80009958:	a2 9f       	sub %d15,%d9
8000995a:	68 2f       	st.w [%a15]8,%d15
8000995c:	4c f0       	ld.w %d15,[%a15]0
8000995e:	42 9f       	add %d15,%d9
80009960:	68 0f       	st.w [%a15]0,%d15
80009962:	02 9f       	mov %d15,%d9
80009964:	3c c6       	j 800098f0 <__sfvwrite_r+0x1de>
80009966:	40 c4       	mov.aa %a4,%a12
80009968:	40 f5       	mov.aa %a5,%a15
8000996a:	6d ff 94 e4 	call 80006292 <_fflush_r>
8000996e:	f6 23       	jnz %d2,80009974 <__sfvwrite_r+0x262>
80009970:	82 0c       	mov %d12,0
80009972:	3c c2       	j 800098f6 <__sfvwrite_r+0x1e4>
80009974:	8c f6       	ld.h %d15,[%a15]12
80009976:	96 40       	or %d15,64
80009978:	a8 6f       	st.h [%a15]12,%d15
8000997a:	82 f2       	mov %d2,-1
8000997c:	00 90       	ret 

8000997e <_isatty_r>:
8000997e:	91 00 00 c7 	movh.a %a12,28672
80009982:	82 0f       	mov %d15,0
80009984:	40 4f       	mov.aa %a15,%a4
80009986:	59 cf 70 b7 	st.w [%a12]30448 <700076f0 <errno>>,%d15
8000998a:	6d 00 5f 05 	call 8000a448 <isatty>
8000998e:	df f2 06 80 	jne %d2,-1,8000999a <_isatty_r+0x1c>
80009992:	19 cf 70 b7 	ld.w %d15,[%a12]30448 <700076f0 <errno>>
80009996:	6e 02       	jz %d15,8000999a <_isatty_r+0x1c>
80009998:	68 0f       	st.w [%a15]0,%d15
8000999a:	00 90       	ret 

8000999c <_localeconv_r>:
8000999c:	91 10 00 28 	movh.a %a2,32769
800099a0:	d9 22 fc ca 	lea %a2,[%a2]-20676 <8000af3c <lconv>>
800099a4:	00 90       	ret 

800099a6 <_lseek_r>:
800099a6:	91 00 00 c7 	movh.a %a12,28672
800099aa:	82 0f       	mov %d15,0
800099ac:	40 4f       	mov.aa %a15,%a4
800099ae:	59 cf 70 b7 	st.w [%a12]30448 <700076f0 <errno>>,%d15
800099b2:	6d 00 62 05 	call 8000a476 <lseek>
800099b6:	df f2 06 80 	jne %d2,-1,800099c2 <_lseek_r+0x1c>
800099ba:	19 cf 70 b7 	ld.w %d15,[%a12]30448 <700076f0 <errno>>
800099be:	6e 02       	jz %d15,800099c2 <_lseek_r+0x1c>
800099c0:	68 0f       	st.w [%a15]0,%d15
800099c2:	00 90       	ret 

800099c4 <memchr>:
800099c4:	8f f4 0f 41 	and %d4,%d4,255
800099c8:	9f 05 04 80 	jned %d5,0,800099d0 <memchr+0xc>
800099cc:	a0 02       	mov.a %a2,0
800099ce:	00 90       	ret 
800099d0:	0c 40       	ld.bu %d15,[%a4]0
800099d2:	3e 43       	jeq %d15,%d4,800099d8 <memchr+0x14>
800099d4:	b0 14       	add.a %a4,1
800099d6:	3c f9       	j 800099c8 <memchr+0x4>
800099d8:	40 42       	mov.aa %a2,%a4
800099da:	00 90       	ret 

800099dc <memmove>:
800099dc:	80 46       	mov.d %d6,%a4
800099de:	80 52       	mov.d %d2,%a5
800099e0:	7f 62 16 80 	jge.u %d2,%d6,80009a0c <memmove+0x30>
800099e4:	0b 42 00 50 	add %d5,%d2,%d4
800099e8:	7f 56 12 80 	jge.u %d6,%d5,80009a0c <memmove+0x30>
800099ec:	60 4f       	mov.a %a15,%d4
800099ee:	02 42       	mov %d2,%d4
800099f0:	c2 f2       	add %d2,-1
800099f2:	fd f0 03 00 	loop %a15,800099f8 <memmove+0x1c>
800099f6:	3c 19       	j 80009a28 <memmove+0x4c>
800099f8:	5a 42       	sub %d15,%d2,%d4
800099fa:	60 f2       	mov.a %a2,%d15
800099fc:	01 25 00 26 	addsc.a %a2,%a2,%d5,0
80009a00:	1a 62       	add %d15,%d2,%d6
80009a02:	79 23 00 00 	ld.b %d3,[%a2]0
80009a06:	60 f2       	mov.a %a2,%d15
80009a08:	34 23       	st.b [%a2],%d3
80009a0a:	3c f3       	j 800099f0 <memmove+0x14>
80009a0c:	60 4f       	mov.a %a15,%d4
80009a0e:	a0 02       	mov.a %a2,0
80009a10:	01 26 00 46 	addsc.a %a4,%a2,%d6,0
80009a14:	01 22 00 36 	addsc.a %a3,%a2,%d2,0
80009a18:	fd f0 03 00 	loop %a15,80009a1e <memmove+0x42>
80009a1c:	3c 06       	j 80009a28 <memmove+0x4c>
80009a1e:	79 33 00 00 	ld.b %d3,[%a3]0
80009a22:	b0 12       	add.a %a2,1
80009a24:	34 43       	st.b [%a4],%d3
80009a26:	3c f5       	j 80009a10 <memmove+0x34>
80009a28:	60 62       	mov.a %a2,%d6
80009a2a:	00 90       	ret 

80009a2c <_Balloc>:
80009a2c:	19 42 0c 10 	ld.w %d2,[%a4]76
80009a30:	40 4f       	mov.aa %a15,%a4
80009a32:	02 4f       	mov %d15,%d4
80009a34:	76 29       	jz %d2,80009a46 <_Balloc+0x1a>
80009a36:	99 f3 0c 10 	ld.a %a3,[%a15]76
80009a3a:	90 33       	addsc.a %a3,%a3,%d15,2
80009a3c:	d4 32       	ld.a %a2,[%a3]
80009a3e:	bc 2f       	jz.a %a2,80009a5c <_Balloc+0x30>
80009a40:	4c 20       	ld.w %d15,[%a2]0
80009a42:	6c 30       	st.w [%a3]0,%d15
80009a44:	3c 1b       	j 80009a7a <_Balloc+0x4e>
80009a46:	82 44       	mov %d4,4
80009a48:	3b 10 02 50 	mov %d5,33
80009a4c:	6d 00 c8 04 	call 8000a3dc <_calloc_r>
80009a50:	b5 f2 0c 10 	st.a [%a15]76,%a2
80009a54:	bd 02 f1 ff 	jnz.a %a2,80009a36 <_Balloc+0xa>
80009a58:	a0 02       	mov.a %a2,0
80009a5a:	00 90       	ret 
80009a5c:	82 18       	mov %d8,1
80009a5e:	0f f8 00 80 	sh %d8,%d8,%d15
80009a62:	1b 58 00 50 	addi %d5,%d8,5
80009a66:	40 f4       	mov.aa %a4,%a15
80009a68:	82 14       	mov %d4,1
80009a6a:	06 25       	sh %d5,2
80009a6c:	6d 00 b8 04 	call 8000a3dc <_calloc_r>
80009a70:	bd 02 f4 7f 	jz.a %a2,80009a58 <_Balloc+0x2c>
80009a74:	6c 21       	st.w [%a2]4,%d15
80009a76:	59 28 08 00 	st.w [%a2]8,%d8
80009a7a:	82 0f       	mov %d15,0
80009a7c:	6c 24       	st.w [%a2]16,%d15
80009a7e:	6c 23       	st.w [%a2]12,%d15
80009a80:	00 90       	ret 

80009a82 <_Bfree>:
80009a82:	bc 58       	jz.a %a5,80009a92 <_Bfree+0x10>
80009a84:	99 4f 0c 10 	ld.a %a15,[%a4]76
80009a88:	4c 51       	ld.w %d15,[%a5]4
80009a8a:	90 ff       	addsc.a %a15,%a15,%d15,2
80009a8c:	4c f0       	ld.w %d15,[%a15]0
80009a8e:	6c 50       	st.w [%a5]0,%d15
80009a90:	e8 05       	st.a [%a15]0,%a5
80009a92:	00 90       	ret 

80009a94 <__multadd>:
80009a94:	19 59 10 00 	ld.w %d9,[%a5]16
80009a98:	40 4c       	mov.aa %a12,%a4
80009a9a:	9a f9       	add %d15,%d9,-1
80009a9c:	8b 19 80 22 	ge %d2,%d9,1
80009aa0:	40 5f       	mov.aa %a15,%a5
80009aa2:	02 58       	mov %d8,%d5
80009aa4:	d9 53 14 00 	lea %a3,[%a5]20
80009aa8:	ab 0f 80 22 	sel %d2,%d2,%d15,0
80009aac:	40 32       	mov.aa %a2,%a3
80009aae:	44 25       	ld.w %d5,[%a2+]
80009ab0:	b7 05 10 38 	insert %d3,%d5,0,16,16
80009ab4:	8f 05 1f f0 	sh %d15,%d5,-16
80009ab8:	03 43 0a 38 	madd %d3,%d8,%d3,%d4
80009abc:	8f 03 1f 60 	sh %d6,%d3,-16
80009ac0:	03 4f 0a f6 	madd %d15,%d6,%d15,%d4
80009ac4:	37 f3 10 38 	insert %d3,%d3,%d15,16,16
80009ac8:	8f 0f 1f 80 	sh %d8,%d15,-16
80009acc:	74 33       	st.w [%a3],%d3
80009ace:	40 23       	mov.aa %a3,%a2
80009ad0:	9f 02 ee ff 	jned %d2,0,80009aac <__multadd+0x18>
80009ad4:	df 08 1f 00 	jeq %d8,0,80009b12 <__multadd+0x7e>
80009ad8:	4c f2       	ld.w %d15,[%a15]8
80009ada:	3f f9 16 00 	jlt %d9,%d15,80009b06 <__multadd+0x72>
80009ade:	48 14       	ld.w %d4,[%a15]4
80009ae0:	40 c4       	mov.aa %a4,%a12
80009ae2:	c2 14       	add %d4,1
80009ae4:	6d ff a4 ff 	call 80009a2c <_Balloc>
80009ae8:	48 44       	ld.w %d4,[%a15]16
80009aea:	d9 f5 0c 00 	lea %a5,[%a15]12
80009aee:	c2 24       	add %d4,2
80009af0:	d9 24 0c 00 	lea %a4,[%a2]12
80009af4:	06 24       	sh %d4,2
80009af6:	40 2d       	mov.aa %a13,%a2
80009af8:	6d ff 60 e2 	call 80005fb8 <memcpy>
80009afc:	40 f5       	mov.aa %a5,%a15
80009afe:	40 c4       	mov.aa %a4,%a12
80009b00:	6d ff c1 ff 	call 80009a82 <_Bfree>
80009b04:	40 df       	mov.aa %a15,%a13
80009b06:	01 f9 02 26 	addsc.a %a2,%a15,%d9,2
80009b0a:	c2 19       	add %d9,1
80009b0c:	59 28 14 00 	st.w [%a2]20,%d8
80009b10:	68 49       	st.w [%a15]16,%d9
80009b12:	40 f2       	mov.aa %a2,%a15
80009b14:	00 90       	ret 

80009b16 <__hi0bits>:
80009b16:	b7 04 10 f0 	insert %d15,%d4,0,0,16
80009b1a:	82 02       	mov %d2,0
80009b1c:	ee 05       	jnz %d15,80009b26 <__hi0bits+0x10>
80009b1e:	8f 04 01 40 	sh %d4,%d4,16
80009b22:	3b 00 01 20 	mov %d2,16
80009b26:	b7 04 18 f0 	insert %d15,%d4,0,0,24
80009b2a:	ee 05       	jnz %d15,80009b34 <__hi0bits+0x1e>
80009b2c:	1b 82 00 20 	addi %d2,%d2,8
80009b30:	8f 84 00 40 	sh %d4,%d4,8
80009b34:	b7 04 1c f0 	insert %d15,%d4,0,0,28
80009b38:	ee 03       	jnz %d15,80009b3e <__hi0bits+0x28>
80009b3a:	c2 42       	add %d2,4
80009b3c:	06 44       	sh %d4,4
80009b3e:	b7 04 1e f0 	insert %d15,%d4,0,0,30
80009b42:	ee 03       	jnz %d15,80009b48 <__hi0bits+0x32>
80009b44:	c2 22       	add %d2,2
80009b46:	06 24       	sh %d4,2
80009b48:	0e 47       	jltz %d4,80009b56 <__hi0bits+0x40>
80009b4a:	7b 00 00 f4 	movh %d15,16384
80009b4e:	26 f4       	and %d4,%d15
80009b50:	c2 12       	add %d2,1
80009b52:	ab 02 82 24 	sel %d2,%d4,%d2,32
80009b56:	00 90       	ret 

80009b58 <__lo0bits>:
80009b58:	54 43       	ld.w %d3,[%a4]
80009b5a:	8f 73 00 f1 	and %d15,%d3,7
80009b5e:	6e 0e       	jz %d15,80009b7a <__lo0bits+0x22>
80009b60:	82 02       	mov %d2,0
80009b62:	6f 03 2d 80 	jnz.t %d3,0,80009bbc <__lo0bits+0x64>
80009b66:	6f 13 06 00 	jz.t %d3,1,80009b72 <__lo0bits+0x1a>
80009b6a:	06 f3       	sh %d3,-1
80009b6c:	74 43       	st.w [%a4],%d3
80009b6e:	82 12       	mov %d2,1
80009b70:	00 90       	ret 
80009b72:	06 e3       	sh %d3,-2
80009b74:	74 43       	st.w [%a4],%d3
80009b76:	82 22       	mov %d2,2
80009b78:	00 90       	ret 
80009b7a:	b7 03 10 f8 	insert %d15,%d3,0,16,16
80009b7e:	82 04       	mov %d4,0
80009b80:	ee 05       	jnz %d15,80009b8a <__lo0bits+0x32>
80009b82:	8f 03 1f 30 	sh %d3,%d3,-16
80009b86:	3b 00 01 40 	mov %d4,16
80009b8a:	02 3f       	mov %d15,%d3
80009b8c:	16 ff       	and %d15,255
80009b8e:	ee 04       	jnz %d15,80009b96 <__lo0bits+0x3e>
80009b90:	1b 84 00 40 	addi %d4,%d4,8
80009b94:	06 83       	sh %d3,-8
80009b96:	8f f3 00 f1 	and %d15,%d3,15
80009b9a:	ee 03       	jnz %d15,80009ba0 <__lo0bits+0x48>
80009b9c:	c2 44       	add %d4,4
80009b9e:	06 c3       	sh %d3,-4
80009ba0:	8f 33 00 f1 	and %d15,%d3,3
80009ba4:	ee 03       	jnz %d15,80009baa <__lo0bits+0x52>
80009ba6:	c2 24       	add %d4,2
80009ba8:	06 e3       	sh %d3,-2
80009baa:	6f 03 07 80 	jnz.t %d3,0,80009bb8 <__lo0bits+0x60>
80009bae:	06 f3       	sh %d3,-1
80009bb0:	3b 00 02 20 	mov %d2,32
80009bb4:	76 34       	jz %d3,80009bbc <__lo0bits+0x64>
80009bb6:	c2 14       	add %d4,1
80009bb8:	74 43       	st.w [%a4],%d3
80009bba:	02 42       	mov %d2,%d4
80009bbc:	00 90       	ret 

80009bbe <__i2b>:
80009bbe:	02 4f       	mov %d15,%d4
80009bc0:	82 14       	mov %d4,1
80009bc2:	6d ff 35 ff 	call 80009a2c <_Balloc>
80009bc6:	6c 25       	st.w [%a2]20,%d15
80009bc8:	82 1f       	mov %d15,1
80009bca:	6c 24       	st.w [%a2]16,%d15
80009bcc:	00 90       	ret 

80009bce <__multiply>:
80009bce:	19 52 10 00 	ld.w %d2,[%a5]16
80009bd2:	4c 64       	ld.w %d15,[%a6]16
80009bd4:	40 5f       	mov.aa %a15,%a5
80009bd6:	40 6c       	mov.aa %a12,%a6
80009bd8:	7f f2 04 00 	jge %d2,%d15,80009be0 <__multiply+0x12>
80009bdc:	40 6f       	mov.aa %a15,%a6
80009bde:	40 5c       	mov.aa %a12,%a5
80009be0:	48 4a       	ld.w %d10,[%a15]16
80009be2:	19 c9 10 00 	ld.w %d9,[%a12]16
80009be6:	4c f2       	ld.w %d15,[%a15]8
80009be8:	0b 9a 00 80 	add %d8,%d10,%d9
80009bec:	48 12       	ld.w %d2,[%a15]4
80009bee:	0b 8f 20 41 	lt %d4,%d15,%d8
80009bf2:	42 24       	add %d4,%d2
80009bf4:	6d ff 1c ff 	call 80009a2c <_Balloc>
80009bf8:	d9 23 14 00 	lea %a3,[%a2]20
80009bfc:	01 38 02 d6 	addsc.a %a13,%a3,%d8,2
80009c00:	40 34       	mov.aa %a4,%a3
80009c02:	82 0f       	mov %d15,0
80009c04:	80 43       	mov.d %d3,%a4
80009c06:	80 d2       	mov.d %d2,%a13
80009c08:	7f 23 04 80 	jge.u %d3,%d2,80009c10 <__multiply+0x42>
80009c0c:	64 4f       	st.w [%a4+],%d15
80009c0e:	3c fb       	j 80009c04 <__multiply+0x36>
80009c10:	d9 ff 14 00 	lea %a15,[%a15]20
80009c14:	d9 cc 14 00 	lea %a12,[%a12]20
80009c18:	80 f3       	mov.d %d3,%a15
80009c1a:	80 cf       	mov.d %d15,%a12
80009c1c:	13 4a 20 43 	madd %d4,%d3,%d10,4
80009c20:	13 49 20 0f 	madd %d0,%d15,%d9,4
80009c24:	80 c2       	mov.d %d2,%a12
80009c26:	7f 02 54 80 	jge.u %d2,%d0,80009cce <__multiply+0x100>
80009c2a:	b9 c2 00 00 	ld.hu %d2,[%a12]0
80009c2e:	40 34       	mov.aa %a4,%a3
80009c30:	40 f6       	mov.aa %a6,%a15
80009c32:	82 03       	mov %d3,0
80009c34:	df 02 21 00 	jeq %d2,0,80009c76 <__multiply+0xa8>
80009c38:	40 45       	mov.aa %a5,%a4
80009c3a:	44 67       	ld.w %d7,[%a6+]
80009c3c:	44 56       	ld.w %d6,[%a5+]
80009c3e:	b7 07 10 18 	insert %d1,%d7,0,16,16
80009c42:	b7 06 10 58 	insert %d5,%d6,0,16,16
80009c46:	8f 07 1f 70 	sh %d7,%d7,-16
80009c4a:	03 21 0a 55 	madd %d5,%d5,%d1,%d2
80009c4e:	8f 06 1f 60 	sh %d6,%d6,-16
80009c52:	03 27 0a 66 	madd %d6,%d6,%d7,%d2
80009c56:	42 35       	add %d5,%d3
80009c58:	8f 05 1f 30 	sh %d3,%d5,-16
80009c5c:	1a 36       	add %d15,%d6,%d3
80009c5e:	37 f5 10 58 	insert %d5,%d5,%d15,16,16
80009c62:	8f 0f 1f 30 	sh %d3,%d15,-16
80009c66:	80 6f       	mov.d %d15,%a6
80009c68:	74 45       	st.w [%a4],%d5
80009c6a:	7f 4f 04 80 	jge.u %d15,%d4,80009c72 <__multiply+0xa4>
80009c6e:	40 54       	mov.aa %a4,%a5
80009c70:	3c e4       	j 80009c38 <__multiply+0x6a>
80009c72:	59 43 04 00 	st.w [%a4]4,%d3
80009c76:	b9 c2 02 00 	ld.hu %d2,[%a12]2
80009c7a:	df 02 27 00 	jeq %d2,0,80009cc8 <__multiply+0xfa>
80009c7e:	54 33       	ld.w %d3,[%a3]
80009c80:	40 34       	mov.aa %a4,%a3
80009c82:	40 f5       	mov.aa %a5,%a15
80009c84:	82 07       	mov %d7,0
80009c86:	40 56       	mov.aa %a6,%a5
80009c88:	44 66       	ld.w %d6,[%a6+]
80009c8a:	40 47       	mov.aa %a7,%a4
80009c8c:	44 75       	ld.w %d5,[%a7+]
80009c8e:	b7 06 10 68 	insert %d6,%d6,0,16,16
80009c92:	8f 05 1f 50 	sh %d5,%d5,-16
80009c96:	03 26 0a f5 	madd %d15,%d5,%d6,%d2
80009c9a:	42 7f       	add %d15,%d7
80009c9c:	37 f3 10 38 	insert %d3,%d3,%d15,16,16
80009ca0:	8f 0f 1f f0 	sh %d15,%d15,-16
80009ca4:	74 43       	st.w [%a4],%d3
80009ca6:	b9 55 02 00 	ld.hu %d5,[%a5]2
80009caa:	b9 43 04 00 	ld.hu %d3,[%a4]4
80009cae:	40 65       	mov.aa %a5,%a6
80009cb0:	03 25 0a 33 	madd %d3,%d3,%d5,%d2
80009cb4:	42 f3       	add %d3,%d15
80009cb6:	80 6f       	mov.d %d15,%a6
80009cb8:	8f 03 1f 70 	sh %d7,%d3,-16
80009cbc:	7f 4f 04 80 	jge.u %d15,%d4,80009cc4 <__multiply+0xf6>
80009cc0:	40 74       	mov.aa %a4,%a7
80009cc2:	3c e2       	j 80009c86 <__multiply+0xb8>
80009cc4:	59 43 04 00 	st.w [%a4]4,%d3
80009cc8:	b0 4c       	add.a %a12,4
80009cca:	b0 43       	add.a %a3,4
80009ccc:	3c ac       	j 80009c24 <__multiply+0x56>
80009cce:	8b 08 40 f3 	max %d15,%d8,0
80009cd2:	9f 0f 05 80 	jned %d15,0,80009cdc <__multiply+0x10e>
80009cd6:	59 28 10 00 	st.w [%a2]16,%d8
80009cda:	00 90       	ret 
80009cdc:	09 d2 3c f5 	ld.w %d2,[+%a13]-4
80009ce0:	df 02 fb ff 	jne %d2,0,80009cd6 <__multiply+0x108>
80009ce4:	c2 f8       	add %d8,-1
80009ce6:	3c f6       	j 80009cd2 <__multiply+0x104>

80009ce8 <__pow5mult>:
80009ce8:	8f 34 00 21 	and %d2,%d4,3
80009cec:	40 4c       	mov.aa %a12,%a4
80009cee:	40 5d       	mov.aa %a13,%a5
80009cf0:	02 4f       	mov %d15,%d4
80009cf2:	76 2d       	jz %d2,80009d0c <__pow5mult+0x24>
80009cf4:	91 10 00 f8 	movh.a %a15,32769
80009cf8:	d9 ff f4 da 	lea %a15,[%a15]-20620 <8000af74 <p05.2420>>
80009cfc:	01 f2 02 f6 	addsc.a %a15,%a15,%d2,2
80009d00:	82 05       	mov %d5,0
80009d02:	19 f4 fc ff 	ld.w %d4,[%a15]-4
80009d06:	6d ff c7 fe 	call 80009a94 <__multadd>
80009d0a:	40 2d       	mov.aa %a13,%a2
80009d0c:	86 ef       	sha %d15,-2
80009d0e:	6e 29       	jz %d15,80009d60 <__pow5mult+0x78>
80009d10:	99 cf 08 10 	ld.a %a15,[%a12]72
80009d14:	7c fb       	jnz.a %a15,80009d2a <__pow5mult+0x42>
80009d16:	40 c4       	mov.aa %a4,%a12
80009d18:	3b 10 27 40 	mov %d4,625
80009d1c:	6d ff 51 ff 	call 80009bbe <__i2b>
80009d20:	82 02       	mov %d2,0
80009d22:	b5 c2 08 10 	st.a [%a12]72,%a2
80009d26:	40 2f       	mov.aa %a15,%a2
80009d28:	74 22       	st.w [%a2],%d2
80009d2a:	82 08       	mov %d8,0
80009d2c:	2e 0c       	jz.t %d15,0,80009d44 <__pow5mult+0x5c>
80009d2e:	40 d5       	mov.aa %a5,%a13
80009d30:	40 c4       	mov.aa %a4,%a12
80009d32:	40 f6       	mov.aa %a6,%a15
80009d34:	6d ff 4d ff 	call 80009bce <__multiply>
80009d38:	40 d5       	mov.aa %a5,%a13
80009d3a:	40 2e       	mov.aa %a14,%a2
80009d3c:	40 c4       	mov.aa %a4,%a12
80009d3e:	6d ff a2 fe 	call 80009a82 <_Bfree>
80009d42:	40 ed       	mov.aa %a13,%a14
80009d44:	86 ff       	sha %d15,-1
80009d46:	6e 0d       	jz %d15,80009d60 <__pow5mult+0x78>
80009d48:	c8 02       	ld.a %a2,[%a15]0
80009d4a:	bc 23       	jz.a %a2,80009d50 <__pow5mult+0x68>
80009d4c:	40 2f       	mov.aa %a15,%a2
80009d4e:	3c ef       	j 80009d2c <__pow5mult+0x44>
80009d50:	40 c4       	mov.aa %a4,%a12
80009d52:	40 f5       	mov.aa %a5,%a15
80009d54:	40 f6       	mov.aa %a6,%a15
80009d56:	6d ff 3c ff 	call 80009bce <__multiply>
80009d5a:	e8 02       	st.a [%a15]0,%a2
80009d5c:	74 28       	st.w [%a2],%d8
80009d5e:	3c f7       	j 80009d4c <__pow5mult+0x64>
80009d60:	40 d2       	mov.aa %a2,%a13
80009d62:	00 90       	ret 

80009d64 <__lshift>:
80009d64:	19 5b 10 00 	ld.w %d11,[%a5]16
80009d68:	8f b4 3f 80 	sha %d8,%d4,-5
80009d6c:	02 4a       	mov %d10,%d4
80009d6e:	42 8b       	add %d11,%d8
80009d70:	19 54 04 00 	ld.w %d4,[%a5]4
80009d74:	4c 52       	ld.w %d15,[%a5]8
80009d76:	40 4e       	mov.aa %a14,%a4
80009d78:	40 5c       	mov.aa %a12,%a5
80009d7a:	1b 1b 00 90 	addi %d9,%d11,1
80009d7e:	7f 9f 05 00 	jge %d15,%d9,80009d88 <__lshift+0x24>
80009d82:	c2 14       	add %d4,1
80009d84:	06 1f       	sh %d15,1
80009d86:	3c fc       	j 80009d7e <__lshift+0x1a>
80009d88:	40 e4       	mov.aa %a4,%a14
80009d8a:	6d ff 51 fe 	call 80009a2c <_Balloc>
80009d8e:	8b 08 40 f3 	max %d15,%d8,0
80009d92:	40 2d       	mov.aa %a13,%a2
80009d94:	d9 2f 14 00 	lea %a15,[%a2]20
80009d98:	d2 02       	mov %e2,0
80009d9a:	01 f2 02 26 	addsc.a %a2,%a15,%d2,2
80009d9e:	9f 0f 03 80 	jned %d15,0,80009da4 <__lshift+0x40>
80009da2:	3c 04       	j 80009daa <__lshift+0x46>
80009da4:	74 23       	st.w [%a2],%d3
80009da6:	c2 12       	add %d2,1
80009da8:	3c f9       	j 80009d9a <__lshift+0x36>
80009daa:	8b 08 40 83 	max %d8,%d8,0
80009dae:	01 f8 02 36 	addsc.a %a3,%a15,%d8,2
80009db2:	d9 cf 14 00 	lea %a15,[%a12]20
80009db6:	19 c2 10 00 	ld.w %d2,[%a12]16
80009dba:	80 f3       	mov.d %d3,%a15
80009dbc:	8f fa 01 41 	and %d4,%d10,31
80009dc0:	13 42 20 23 	madd %d2,%d3,%d2,4
80009dc4:	8b 04 02 51 	rsub %d5,%d4,32
80009dc8:	82 0f       	mov %d15,0
80009dca:	df 04 1a 00 	jeq %d4,0,80009dfe <__lshift+0x9a>
80009dce:	40 f5       	mov.aa %a5,%a15
80009dd0:	44 53       	ld.w %d3,[%a5+]
80009dd2:	d9 32 04 00 	lea %a2,[%a3]4
80009dd6:	0f 43 00 30 	sh %d3,%d3,%d4
80009dda:	a6 3f       	or %d15,%d3
80009ddc:	6c 30       	st.w [%a3]0,%d15
80009dde:	4c f0       	ld.w %d15,[%a15]0
80009de0:	8b 05 00 31 	rsub %d3,%d5,0
80009de4:	0f 3f 00 30 	sh %d3,%d15,%d3
80009de8:	02 3f       	mov %d15,%d3
80009dea:	80 53       	mov.d %d3,%a5
80009dec:	40 5f       	mov.aa %a15,%a5
80009dee:	7f 23 04 80 	jge.u %d3,%d2,80009df6 <__lshift+0x92>
80009df2:	40 23       	mov.aa %a3,%a2
80009df4:	3c ed       	j 80009dce <__lshift+0x6a>
80009df6:	c2 2b       	add %d11,2
80009df8:	6c 31       	st.w [%a3]4,%d15
80009dfa:	2a b9       	cmov %d9,%d15,%d11
80009dfc:	3c 08       	j 80009e0c <__lshift+0xa8>
80009dfe:	4c f0       	ld.w %d15,[%a15]0
80009e00:	b0 4f       	add.a %a15,4
80009e02:	80 f3       	mov.d %d3,%a15
80009e04:	6c 30       	st.w [%a3]0,%d15
80009e06:	b0 43       	add.a %a3,4
80009e08:	3f 23 fb ff 	jlt.u %d3,%d2,80009dfe <__lshift+0x9a>
80009e0c:	c2 f9       	add %d9,-1
80009e0e:	59 d9 10 00 	st.w [%a13]16,%d9
80009e12:	40 e4       	mov.aa %a4,%a14
80009e14:	40 c5       	mov.aa %a5,%a12
80009e16:	6d ff 36 fe 	call 80009a82 <_Bfree>
80009e1a:	40 d2       	mov.aa %a2,%a13
80009e1c:	00 90       	ret 

80009e1e <__mcmp>:
80009e1e:	4c 54       	ld.w %d15,[%a5]16
80009e20:	19 42 10 00 	ld.w %d2,[%a4]16
80009e24:	a2 f2       	sub %d2,%d15
80009e26:	df 02 1c 80 	jne %d2,0,80009e5e <__mcmp+0x40>
80009e2a:	80 42       	mov.d %d2,%a4
80009e2c:	06 2f       	sh %d15,2
80009e2e:	60 f2       	mov.a %a2,%d15
80009e30:	1b 42 01 30 	addi %d3,%d2,20
80009e34:	d9 55 14 00 	lea %a5,[%a5]20
80009e38:	01 23 00 f6 	addsc.a %a15,%a2,%d3,0
80009e3c:	30 25       	add.a %a5,%a2
80009e3e:	09 f2 3c f5 	ld.w %d2,[+%a15]-4
80009e42:	09 5f 3c f5 	ld.w %d15,[+%a5]-4
80009e46:	5f f2 08 00 	jeq %d2,%d15,80009e56 <__mcmp+0x38>
80009e4a:	0b f2 30 21 	lt.u %d2,%d2,%d15
80009e4e:	82 f3       	mov %d3,-1
80009e50:	ab 13 80 22 	sel %d2,%d2,%d3,1
80009e54:	00 90       	ret 
80009e56:	80 ff       	mov.d %d15,%a15
80009e58:	3f f3 f3 ff 	jlt.u %d3,%d15,80009e3e <__mcmp+0x20>
80009e5c:	82 02       	mov %d2,0
80009e5e:	00 90       	ret 

80009e60 <__mdiff>:
80009e60:	40 4d       	mov.aa %a13,%a4
80009e62:	40 5f       	mov.aa %a15,%a5
80009e64:	40 54       	mov.aa %a4,%a5
80009e66:	40 65       	mov.aa %a5,%a6
80009e68:	40 6c       	mov.aa %a12,%a6
80009e6a:	6d ff da ff 	call 80009e1e <__mcmp>
80009e6e:	02 2f       	mov %d15,%d2
80009e70:	f6 2a       	jnz %d2,80009e84 <__mdiff+0x24>
80009e72:	40 d4       	mov.aa %a4,%a13
80009e74:	82 04       	mov %d4,0
80009e76:	6d ff db fd 	call 80009a2c <_Balloc>
80009e7a:	82 12       	mov %d2,1
80009e7c:	59 22 10 00 	st.w [%a2]16,%d2
80009e80:	6c 25       	st.w [%a2]20,%d15
80009e82:	00 90       	ret 
80009e84:	82 08       	mov %d8,0
80009e86:	ce 25       	jgez %d2,80009e90 <__mdiff+0x30>
80009e88:	40 f2       	mov.aa %a2,%a15
80009e8a:	82 18       	mov %d8,1
80009e8c:	40 cf       	mov.aa %a15,%a12
80009e8e:	40 2c       	mov.aa %a12,%a2
80009e90:	40 d4       	mov.aa %a4,%a13
80009e92:	48 14       	ld.w %d4,[%a15]4
80009e94:	6d ff cc fd 	call 80009a2c <_Balloc>
80009e98:	48 42       	ld.w %d2,[%a15]16
80009e9a:	d9 ff 14 00 	lea %a15,[%a15]20
80009e9e:	80 ff       	mov.d %d15,%a15
80009ea0:	d9 c4 14 00 	lea %a4,[%a12]20
80009ea4:	13 42 20 7f 	madd %d7,%d15,%d2,4
80009ea8:	19 c0 10 00 	ld.w %d0,[%a12]16
80009eac:	80 4f       	mov.d %d15,%a4
80009eae:	59 28 0c 00 	st.w [%a2]12,%d8
80009eb2:	13 40 20 0f 	madd %d0,%d15,%d0,4
80009eb6:	d9 25 14 00 	lea %a5,[%a2]20
80009eba:	82 03       	mov %d3,0
80009ebc:	44 f6       	ld.w %d6,[%a15+]
80009ebe:	44 45       	ld.w %d5,[%a4+]
80009ec0:	b7 06 10 48 	insert %d4,%d6,0,16,16
80009ec4:	b7 05 10 18 	insert %d1,%d5,0,16,16
80009ec8:	42 34       	add %d4,%d3
80009eca:	a2 14       	sub %d4,%d1
80009ecc:	8f 06 1f 60 	sh %d6,%d6,-16
80009ed0:	8f 05 1f 50 	sh %d5,%d5,-16
80009ed4:	8f 04 3f 30 	sha %d3,%d4,-16
80009ed8:	0b 56 80 50 	sub %d5,%d6,%d5
80009edc:	1a 35       	add %d15,%d5,%d3
80009ede:	37 f4 10 48 	insert %d4,%d4,%d15,16,16
80009ee2:	8f 0f 3f 30 	sha %d3,%d15,-16
80009ee6:	80 4f       	mov.d %d15,%a4
80009ee8:	d9 53 04 00 	lea %a3,[%a5]4
80009eec:	74 54       	st.w [%a5],%d4
80009eee:	40 35       	mov.aa %a5,%a3
80009ef0:	3f 0f e6 ff 	jlt.u %d15,%d0,80009ebc <__mdiff+0x5c>
80009ef4:	80 ff       	mov.d %d15,%a15
80009ef6:	7f 7f 12 80 	jge.u %d15,%d7,80009f1a <__mdiff+0xba>
80009efa:	44 f5       	ld.w %d5,[%a15+]
80009efc:	b7 05 10 48 	insert %d4,%d5,0,16,16
80009f00:	8f 05 1f 50 	sh %d5,%d5,-16
80009f04:	42 34       	add %d4,%d3
80009f06:	8f 04 3f f0 	sha %d15,%d4,-16
80009f0a:	42 5f       	add %d15,%d5
80009f0c:	37 f4 10 48 	insert %d4,%d4,%d15,16,16
80009f10:	8f 0f 3f 30 	sha %d3,%d15,-16
80009f14:	74 34       	st.w [%a3],%d4
80009f16:	b0 43       	add.a %a3,4
80009f18:	3c ee       	j 80009ef4 <__mdiff+0x94>
80009f1a:	09 3f 3c f5 	ld.w %d15,[+%a3]-4
80009f1e:	ee 03       	jnz %d15,80009f24 <__mdiff+0xc4>
80009f20:	c2 f2       	add %d2,-1
80009f22:	3c fc       	j 80009f1a <__mdiff+0xba>
80009f24:	59 22 10 00 	st.w [%a2]16,%d2
80009f28:	00 90       	ret 

80009f2a <__d2b>:
80009f2a:	02 48       	mov %d8,%d4
80009f2c:	20 08       	sub.a %sp,8
80009f2e:	82 14       	mov %d4,1
80009f30:	40 5d       	mov.aa %a13,%a5
80009f32:	40 6c       	mov.aa %a12,%a6
80009f34:	6d ff 7c fd 	call 80009a2c <_Balloc>
80009f38:	b7 08 89 fb 	insert %d15,%d8,0,23,9
80009f3c:	37 08 e8 8b 	extr.u %d8,%d8,23,8
80009f40:	40 2f       	mov.aa %a15,%a2
80009f42:	76 83       	jz %d8,80009f48 <__d2b+0x1e>
80009f44:	b7 ff 81 fb 	insert %d15,%d15,15,23,1
80009f48:	d9 a4 04 00 	lea %a4,[%sp]4
80009f4c:	78 01       	st.w [%sp]4,%d15
80009f4e:	6d ff 05 fe 	call 80009b58 <__lo0bits>
80009f52:	19 a4 04 00 	ld.w %d4,[%sp]4
80009f56:	82 1f       	mov %d15,1
80009f58:	68 54       	st.w [%a15]20,%d4
80009f5a:	68 4f       	st.w [%a15]16,%d15
80009f5c:	76 88       	jz %d8,80009f6c <__d2b+0x42>
80009f5e:	1b a8 f6 8f 	addi %d8,%d8,-150
80009f62:	42 28       	add %d8,%d2
80009f64:	74 d8       	st.w [%a13],%d8
80009f66:	8b 82 01 21 	rsub %d2,%d2,24
80009f6a:	3c 08       	j 80009f7a <__d2b+0x50>
80009f6c:	1b b2 f6 2f 	addi %d2,%d2,-149
80009f70:	74 d2       	st.w [%a13],%d2
80009f72:	6d ff d2 fd 	call 80009b16 <__hi0bits>
80009f76:	8b 02 02 21 	rsub %d2,%d2,32
80009f7a:	74 c2       	st.w [%a12],%d2
80009f7c:	40 f2       	mov.aa %a2,%a15
80009f7e:	00 90       	ret 

80009f80 <_read_r>:
80009f80:	40 4f       	mov.aa %a15,%a4
80009f82:	91 00 00 c7 	movh.a %a12,28672
80009f86:	82 0f       	mov %d15,0
80009f88:	40 54       	mov.aa %a4,%a5
80009f8a:	59 cf 70 b7 	st.w [%a12]30448 <700076f0 <errno>>,%d15
80009f8e:	6d 00 7c 02 	call 8000a486 <read>
80009f92:	df f2 06 80 	jne %d2,-1,80009f9e <_read_r+0x1e>
80009f96:	19 cf 70 b7 	ld.w %d15,[%a12]30448 <700076f0 <errno>>
80009f9a:	6e 02       	jz %d15,80009f9e <_read_r+0x1e>
80009f9c:	68 0f       	st.w [%a15]0,%d15
80009f9e:	00 90       	ret 

80009fa0 <_realloc_r>:
80009fa0:	40 4d       	mov.aa %a13,%a4
80009fa2:	40 5f       	mov.aa %a15,%a5
80009fa4:	02 49       	mov %d9,%d4
80009fa6:	7c 53       	jnz.a %a5,80009fac <_realloc_r+0xc>
80009fa8:	1d ff 8e e7 	j 80006ec4 <_malloc_r>
80009fac:	6d ff e1 e9 	call 8000736e <__malloc_lock>
80009fb0:	1b b9 00 20 	addi %d2,%d9,11
80009fb4:	8b 72 61 f2 	lt.u %d15,%d2,23
80009fb8:	8f 72 c0 21 	andn %d2,%d2,7
80009fbc:	ab 02 a1 ff 	seln %d15,%d15,%d2,16
80009fc0:	19 f3 fc ff 	ld.w %d3,[%a15]-4
80009fc4:	0b 9f 30 21 	lt.u %d2,%d15,%d9
80009fc8:	8b 0f 20 25 	or.lt %d2,%d15,0
80009fcc:	d9 fe f8 ff 	lea %a14,[%a15]-8
80009fd0:	8f 33 c0 81 	andn %d8,%d3,3
80009fd4:	76 25       	jz %d2,80009fde <_realloc_r+0x3e>
80009fd6:	da 0c       	mov %d15,12
80009fd8:	6c d0       	st.w [%a13]0,%d15
80009fda:	1d 00 56 01 	j 8000a286 <_realloc_r+0x2e6>
80009fde:	7f f8 ac 01 	jge %d8,%d15,8000a336 <_realloc_r+0x396>
80009fe2:	7b 00 00 c7 	movh %d12,28672
80009fe6:	60 c3       	mov.a %a3,%d12
80009fe8:	01 e8 00 26 	addsc.a %a2,%a14,%d8,0
80009fec:	d9 34 b0 c5 	lea %a4,[%a3]23344
80009ff0:	99 43 08 00 	ld.a %a3,[%a4]8
80009ff4:	80 4c       	mov.d %d12,%a4
80009ff6:	19 2b 04 00 	ld.w %d11,[%a2]4
80009ffa:	7d 32 0a 00 	jeq.a %a2,%a3,8000a00e <_realloc_r+0x6e>
80009ffe:	8f 1b c0 21 	andn %d2,%d11,1
8000a002:	01 22 00 46 	addsc.a %a4,%a2,%d2,0
8000a006:	19 42 04 00 	ld.w %d2,[%a4]4
8000a00a:	6f 02 2b 80 	jnz.t %d2,0,8000a060 <_realloc_r+0xc0>
8000a00e:	8f 3b c0 b1 	andn %d11,%d11,3
8000a012:	0b 8b 00 20 	add %d2,%d11,%d8
8000a016:	7d 32 1b 80 	jne.a %a2,%a3,8000a04c <_realloc_r+0xac>
8000a01a:	1b 0f 01 40 	addi %d4,%d15,16
8000a01e:	3f 42 23 00 	jlt %d2,%d4,8000a064 <_realloc_r+0xc4>
8000a022:	10 ee       	addsc.a %a14,%a14,%d15,0
8000a024:	60 c2       	mov.a %a2,%d12
8000a026:	a2 f2       	sub %d2,%d15
8000a028:	b5 2e 08 00 	st.a [%a2]8,%a14
8000a02c:	8f 12 40 21 	or %d2,%d2,1
8000a030:	59 e2 04 00 	st.w [%a14]4,%d2
8000a034:	19 f2 fc ff 	ld.w %d2,[%a15]-4
8000a038:	40 d4       	mov.aa %a4,%a13
8000a03a:	8f 12 00 21 	and %d2,%d2,1
8000a03e:	a6 2f       	or %d15,%d2
8000a040:	59 ff fc ff 	st.w [%a15]-4,%d15
8000a044:	6d ff 96 e9 	call 80007370 <__malloc_unlock>
8000a048:	40 f2       	mov.aa %a2,%a15
8000a04a:	00 90       	ret 
8000a04c:	3f f2 0c 00 	jlt %d2,%d15,8000a064 <_realloc_r+0xc4>
8000a050:	cc 23       	ld.a %a15,[%a2]12
8000a052:	99 22 08 00 	ld.a %a2,[%a2]8
8000a056:	02 28       	mov %d8,%d2
8000a058:	ec 23       	st.a [%a2]12,%a15
8000a05a:	e8 22       	st.a [%a15]8,%a2
8000a05c:	1d 00 6d 01 	j 8000a336 <_realloc_r+0x396>
8000a060:	82 0b       	mov %d11,0
8000a062:	a0 02       	mov.a %a2,0
8000a064:	6f 03 08 81 	jnz.t %d3,0,8000a274 <_realloc_r+0x2d4>
8000a068:	99 fc f8 ff 	ld.a %a12,[%a15]-8
8000a06c:	01 ce 20 c0 	sub.a %a12,%a14,%a12
8000a070:	19 ca 04 00 	ld.w %d10,[%a12]4
8000a074:	8f 3a c0 a1 	andn %d10,%d10,3
8000a078:	42 8a       	add %d10,%d8
8000a07a:	bd 02 b3 00 	jz.a %a2,8000a1e0 <_realloc_r+0x240>
8000a07e:	42 ab       	add %d11,%d10
8000a080:	7d 32 5f 80 	jne.a %a2,%a3,8000a13e <_realloc_r+0x19e>
8000a084:	1b 0f 01 20 	addi %d2,%d15,16
8000a088:	3f 2b ac 00 	jlt %d11,%d2,8000a1e0 <_realloc_r+0x240>
8000a08c:	40 ce       	mov.aa %a14,%a12
8000a08e:	99 c2 0c 00 	ld.a %a2,[%a12]12
8000a092:	09 e3 88 05 	ld.a %a3,[+%a14]8
8000a096:	1b c8 ff 4f 	addi %d4,%d8,-4
8000a09a:	8b 54 a2 22 	ge.u %d2,%d4,37
8000a09e:	b5 32 0c 00 	st.a [%a3]12,%a2
8000a0a2:	b5 23 08 00 	st.a [%a2]8,%a3
8000a0a6:	df 02 36 80 	jne %d2,0,8000a112 <_realloc_r+0x172>
8000a0aa:	8b 44 61 22 	lt.u %d2,%d4,20
8000a0ae:	40 e3       	mov.aa %a3,%a14
8000a0b0:	df 02 28 80 	jne %d2,0,8000a100 <_realloc_r+0x160>
8000a0b4:	48 02       	ld.w %d2,[%a15]0
8000a0b6:	59 c2 08 00 	st.w [%a12]8,%d2
8000a0ba:	48 13       	ld.w %d3,[%a15]4
8000a0bc:	8b c4 a1 22 	ge.u %d2,%d4,28
8000a0c0:	59 c3 0c 00 	st.w [%a12]12,%d3
8000a0c4:	f6 26       	jnz %d2,8000a0d0 <_realloc_r+0x130>
8000a0c6:	d9 c3 10 00 	lea %a3,[%a12]16
8000a0ca:	d9 ff 08 00 	lea %a15,[%a15]8
8000a0ce:	3c 19       	j 8000a100 <_realloc_r+0x160>
8000a0d0:	48 22       	ld.w %d2,[%a15]8
8000a0d2:	8b 44 02 82 	eq %d8,%d4,36
8000a0d6:	59 c2 10 00 	st.w [%a12]16,%d2
8000a0da:	48 33       	ld.w %d3,[%a15]12
8000a0dc:	59 c3 14 00 	st.w [%a12]20,%d3
8000a0e0:	f6 86       	jnz %d8,8000a0ec <_realloc_r+0x14c>
8000a0e2:	d9 c3 18 00 	lea %a3,[%a12]24
8000a0e6:	d9 ff 10 00 	lea %a15,[%a15]16
8000a0ea:	3c 0b       	j 8000a100 <_realloc_r+0x160>
8000a0ec:	48 42       	ld.w %d2,[%a15]16
8000a0ee:	d9 c3 20 00 	lea %a3,[%a12]32
8000a0f2:	59 c2 18 00 	st.w [%a12]24,%d2
8000a0f6:	48 53       	ld.w %d3,[%a15]20
8000a0f8:	d9 ff 18 00 	lea %a15,[%a15]24
8000a0fc:	59 c3 1c 00 	st.w [%a12]28,%d3
8000a100:	48 02       	ld.w %d2,[%a15]0
8000a102:	74 32       	st.w [%a3],%d2
8000a104:	48 13       	ld.w %d3,[%a15]4
8000a106:	59 33 04 00 	st.w [%a3]4,%d3
8000a10a:	48 22       	ld.w %d2,[%a15]8
8000a10c:	59 32 08 00 	st.w [%a3]8,%d2
8000a110:	3c 05       	j 8000a11a <_realloc_r+0x17a>
8000a112:	40 e4       	mov.aa %a4,%a14
8000a114:	40 f5       	mov.aa %a5,%a15
8000a116:	6d ff 63 fc 	call 800099dc <memmove>
8000a11a:	10 cf       	addsc.a %a15,%a12,%d15,0
8000a11c:	60 c2       	mov.a %a2,%d12
8000a11e:	a2 fb       	sub %d11,%d15
8000a120:	ec 22       	st.a [%a2]8,%a15
8000a122:	8f 1b 40 b1 	or %d11,%d11,1
8000a126:	68 1b       	st.w [%a15]4,%d11
8000a128:	19 c2 04 00 	ld.w %d2,[%a12]4
8000a12c:	40 d4       	mov.aa %a4,%a13
8000a12e:	8f 12 00 21 	and %d2,%d2,1
8000a132:	a6 2f       	or %d15,%d2
8000a134:	6c c1       	st.w [%a12]4,%d15
8000a136:	6d ff 1d e9 	call 80007370 <__malloc_unlock>
8000a13a:	40 e2       	mov.aa %a2,%a14
8000a13c:	00 90       	ret 
8000a13e:	3f fb 51 00 	jlt %d11,%d15,8000a1e0 <_realloc_r+0x240>
8000a142:	99 23 0c 00 	ld.a %a3,[%a2]12
8000a146:	99 22 08 00 	ld.a %a2,[%a2]8
8000a14a:	40 c4       	mov.aa %a4,%a12
8000a14c:	1b c8 ff 4f 	addi %d4,%d8,-4
8000a150:	b5 23 0c 00 	st.a [%a2]12,%a3
8000a154:	b5 32 08 00 	st.a [%a3]8,%a2
8000a158:	09 43 88 05 	ld.a %a3,[+%a4]8
8000a15c:	99 c2 0c 00 	ld.a %a2,[%a12]12
8000a160:	8b 54 a2 22 	ge.u %d2,%d4,37
8000a164:	b5 32 0c 00 	st.a [%a3]12,%a2
8000a168:	b5 23 08 00 	st.a [%a2]8,%a3
8000a16c:	df 02 35 80 	jne %d2,0,8000a1d6 <_realloc_r+0x236>
8000a170:	8b 44 61 22 	lt.u %d2,%d4,20
8000a174:	df 02 28 80 	jne %d2,0,8000a1c4 <_realloc_r+0x224>
8000a178:	48 02       	ld.w %d2,[%a15]0
8000a17a:	59 c2 08 00 	st.w [%a12]8,%d2
8000a17e:	48 13       	ld.w %d3,[%a15]4
8000a180:	8b c4 a1 22 	ge.u %d2,%d4,28
8000a184:	59 c3 0c 00 	st.w [%a12]12,%d3
8000a188:	f6 26       	jnz %d2,8000a194 <_realloc_r+0x1f4>
8000a18a:	d9 c4 10 00 	lea %a4,[%a12]16
8000a18e:	d9 ff 08 00 	lea %a15,[%a15]8
8000a192:	3c 19       	j 8000a1c4 <_realloc_r+0x224>
8000a194:	48 22       	ld.w %d2,[%a15]8
8000a196:	8b 44 02 82 	eq %d8,%d4,36
8000a19a:	59 c2 10 00 	st.w [%a12]16,%d2
8000a19e:	48 33       	ld.w %d3,[%a15]12
8000a1a0:	59 c3 14 00 	st.w [%a12]20,%d3
8000a1a4:	f6 86       	jnz %d8,8000a1b0 <_realloc_r+0x210>
8000a1a6:	d9 c4 18 00 	lea %a4,[%a12]24
8000a1aa:	d9 ff 10 00 	lea %a15,[%a15]16
8000a1ae:	3c 0b       	j 8000a1c4 <_realloc_r+0x224>
8000a1b0:	48 42       	ld.w %d2,[%a15]16
8000a1b2:	d9 c4 20 00 	lea %a4,[%a12]32
8000a1b6:	59 c2 18 00 	st.w [%a12]24,%d2
8000a1ba:	48 53       	ld.w %d3,[%a15]20
8000a1bc:	d9 ff 18 00 	lea %a15,[%a15]24
8000a1c0:	59 c3 1c 00 	st.w [%a12]28,%d3
8000a1c4:	48 02       	ld.w %d2,[%a15]0
8000a1c6:	74 42       	st.w [%a4],%d2
8000a1c8:	48 13       	ld.w %d3,[%a15]4
8000a1ca:	59 43 04 00 	st.w [%a4]4,%d3
8000a1ce:	48 22       	ld.w %d2,[%a15]8
8000a1d0:	59 42 08 00 	st.w [%a4]8,%d2
8000a1d4:	3c 04       	j 8000a1dc <_realloc_r+0x23c>
8000a1d6:	40 f5       	mov.aa %a5,%a15
8000a1d8:	6d ff 02 fc 	call 800099dc <memmove>
8000a1dc:	02 b8       	mov %d8,%d11
8000a1de:	3c 45       	j 8000a268 <_realloc_r+0x2c8>
8000a1e0:	3f fa 4a 00 	jlt %d10,%d15,8000a274 <_realloc_r+0x2d4>
8000a1e4:	40 c4       	mov.aa %a4,%a12
8000a1e6:	99 c2 0c 00 	ld.a %a2,[%a12]12
8000a1ea:	09 43 88 05 	ld.a %a3,[+%a4]8
8000a1ee:	1b c8 ff 4f 	addi %d4,%d8,-4
8000a1f2:	8b 54 a2 22 	ge.u %d2,%d4,37
8000a1f6:	b5 32 0c 00 	st.a [%a3]12,%a2
8000a1fa:	b5 23 08 00 	st.a [%a2]8,%a3
8000a1fe:	df 02 37 80 	jne %d2,0,8000a26c <_realloc_r+0x2cc>
8000a202:	8b 44 61 22 	lt.u %d2,%d4,20
8000a206:	df 02 28 80 	jne %d2,0,8000a256 <_realloc_r+0x2b6>
8000a20a:	48 03       	ld.w %d3,[%a15]0
8000a20c:	59 c3 08 00 	st.w [%a12]8,%d3
8000a210:	48 12       	ld.w %d2,[%a15]4
8000a212:	59 c2 0c 00 	st.w [%a12]12,%d2
8000a216:	8b c4 a1 22 	ge.u %d2,%d4,28
8000a21a:	f6 26       	jnz %d2,8000a226 <_realloc_r+0x286>
8000a21c:	d9 c4 10 00 	lea %a4,[%a12]16
8000a220:	d9 ff 08 00 	lea %a15,[%a15]8
8000a224:	3c 19       	j 8000a256 <_realloc_r+0x2b6>
8000a226:	48 23       	ld.w %d3,[%a15]8
8000a228:	8b 44 02 82 	eq %d8,%d4,36
8000a22c:	59 c3 10 00 	st.w [%a12]16,%d3
8000a230:	48 32       	ld.w %d2,[%a15]12
8000a232:	59 c2 14 00 	st.w [%a12]20,%d2
8000a236:	f6 86       	jnz %d8,8000a242 <_realloc_r+0x2a2>
8000a238:	d9 c4 18 00 	lea %a4,[%a12]24
8000a23c:	d9 ff 10 00 	lea %a15,[%a15]16
8000a240:	3c 0b       	j 8000a256 <_realloc_r+0x2b6>
8000a242:	48 43       	ld.w %d3,[%a15]16
8000a244:	d9 c4 20 00 	lea %a4,[%a12]32
8000a248:	59 c3 18 00 	st.w [%a12]24,%d3
8000a24c:	48 52       	ld.w %d2,[%a15]20
8000a24e:	d9 ff 18 00 	lea %a15,[%a15]24
8000a252:	59 c2 1c 00 	st.w [%a12]28,%d2
8000a256:	48 03       	ld.w %d3,[%a15]0
8000a258:	74 43       	st.w [%a4],%d3
8000a25a:	48 12       	ld.w %d2,[%a15]4
8000a25c:	59 42 04 00 	st.w [%a4]4,%d2
8000a260:	48 23       	ld.w %d3,[%a15]8
8000a262:	59 43 08 00 	st.w [%a4]8,%d3
8000a266:	02 a8       	mov %d8,%d10
8000a268:	40 ce       	mov.aa %a14,%a12
8000a26a:	3c 66       	j 8000a336 <_realloc_r+0x396>
8000a26c:	40 f5       	mov.aa %a5,%a15
8000a26e:	6d ff b7 fb 	call 800099dc <memmove>
8000a272:	3c fa       	j 8000a266 <_realloc_r+0x2c6>
8000a274:	40 d4       	mov.aa %a4,%a13
8000a276:	02 94       	mov %d4,%d9
8000a278:	6d ff 26 e6 	call 80006ec4 <_malloc_r>
8000a27c:	40 2c       	mov.aa %a12,%a2
8000a27e:	7c 26       	jnz.a %a2,8000a28a <_realloc_r+0x2ea>
8000a280:	40 d4       	mov.aa %a4,%a13
8000a282:	6d ff 77 e8 	call 80007370 <__malloc_unlock>
8000a286:	a0 02       	mov.a %a2,0
8000a288:	00 90       	ret 
8000a28a:	19 f2 fc ff 	ld.w %d2,[%a15]-4
8000a28e:	d9 23 f8 ff 	lea %a3,[%a2]-8
8000a292:	8f 12 c0 21 	andn %d2,%d2,1
8000a296:	01 e2 00 26 	addsc.a %a2,%a14,%d2,0
8000a29a:	80 32       	mov.d %d2,%a3
8000a29c:	80 23       	mov.d %d3,%a2
8000a29e:	5f 32 08 80 	jne %d2,%d3,8000a2ae <_realloc_r+0x30e>
8000a2a2:	19 c2 fc ff 	ld.w %d2,[%a12]-4
8000a2a6:	8f 32 c0 21 	andn %d2,%d2,3
8000a2aa:	42 28       	add %d8,%d2
8000a2ac:	3c 45       	j 8000a336 <_realloc_r+0x396>
8000a2ae:	1b c8 ff 4f 	addi %d4,%d8,-4
8000a2b2:	8b 54 a2 f2 	ge.u %d15,%d4,37
8000a2b6:	ee 33       	jnz %d15,8000a31c <_realloc_r+0x37c>
8000a2b8:	8b 44 61 f2 	lt.u %d15,%d4,20
8000a2bc:	40 c3       	mov.aa %a3,%a12
8000a2be:	40 f2       	mov.aa %a2,%a15
8000a2c0:	ee 23       	jnz %d15,8000a306 <_realloc_r+0x366>
8000a2c2:	4c f0       	ld.w %d15,[%a15]0
8000a2c4:	d9 c3 08 00 	lea %a3,[%a12]8
8000a2c8:	6c c0       	st.w [%a12]0,%d15
8000a2ca:	48 12       	ld.w %d2,[%a15]4
8000a2cc:	8b c4 a1 f2 	ge.u %d15,%d4,28
8000a2d0:	59 c2 04 00 	st.w [%a12]4,%d2
8000a2d4:	d9 f2 08 00 	lea %a2,[%a15]8
8000a2d8:	6e 17       	jz %d15,8000a306 <_realloc_r+0x366>
8000a2da:	48 23       	ld.w %d3,[%a15]8
8000a2dc:	8b 44 02 82 	eq %d8,%d4,36
8000a2e0:	59 c3 08 00 	st.w [%a12]8,%d3
8000a2e4:	4c f3       	ld.w %d15,[%a15]12
8000a2e6:	d9 c3 10 00 	lea %a3,[%a12]16
8000a2ea:	6c c3       	st.w [%a12]12,%d15
8000a2ec:	d9 f2 10 00 	lea %a2,[%a15]16
8000a2f0:	76 8b       	jz %d8,8000a306 <_realloc_r+0x366>
8000a2f2:	48 42       	ld.w %d2,[%a15]16
8000a2f4:	d9 c3 18 00 	lea %a3,[%a12]24
8000a2f8:	59 c2 10 00 	st.w [%a12]16,%d2
8000a2fc:	48 53       	ld.w %d3,[%a15]20
8000a2fe:	d9 f2 18 00 	lea %a2,[%a15]24
8000a302:	59 c3 14 00 	st.w [%a12]20,%d3
8000a306:	4c 20       	ld.w %d15,[%a2]0
8000a308:	6c 30       	st.w [%a3]0,%d15
8000a30a:	19 22 04 00 	ld.w %d2,[%a2]4
8000a30e:	59 32 04 00 	st.w [%a3]4,%d2
8000a312:	19 23 08 00 	ld.w %d3,[%a2]8
8000a316:	59 33 08 00 	st.w [%a3]8,%d3
8000a31a:	3c 05       	j 8000a324 <_realloc_r+0x384>
8000a31c:	40 c4       	mov.aa %a4,%a12
8000a31e:	40 f5       	mov.aa %a5,%a15
8000a320:	6d ff 5e fb 	call 800099dc <memmove>
8000a324:	40 d4       	mov.aa %a4,%a13
8000a326:	40 f5       	mov.aa %a5,%a15
8000a328:	6d ff 27 e2 	call 80006776 <_free_r>
8000a32c:	40 d4       	mov.aa %a4,%a13
8000a32e:	6d ff 21 e8 	call 80007370 <__malloc_unlock>
8000a332:	40 c2       	mov.aa %a2,%a12
8000a334:	00 90       	ret 
8000a336:	0b f8 80 20 	sub %d2,%d8,%d15
8000a33a:	8b 02 61 42 	lt.u %d4,%d2,16
8000a33e:	19 e3 04 00 	ld.w %d3,[%a14]4
8000a342:	df 04 16 80 	jne %d4,0,8000a36e <_realloc_r+0x3ce>
8000a346:	8f 13 00 31 	and %d3,%d3,1
8000a34a:	10 e5       	addsc.a %a5,%a14,%d15,0
8000a34c:	a6 3f       	or %d15,%d3
8000a34e:	6c e1       	st.w [%a14]4,%d15
8000a350:	01 52 00 f6 	addsc.a %a15,%a5,%d2,0
8000a354:	8f 12 40 f1 	or %d15,%d2,1
8000a358:	b7 10 21 20 	imask %e2,1,0,1
8000a35c:	6c 51       	st.w [%a5]4,%d15
8000a35e:	49 f2 44 08 	ldmst [%a15]4,%e2
8000a362:	40 d4       	mov.aa %a4,%a13
8000a364:	d9 55 08 00 	lea %a5,[%a5]8
8000a368:	6d ff 07 e2 	call 80006776 <_free_r>
8000a36c:	3c 0c       	j 8000a384 <_realloc_r+0x3e4>
8000a36e:	8f 13 00 31 	and %d3,%d3,1
8000a372:	a6 83       	or %d3,%d8
8000a374:	59 e3 04 00 	st.w [%a14]4,%d3
8000a378:	01 e8 00 f6 	addsc.a %a15,%a14,%d8,0
8000a37c:	b7 10 21 20 	imask %e2,1,0,1
8000a380:	49 f2 44 08 	ldmst [%a15]4,%e2
8000a384:	40 d4       	mov.aa %a4,%a13
8000a386:	6d ff f5 e7 	call 80007370 <__malloc_unlock>
8000a38a:	d9 e2 08 00 	lea %a2,[%a14]8
8000a38e:	00 90       	ret 

8000a390 <__fpclassifyf>:
8000a390:	b7 04 81 4f 	insert %d4,%d4,0,31,1
8000a394:	82 22       	mov %d2,2
8000a396:	df 04 15 00 	jeq %d4,0,8000a3c0 <__fpclassifyf+0x30>
8000a39a:	9b 04 f8 3f 	addih %d3,%d4,65408
8000a39e:	7b 00 f0 f7 	movh %d15,32512
8000a3a2:	82 42       	mov %d2,4
8000a3a4:	3f f3 0e 80 	jlt.u %d3,%d15,8000a3c0 <__fpclassifyf+0x30>
8000a3a8:	82 ff       	mov %d15,-1
8000a3aa:	1b f4 ff 3f 	addi %d3,%d4,-1
8000a3ae:	8f 7f 1f f0 	sh %d15,%d15,-9
8000a3b2:	82 32       	mov %d2,3
8000a3b4:	3f f3 06 80 	jlt.u %d3,%d15,8000a3c0 <__fpclassifyf+0x30>
8000a3b8:	7b 00 f8 27 	movh %d2,32640
8000a3bc:	0b 24 00 21 	eq %d2,%d4,%d2
8000a3c0:	00 90       	ret 

8000a3c2 <__sprint_r>:
8000a3c2:	19 62 08 00 	ld.w %d2,[%a6]8
8000a3c6:	40 6f       	mov.aa %a15,%a6
8000a3c8:	f6 24       	jnz %d2,8000a3d0 <__sprint_r+0xe>
8000a3ca:	59 62 04 00 	st.w [%a6]4,%d2
8000a3ce:	00 90       	ret 
8000a3d0:	82 0f       	mov %d15,0
8000a3d2:	6d ff a0 f9 	call 80009712 <__sfvwrite_r>
8000a3d6:	68 2f       	st.w [%a15]8,%d15
8000a3d8:	68 1f       	st.w [%a15]4,%d15
8000a3da:	00 90       	ret 

8000a3dc <_calloc_r>:
8000a3dc:	e2 54       	mul %d4,%d5
8000a3de:	6d ff 73 e5 	call 80006ec4 <_malloc_r>
8000a3e2:	40 2f       	mov.aa %a15,%a2
8000a3e4:	a0 02       	mov.a %a2,0
8000a3e6:	bd 0f 2b 00 	jz.a %a15,8000a43c <_calloc_r+0x60>
8000a3ea:	19 f5 fc ff 	ld.w %d5,[%a15]-4
8000a3ee:	8f 35 c0 51 	andn %d5,%d5,3
8000a3f2:	c2 c5       	add %d5,-4
8000a3f4:	8b 55 a2 f2 	ge.u %d15,%d5,37
8000a3f8:	ee 1d       	jnz %d15,8000a432 <_calloc_r+0x56>
8000a3fa:	8b 45 61 f2 	lt.u %d15,%d5,20
8000a3fe:	40 f2       	mov.aa %a2,%a15
8000a400:	ee 14       	jnz %d15,8000a428 <_calloc_r+0x4c>
8000a402:	82 0f       	mov %d15,0
8000a404:	68 0f       	st.w [%a15]0,%d15
8000a406:	68 1f       	st.w [%a15]4,%d15
8000a408:	8b c5 a1 22 	ge.u %d2,%d5,28
8000a40c:	d9 f2 08 00 	lea %a2,[%a15]8
8000a410:	76 2c       	jz %d2,8000a428 <_calloc_r+0x4c>
8000a412:	68 2f       	st.w [%a15]8,%d15
8000a414:	68 3f       	st.w [%a15]12,%d15
8000a416:	8b 45 02 52 	eq %d5,%d5,36
8000a41a:	d9 f2 10 00 	lea %a2,[%a15]16
8000a41e:	76 55       	jz %d5,8000a428 <_calloc_r+0x4c>
8000a420:	68 4f       	st.w [%a15]16,%d15
8000a422:	d9 f2 18 00 	lea %a2,[%a15]24
8000a426:	68 5f       	st.w [%a15]20,%d15
8000a428:	82 0f       	mov %d15,0
8000a42a:	6c 20       	st.w [%a2]0,%d15
8000a42c:	6c 21       	st.w [%a2]4,%d15
8000a42e:	6c 22       	st.w [%a2]8,%d15
8000a430:	3c 05       	j 8000a43a <_calloc_r+0x5e>
8000a432:	40 f4       	mov.aa %a4,%a15
8000a434:	82 04       	mov %d4,0
8000a436:	6d ff 94 e7 	call 8000735e <memset>
8000a43a:	40 f2       	mov.aa %a2,%a15
8000a43c:	00 90       	ret 

8000a43e <__errno>:
8000a43e:	91 00 00 27 	movh.a %a2,28672
8000a442:	d9 22 40 c7 	lea %a2,[%a2]30464 <70007700 <_my_errno>>
8000a446:	00 90       	ret 

8000a448 <isatty>:
8000a448:	8b 34 60 22 	lt.u %d2,%d4,3
8000a44c:	00 90       	ret 

8000a44e <fstat>:
8000a44e:	bf 34 08 80 	jlt.u %d4,3,8000a45e <fstat+0x10>
8000a452:	6d ff f6 ff 	call 8000a43e <__errno>
8000a456:	da 09       	mov %d15,9
8000a458:	6c 20       	st.w [%a2]0,%d15
8000a45a:	82 f2       	mov %d2,-1
8000a45c:	00 90       	ret 
8000a45e:	3b 00 00 f2 	mov %d15,8192
8000a462:	6c 41       	st.w [%a4]4,%d15
8000a464:	3b 00 40 f0 	mov %d15,1024
8000a468:	6c 4b       	st.w [%a4]44,%d15
8000a46a:	82 02       	mov %d2,0
8000a46c:	00 90       	ret 

8000a46e <close>:
8000a46e:	82 2c       	mov %d12,2
8000a470:	1d 00 11 00 	j 8000a492 <___virtio>
8000a474:	00 90       	ret 

8000a476 <lseek>:
8000a476:	82 3c       	mov %d12,3
8000a478:	1d 00 0d 00 	j 8000a492 <___virtio>
8000a47c:	00 90       	ret 

8000a47e <open>:
8000a47e:	82 1c       	mov %d12,1
8000a480:	1d 00 09 00 	j 8000a492 <___virtio>
8000a484:	00 90       	ret 

8000a486 <read>:
8000a486:	82 4c       	mov %d12,4
8000a488:	1d 00 05 00 	j 8000a492 <___virtio>
8000a48c:	00 90       	ret 

8000a48e <__virtio_dummy_hnd>:
8000a48e:	5f 76 69 6f 	jeq %d6,%d7,80008360 <_vfprintf_r+0xbe8>

8000a492 <___virtio>:
8000a492:	00 a0       	debug 
8000a494:	6d ff d5 ff 	call 8000a43e <__errno>
8000a498:	74 2c       	st.w [%a2],%d12
8000a49a:	02 b2       	mov %d2,%d11
8000a49c:	00 90       	ret 

8000a49e <write>:
8000a49e:	82 5c       	mov %d12,5
8000a4a0:	1d ff f9 ff 	j 8000a492 <___virtio>
8000a4a4:	00 90       	ret 

8000a4a6 <unlock_wdtcon>:
8000a4a6:	4d c0 e1 ff 	mfcr %d15,$core_id
8000a4aa:	16 07       	and %d15,7
8000a4ac:	53 cf 20 f0 	mul %d15,%d15,12
8000a4b0:	60 f2       	mov.a %a2,%d15
8000a4b2:	d9 2f 00 46 	lea %a15,[%a2]24832
8000a4b6:	11 3f 00 ff 	addih.a %a15,%a15,61443
8000a4ba:	4c f0       	ld.w %d15,[%a15]0
8000a4bc:	8f ff cf f1 	andn %d15,%d15,255
8000a4c0:	8f 1f 4f 21 	or %d2,%d15,241
8000a4c4:	68 02       	st.w [%a15]0,%d2
8000a4c6:	0d 00 80 04 	dsync 
8000a4ca:	96 f2       	or %d15,242
8000a4cc:	68 0f       	st.w [%a15]0,%d15
8000a4ce:	4c f0       	ld.w %d15,[%a15]0
8000a4d0:	00 90       	ret 

8000a4d2 <lock_wdtcon>:
8000a4d2:	4d c0 e1 ff 	mfcr %d15,$core_id
8000a4d6:	16 07       	and %d15,7
8000a4d8:	53 cf 20 f0 	mul %d15,%d15,12
8000a4dc:	60 f2       	mov.a %a2,%d15
8000a4de:	d9 2f 00 46 	lea %a15,[%a2]24832
8000a4e2:	11 3f 00 ff 	addih.a %a15,%a15,61443
8000a4e6:	4c f0       	ld.w %d15,[%a15]0
8000a4e8:	8f ff cf f1 	andn %d15,%d15,255
8000a4ec:	8f 1f 4f 21 	or %d2,%d15,241
8000a4f0:	68 02       	st.w [%a15]0,%d2
8000a4f2:	0d 00 80 04 	dsync 
8000a4f6:	96 f3       	or %d15,243
8000a4f8:	68 0f       	st.w [%a15]0,%d15
8000a4fa:	4c f0       	ld.w %d15,[%a15]0
8000a4fc:	00 90       	ret 

8000a4fe <unlock_safety_wdtcon>:
8000a4fe:	91 30 00 ff 	movh.a %a15,61443
8000a502:	d9 ff 30 36 	lea %a15,[%a15]24816 <f00360f0 <BMHD+0x500360f0>>
8000a506:	4c f0       	ld.w %d15,[%a15]0
8000a508:	8f ff cf f1 	andn %d15,%d15,255
8000a50c:	8f 1f 4f 21 	or %d2,%d15,241
8000a510:	68 02       	st.w [%a15]0,%d2
8000a512:	0d 00 80 04 	dsync 
8000a516:	96 f2       	or %d15,242
8000a518:	68 0f       	st.w [%a15]0,%d15
8000a51a:	4c f0       	ld.w %d15,[%a15]0
8000a51c:	00 90       	ret 

8000a51e <lock_safety_wdtcon>:
8000a51e:	91 30 00 ff 	movh.a %a15,61443
8000a522:	d9 ff 30 36 	lea %a15,[%a15]24816 <f00360f0 <BMHD+0x500360f0>>
8000a526:	4c f0       	ld.w %d15,[%a15]0
8000a528:	8f ff cf f1 	andn %d15,%d15,255
8000a52c:	8f 1f 4f 21 	or %d2,%d15,241
8000a530:	68 02       	st.w [%a15]0,%d2
8000a532:	0d 00 80 04 	dsync 
8000a536:	96 f3       	or %d15,243
8000a538:	68 0f       	st.w [%a15]0,%d15
8000a53a:	4c f0       	ld.w %d15,[%a15]0
8000a53c:	00 90       	ret 

8000a53e <abort>:
8000a53e:	00 a0       	debug 
8000a540:	7b e0 ea fd 	movh %d15,57006
8000a544:	1b ff ee fb 	addi %d15,%d15,-16657
8000a548:	60 fe       	mov.a %a14,%d15
8000a54a:	1d 00 03 00 	j 8000a550 <_exit>
8000a54e:	3c 00       	j 8000a54e <abort+0x10>

8000a550 <_exit>:
8000a550:	76 43       	jz %d4,8000a556 <_exit+0x6>
8000a552:	60 4e       	mov.a %a14,%d4
8000a554:	3c 04       	j 8000a55c <_exit+0xc>
8000a556:	bb d0 00 f9 	mov.u %d15,36877
8000a55a:	60 fe       	mov.a %a14,%d15
8000a55c:	00 a0       	debug 
8000a55e:	3c 00       	j 8000a55e <_exit+0xe>

8000a560 <sbrk>:
8000a560:	91 00 00 f7 	movh.a %a15,28672
8000a564:	19 ff c8 d5 	ld.w %d15,[%a15]24392 <70005f48 <heap_top.2289>>
8000a568:	7b 00 00 20 	movh %d2,0
8000a56c:	42 f4       	add %d4,%d15
8000a56e:	1b 02 00 21 	addi %d2,%d2,4096
8000a572:	7f 42 09 80 	jge.u %d2,%d4,8000a584 <sbrk+0x24>
8000a576:	6d ff 64 ff 	call 8000a43e <__errno>
8000a57a:	da 0c       	mov %d15,12
8000a57c:	6c 20       	st.w [%a2]0,%d15
8000a57e:	a0 02       	mov.a %a2,0
8000a580:	b0 f2       	add.a %a2,-1
8000a582:	00 90       	ret 
8000a584:	7b 00 00 27 	movh %d2,28672
8000a588:	1b 82 70 27 	addi %d2,%d2,30472
8000a58c:	7f 24 04 80 	jge.u %d4,%d2,8000a594 <sbrk+0x34>
8000a590:	6d ff d7 ff 	call 8000a53e <abort>
8000a594:	59 f4 c8 d5 	st.w [%a15]24392,%d4
8000a598:	60 f2       	mov.a %a2,%d15
8000a59a:	00 90       	ret 

8000a59c <__truncdfsf2>:
8000a59c:	20 20       	sub.a %sp,32
8000a59e:	d9 a4 20 00 	lea %a4,[%sp]32
8000a5a2:	89 44 64 f5 	st.d [+%a4]-28,%e4
8000a5a6:	d9 a5 0c 00 	lea %a5,[%sp]12
8000a5aa:	6d 00 35 00 	call 8000a614 <__unpack_d>
8000a5ae:	19 a7 18 00 	ld.w %d7,[%sp]24
8000a5b2:	19 a2 1c 00 	ld.w %d2,[%sp]28
8000a5b6:	39 a4 0c 00 	ld.bu %d4,[%sp]12
8000a5ba:	77 72 00 21 	dextr %d2,%d2,%d7,2
8000a5be:	b7 07 02 7f 	insert %d7,%d7,0,30,2
8000a5c2:	02 23       	mov %d3,%d2
8000a5c4:	8f 12 40 21 	or %d2,%d2,1
8000a5c8:	19 a5 10 00 	ld.w %d5,[%sp]16
8000a5cc:	19 a6 14 00 	ld.w %d6,[%sp]20
8000a5d0:	2b 32 40 77 	sel %d7,%d7,%d2,%d3
8000a5d4:	1d 00 15 00 	j 8000a5fe <__make_fp>

8000a5d8 <__umoddi3>:
8000a5d8:	0f 67 a0 90 	or %d9,%d7,%d6
8000a5dc:	02 6f       	mov %d15,%d6
8000a5de:	d2 00       	mov %e0,0
8000a5e0:	76 9c       	jz %d9,8000a5f8 <__umoddi3+0x20>
8000a5e2:	02 7a       	mov %d10,%d7
8000a5e4:	0b 45 10 88 	mov %e8,%d5,%d4
8000a5e8:	6d ff 56 dd 	call 80006094 <__udivdi3>
8000a5ec:	23 f2 68 08 	msub.u %e0,%e8,%d2,%d15
8000a5f0:	23 a2 0a 11 	msub %d1,%d1,%d2,%d10
8000a5f4:	23 f3 0a 11 	msub %d1,%d1,%d3,%d15
8000a5f8:	0b 01 10 28 	mov %e2,%d1,%d0
8000a5fc:	00 90       	ret 

8000a5fe <__make_fp>:
8000a5fe:	20 10       	sub.a %sp,16
8000a600:	40 a4       	mov.aa %a4,%sp
8000a602:	34 a4       	st.b [%sp],%d4
8000a604:	59 a5 04 00 	st.w [%sp]4,%d5
8000a608:	59 a6 08 00 	st.w [%sp]8,%d6
8000a60c:	59 a7 0c 00 	st.w [%sp]12,%d7
8000a610:	1d 00 58 00 	j 8000a6c0 <__pack_f>

8000a614 <__unpack_d>:
8000a614:	19 44 04 00 	ld.w %d4,[%a4]4
8000a618:	54 42       	ld.w %d2,[%a4]
8000a61a:	37 04 74 50 	extr.u %d5,%d4,0,20
8000a61e:	37 04 6b fa 	extr.u %d15,%d4,20,11
8000a622:	8f 14 1e 40 	sh %d4,%d4,-31
8000a626:	59 54 04 00 	st.w [%a5]4,%d4
8000a62a:	02 53       	mov %d3,%d5
8000a62c:	ee 21       	jnz %d15,8000a66e <__unpack_d+0x5a>
8000a62e:	0f 25 a0 f0 	or %d15,%d5,%d2
8000a632:	ee 03       	jnz %d15,8000a638 <__unpack_d+0x24>
8000a634:	82 2f       	mov %d15,2
8000a636:	3c 23       	j 8000a67c <__unpack_d+0x68>
8000a638:	3b 20 c0 ff 	mov %d15,-1022
8000a63c:	6c 52       	st.w [%a5]8,%d15
8000a63e:	82 3f       	mov %d15,3
8000a640:	77 25 00 34 	dextr %d3,%d5,%d2,8
8000a644:	2c 50       	st.b [%a5]0,%d15
8000a646:	8f 82 00 20 	sh %d2,%d2,8
8000a64a:	3b 10 c0 ff 	mov %d15,-1023
8000a64e:	77 23 80 30 	dextr %d3,%d3,%d2,1
8000a652:	7b 00 00 61 	movh %d6,4096
8000a656:	0b 63 30 51 	lt.u %d5,%d3,%d6
8000a65a:	02 f4       	mov %d4,%d15
8000a65c:	06 12       	sh %d2,1
8000a65e:	c2 ff       	add %d15,-1
8000a660:	df 05 f7 ff 	jne %d5,0,8000a64e <__unpack_d+0x3a>
8000a664:	59 54 08 00 	st.w [%a5]8,%d4
8000a668:	59 52 0c 00 	st.w [%a5]12,%d2
8000a66c:	3c 27       	j 8000a6ba <__unpack_d+0xa6>
8000a66e:	3b f0 7f 40 	mov %d4,2047
8000a672:	fe 47       	jne %d15,%d4,8000a6a0 <__unpack_d+0x8c>
8000a674:	0f 25 a0 f0 	or %d15,%d5,%d2
8000a678:	ee 04       	jnz %d15,8000a680 <__unpack_d+0x6c>
8000a67a:	82 4f       	mov %d15,4
8000a67c:	2c 50       	st.b [%a5]0,%d15
8000a67e:	00 90       	ret 
8000a680:	7b 80 00 f0 	movh %d15,8
8000a684:	26 5f       	and %d15,%d5
8000a686:	6e 02       	jz %d15,8000a68a <__unpack_d+0x76>
8000a688:	82 1f       	mov %d15,1
8000a68a:	2c 50       	st.b [%a5]0,%d15
8000a68c:	b7 03 81 f9 	insert %d15,%d3,0,19,1
8000a690:	77 2f 00 f4 	dextr %d15,%d15,%d2,8
8000a694:	8f 82 00 40 	sh %d4,%d2,8
8000a698:	59 54 0c 00 	st.w [%a5]12,%d4
8000a69c:	6c 54       	st.w [%a5]16,%d15
8000a69e:	00 90       	ret 
8000a6a0:	1b 1f c0 ff 	addi %d15,%d15,-1023
8000a6a4:	77 25 00 34 	dextr %d3,%d5,%d2,8
8000a6a8:	6c 52       	st.w [%a5]8,%d15
8000a6aa:	8f 82 00 20 	sh %d2,%d2,8
8000a6ae:	82 3f       	mov %d15,3
8000a6b0:	b7 f3 01 3e 	insert %d3,%d3,15,28,1
8000a6b4:	2c 50       	st.b [%a5]0,%d15
8000a6b6:	59 52 0c 00 	st.w [%a5]12,%d2
8000a6ba:	59 53 10 00 	st.w [%a5]16,%d3
8000a6be:	00 90       	ret 

8000a6c0 <__pack_f>:
8000a6c0:	14 45       	ld.bu %d5,[%a4]
8000a6c2:	4c 43       	ld.w %d15,[%a4]12
8000a6c4:	19 47 04 00 	ld.w %d7,[%a4]4
8000a6c8:	ff 25 09 80 	jge.u %d5,2,8000a6da <__pack_f+0x1a>
8000a6cc:	37 0f f6 33 	extr.u %d3,%d15,7,22
8000a6d0:	b7 f3 01 3b 	insert %d3,%d3,15,22,1
8000a6d4:	3b f0 0f 40 	mov %d4,255
8000a6d8:	3c 4f       	j 8000a776 <__pack_f+0xb6>
8000a6da:	3b f0 0f 40 	mov %d4,255
8000a6de:	82 03       	mov %d3,0
8000a6e0:	df 45 4b 00 	jeq %d5,4,8000a776 <__pack_f+0xb6>
8000a6e4:	8b 25 00 62 	eq %d6,%d5,2
8000a6e8:	8b 0f e0 64 	or.eq %d6,%d15,0
8000a6ec:	82 04       	mov %d4,0
8000a6ee:	df 06 44 80 	jne %d6,0,8000a776 <__pack_f+0xb6>
8000a6f2:	19 45 08 00 	ld.w %d5,[%a4]8
8000a6f6:	8b 25 98 42 	ge %d4,%d5,-126
8000a6fa:	df 04 24 80 	jne %d4,0,8000a742 <__pack_f+0x82>
8000a6fe:	8b 25 18 51 	rsub %d5,%d5,-126
8000a702:	8b a5 81 42 	ge %d4,%d5,26
8000a706:	f6 4c       	jnz %d4,8000a71e <__pack_f+0x5e>
8000a708:	82 12       	mov %d2,1
8000a70a:	0f 52 00 20 	sh %d2,%d2,%d5
8000a70e:	8b 05 00 31 	rsub %d3,%d5,0
8000a712:	c2 f2       	add %d2,-1
8000a714:	0f 3f 00 30 	sh %d3,%d15,%d3
8000a718:	26 2f       	and %d15,%d2
8000a71a:	8b 0f 00 35 	or.ne %d3,%d15,0
8000a71e:	8f f3 07 f1 	and %d15,%d3,127
8000a722:	8b 0f 24 f2 	ne %d15,%d15,64
8000a726:	ee 06       	jnz %d15,8000a732 <__pack_f+0x72>
8000a728:	8f 03 08 f1 	and %d15,%d3,128
8000a72c:	ab 03 04 3f 	cadd %d3,%d15,%d3,64
8000a730:	3c 03       	j 8000a736 <__pack_f+0x76>
8000a732:	1b f3 03 30 	addi %d3,%d3,63
8000a736:	7b 00 00 f4 	movh %d15,16384
8000a73a:	0b f3 50 41 	ge.u %d4,%d3,%d15
8000a73e:	06 93       	sh %d3,-7
8000a740:	3c 1b       	j 8000a776 <__pack_f+0xb6>
8000a742:	8b 05 88 62 	ge %d6,%d5,128
8000a746:	3b f0 0f 40 	mov %d4,255
8000a74a:	df 06 16 80 	jne %d6,0,8000a776 <__pack_f+0xb6>
8000a74e:	8f ff 07 31 	and %d3,%d15,127
8000a752:	8b 03 24 32 	ne %d3,%d3,64
8000a756:	f6 36       	jnz %d3,8000a762 <__pack_f+0xa2>
8000a758:	8f 0f 08 31 	and %d3,%d15,128
8000a75c:	ab 0f 04 f3 	cadd %d15,%d3,%d15,64
8000a760:	3c 03       	j 8000a766 <__pack_f+0xa6>
8000a762:	1b ff 03 f0 	addi %d15,%d15,63
8000a766:	1b f5 07 40 	addi %d4,%d5,127
8000a76a:	ce f4       	jgez %d15,8000a772 <__pack_f+0xb2>
8000a76c:	06 ff       	sh %d15,-1
8000a76e:	1b 05 08 40 	addi %d4,%d5,128
8000a772:	8f 9f 1f 30 	sh %d3,%d15,-7
8000a776:	82 02       	mov %d2,0
8000a778:	37 32 17 20 	insert %d2,%d2,%d3,0,23
8000a77c:	37 42 88 2b 	insert %d2,%d2,%d4,23,8
8000a780:	37 72 81 2f 	insert %d2,%d2,%d7,31,1
8000a784:	00 90       	ret 
