
D:\gcc_arm_none_eabi\gcc-arm-none-eabi-10.3-2021.10-win32\Unit3_Revision\HC-05_UART\DMA_Project.elf:     file format elf32-littlearm


Disassembly of section .vectors:

00000000 <gp_fn_vectors>:
   0:	20001d4c 	andcs	r1, r0, ip, asr #26
   4:	00000965 	andeq	r0, r0, r5, ror #18
   8:	00000959 	andeq	r0, r0, r9, asr r9
   c:	00000959 	andeq	r0, r0, r9, asr r9
  10:	00000959 	andeq	r0, r0, r9, asr r9
  14:	00000959 	andeq	r0, r0, r9, asr r9
  18:	00000959 	andeq	r0, r0, r9, asr r9

Disassembly of section .text:

0000001c <DMA_PeripheralInitialization>:
  1c:	b480      	push	{r7}
  1e:	af00      	add	r7, sp, #0
  20:	4a08      	ldr	r2, [pc, #32]	; (44 <DMA_PeripheralInitialization+0x28>)
  22:	6813      	ldr	r3, [r2, #0]
  24:	f043 0301 	orr.w	r3, r3, #1
  28:	6013      	str	r3, [r2, #0]
  2a:	4b07      	ldr	r3, [pc, #28]	; (48 <DMA_PeripheralInitialization+0x2c>)
  2c:	681b      	ldr	r3, [r3, #0]
  2e:	4a06      	ldr	r2, [pc, #24]	; (48 <DMA_PeripheralInitialization+0x2c>)
  30:	f043 0301 	orr.w	r3, r3, #1
  34:	6013      	str	r3, [r2, #0]
  36:	4b05      	ldr	r3, [pc, #20]	; (4c <DMA_PeripheralInitialization+0x30>)
  38:	4a05      	ldr	r2, [pc, #20]	; (50 <DMA_PeripheralInitialization+0x34>)
  3a:	601a      	str	r2, [r3, #0]
  3c:	bf00      	nop
  3e:	46bd      	mov	sp, r7
  40:	bc80      	pop	{r7}
  42:	4770      	bx	lr
  44:	400fe60c 	andmi	lr, pc, ip, lsl #12
  48:	400ff004 	andmi	pc, pc, r4
  4c:	400ff008 	andmi	pc, pc, r8
  50:	20000800 	andcs	r0, r0, r0, lsl #16

00000054 <DMA_EnableChannelAttributes>:
  54:	b580      	push	{r7, lr}
  56:	b082      	sub	sp, #8
  58:	af00      	add	r7, sp, #0
  5a:	6078      	str	r0, [r7, #4]
  5c:	687b      	ldr	r3, [r7, #4]
  5e:	799a      	ldrb	r2, [r3, #6]
  60:	687b      	ldr	r3, [r7, #4]
  62:	781b      	ldrb	r3, [r3, #0]
  64:	4619      	mov	r1, r3
  66:	4610      	mov	r0, r2
  68:	f000 f96e 	bl	348 <DMA_ConfigurePriority>
  6c:	4b19      	ldr	r3, [pc, #100]	; (d4 <DMA_EnableChannelAttributes+0x80>)
  6e:	681b      	ldr	r3, [r3, #0]
  70:	687a      	ldr	r2, [r7, #4]
  72:	7812      	ldrb	r2, [r2, #0]
  74:	4611      	mov	r1, r2
  76:	2201      	movs	r2, #1
  78:	408a      	lsls	r2, r1
  7a:	4611      	mov	r1, r2
  7c:	4a15      	ldr	r2, [pc, #84]	; (d4 <DMA_EnableChannelAttributes+0x80>)
  7e:	430b      	orrs	r3, r1
  80:	6013      	str	r3, [r2, #0]
  82:	4b15      	ldr	r3, [pc, #84]	; (d8 <DMA_EnableChannelAttributes+0x84>)
  84:	681b      	ldr	r3, [r3, #0]
  86:	687a      	ldr	r2, [r7, #4]
  88:	7812      	ldrb	r2, [r2, #0]
  8a:	4611      	mov	r1, r2
  8c:	2201      	movs	r2, #1
  8e:	408a      	lsls	r2, r1
  90:	4611      	mov	r1, r2
  92:	4a11      	ldr	r2, [pc, #68]	; (d8 <DMA_EnableChannelAttributes+0x84>)
  94:	430b      	orrs	r3, r1
  96:	6013      	str	r3, [r2, #0]
  98:	4b10      	ldr	r3, [pc, #64]	; (dc <DMA_EnableChannelAttributes+0x88>)
  9a:	681b      	ldr	r3, [r3, #0]
  9c:	687a      	ldr	r2, [r7, #4]
  9e:	7812      	ldrb	r2, [r2, #0]
  a0:	4611      	mov	r1, r2
  a2:	2201      	movs	r2, #1
  a4:	408a      	lsls	r2, r1
  a6:	4611      	mov	r1, r2
  a8:	4a0c      	ldr	r2, [pc, #48]	; (dc <DMA_EnableChannelAttributes+0x88>)
  aa:	430b      	orrs	r3, r1
  ac:	6013      	str	r3, [r2, #0]
  ae:	687b      	ldr	r3, [r7, #4]
  b0:	781a      	ldrb	r2, [r3, #0]
  b2:	687b      	ldr	r3, [r7, #4]
  b4:	79db      	ldrb	r3, [r3, #7]
  b6:	4619      	mov	r1, r3
  b8:	4610      	mov	r0, r2
  ba:	f000 f971 	bl	3a0 <DMA_AssignChannel>
  be:	687b      	ldr	r3, [r7, #4]
  c0:	781b      	ldrb	r3, [r3, #0]
  c2:	4619      	mov	r1, r3
  c4:	2000      	movs	r0, #0
  c6:	f000 f915 	bl	2f4 <DMA_ConfigureChannelInterrupt>
  ca:	bf00      	nop
  cc:	3708      	adds	r7, #8
  ce:	46bd      	mov	sp, r7
  d0:	bd80      	pop	{r7, pc}
  d2:	bf00      	nop
  d4:	400ff034 	andmi	pc, pc, r4, lsr r0	; <UNPREDICTABLE>
  d8:	400ff01c 	andmi	pc, pc, ip, lsl r0	; <UNPREDICTABLE>
  dc:	400ff024 	andmi	pc, pc, r4, lsr #32

000000e0 <DMA_EnableChannel>:
  e0:	b480      	push	{r7}
  e2:	b083      	sub	sp, #12
  e4:	af00      	add	r7, sp, #0
  e6:	4603      	mov	r3, r0
  e8:	71fb      	strb	r3, [r7, #7]
  ea:	4b07      	ldr	r3, [pc, #28]	; (108 <DMA_EnableChannel+0x28>)
  ec:	681b      	ldr	r3, [r3, #0]
  ee:	79fa      	ldrb	r2, [r7, #7]
  f0:	2101      	movs	r1, #1
  f2:	fa01 f202 	lsl.w	r2, r1, r2
  f6:	4611      	mov	r1, r2
  f8:	4a03      	ldr	r2, [pc, #12]	; (108 <DMA_EnableChannel+0x28>)
  fa:	430b      	orrs	r3, r1
  fc:	6013      	str	r3, [r2, #0]
  fe:	bf00      	nop
 100:	370c      	adds	r7, #12
 102:	46bd      	mov	sp, r7
 104:	bc80      	pop	{r7}
 106:	4770      	bx	lr
 108:	400ff028 	andmi	pc, pc, r8, lsr #32

0000010c <DMA_ChannelControlStructureSet>:
 10c:	b480      	push	{r7}
 10e:	b085      	sub	sp, #20
 110:	af00      	add	r7, sp, #0
 112:	60f8      	str	r0, [r7, #12]
 114:	60b9      	str	r1, [r7, #8]
 116:	607a      	str	r2, [r7, #4]
 118:	4b4c      	ldr	r3, [pc, #304]	; (24c <DMA_ChannelControlStructureSet+0x140>)
 11a:	781b      	ldrb	r3, [r3, #0]
 11c:	b2db      	uxtb	r3, r3
 11e:	2b00      	cmp	r3, #0
 120:	d004      	beq.n	12c <DMA_ChannelControlStructureSet+0x20>
 122:	4b4b      	ldr	r3, [pc, #300]	; (250 <DMA_ChannelControlStructureSet+0x144>)
 124:	781b      	ldrb	r3, [r3, #0]
 126:	b2db      	uxtb	r3, r3
 128:	2b00      	cmp	r3, #0
 12a:	d107      	bne.n	13c <DMA_ChannelControlStructureSet+0x30>
 12c:	68fb      	ldr	r3, [r7, #12]
 12e:	781b      	ldrb	r3, [r3, #0]
 130:	461a      	mov	r2, r3
 132:	4b48      	ldr	r3, [pc, #288]	; (254 <DMA_ChannelControlStructureSet+0x148>)
 134:	f853 3022 	ldr.w	r3, [r3, r2, lsl #2]
 138:	68ba      	ldr	r2, [r7, #8]
 13a:	601a      	str	r2, [r3, #0]
 13c:	4b46      	ldr	r3, [pc, #280]	; (258 <DMA_ChannelControlStructureSet+0x14c>)
 13e:	781b      	ldrb	r3, [r3, #0]
 140:	b2db      	uxtb	r3, r3
 142:	2b00      	cmp	r3, #0
 144:	d004      	beq.n	150 <DMA_ChannelControlStructureSet+0x44>
 146:	4b42      	ldr	r3, [pc, #264]	; (250 <DMA_ChannelControlStructureSet+0x144>)
 148:	781b      	ldrb	r3, [r3, #0]
 14a:	b2db      	uxtb	r3, r3
 14c:	2b00      	cmp	r3, #0
 14e:	d107      	bne.n	160 <DMA_ChannelControlStructureSet+0x54>
 150:	68fb      	ldr	r3, [r7, #12]
 152:	781b      	ldrb	r3, [r3, #0]
 154:	461a      	mov	r2, r3
 156:	4b41      	ldr	r3, [pc, #260]	; (25c <DMA_ChannelControlStructureSet+0x150>)
 158:	f853 3022 	ldr.w	r3, [r3, r2, lsl #2]
 15c:	687a      	ldr	r2, [r7, #4]
 15e:	601a      	str	r2, [r3, #0]
 160:	68fb      	ldr	r3, [r7, #12]
 162:	7859      	ldrb	r1, [r3, #1]
 164:	68fb      	ldr	r3, [r7, #12]
 166:	781b      	ldrb	r3, [r3, #0]
 168:	461a      	mov	r2, r3
 16a:	4b3d      	ldr	r3, [pc, #244]	; (260 <DMA_ChannelControlStructureSet+0x154>)
 16c:	f853 2022 	ldr.w	r2, [r3, r2, lsl #2]
 170:	460b      	mov	r3, r1
 172:	f003 0303 	and.w	r3, r3, #3
 176:	b2d9      	uxtb	r1, r3
 178:	6813      	ldr	r3, [r2, #0]
 17a:	f361 739f 	bfi	r3, r1, #30, #2
 17e:	6013      	str	r3, [r2, #0]
 180:	68fb      	ldr	r3, [r7, #12]
 182:	78d9      	ldrb	r1, [r3, #3]
 184:	68fb      	ldr	r3, [r7, #12]
 186:	781b      	ldrb	r3, [r3, #0]
 188:	461a      	mov	r2, r3
 18a:	4b35      	ldr	r3, [pc, #212]	; (260 <DMA_ChannelControlStructureSet+0x154>)
 18c:	f853 2022 	ldr.w	r2, [r3, r2, lsl #2]
 190:	460b      	mov	r3, r1
 192:	f003 0303 	and.w	r3, r3, #3
 196:	b2d9      	uxtb	r1, r3
 198:	6813      	ldr	r3, [r2, #0]
 19a:	f361 731d 	bfi	r3, r1, #28, #2
 19e:	6013      	str	r3, [r2, #0]
 1a0:	68fb      	ldr	r3, [r7, #12]
 1a2:	7899      	ldrb	r1, [r3, #2]
 1a4:	68fb      	ldr	r3, [r7, #12]
 1a6:	781b      	ldrb	r3, [r3, #0]
 1a8:	461a      	mov	r2, r3
 1aa:	4b2d      	ldr	r3, [pc, #180]	; (260 <DMA_ChannelControlStructureSet+0x154>)
 1ac:	f853 2022 	ldr.w	r2, [r3, r2, lsl #2]
 1b0:	460b      	mov	r3, r1
 1b2:	f003 0303 	and.w	r3, r3, #3
 1b6:	b2d9      	uxtb	r1, r3
 1b8:	6813      	ldr	r3, [r2, #0]
 1ba:	f361 639b 	bfi	r3, r1, #26, #2
 1be:	6013      	str	r3, [r2, #0]
 1c0:	68fb      	ldr	r3, [r7, #12]
 1c2:	7919      	ldrb	r1, [r3, #4]
 1c4:	68fb      	ldr	r3, [r7, #12]
 1c6:	781b      	ldrb	r3, [r3, #0]
 1c8:	461a      	mov	r2, r3
 1ca:	4b25      	ldr	r3, [pc, #148]	; (260 <DMA_ChannelControlStructureSet+0x154>)
 1cc:	f853 2022 	ldr.w	r2, [r3, r2, lsl #2]
 1d0:	460b      	mov	r3, r1
 1d2:	f003 0303 	and.w	r3, r3, #3
 1d6:	b2d9      	uxtb	r1, r3
 1d8:	6813      	ldr	r3, [r2, #0]
 1da:	f361 6319 	bfi	r3, r1, #24, #2
 1de:	6013      	str	r3, [r2, #0]
 1e0:	68fb      	ldr	r3, [r7, #12]
 1e2:	7959      	ldrb	r1, [r3, #5]
 1e4:	68fb      	ldr	r3, [r7, #12]
 1e6:	781b      	ldrb	r3, [r3, #0]
 1e8:	461a      	mov	r2, r3
 1ea:	4b1d      	ldr	r3, [pc, #116]	; (260 <DMA_ChannelControlStructureSet+0x154>)
 1ec:	f853 2022 	ldr.w	r2, [r3, r2, lsl #2]
 1f0:	460b      	mov	r3, r1
 1f2:	f003 0307 	and.w	r3, r3, #7
 1f6:	b2d9      	uxtb	r1, r3
 1f8:	6813      	ldr	r3, [r2, #0]
 1fa:	f361 0302 	bfi	r3, r1, #0, #3
 1fe:	6013      	str	r3, [r2, #0]
 200:	68fb      	ldr	r3, [r7, #12]
 202:	68d9      	ldr	r1, [r3, #12]
 204:	68fb      	ldr	r3, [r7, #12]
 206:	781b      	ldrb	r3, [r3, #0]
 208:	461a      	mov	r2, r3
 20a:	4b15      	ldr	r3, [pc, #84]	; (260 <DMA_ChannelControlStructureSet+0x154>)
 20c:	f853 2022 	ldr.w	r2, [r3, r2, lsl #2]
 210:	460b      	mov	r3, r1
 212:	f3c3 0309 	ubfx	r3, r3, #0, #10
 216:	b299      	uxth	r1, r3
 218:	6813      	ldr	r3, [r2, #0]
 21a:	f361 130d 	bfi	r3, r1, #4, #10
 21e:	6013      	str	r3, [r2, #0]
 220:	68fb      	ldr	r3, [r7, #12]
 222:	7a19      	ldrb	r1, [r3, #8]
 224:	68fb      	ldr	r3, [r7, #12]
 226:	781b      	ldrb	r3, [r3, #0]
 228:	461a      	mov	r2, r3
 22a:	4b0d      	ldr	r3, [pc, #52]	; (260 <DMA_ChannelControlStructureSet+0x154>)
 22c:	f853 2022 	ldr.w	r2, [r3, r2, lsl #2]
 230:	460b      	mov	r3, r1
 232:	f003 030f 	and.w	r3, r3, #15
 236:	b2d9      	uxtb	r1, r3
 238:	6813      	ldr	r3, [r2, #0]
 23a:	f361 3391 	bfi	r3, r1, #14, #4
 23e:	6013      	str	r3, [r2, #0]
 240:	bf00      	nop
 242:	3714      	adds	r7, #20
 244:	46bd      	mov	sp, r7
 246:	bc80      	pop	{r7}
 248:	4770      	bx	lr
 24a:	bf00      	nop
 24c:	20001d51 	andcs	r1, r0, r1, asr sp
 250:	20000401 	andcs	r0, r0, r1, lsl #8
 254:	00000bc8 	andeq	r0, r0, r8, asr #23
 258:	20001d50 	andcs	r1, r0, r0, asr sp
 25c:	00000cc8 	andeq	r0, r0, r8, asr #25
 260:	00000e48 	andeq	r0, r0, r8, asr #28

00000264 <DMA_ConfigureChannelSoftwareRequest>:
 264:	b480      	push	{r7}
 266:	b083      	sub	sp, #12
 268:	af00      	add	r7, sp, #0
 26a:	4603      	mov	r3, r0
 26c:	460a      	mov	r2, r1
 26e:	71fb      	strb	r3, [r7, #7]
 270:	4613      	mov	r3, r2
 272:	71bb      	strb	r3, [r7, #6]
 274:	79fb      	ldrb	r3, [r7, #7]
 276:	2b00      	cmp	r3, #0
 278:	d002      	beq.n	280 <DMA_ConfigureChannelSoftwareRequest+0x1c>
 27a:	2b01      	cmp	r3, #1
 27c:	d00c      	beq.n	298 <DMA_ConfigureChannelSoftwareRequest+0x34>
 27e:	e016      	b.n	2ae <DMA_ConfigureChannelSoftwareRequest+0x4a>
 280:	4b0d      	ldr	r3, [pc, #52]	; (2b8 <DMA_ConfigureChannelSoftwareRequest+0x54>)
 282:	681b      	ldr	r3, [r3, #0]
 284:	79ba      	ldrb	r2, [r7, #6]
 286:	2101      	movs	r1, #1
 288:	fa01 f202 	lsl.w	r2, r1, r2
 28c:	43d2      	mvns	r2, r2
 28e:	4611      	mov	r1, r2
 290:	4a09      	ldr	r2, [pc, #36]	; (2b8 <DMA_ConfigureChannelSoftwareRequest+0x54>)
 292:	400b      	ands	r3, r1
 294:	6013      	str	r3, [r2, #0]
 296:	e00a      	b.n	2ae <DMA_ConfigureChannelSoftwareRequest+0x4a>
 298:	4b07      	ldr	r3, [pc, #28]	; (2b8 <DMA_ConfigureChannelSoftwareRequest+0x54>)
 29a:	681b      	ldr	r3, [r3, #0]
 29c:	79ba      	ldrb	r2, [r7, #6]
 29e:	2101      	movs	r1, #1
 2a0:	fa01 f202 	lsl.w	r2, r1, r2
 2a4:	4611      	mov	r1, r2
 2a6:	4a04      	ldr	r2, [pc, #16]	; (2b8 <DMA_ConfigureChannelSoftwareRequest+0x54>)
 2a8:	430b      	orrs	r3, r1
 2aa:	6013      	str	r3, [r2, #0]
 2ac:	bf00      	nop
 2ae:	bf00      	nop
 2b0:	370c      	adds	r7, #12
 2b2:	46bd      	mov	sp, r7
 2b4:	bc80      	pop	{r7}
 2b6:	4770      	bx	lr
 2b8:	400ff014 	andmi	pc, pc, r4, lsl r0	; <UNPREDICTABLE>

000002bc <DMA_ConfigurePeripheralInterrupt>:
 2bc:	b580      	push	{r7, lr}
 2be:	b082      	sub	sp, #8
 2c0:	af00      	add	r7, sp, #0
 2c2:	4603      	mov	r3, r0
 2c4:	71fb      	strb	r3, [r7, #7]
 2c6:	79fb      	ldrb	r3, [r7, #7]
 2c8:	2b00      	cmp	r3, #0
 2ca:	d106      	bne.n	2da <DMA_ConfigurePeripheralInterrupt+0x1e>
 2cc:	202e      	movs	r0, #46	; 0x2e
 2ce:	f000 faf7 	bl	8c0 <NVIC_Enable_Interrupt>
 2d2:	202f      	movs	r0, #47	; 0x2f
 2d4:	f000 faf4 	bl	8c0 <NVIC_Enable_Interrupt>
 2d8:	e008      	b.n	2ec <DMA_ConfigurePeripheralInterrupt+0x30>
 2da:	79fb      	ldrb	r3, [r7, #7]
 2dc:	2b01      	cmp	r3, #1
 2de:	d105      	bne.n	2ec <DMA_ConfigurePeripheralInterrupt+0x30>
 2e0:	202e      	movs	r0, #46	; 0x2e
 2e2:	f000 fb13 	bl	90c <NVIC_Clear_Interrupt>
 2e6:	202f      	movs	r0, #47	; 0x2f
 2e8:	f000 fb10 	bl	90c <NVIC_Clear_Interrupt>
 2ec:	bf00      	nop
 2ee:	3708      	adds	r7, #8
 2f0:	46bd      	mov	sp, r7
 2f2:	bd80      	pop	{r7, pc}

000002f4 <DMA_ConfigureChannelInterrupt>:
 2f4:	b480      	push	{r7}
 2f6:	b083      	sub	sp, #12
 2f8:	af00      	add	r7, sp, #0
 2fa:	4603      	mov	r3, r0
 2fc:	460a      	mov	r2, r1
 2fe:	71fb      	strb	r3, [r7, #7]
 300:	4613      	mov	r3, r2
 302:	71bb      	strb	r3, [r7, #6]
 304:	79fb      	ldrb	r3, [r7, #7]
 306:	2b00      	cmp	r3, #0
 308:	d002      	beq.n	310 <DMA_ConfigureChannelInterrupt+0x1c>
 30a:	2b01      	cmp	r3, #1
 30c:	d00a      	beq.n	324 <DMA_ConfigureChannelInterrupt+0x30>
 30e:	e014      	b.n	33a <DMA_ConfigureChannelInterrupt+0x46>
 310:	4b0c      	ldr	r3, [pc, #48]	; (344 <DMA_ConfigureChannelInterrupt+0x50>)
 312:	681b      	ldr	r3, [r3, #0]
 314:	79ba      	ldrb	r2, [r7, #6]
 316:	2101      	movs	r1, #1
 318:	fa01 f202 	lsl.w	r2, r1, r2
 31c:	4611      	mov	r1, r2
 31e:	4a09      	ldr	r2, [pc, #36]	; (344 <DMA_ConfigureChannelInterrupt+0x50>)
 320:	430b      	orrs	r3, r1
 322:	6013      	str	r3, [r2, #0]
 324:	4b07      	ldr	r3, [pc, #28]	; (344 <DMA_ConfigureChannelInterrupt+0x50>)
 326:	681b      	ldr	r3, [r3, #0]
 328:	79ba      	ldrb	r2, [r7, #6]
 32a:	2101      	movs	r1, #1
 32c:	fa01 f202 	lsl.w	r2, r1, r2
 330:	43d2      	mvns	r2, r2
 332:	4611      	mov	r1, r2
 334:	4a03      	ldr	r2, [pc, #12]	; (344 <DMA_ConfigureChannelInterrupt+0x50>)
 336:	400b      	ands	r3, r1
 338:	6013      	str	r3, [r2, #0]
 33a:	bf00      	nop
 33c:	370c      	adds	r7, #12
 33e:	46bd      	mov	sp, r7
 340:	bc80      	pop	{r7}
 342:	4770      	bx	lr
 344:	400ff504 	andmi	pc, pc, r4, lsl #10

00000348 <DMA_ConfigurePriority>:
 348:	b480      	push	{r7}
 34a:	b083      	sub	sp, #12
 34c:	af00      	add	r7, sp, #0
 34e:	4603      	mov	r3, r0
 350:	460a      	mov	r2, r1
 352:	71fb      	strb	r3, [r7, #7]
 354:	4613      	mov	r3, r2
 356:	71bb      	strb	r3, [r7, #6]
 358:	79fb      	ldrb	r3, [r7, #7]
 35a:	2b00      	cmp	r3, #0
 35c:	d002      	beq.n	364 <DMA_ConfigurePriority+0x1c>
 35e:	2b01      	cmp	r3, #1
 360:	d00c      	beq.n	37c <DMA_ConfigurePriority+0x34>
 362:	e016      	b.n	392 <DMA_ConfigurePriority+0x4a>
 364:	4b0d      	ldr	r3, [pc, #52]	; (39c <DMA_ConfigurePriority+0x54>)
 366:	681b      	ldr	r3, [r3, #0]
 368:	79ba      	ldrb	r2, [r7, #6]
 36a:	2101      	movs	r1, #1
 36c:	fa01 f202 	lsl.w	r2, r1, r2
 370:	43d2      	mvns	r2, r2
 372:	4611      	mov	r1, r2
 374:	4a09      	ldr	r2, [pc, #36]	; (39c <DMA_ConfigurePriority+0x54>)
 376:	400b      	ands	r3, r1
 378:	6013      	str	r3, [r2, #0]
 37a:	e00a      	b.n	392 <DMA_ConfigurePriority+0x4a>
 37c:	4b07      	ldr	r3, [pc, #28]	; (39c <DMA_ConfigurePriority+0x54>)
 37e:	681b      	ldr	r3, [r3, #0]
 380:	79ba      	ldrb	r2, [r7, #6]
 382:	2101      	movs	r1, #1
 384:	fa01 f202 	lsl.w	r2, r1, r2
 388:	4611      	mov	r1, r2
 38a:	4a04      	ldr	r2, [pc, #16]	; (39c <DMA_ConfigurePriority+0x54>)
 38c:	430b      	orrs	r3, r1
 38e:	6013      	str	r3, [r2, #0]
 390:	bf00      	nop
 392:	bf00      	nop
 394:	370c      	adds	r7, #12
 396:	46bd      	mov	sp, r7
 398:	bc80      	pop	{r7}
 39a:	4770      	bx	lr
 39c:	400ff038 	andmi	pc, pc, r8, lsr r0	; <UNPREDICTABLE>

000003a0 <DMA_AssignChannel>:
 3a0:	b480      	push	{r7}
 3a2:	b085      	sub	sp, #20
 3a4:	af00      	add	r7, sp, #0
 3a6:	4603      	mov	r3, r0
 3a8:	460a      	mov	r2, r1
 3aa:	71fb      	strb	r3, [r7, #7]
 3ac:	4613      	mov	r3, r2
 3ae:	71bb      	strb	r3, [r7, #6]
 3b0:	79fb      	ldrb	r3, [r7, #7]
 3b2:	08db      	lsrs	r3, r3, #3
 3b4:	73fb      	strb	r3, [r7, #15]
 3b6:	79fa      	ldrb	r2, [r7, #7]
 3b8:	7bfb      	ldrb	r3, [r7, #15]
 3ba:	00db      	lsls	r3, r3, #3
 3bc:	1ad3      	subs	r3, r2, r3
 3be:	b2db      	uxtb	r3, r3
 3c0:	009b      	lsls	r3, r3, #2
 3c2:	b2da      	uxtb	r2, r3
 3c4:	79bb      	ldrb	r3, [r7, #6]
 3c6:	4413      	add	r3, r2
 3c8:	73bb      	strb	r3, [r7, #14]
 3ca:	7bfb      	ldrb	r3, [r7, #15]
 3cc:	4a09      	ldr	r2, [pc, #36]	; (3f4 <DMA_AssignChannel+0x54>)
 3ce:	f852 3023 	ldr.w	r3, [r2, r3, lsl #2]
 3d2:	681a      	ldr	r2, [r3, #0]
 3d4:	7bbb      	ldrb	r3, [r7, #14]
 3d6:	2101      	movs	r1, #1
 3d8:	fa01 f303 	lsl.w	r3, r1, r3
 3dc:	4618      	mov	r0, r3
 3de:	7bfb      	ldrb	r3, [r7, #15]
 3e0:	4904      	ldr	r1, [pc, #16]	; (3f4 <DMA_AssignChannel+0x54>)
 3e2:	f851 3023 	ldr.w	r3, [r1, r3, lsl #2]
 3e6:	4302      	orrs	r2, r0
 3e8:	601a      	str	r2, [r3, #0]
 3ea:	bf00      	nop
 3ec:	3714      	adds	r7, #20
 3ee:	46bd      	mov	sp, r7
 3f0:	bc80      	pop	{r7}
 3f2:	4770      	bx	lr
 3f4:	20000000 	andcs	r0, r0, r0

000003f8 <GPIO_EnableRunModeClockGateControl>:
 3f8:	b480      	push	{r7}
 3fa:	b083      	sub	sp, #12
 3fc:	af00      	add	r7, sp, #0
 3fe:	4603      	mov	r3, r0
 400:	71fb      	strb	r3, [r7, #7]
 402:	4b14      	ldr	r3, [pc, #80]	; (454 <GPIO_EnableRunModeClockGateControl+0x5c>)
 404:	681b      	ldr	r3, [r3, #0]
 406:	f3c3 0305 	ubfx	r3, r3, #0, #6
 40a:	b2db      	uxtb	r3, r3
 40c:	b25a      	sxtb	r2, r3
 40e:	79fb      	ldrb	r3, [r7, #7]
 410:	2101      	movs	r1, #1
 412:	fa01 f303 	lsl.w	r3, r1, r3
 416:	b25b      	sxtb	r3, r3
 418:	4313      	orrs	r3, r2
 41a:	b25b      	sxtb	r3, r3
 41c:	4a0d      	ldr	r2, [pc, #52]	; (454 <GPIO_EnableRunModeClockGateControl+0x5c>)
 41e:	f003 033f 	and.w	r3, r3, #63	; 0x3f
 422:	b2d9      	uxtb	r1, r3
 424:	6813      	ldr	r3, [r2, #0]
 426:	f361 0305 	bfi	r3, r1, #0, #6
 42a:	6013      	str	r3, [r2, #0]
 42c:	bf00      	nop
 42e:	4b09      	ldr	r3, [pc, #36]	; (454 <GPIO_EnableRunModeClockGateControl+0x5c>)
 430:	681b      	ldr	r3, [r3, #0]
 432:	f3c3 0305 	ubfx	r3, r3, #0, #6
 436:	b2db      	uxtb	r3, r3
 438:	461a      	mov	r2, r3
 43a:	79fb      	ldrb	r3, [r7, #7]
 43c:	fa42 f303 	asr.w	r3, r2, r3
 440:	f003 0301 	and.w	r3, r3, #1
 444:	2b00      	cmp	r3, #0
 446:	d0f2      	beq.n	42e <GPIO_EnableRunModeClockGateControl+0x36>
 448:	bf00      	nop
 44a:	bf00      	nop
 44c:	370c      	adds	r7, #12
 44e:	46bd      	mov	sp, r7
 450:	bc80      	pop	{r7}
 452:	4770      	bx	lr
 454:	400fe608 	andmi	lr, pc, r8, lsl #12

00000458 <GPIO_SetPinStatus>:
 458:	b480      	push	{r7}
 45a:	b083      	sub	sp, #12
 45c:	af00      	add	r7, sp, #0
 45e:	4603      	mov	r3, r0
 460:	71fb      	strb	r3, [r7, #7]
 462:	460b      	mov	r3, r1
 464:	71bb      	strb	r3, [r7, #6]
 466:	4613      	mov	r3, r2
 468:	717b      	strb	r3, [r7, #5]
 46a:	797b      	ldrb	r3, [r7, #5]
 46c:	2b00      	cmp	r3, #0
 46e:	d002      	beq.n	476 <GPIO_SetPinStatus+0x1e>
 470:	2b01      	cmp	r3, #1
 472:	d01a      	beq.n	4aa <GPIO_SetPinStatus+0x52>
 474:	e031      	b.n	4da <GPIO_SetPinStatus+0x82>
 476:	79fb      	ldrb	r3, [r7, #7]
 478:	4a1a      	ldr	r2, [pc, #104]	; (4e4 <GPIO_SetPinStatus+0x8c>)
 47a:	f852 3023 	ldr.w	r3, [r2, r3, lsl #2]
 47e:	681b      	ldr	r3, [r3, #0]
 480:	b2db      	uxtb	r3, r3
 482:	b25a      	sxtb	r2, r3
 484:	79bb      	ldrb	r3, [r7, #6]
 486:	2101      	movs	r1, #1
 488:	fa01 f303 	lsl.w	r3, r1, r3
 48c:	b25b      	sxtb	r3, r3
 48e:	43db      	mvns	r3, r3
 490:	b25b      	sxtb	r3, r3
 492:	4013      	ands	r3, r2
 494:	b259      	sxtb	r1, r3
 496:	79fb      	ldrb	r3, [r7, #7]
 498:	4a12      	ldr	r2, [pc, #72]	; (4e4 <GPIO_SetPinStatus+0x8c>)
 49a:	f852 2023 	ldr.w	r2, [r2, r3, lsl #2]
 49e:	b2c9      	uxtb	r1, r1
 4a0:	6813      	ldr	r3, [r2, #0]
 4a2:	f361 0307 	bfi	r3, r1, #0, #8
 4a6:	6013      	str	r3, [r2, #0]
 4a8:	e017      	b.n	4da <GPIO_SetPinStatus+0x82>
 4aa:	79fb      	ldrb	r3, [r7, #7]
 4ac:	4a0d      	ldr	r2, [pc, #52]	; (4e4 <GPIO_SetPinStatus+0x8c>)
 4ae:	f852 3023 	ldr.w	r3, [r2, r3, lsl #2]
 4b2:	681b      	ldr	r3, [r3, #0]
 4b4:	b2db      	uxtb	r3, r3
 4b6:	b25a      	sxtb	r2, r3
 4b8:	79bb      	ldrb	r3, [r7, #6]
 4ba:	2101      	movs	r1, #1
 4bc:	fa01 f303 	lsl.w	r3, r1, r3
 4c0:	b25b      	sxtb	r3, r3
 4c2:	4313      	orrs	r3, r2
 4c4:	b259      	sxtb	r1, r3
 4c6:	79fb      	ldrb	r3, [r7, #7]
 4c8:	4a06      	ldr	r2, [pc, #24]	; (4e4 <GPIO_SetPinStatus+0x8c>)
 4ca:	f852 2023 	ldr.w	r2, [r2, r3, lsl #2]
 4ce:	b2c9      	uxtb	r1, r1
 4d0:	6813      	ldr	r3, [r2, #0]
 4d2:	f361 0307 	bfi	r3, r1, #0, #8
 4d6:	6013      	str	r3, [r2, #0]
 4d8:	bf00      	nop
 4da:	bf00      	nop
 4dc:	370c      	adds	r7, #12
 4de:	46bd      	mov	sp, r7
 4e0:	bc80      	pop	{r7}
 4e2:	4770      	bx	lr
 4e4:	00000ec8 	andeq	r0, r0, r8, asr #29

000004e8 <GPIO_SetData>:
 4e8:	b480      	push	{r7}
 4ea:	b083      	sub	sp, #12
 4ec:	af00      	add	r7, sp, #0
 4ee:	4603      	mov	r3, r0
 4f0:	71fb      	strb	r3, [r7, #7]
 4f2:	460b      	mov	r3, r1
 4f4:	71bb      	strb	r3, [r7, #6]
 4f6:	4613      	mov	r3, r2
 4f8:	717b      	strb	r3, [r7, #5]
 4fa:	797b      	ldrb	r3, [r7, #5]
 4fc:	2b00      	cmp	r3, #0
 4fe:	d002      	beq.n	506 <GPIO_SetData+0x1e>
 500:	2b01      	cmp	r3, #1
 502:	d01a      	beq.n	53a <GPIO_SetData+0x52>
 504:	e031      	b.n	56a <GPIO_SetData+0x82>
 506:	79fb      	ldrb	r3, [r7, #7]
 508:	4a1a      	ldr	r2, [pc, #104]	; (574 <GPIO_SetData+0x8c>)
 50a:	f852 3023 	ldr.w	r3, [r2, r3, lsl #2]
 50e:	681b      	ldr	r3, [r3, #0]
 510:	b2db      	uxtb	r3, r3
 512:	b25a      	sxtb	r2, r3
 514:	79bb      	ldrb	r3, [r7, #6]
 516:	2101      	movs	r1, #1
 518:	fa01 f303 	lsl.w	r3, r1, r3
 51c:	b25b      	sxtb	r3, r3
 51e:	43db      	mvns	r3, r3
 520:	b25b      	sxtb	r3, r3
 522:	4013      	ands	r3, r2
 524:	b259      	sxtb	r1, r3
 526:	79fb      	ldrb	r3, [r7, #7]
 528:	4a12      	ldr	r2, [pc, #72]	; (574 <GPIO_SetData+0x8c>)
 52a:	f852 2023 	ldr.w	r2, [r2, r3, lsl #2]
 52e:	b2c9      	uxtb	r1, r1
 530:	6813      	ldr	r3, [r2, #0]
 532:	f361 0307 	bfi	r3, r1, #0, #8
 536:	6013      	str	r3, [r2, #0]
 538:	e017      	b.n	56a <GPIO_SetData+0x82>
 53a:	79fb      	ldrb	r3, [r7, #7]
 53c:	4a0d      	ldr	r2, [pc, #52]	; (574 <GPIO_SetData+0x8c>)
 53e:	f852 3023 	ldr.w	r3, [r2, r3, lsl #2]
 542:	681b      	ldr	r3, [r3, #0]
 544:	b2db      	uxtb	r3, r3
 546:	b25a      	sxtb	r2, r3
 548:	79bb      	ldrb	r3, [r7, #6]
 54a:	2101      	movs	r1, #1
 54c:	fa01 f303 	lsl.w	r3, r1, r3
 550:	b25b      	sxtb	r3, r3
 552:	4313      	orrs	r3, r2
 554:	b259      	sxtb	r1, r3
 556:	79fb      	ldrb	r3, [r7, #7]
 558:	4a06      	ldr	r2, [pc, #24]	; (574 <GPIO_SetData+0x8c>)
 55a:	f852 2023 	ldr.w	r2, [r2, r3, lsl #2]
 55e:	b2c9      	uxtb	r1, r1
 560:	6813      	ldr	r3, [r2, #0]
 562:	f361 0307 	bfi	r3, r1, #0, #8
 566:	6013      	str	r3, [r2, #0]
 568:	bf00      	nop
 56a:	bf00      	nop
 56c:	370c      	adds	r7, #12
 56e:	46bd      	mov	sp, r7
 570:	bc80      	pop	{r7}
 572:	4770      	bx	lr
 574:	00000f40 	andeq	r0, r0, r0, asr #30

00000578 <GPIO_ConfigureDigitalEnable>:
 578:	b480      	push	{r7}
 57a:	b083      	sub	sp, #12
 57c:	af00      	add	r7, sp, #0
 57e:	4603      	mov	r3, r0
 580:	71fb      	strb	r3, [r7, #7]
 582:	460b      	mov	r3, r1
 584:	71bb      	strb	r3, [r7, #6]
 586:	4613      	mov	r3, r2
 588:	717b      	strb	r3, [r7, #5]
 58a:	797b      	ldrb	r3, [r7, #5]
 58c:	2b00      	cmp	r3, #0
 58e:	d002      	beq.n	596 <GPIO_ConfigureDigitalEnable+0x1e>
 590:	2b01      	cmp	r3, #1
 592:	d01a      	beq.n	5ca <GPIO_ConfigureDigitalEnable+0x52>
 594:	e031      	b.n	5fa <GPIO_ConfigureDigitalEnable+0x82>
 596:	79fb      	ldrb	r3, [r7, #7]
 598:	4a1a      	ldr	r2, [pc, #104]	; (604 <GPIO_ConfigureDigitalEnable+0x8c>)
 59a:	f852 3023 	ldr.w	r3, [r2, r3, lsl #2]
 59e:	681b      	ldr	r3, [r3, #0]
 5a0:	b2db      	uxtb	r3, r3
 5a2:	b25a      	sxtb	r2, r3
 5a4:	79bb      	ldrb	r3, [r7, #6]
 5a6:	2101      	movs	r1, #1
 5a8:	fa01 f303 	lsl.w	r3, r1, r3
 5ac:	b25b      	sxtb	r3, r3
 5ae:	43db      	mvns	r3, r3
 5b0:	b25b      	sxtb	r3, r3
 5b2:	4013      	ands	r3, r2
 5b4:	b259      	sxtb	r1, r3
 5b6:	79fb      	ldrb	r3, [r7, #7]
 5b8:	4a12      	ldr	r2, [pc, #72]	; (604 <GPIO_ConfigureDigitalEnable+0x8c>)
 5ba:	f852 2023 	ldr.w	r2, [r2, r3, lsl #2]
 5be:	b2c9      	uxtb	r1, r1
 5c0:	6813      	ldr	r3, [r2, #0]
 5c2:	f361 0307 	bfi	r3, r1, #0, #8
 5c6:	6013      	str	r3, [r2, #0]
 5c8:	e017      	b.n	5fa <GPIO_ConfigureDigitalEnable+0x82>
 5ca:	79fb      	ldrb	r3, [r7, #7]
 5cc:	4a0d      	ldr	r2, [pc, #52]	; (604 <GPIO_ConfigureDigitalEnable+0x8c>)
 5ce:	f852 3023 	ldr.w	r3, [r2, r3, lsl #2]
 5d2:	681b      	ldr	r3, [r3, #0]
 5d4:	b2db      	uxtb	r3, r3
 5d6:	b25a      	sxtb	r2, r3
 5d8:	79bb      	ldrb	r3, [r7, #6]
 5da:	2101      	movs	r1, #1
 5dc:	fa01 f303 	lsl.w	r3, r1, r3
 5e0:	b25b      	sxtb	r3, r3
 5e2:	4313      	orrs	r3, r2
 5e4:	b259      	sxtb	r1, r3
 5e6:	79fb      	ldrb	r3, [r7, #7]
 5e8:	4a06      	ldr	r2, [pc, #24]	; (604 <GPIO_ConfigureDigitalEnable+0x8c>)
 5ea:	f852 2023 	ldr.w	r2, [r2, r3, lsl #2]
 5ee:	b2c9      	uxtb	r1, r1
 5f0:	6813      	ldr	r3, [r2, #0]
 5f2:	f361 0307 	bfi	r3, r1, #0, #8
 5f6:	6013      	str	r3, [r2, #0]
 5f8:	bf00      	nop
 5fa:	bf00      	nop
 5fc:	370c      	adds	r7, #12
 5fe:	46bd      	mov	sp, r7
 600:	bc80      	pop	{r7}
 602:	4770      	bx	lr
 604:	00000f58 	andeq	r0, r0, r8, asr pc

00000608 <GPIO_ConfigureCommit>:
 608:	b480      	push	{r7}
 60a:	b083      	sub	sp, #12
 60c:	af00      	add	r7, sp, #0
 60e:	4603      	mov	r3, r0
 610:	71fb      	strb	r3, [r7, #7]
 612:	460b      	mov	r3, r1
 614:	71bb      	strb	r3, [r7, #6]
 616:	4613      	mov	r3, r2
 618:	717b      	strb	r3, [r7, #5]
 61a:	797b      	ldrb	r3, [r7, #5]
 61c:	2b00      	cmp	r3, #0
 61e:	d002      	beq.n	626 <GPIO_ConfigureCommit+0x1e>
 620:	2b01      	cmp	r3, #1
 622:	d007      	beq.n	634 <GPIO_ConfigureCommit+0x2c>
 624:	e024      	b.n	670 <GPIO_ConfigureCommit+0x68>
 626:	79fb      	ldrb	r3, [r7, #7]
 628:	4a14      	ldr	r2, [pc, #80]	; (67c <GPIO_ConfigureCommit+0x74>)
 62a:	f852 3023 	ldr.w	r3, [r2, r3, lsl #2]
 62e:	2200      	movs	r2, #0
 630:	601a      	str	r2, [r3, #0]
 632:	e01d      	b.n	670 <GPIO_ConfigureCommit+0x68>
 634:	79fb      	ldrb	r3, [r7, #7]
 636:	4a11      	ldr	r2, [pc, #68]	; (67c <GPIO_ConfigureCommit+0x74>)
 638:	f852 3023 	ldr.w	r3, [r2, r3, lsl #2]
 63c:	4a10      	ldr	r2, [pc, #64]	; (680 <GPIO_ConfigureCommit+0x78>)
 63e:	601a      	str	r2, [r3, #0]
 640:	79fb      	ldrb	r3, [r7, #7]
 642:	4a10      	ldr	r2, [pc, #64]	; (684 <GPIO_ConfigureCommit+0x7c>)
 644:	f852 3023 	ldr.w	r3, [r2, r3, lsl #2]
 648:	681b      	ldr	r3, [r3, #0]
 64a:	b2db      	uxtb	r3, r3
 64c:	b25a      	sxtb	r2, r3
 64e:	79bb      	ldrb	r3, [r7, #6]
 650:	2101      	movs	r1, #1
 652:	fa01 f303 	lsl.w	r3, r1, r3
 656:	b25b      	sxtb	r3, r3
 658:	4313      	orrs	r3, r2
 65a:	b259      	sxtb	r1, r3
 65c:	79fb      	ldrb	r3, [r7, #7]
 65e:	4a09      	ldr	r2, [pc, #36]	; (684 <GPIO_ConfigureCommit+0x7c>)
 660:	f852 2023 	ldr.w	r2, [r2, r3, lsl #2]
 664:	b2c9      	uxtb	r1, r1
 666:	6813      	ldr	r3, [r2, #0]
 668:	f361 0307 	bfi	r3, r1, #0, #8
 66c:	6013      	str	r3, [r2, #0]
 66e:	bf00      	nop
 670:	bf00      	nop
 672:	370c      	adds	r7, #12
 674:	46bd      	mov	sp, r7
 676:	bc80      	pop	{r7}
 678:	4770      	bx	lr
 67a:	bf00      	nop
 67c:	00000f88 	andeq	r0, r0, r8, lsl #31
 680:	4c4f434b 	mcrrmi	3, 4, r4, pc, cr11
 684:	00000fa0 	andeq	r0, r0, r0, lsr #31

00000688 <GPIO_ConfigureOutputPin>:
 688:	b580      	push	{r7, lr}
 68a:	b082      	sub	sp, #8
 68c:	af00      	add	r7, sp, #0
 68e:	6078      	str	r0, [r7, #4]
 690:	687b      	ldr	r3, [r7, #4]
 692:	781b      	ldrb	r3, [r3, #0]
 694:	4618      	mov	r0, r3
 696:	f7ff feaf 	bl	3f8 <GPIO_EnableRunModeClockGateControl>
 69a:	687b      	ldr	r3, [r7, #4]
 69c:	7818      	ldrb	r0, [r3, #0]
 69e:	687b      	ldr	r3, [r7, #4]
 6a0:	785b      	ldrb	r3, [r3, #1]
 6a2:	2201      	movs	r2, #1
 6a4:	4619      	mov	r1, r3
 6a6:	f7ff fed7 	bl	458 <GPIO_SetPinStatus>
 6aa:	687b      	ldr	r3, [r7, #4]
 6ac:	7818      	ldrb	r0, [r3, #0]
 6ae:	687b      	ldr	r3, [r7, #4]
 6b0:	785b      	ldrb	r3, [r3, #1]
 6b2:	2200      	movs	r2, #0
 6b4:	4619      	mov	r1, r3
 6b6:	f7ff ff17 	bl	4e8 <GPIO_SetData>
 6ba:	687b      	ldr	r3, [r7, #4]
 6bc:	7818      	ldrb	r0, [r3, #0]
 6be:	687b      	ldr	r3, [r7, #4]
 6c0:	785b      	ldrb	r3, [r3, #1]
 6c2:	2201      	movs	r2, #1
 6c4:	4619      	mov	r1, r3
 6c6:	f7ff ff57 	bl	578 <GPIO_ConfigureDigitalEnable>
 6ca:	687b      	ldr	r3, [r7, #4]
 6cc:	7818      	ldrb	r0, [r3, #0]
 6ce:	687b      	ldr	r3, [r7, #4]
 6d0:	785b      	ldrb	r3, [r3, #1]
 6d2:	2201      	movs	r2, #1
 6d4:	4619      	mov	r1, r3
 6d6:	f7ff ff97 	bl	608 <GPIO_ConfigureCommit>
 6da:	bf00      	nop
 6dc:	3708      	adds	r7, #8
 6de:	46bd      	mov	sp, r7
 6e0:	bd80      	pop	{r7, pc}
	...

000006e4 <GPIO_SetPinDirection>:
 6e4:	b480      	push	{r7}
 6e6:	b083      	sub	sp, #12
 6e8:	af00      	add	r7, sp, #0
 6ea:	4603      	mov	r3, r0
 6ec:	71fb      	strb	r3, [r7, #7]
 6ee:	460b      	mov	r3, r1
 6f0:	71bb      	strb	r3, [r7, #6]
 6f2:	4613      	mov	r3, r2
 6f4:	717b      	strb	r3, [r7, #5]
 6f6:	797b      	ldrb	r3, [r7, #5]
 6f8:	2b00      	cmp	r3, #0
 6fa:	d002      	beq.n	702 <GPIO_SetPinDirection+0x1e>
 6fc:	2b01      	cmp	r3, #1
 6fe:	d01a      	beq.n	736 <GPIO_SetPinDirection+0x52>
 700:	e031      	b.n	766 <GPIO_SetPinDirection+0x82>
 702:	79fb      	ldrb	r3, [r7, #7]
 704:	4a1a      	ldr	r2, [pc, #104]	; (770 <GPIO_SetPinDirection+0x8c>)
 706:	f852 3023 	ldr.w	r3, [r2, r3, lsl #2]
 70a:	681b      	ldr	r3, [r3, #0]
 70c:	b2db      	uxtb	r3, r3
 70e:	b25a      	sxtb	r2, r3
 710:	79bb      	ldrb	r3, [r7, #6]
 712:	2101      	movs	r1, #1
 714:	fa01 f303 	lsl.w	r3, r1, r3
 718:	b25b      	sxtb	r3, r3
 71a:	43db      	mvns	r3, r3
 71c:	b25b      	sxtb	r3, r3
 71e:	4013      	ands	r3, r2
 720:	b259      	sxtb	r1, r3
 722:	79fb      	ldrb	r3, [r7, #7]
 724:	4a12      	ldr	r2, [pc, #72]	; (770 <GPIO_SetPinDirection+0x8c>)
 726:	f852 2023 	ldr.w	r2, [r2, r3, lsl #2]
 72a:	b2c9      	uxtb	r1, r1
 72c:	6813      	ldr	r3, [r2, #0]
 72e:	f361 0307 	bfi	r3, r1, #0, #8
 732:	6013      	str	r3, [r2, #0]
 734:	e017      	b.n	766 <GPIO_SetPinDirection+0x82>
 736:	79fb      	ldrb	r3, [r7, #7]
 738:	4a0d      	ldr	r2, [pc, #52]	; (770 <GPIO_SetPinDirection+0x8c>)
 73a:	f852 3023 	ldr.w	r3, [r2, r3, lsl #2]
 73e:	681b      	ldr	r3, [r3, #0]
 740:	b2db      	uxtb	r3, r3
 742:	b25a      	sxtb	r2, r3
 744:	79bb      	ldrb	r3, [r7, #6]
 746:	2101      	movs	r1, #1
 748:	fa01 f303 	lsl.w	r3, r1, r3
 74c:	b25b      	sxtb	r3, r3
 74e:	4313      	orrs	r3, r2
 750:	b259      	sxtb	r1, r3
 752:	79fb      	ldrb	r3, [r7, #7]
 754:	4a06      	ldr	r2, [pc, #24]	; (770 <GPIO_SetPinDirection+0x8c>)
 756:	f852 2023 	ldr.w	r2, [r2, r3, lsl #2]
 75a:	b2c9      	uxtb	r1, r1
 75c:	6813      	ldr	r3, [r2, #0]
 75e:	f361 0307 	bfi	r3, r1, #0, #8
 762:	6013      	str	r3, [r2, #0]
 764:	bf00      	nop
 766:	bf00      	nop
 768:	370c      	adds	r7, #12
 76a:	46bd      	mov	sp, r7
 76c:	bc80      	pop	{r7}
 76e:	4770      	bx	lr
 770:	00000ec8 	andeq	r0, r0, r8, asr #29

00000774 <GPIO_SetInputStatus>:
 774:	b480      	push	{r7}
 776:	b083      	sub	sp, #12
 778:	af00      	add	r7, sp, #0
 77a:	4603      	mov	r3, r0
 77c:	460a      	mov	r2, r1
 77e:	71fb      	strb	r3, [r7, #7]
 780:	4613      	mov	r3, r2
 782:	71bb      	strb	r3, [r7, #6]
 784:	79fb      	ldrb	r3, [r7, #7]
 786:	4a0d      	ldr	r2, [pc, #52]	; (7bc <GPIO_SetInputStatus+0x48>)
 788:	f852 3023 	ldr.w	r3, [r2, r3, lsl #2]
 78c:	681b      	ldr	r3, [r3, #0]
 78e:	b2db      	uxtb	r3, r3
 790:	b25a      	sxtb	r2, r3
 792:	79bb      	ldrb	r3, [r7, #6]
 794:	2101      	movs	r1, #1
 796:	fa01 f303 	lsl.w	r3, r1, r3
 79a:	b25b      	sxtb	r3, r3
 79c:	4313      	orrs	r3, r2
 79e:	b259      	sxtb	r1, r3
 7a0:	79fb      	ldrb	r3, [r7, #7]
 7a2:	4a06      	ldr	r2, [pc, #24]	; (7bc <GPIO_SetInputStatus+0x48>)
 7a4:	f852 2023 	ldr.w	r2, [r2, r3, lsl #2]
 7a8:	b2c9      	uxtb	r1, r1
 7aa:	6813      	ldr	r3, [r2, #0]
 7ac:	f361 0307 	bfi	r3, r1, #0, #8
 7b0:	6013      	str	r3, [r2, #0]
 7b2:	bf00      	nop
 7b4:	370c      	adds	r7, #12
 7b6:	46bd      	mov	sp, r7
 7b8:	bc80      	pop	{r7}
 7ba:	4770      	bx	lr
 7bc:	00000fd0 	ldrdeq	r0, [r0], -r0	; <UNPREDICTABLE>

000007c0 <GPIO_ConfigureInputPin>:
 7c0:	b580      	push	{r7, lr}
 7c2:	b082      	sub	sp, #8
 7c4:	af00      	add	r7, sp, #0
 7c6:	6078      	str	r0, [r7, #4]
 7c8:	687b      	ldr	r3, [r7, #4]
 7ca:	781b      	ldrb	r3, [r3, #0]
 7cc:	4618      	mov	r0, r3
 7ce:	f7ff fe13 	bl	3f8 <GPIO_EnableRunModeClockGateControl>
 7d2:	687b      	ldr	r3, [r7, #4]
 7d4:	781b      	ldrb	r3, [r3, #0]
 7d6:	2b05      	cmp	r3, #5
 7d8:	d108      	bne.n	7ec <GPIO_ConfigureInputPin+0x2c>
 7da:	687b      	ldr	r3, [r7, #4]
 7dc:	785b      	ldrb	r3, [r3, #1]
 7de:	2b00      	cmp	r3, #0
 7e0:	d104      	bne.n	7ec <GPIO_ConfigureInputPin+0x2c>
 7e2:	2201      	movs	r2, #1
 7e4:	2100      	movs	r1, #0
 7e6:	2005      	movs	r0, #5
 7e8:	f7ff ff0e 	bl	608 <GPIO_ConfigureCommit>
 7ec:	687b      	ldr	r3, [r7, #4]
 7ee:	7818      	ldrb	r0, [r3, #0]
 7f0:	687b      	ldr	r3, [r7, #4]
 7f2:	785b      	ldrb	r3, [r3, #1]
 7f4:	2200      	movs	r2, #0
 7f6:	4619      	mov	r1, r3
 7f8:	f7ff ff74 	bl	6e4 <GPIO_SetPinDirection>
 7fc:	687b      	ldr	r3, [r7, #4]
 7fe:	781a      	ldrb	r2, [r3, #0]
 800:	687b      	ldr	r3, [r7, #4]
 802:	785b      	ldrb	r3, [r3, #1]
 804:	4619      	mov	r1, r3
 806:	4610      	mov	r0, r2
 808:	f7ff ffb4 	bl	774 <GPIO_SetInputStatus>
 80c:	687b      	ldr	r3, [r7, #4]
 80e:	7818      	ldrb	r0, [r3, #0]
 810:	687b      	ldr	r3, [r7, #4]
 812:	785b      	ldrb	r3, [r3, #1]
 814:	2201      	movs	r2, #1
 816:	4619      	mov	r1, r3
 818:	f7ff feae 	bl	578 <GPIO_ConfigureDigitalEnable>
 81c:	bf00      	nop
 81e:	3708      	adds	r7, #8
 820:	46bd      	mov	sp, r7
 822:	bd80      	pop	{r7, pc}

00000824 <main>:
 824:	b580      	push	{r7, lr}
 826:	b082      	sub	sp, #8
 828:	af00      	add	r7, sp, #0
 82a:	b662      	cpsie	i
 82c:	2001      	movs	r0, #1
 82e:	f000 f989 	bl	b44 <SysTickConfigureClockSource>
 832:	f000 f8fb 	bl	a2c <SC_GetSystemClock>
 836:	4603      	mov	r3, r0
 838:	4a1a      	ldr	r2, [pc, #104]	; (8a4 <main+0x80>)
 83a:	6013      	str	r3, [r2, #0]
 83c:	481a      	ldr	r0, [pc, #104]	; (8a8 <main+0x84>)
 83e:	f7ff ff23 	bl	688 <GPIO_ConfigureOutputPin>
 842:	481a      	ldr	r0, [pc, #104]	; (8ac <main+0x88>)
 844:	f7ff ffbc 	bl	7c0 <GPIO_ConfigureInputPin>
 848:	4819      	ldr	r0, [pc, #100]	; (8b0 <main+0x8c>)
 84a:	f7ff ffb9 	bl	7c0 <GPIO_ConfigureInputPin>
 84e:	f7ff fbe5 	bl	1c <DMA_PeripheralInitialization>
 852:	4b18      	ldr	r3, [pc, #96]	; (8b4 <main+0x90>)
 854:	681b      	ldr	r3, [r3, #0]
 856:	4a18      	ldr	r2, [pc, #96]	; (8b8 <main+0x94>)
 858:	4918      	ldr	r1, [pc, #96]	; (8bc <main+0x98>)
 85a:	4618      	mov	r0, r3
 85c:	f7ff fc56 	bl	10c <DMA_ChannelControlStructureSet>
 860:	4b14      	ldr	r3, [pc, #80]	; (8b4 <main+0x90>)
 862:	681b      	ldr	r3, [r3, #0]
 864:	4618      	mov	r0, r3
 866:	f7ff fbf5 	bl	54 <DMA_EnableChannelAttributes>
 86a:	2100      	movs	r1, #0
 86c:	201e      	movs	r0, #30
 86e:	f7ff fd97 	bl	3a0 <DMA_AssignChannel>
 872:	201e      	movs	r0, #30
 874:	f7ff fc34 	bl	e0 <DMA_EnableChannel>
 878:	2000      	movs	r0, #0
 87a:	f7ff fd1f 	bl	2bc <DMA_ConfigurePeripheralInterrupt>
 87e:	211e      	movs	r1, #30
 880:	2000      	movs	r0, #0
 882:	f7ff fd37 	bl	2f4 <DMA_ConfigureChannelInterrupt>
 886:	2101      	movs	r1, #1
 888:	2001      	movs	r0, #1
 88a:	f000 f971 	bl	b70 <SysTickGenerateDelay_Interrupt>
 88e:	211e      	movs	r1, #30
 890:	2001      	movs	r0, #1
 892:	f7ff fce7 	bl	264 <DMA_ConfigureChannelSoftwareRequest>
 896:	2300      	movs	r3, #0
 898:	607b      	str	r3, [r7, #4]
 89a:	687b      	ldr	r3, [r7, #4]
 89c:	3301      	adds	r3, #1
 89e:	607b      	str	r3, [r7, #4]
 8a0:	e7fb      	b.n	89a <main+0x76>
 8a2:	bf00      	nop
 8a4:	20001544 	andcs	r1, r0, r4, asr #10
 8a8:	20000028 	andcs	r0, r0, r8, lsr #32
 8ac:	2000002c 	andcs	r0, r0, ip, lsr #32
 8b0:	20000024 	andcs	r0, r0, r4, lsr #32
 8b4:	20000020 	andcs	r0, r0, r0, lsr #32
 8b8:	20001523 	andcs	r1, r0, r3, lsr #10
 8bc:	2000111b 	andcs	r1, r0, fp, lsl r1

000008c0 <NVIC_Enable_Interrupt>:
 8c0:	b480      	push	{r7}
 8c2:	b085      	sub	sp, #20
 8c4:	af00      	add	r7, sp, #0
 8c6:	6078      	str	r0, [r7, #4]
 8c8:	687b      	ldr	r3, [r7, #4]
 8ca:	095b      	lsrs	r3, r3, #5
 8cc:	73fb      	strb	r3, [r7, #15]
 8ce:	687b      	ldr	r3, [r7, #4]
 8d0:	b2da      	uxtb	r2, r3
 8d2:	7bfb      	ldrb	r3, [r7, #15]
 8d4:	015b      	lsls	r3, r3, #5
 8d6:	b2db      	uxtb	r3, r3
 8d8:	1ad3      	subs	r3, r2, r3
 8da:	73bb      	strb	r3, [r7, #14]
 8dc:	7bfb      	ldrb	r3, [r7, #15]
 8de:	4a0a      	ldr	r2, [pc, #40]	; (908 <NVIC_Enable_Interrupt+0x48>)
 8e0:	f852 3023 	ldr.w	r3, [r2, r3, lsl #2]
 8e4:	681a      	ldr	r2, [r3, #0]
 8e6:	7bbb      	ldrb	r3, [r7, #14]
 8e8:	2101      	movs	r1, #1
 8ea:	fa01 f303 	lsl.w	r3, r1, r3
 8ee:	4618      	mov	r0, r3
 8f0:	7bfb      	ldrb	r3, [r7, #15]
 8f2:	4905      	ldr	r1, [pc, #20]	; (908 <NVIC_Enable_Interrupt+0x48>)
 8f4:	f851 3023 	ldr.w	r3, [r1, r3, lsl #2]
 8f8:	4302      	orrs	r2, r0
 8fa:	601a      	str	r2, [r3, #0]
 8fc:	bf00      	nop
 8fe:	3714      	adds	r7, #20
 900:	46bd      	mov	sp, r7
 902:	bc80      	pop	{r7}
 904:	4770      	bx	lr
 906:	bf00      	nop
 908:	00001268 	andeq	r1, r0, r8, ror #4

0000090c <NVIC_Clear_Interrupt>:
 90c:	b480      	push	{r7}
 90e:	b085      	sub	sp, #20
 910:	af00      	add	r7, sp, #0
 912:	6078      	str	r0, [r7, #4]
 914:	687b      	ldr	r3, [r7, #4]
 916:	095b      	lsrs	r3, r3, #5
 918:	73fb      	strb	r3, [r7, #15]
 91a:	687b      	ldr	r3, [r7, #4]
 91c:	b2da      	uxtb	r2, r3
 91e:	7bfb      	ldrb	r3, [r7, #15]
 920:	015b      	lsls	r3, r3, #5
 922:	b2db      	uxtb	r3, r3
 924:	1ad3      	subs	r3, r2, r3
 926:	73bb      	strb	r3, [r7, #14]
 928:	7bfb      	ldrb	r3, [r7, #15]
 92a:	4a0a      	ldr	r2, [pc, #40]	; (954 <NVIC_Clear_Interrupt+0x48>)
 92c:	f852 3023 	ldr.w	r3, [r2, r3, lsl #2]
 930:	681a      	ldr	r2, [r3, #0]
 932:	7bbb      	ldrb	r3, [r7, #14]
 934:	2101      	movs	r1, #1
 936:	fa01 f303 	lsl.w	r3, r1, r3
 93a:	43db      	mvns	r3, r3
 93c:	4618      	mov	r0, r3
 93e:	7bfb      	ldrb	r3, [r7, #15]
 940:	4904      	ldr	r1, [pc, #16]	; (954 <NVIC_Clear_Interrupt+0x48>)
 942:	f851 3023 	ldr.w	r3, [r1, r3, lsl #2]
 946:	4002      	ands	r2, r0
 948:	601a      	str	r2, [r3, #0]
 94a:	bf00      	nop
 94c:	3714      	adds	r7, #20
 94e:	46bd      	mov	sp, r7
 950:	bc80      	pop	{r7}
 952:	4770      	bx	lr
 954:	00001278 	andeq	r1, r0, r8, ror r2

00000958 <Default_Handler>:
 958:	b580      	push	{r7, lr}
 95a:	af00      	add	r7, sp, #0
 95c:	f000 f802 	bl	964 <Reset_Handler>
 960:	bf00      	nop
 962:	bd80      	pop	{r7, pc}

00000964 <Reset_Handler>:
 964:	b580      	push	{r7, lr}
 966:	b086      	sub	sp, #24
 968:	af00      	add	r7, sp, #0
 96a:	4a19      	ldr	r2, [pc, #100]	; (9d0 <Reset_Handler+0x6c>)
 96c:	4b19      	ldr	r3, [pc, #100]	; (9d4 <Reset_Handler+0x70>)
 96e:	1ad3      	subs	r3, r2, r3
 970:	60bb      	str	r3, [r7, #8]
 972:	4a19      	ldr	r2, [pc, #100]	; (9d8 <Reset_Handler+0x74>)
 974:	4b19      	ldr	r3, [pc, #100]	; (9dc <Reset_Handler+0x78>)
 976:	1ad3      	subs	r3, r2, r3
 978:	607b      	str	r3, [r7, #4]
 97a:	4b19      	ldr	r3, [pc, #100]	; (9e0 <Reset_Handler+0x7c>)
 97c:	603b      	str	r3, [r7, #0]
 97e:	4b15      	ldr	r3, [pc, #84]	; (9d4 <Reset_Handler+0x70>)
 980:	617b      	str	r3, [r7, #20]
 982:	2300      	movs	r3, #0
 984:	613b      	str	r3, [r7, #16]
 986:	e00a      	b.n	99e <Reset_Handler+0x3a>
 988:	697a      	ldr	r2, [r7, #20]
 98a:	1c53      	adds	r3, r2, #1
 98c:	617b      	str	r3, [r7, #20]
 98e:	697b      	ldr	r3, [r7, #20]
 990:	1c59      	adds	r1, r3, #1
 992:	6179      	str	r1, [r7, #20]
 994:	7812      	ldrb	r2, [r2, #0]
 996:	701a      	strb	r2, [r3, #0]
 998:	693b      	ldr	r3, [r7, #16]
 99a:	3301      	adds	r3, #1
 99c:	613b      	str	r3, [r7, #16]
 99e:	693b      	ldr	r3, [r7, #16]
 9a0:	68ba      	ldr	r2, [r7, #8]
 9a2:	429a      	cmp	r2, r3
 9a4:	d8f0      	bhi.n	988 <Reset_Handler+0x24>
 9a6:	2300      	movs	r3, #0
 9a8:	60fb      	str	r3, [r7, #12]
 9aa:	e007      	b.n	9bc <Reset_Handler+0x58>
 9ac:	697b      	ldr	r3, [r7, #20]
 9ae:	1c5a      	adds	r2, r3, #1
 9b0:	617a      	str	r2, [r7, #20]
 9b2:	2200      	movs	r2, #0
 9b4:	701a      	strb	r2, [r3, #0]
 9b6:	68fb      	ldr	r3, [r7, #12]
 9b8:	3301      	adds	r3, #1
 9ba:	60fb      	str	r3, [r7, #12]
 9bc:	68fb      	ldr	r3, [r7, #12]
 9be:	687a      	ldr	r2, [r7, #4]
 9c0:	429a      	cmp	r2, r3
 9c2:	d8f3      	bhi.n	9ac <Reset_Handler+0x48>
 9c4:	f7ff ff2e 	bl	824 <main>
 9c8:	bf00      	nop
 9ca:	3718      	adds	r7, #24
 9cc:	46bd      	mov	sp, r7
 9ce:	bd80      	pop	{r7, pc}
 9d0:	20000000 	andcs	r0, r0, r0
 9d4:	20000000 	andcs	r0, r0, r0
 9d8:	20000400 	andcs	r0, r0, r0, lsl #8
 9dc:	20001df4 	strdcs	r1, [r0], -r4
 9e0:	00000bc8 	andeq	r0, r0, r8, asr #23

000009e4 <SC_GetOscillatorValue>:
 9e4:	b480      	push	{r7}
 9e6:	af00      	add	r7, sp, #0
 9e8:	4b0c      	ldr	r3, [pc, #48]	; (a1c <SC_GetOscillatorValue+0x38>)
 9ea:	681b      	ldr	r3, [r3, #0]
 9ec:	f3c3 1301 	ubfx	r3, r3, #4, #2
 9f0:	b2db      	uxtb	r3, r3
 9f2:	2b03      	cmp	r3, #3
 9f4:	d00b      	beq.n	a0e <SC_GetOscillatorValue+0x2a>
 9f6:	2b03      	cmp	r3, #3
 9f8:	dc03      	bgt.n	a02 <SC_GetOscillatorValue+0x1e>
 9fa:	2b01      	cmp	r3, #1
 9fc:	d003      	beq.n	a06 <SC_GetOscillatorValue+0x22>
 9fe:	2b02      	cmp	r3, #2
 a00:	d003      	beq.n	a0a <SC_GetOscillatorValue+0x26>
 a02:	4b07      	ldr	r3, [pc, #28]	; (a20 <SC_GetOscillatorValue+0x3c>)
 a04:	e005      	b.n	a12 <SC_GetOscillatorValue+0x2e>
 a06:	4b07      	ldr	r3, [pc, #28]	; (a24 <SC_GetOscillatorValue+0x40>)
 a08:	e003      	b.n	a12 <SC_GetOscillatorValue+0x2e>
 a0a:	4b07      	ldr	r3, [pc, #28]	; (a28 <SC_GetOscillatorValue+0x44>)
 a0c:	e001      	b.n	a12 <SC_GetOscillatorValue+0x2e>
 a0e:	f247 5330 	movw	r3, #30000	; 0x7530
 a12:	4618      	mov	r0, r3
 a14:	46bd      	mov	sp, r7
 a16:	bc80      	pop	{r7}
 a18:	4770      	bx	lr
 a1a:	bf00      	nop
 a1c:	400fe060 	andmi	lr, pc, r0, rrx
 a20:	004c4b40 	subeq	r4, ip, r0, asr #22
 a24:	00f42400 	rscseq	r2, r4, r0, lsl #8
 a28:	003d0900 	eorseq	r0, sp, r0, lsl #18

00000a2c <SC_GetSystemClock>:
 a2c:	b580      	push	{r7, lr}
 a2e:	b082      	sub	sp, #8
 a30:	af00      	add	r7, sp, #0
 a32:	4b22      	ldr	r3, [pc, #136]	; (abc <SC_GetSystemClock+0x90>)
 a34:	681b      	ldr	r3, [r3, #0]
 a36:	f3c3 23c0 	ubfx	r3, r3, #11, #1
 a3a:	b2db      	uxtb	r3, r3
 a3c:	2b00      	cmp	r3, #0
 a3e:	d117      	bne.n	a70 <SC_GetSystemClock+0x44>
 a40:	4b1e      	ldr	r3, [pc, #120]	; (abc <SC_GetSystemClock+0x90>)
 a42:	681b      	ldr	r3, [r3, #0]
 a44:	f3c3 5380 	ubfx	r3, r3, #22, #1
 a48:	b2db      	uxtb	r3, r3
 a4a:	2b01      	cmp	r3, #1
 a4c:	d10e      	bne.n	a6c <SC_GetSystemClock+0x40>
 a4e:	4b1c      	ldr	r3, [pc, #112]	; (ac0 <SC_GetSystemClock+0x94>)
 a50:	607b      	str	r3, [r7, #4]
 a52:	4b1a      	ldr	r3, [pc, #104]	; (abc <SC_GetSystemClock+0x90>)
 a54:	681b      	ldr	r3, [r3, #0]
 a56:	f3c3 53c3 	ubfx	r3, r3, #23, #4
 a5a:	b2db      	uxtb	r3, r3
 a5c:	461a      	mov	r2, r3
 a5e:	4b19      	ldr	r3, [pc, #100]	; (ac4 <SC_GetSystemClock+0x98>)
 a60:	5c9b      	ldrb	r3, [r3, r2]
 a62:	461a      	mov	r2, r3
 a64:	687b      	ldr	r3, [r7, #4]
 a66:	fbb3 f3f2 	udiv	r3, r3, r2
 a6a:	607b      	str	r3, [r7, #4]
 a6c:	687b      	ldr	r3, [r7, #4]
 a6e:	e020      	b.n	ab2 <SC_GetSystemClock+0x86>
 a70:	4b12      	ldr	r3, [pc, #72]	; (abc <SC_GetSystemClock+0x90>)
 a72:	681b      	ldr	r3, [r3, #0]
 a74:	f3c3 23c0 	ubfx	r3, r3, #11, #1
 a78:	b2db      	uxtb	r3, r3
 a7a:	2b01      	cmp	r3, #1
 a7c:	d118      	bne.n	ab0 <SC_GetSystemClock+0x84>
 a7e:	f7ff ffb1 	bl	9e4 <SC_GetOscillatorValue>
 a82:	6078      	str	r0, [r7, #4]
 a84:	4b0d      	ldr	r3, [pc, #52]	; (abc <SC_GetSystemClock+0x90>)
 a86:	681b      	ldr	r3, [r3, #0]
 a88:	f3c3 5380 	ubfx	r3, r3, #22, #1
 a8c:	b2db      	uxtb	r3, r3
 a8e:	2b01      	cmp	r3, #1
 a90:	d10c      	bne.n	aac <SC_GetSystemClock+0x80>
 a92:	4b0a      	ldr	r3, [pc, #40]	; (abc <SC_GetSystemClock+0x90>)
 a94:	681b      	ldr	r3, [r3, #0]
 a96:	f3c3 53c3 	ubfx	r3, r3, #23, #4
 a9a:	b2db      	uxtb	r3, r3
 a9c:	461a      	mov	r2, r3
 a9e:	4b09      	ldr	r3, [pc, #36]	; (ac4 <SC_GetSystemClock+0x98>)
 aa0:	5c9b      	ldrb	r3, [r3, r2]
 aa2:	461a      	mov	r2, r3
 aa4:	687b      	ldr	r3, [r7, #4]
 aa6:	fbb3 f3f2 	udiv	r3, r3, r2
 aaa:	607b      	str	r3, [r7, #4]
 aac:	687b      	ldr	r3, [r7, #4]
 aae:	e000      	b.n	ab2 <SC_GetSystemClock+0x86>
 ab0:	2300      	movs	r3, #0
 ab2:	4618      	mov	r0, r3
 ab4:	3708      	adds	r7, #8
 ab6:	46bd      	mov	sp, r7
 ab8:	bd80      	pop	{r7, pc}
 aba:	bf00      	nop
 abc:	400fe060 	andmi	lr, pc, r0, rrx
 ac0:	0bebc200 	bleq	ffaf12c8 <_E_BSS+0xdfaef4d4>
 ac4:	000012c8 	andeq	r1, r0, r8, asr #5

00000ac8 <SysTickEnable>:
 ac8:	b480      	push	{r7}
 aca:	af00      	add	r7, sp, #0
 acc:	4a04      	ldr	r2, [pc, #16]	; (ae0 <SysTickEnable+0x18>)
 ace:	6813      	ldr	r3, [r2, #0]
 ad0:	f043 0301 	orr.w	r3, r3, #1
 ad4:	6013      	str	r3, [r2, #0]
 ad6:	bf00      	nop
 ad8:	46bd      	mov	sp, r7
 ada:	bc80      	pop	{r7}
 adc:	4770      	bx	lr
 ade:	bf00      	nop
 ae0:	e000e010 	and	lr, r0, r0, lsl r0

00000ae4 <SysTickDisable>:
 ae4:	b480      	push	{r7}
 ae6:	af00      	add	r7, sp, #0
 ae8:	4a04      	ldr	r2, [pc, #16]	; (afc <SysTickDisable+0x18>)
 aea:	6813      	ldr	r3, [r2, #0]
 aec:	f36f 0300 	bfc	r3, #0, #1
 af0:	6013      	str	r3, [r2, #0]
 af2:	bf00      	nop
 af4:	46bd      	mov	sp, r7
 af6:	bc80      	pop	{r7}
 af8:	4770      	bx	lr
 afa:	bf00      	nop
 afc:	e000e010 	and	lr, r0, r0, lsl r0

00000b00 <SysTickFrequencyGet>:
 b00:	b5b0      	push	{r4, r5, r7, lr}
 b02:	b082      	sub	sp, #8
 b04:	af00      	add	r7, sp, #0
 b06:	4b0d      	ldr	r3, [pc, #52]	; (b3c <SysTickFrequencyGet+0x3c>)
 b08:	681b      	ldr	r3, [r3, #0]
 b0a:	f3c3 0380 	ubfx	r3, r3, #2, #1
 b0e:	b2db      	uxtb	r3, r3
 b10:	2b00      	cmp	r3, #0
 b12:	d103      	bne.n	b1c <SysTickFrequencyGet+0x1c>
 b14:	4a0a      	ldr	r2, [pc, #40]	; (b40 <SysTickFrequencyGet+0x40>)
 b16:	f04f 0300 	mov.w	r3, #0
 b1a:	e009      	b.n	b30 <SysTickFrequencyGet+0x30>
 b1c:	f7ff ff86 	bl	a2c <SC_GetSystemClock>
 b20:	4603      	mov	r3, r0
 b22:	2200      	movs	r2, #0
 b24:	461c      	mov	r4, r3
 b26:	4615      	mov	r5, r2
 b28:	e9c7 4500 	strd	r4, r5, [r7]
 b2c:	e9d7 2300 	ldrd	r2, r3, [r7]
 b30:	4610      	mov	r0, r2
 b32:	4619      	mov	r1, r3
 b34:	3708      	adds	r7, #8
 b36:	46bd      	mov	sp, r7
 b38:	bdb0      	pop	{r4, r5, r7, pc}
 b3a:	bf00      	nop
 b3c:	e000e010 	and	lr, r0, r0, lsl r0
 b40:	003d0900 	eorseq	r0, sp, r0, lsl #18

00000b44 <SysTickConfigureClockSource>:
 b44:	b480      	push	{r7}
 b46:	b083      	sub	sp, #12
 b48:	af00      	add	r7, sp, #0
 b4a:	4603      	mov	r3, r0
 b4c:	71fb      	strb	r3, [r7, #7]
 b4e:	4a07      	ldr	r2, [pc, #28]	; (b6c <SysTickConfigureClockSource+0x28>)
 b50:	79fb      	ldrb	r3, [r7, #7]
 b52:	f003 0301 	and.w	r3, r3, #1
 b56:	b2d9      	uxtb	r1, r3
 b58:	6813      	ldr	r3, [r2, #0]
 b5a:	f361 0382 	bfi	r3, r1, #2, #1
 b5e:	6013      	str	r3, [r2, #0]
 b60:	bf00      	nop
 b62:	370c      	adds	r7, #12
 b64:	46bd      	mov	sp, r7
 b66:	bc80      	pop	{r7}
 b68:	4770      	bx	lr
 b6a:	bf00      	nop
 b6c:	e000e010 	and	lr, r0, r0, lsl r0

00000b70 <SysTickGenerateDelay_Interrupt>:
 b70:	b580      	push	{r7, lr}
 b72:	b086      	sub	sp, #24
 b74:	af00      	add	r7, sp, #0
 b76:	6078      	str	r0, [r7, #4]
 b78:	6039      	str	r1, [r7, #0]
 b7a:	f7ff ffb3 	bl	ae4 <SysTickDisable>
 b7e:	f7ff ffbf 	bl	b00 <SysTickFrequencyGet>
 b82:	e9c7 0104 	strd	r0, r1, [r7, #16]
 b86:	f04f 0200 	mov.w	r2, #0
 b8a:	f04f 0300 	mov.w	r3, #0
 b8e:	e9c7 2302 	strd	r2, r3, [r7, #8]
 b92:	490b      	ldr	r1, [pc, #44]	; (bc0 <SysTickGenerateDelay_Interrupt+0x50>)
 b94:	68ba      	ldr	r2, [r7, #8]
 b96:	f022 427f 	bic.w	r2, r2, #4278190080	; 0xff000000
 b9a:	680b      	ldr	r3, [r1, #0]
 b9c:	f362 0317 	bfi	r3, r2, #0, #24
 ba0:	600b      	str	r3, [r1, #0]
 ba2:	4a08      	ldr	r2, [pc, #32]	; (bc4 <SysTickGenerateDelay_Interrupt+0x54>)
 ba4:	6813      	ldr	r3, [r2, #0]
 ba6:	f043 0302 	orr.w	r3, r3, #2
 baa:	6013      	str	r3, [r2, #0]
 bac:	200f      	movs	r0, #15
 bae:	f7ff fe87 	bl	8c0 <NVIC_Enable_Interrupt>
 bb2:	f7ff ff89 	bl	ac8 <SysTickEnable>
 bb6:	bf00      	nop
 bb8:	3718      	adds	r7, #24
 bba:	46bd      	mov	sp, r7
 bbc:	bd80      	pop	{r7, pc}
 bbe:	bf00      	nop
 bc0:	e000e014 	and	lr, r0, r4, lsl r0
 bc4:	e000e010 	and	lr, r0, r0, lsl r0

Disassembly of section .rodata:

00000bc8 <SourceAddressPointerRegisters>:
     bc8:	20000800 	andcs	r0, r0, r0, lsl #16
     bcc:	20000810 	andcs	r0, r0, r0, lsl r8
     bd0:	20000820 	andcs	r0, r0, r0, lsr #16
     bd4:	20000830 	andcs	r0, r0, r0, lsr r8
     bd8:	20000840 	andcs	r0, r0, r0, asr #16
     bdc:	20000850 	andcs	r0, r0, r0, asr r8
     be0:	20000860 	andcs	r0, r0, r0, ror #16
     be4:	20000870 	andcs	r0, r0, r0, ror r8
     be8:	20000880 	andcs	r0, r0, r0, lsl #17
     bec:	20000890 	mulcs	r0, r0, r8
     bf0:	200008a0 	andcs	r0, r0, r0, lsr #17
     bf4:	200008b0 			; <UNDEFINED> instruction: 0x200008b0
     bf8:	200008c0 	andcs	r0, r0, r0, asr #17
     bfc:	200008d0 	ldrdcs	r0, [r0], -r0	; <UNPREDICTABLE>
     c00:	200008e0 	andcs	r0, r0, r0, ror #17
     c04:	200008f0 	strdcs	r0, [r0], -r0	; <UNPREDICTABLE>
     c08:	20000900 	andcs	r0, r0, r0, lsl #18
     c0c:	20000910 	andcs	r0, r0, r0, lsl r9
     c10:	20000920 	andcs	r0, r0, r0, lsr #18
     c14:	20000930 	andcs	r0, r0, r0, lsr r9
     c18:	20000940 	andcs	r0, r0, r0, asr #18
     c1c:	20000950 	andcs	r0, r0, r0, asr r9
     c20:	20000960 	andcs	r0, r0, r0, ror #18
     c24:	20000970 	andcs	r0, r0, r0, ror r9
     c28:	20000980 	andcs	r0, r0, r0, lsl #19
     c2c:	20000990 	mulcs	r0, r0, r9
     c30:	200009a0 	andcs	r0, r0, r0, lsr #19
     c34:	200009b0 			; <UNDEFINED> instruction: 0x200009b0
     c38:	200009c0 	andcs	r0, r0, r0, asr #19
     c3c:	200009d0 	ldrdcs	r0, [r0], -r0	; <UNPREDICTABLE>
     c40:	200009e0 	andcs	r0, r0, r0, ror #19
     c44:	200009f0 	strdcs	r0, [r0], -r0	; <UNPREDICTABLE>

00000c48 <AlternateSourceAddressPointerRegisters>:
     c48:	20000a00 	andcs	r0, r0, r0, lsl #20
     c4c:	20000a10 	andcs	r0, r0, r0, lsl sl
     c50:	20000a20 	andcs	r0, r0, r0, lsr #20
     c54:	20000a30 	andcs	r0, r0, r0, lsr sl
     c58:	20000a40 	andcs	r0, r0, r0, asr #20
     c5c:	20000a50 	andcs	r0, r0, r0, asr sl
     c60:	20000a60 	andcs	r0, r0, r0, ror #20
     c64:	20000a70 	andcs	r0, r0, r0, ror sl
     c68:	20000a80 	andcs	r0, r0, r0, lsl #21
     c6c:	20000a90 	mulcs	r0, r0, sl
     c70:	20000aa0 	andcs	r0, r0, r0, lsr #21
     c74:	20000ab0 			; <UNDEFINED> instruction: 0x20000ab0
     c78:	20000ac0 	andcs	r0, r0, r0, asr #21
     c7c:	20000ad0 	ldrdcs	r0, [r0], -r0	; <UNPREDICTABLE>
     c80:	20000ae0 	andcs	r0, r0, r0, ror #21
     c84:	20000af0 	strdcs	r0, [r0], -r0	; <UNPREDICTABLE>
     c88:	20000b00 	andcs	r0, r0, r0, lsl #22
     c8c:	20000b10 	andcs	r0, r0, r0, lsl fp
     c90:	20000b20 	andcs	r0, r0, r0, lsr #22
     c94:	20000b30 	andcs	r0, r0, r0, lsr fp
     c98:	20000b40 	andcs	r0, r0, r0, asr #22
     c9c:	20000b50 	andcs	r0, r0, r0, asr fp
     ca0:	20000b60 	andcs	r0, r0, r0, ror #22
     ca4:	20000b70 	andcs	r0, r0, r0, ror fp
     ca8:	20000b80 	andcs	r0, r0, r0, lsl #23
     cac:	20000b90 	mulcs	r0, r0, fp
     cb0:	20000ba0 	andcs	r0, r0, r0, lsr #23
     cb4:	20000bb0 			; <UNDEFINED> instruction: 0x20000bb0
     cb8:	20000bc0 	andcs	r0, r0, r0, asr #23
     cbc:	20000bd0 	ldrdcs	r0, [r0], -r0	; <UNPREDICTABLE>
     cc0:	20000be0 	andcs	r0, r0, r0, ror #23
     cc4:	20000bf0 	strdcs	r0, [r0], -r0	; <UNPREDICTABLE>

00000cc8 <DestinationAddressPointerRegisters>:
     cc8:	20000804 	andcs	r0, r0, r4, lsl #16
     ccc:	20000814 	andcs	r0, r0, r4, lsl r8
     cd0:	20000824 	andcs	r0, r0, r4, lsr #16
     cd4:	20000834 	andcs	r0, r0, r4, lsr r8
     cd8:	20000844 	andcs	r0, r0, r4, asr #16
     cdc:	20000854 	andcs	r0, r0, r4, asr r8
     ce0:	20000864 	andcs	r0, r0, r4, ror #16
     ce4:	20000874 	andcs	r0, r0, r4, ror r8
     ce8:	20000884 	andcs	r0, r0, r4, lsl #17
     cec:	20000894 	mulcs	r0, r4, r8
     cf0:	200008a4 	andcs	r0, r0, r4, lsr #17
     cf4:	200008b4 			; <UNDEFINED> instruction: 0x200008b4
     cf8:	200008c4 	andcs	r0, r0, r4, asr #17
     cfc:	200008d4 	ldrdcs	r0, [r0], -r4
     d00:	200008e4 	andcs	r0, r0, r4, ror #17
     d04:	200008f4 	strdcs	r0, [r0], -r4
     d08:	20000904 	andcs	r0, r0, r4, lsl #18
     d0c:	20000914 	andcs	r0, r0, r4, lsl r9
     d10:	20000924 	andcs	r0, r0, r4, lsr #18
     d14:	20000934 	andcs	r0, r0, r4, lsr r9
     d18:	20000944 	andcs	r0, r0, r4, asr #18
     d1c:	20000954 	andcs	r0, r0, r4, asr r9
     d20:	20000964 	andcs	r0, r0, r4, ror #18
     d24:	20000974 	andcs	r0, r0, r4, ror r9
     d28:	20000984 	andcs	r0, r0, r4, lsl #19
     d2c:	20000994 	mulcs	r0, r4, r9
     d30:	200009a4 	andcs	r0, r0, r4, lsr #19
     d34:	200009b4 			; <UNDEFINED> instruction: 0x200009b4
     d38:	200009c4 	andcs	r0, r0, r4, asr #19
     d3c:	200009d4 	ldrdcs	r0, [r0], -r4
     d40:	200009e4 	andcs	r0, r0, r4, ror #19
     d44:	200009f4 	strdcs	r0, [r0], -r4

00000d48 <AlternateDestinationAddressPointerRegisters>:
     d48:	20000a04 	andcs	r0, r0, r4, lsl #20
     d4c:	20000a14 	andcs	r0, r0, r4, lsl sl
     d50:	20000a24 	andcs	r0, r0, r4, lsr #20
     d54:	20000a34 	andcs	r0, r0, r4, lsr sl
     d58:	20000a44 	andcs	r0, r0, r4, asr #20
     d5c:	20000a54 	andcs	r0, r0, r4, asr sl
     d60:	20000a64 	andcs	r0, r0, r4, ror #20
     d64:	20000a74 	andcs	r0, r0, r4, ror sl
     d68:	20000a84 	andcs	r0, r0, r4, lsl #21
     d6c:	20000a94 	mulcs	r0, r4, sl
     d70:	20000aa4 	andcs	r0, r0, r4, lsr #21
     d74:	20000ab4 			; <UNDEFINED> instruction: 0x20000ab4
     d78:	20000ac4 	andcs	r0, r0, r4, asr #21
     d7c:	20000ad4 	ldrdcs	r0, [r0], -r4
     d80:	20000ae4 	andcs	r0, r0, r4, ror #21
     d84:	20000af4 	strdcs	r0, [r0], -r4
     d88:	20000b04 	andcs	r0, r0, r4, lsl #22
     d8c:	20000b14 	andcs	r0, r0, r4, lsl fp
     d90:	20000b24 	andcs	r0, r0, r4, lsr #22
     d94:	20000b34 	andcs	r0, r0, r4, lsr fp
     d98:	20000b44 	andcs	r0, r0, r4, asr #22
     d9c:	20000b54 	andcs	r0, r0, r4, asr fp
     da0:	20000b64 	andcs	r0, r0, r4, ror #22
     da4:	20000b74 	andcs	r0, r0, r4, ror fp
     da8:	20000b84 	andcs	r0, r0, r4, lsl #23
     dac:	20000b94 	mulcs	r0, r4, fp
     db0:	20000ba4 	andcs	r0, r0, r4, lsr #23
     db4:	20000bb4 			; <UNDEFINED> instruction: 0x20000bb4
     db8:	20000bc4 	andcs	r0, r0, r4, asr #23
     dbc:	20000bd4 	ldrdcs	r0, [r0], -r4
     dc0:	20000be4 	andcs	r0, r0, r4, ror #23
     dc4:	20000bf4 	strdcs	r0, [r0], -r4

00000dc8 <AlternateDMA_ChannelControlWordRegisters>:
     dc8:	20000a08 	andcs	r0, r0, r8, lsl #20
     dcc:	20000a18 	andcs	r0, r0, r8, lsl sl
     dd0:	20000a28 	andcs	r0, r0, r8, lsr #20
     dd4:	20000a38 	andcs	r0, r0, r8, lsr sl
     dd8:	20000a48 	andcs	r0, r0, r8, asr #20
     ddc:	20000a58 	andcs	r0, r0, r8, asr sl
     de0:	20000a68 	andcs	r0, r0, r8, ror #20
     de4:	20000a78 	andcs	r0, r0, r8, ror sl
     de8:	20000a88 	andcs	r0, r0, r8, lsl #21
     dec:	20000a98 	mulcs	r0, r8, sl
     df0:	20000aa8 	andcs	r0, r0, r8, lsr #21
     df4:	20000ab8 			; <UNDEFINED> instruction: 0x20000ab8
     df8:	20000ac8 	andcs	r0, r0, r8, asr #21
     dfc:	20000ad8 	ldrdcs	r0, [r0], -r8
     e00:	20000ae8 	andcs	r0, r0, r8, ror #21
     e04:	20000af8 	strdcs	r0, [r0], -r8
     e08:	20000b08 	andcs	r0, r0, r8, lsl #22
     e0c:	20000b18 	andcs	r0, r0, r8, lsl fp
     e10:	20000b28 	andcs	r0, r0, r8, lsr #22
     e14:	20000b38 	andcs	r0, r0, r8, lsr fp
     e18:	20000b48 	andcs	r0, r0, r8, asr #22
     e1c:	20000b58 	andcs	r0, r0, r8, asr fp
     e20:	20000b68 	andcs	r0, r0, r8, ror #22
     e24:	20000b78 	andcs	r0, r0, r8, ror fp
     e28:	20000b88 	andcs	r0, r0, r8, lsl #23
     e2c:	20000b98 	mulcs	r0, r8, fp
     e30:	20000ba8 	andcs	r0, r0, r8, lsr #23
     e34:	20000bb8 			; <UNDEFINED> instruction: 0x20000bb8
     e38:	20000bc8 	andcs	r0, r0, r8, asr #23
     e3c:	20000bd8 	ldrdcs	r0, [r0], -r8
     e40:	20000be8 	andcs	r0, r0, r8, ror #23
     e44:	20000bf8 	strdcs	r0, [r0], -r8

00000e48 <DMA_ChannelControlWordRegisters>:
     e48:	20000808 	andcs	r0, r0, r8, lsl #16
     e4c:	20000818 	andcs	r0, r0, r8, lsl r8
     e50:	20000828 	andcs	r0, r0, r8, lsr #16
     e54:	20000838 	andcs	r0, r0, r8, lsr r8
     e58:	20000848 	andcs	r0, r0, r8, asr #16
     e5c:	20000858 	andcs	r0, r0, r8, asr r8
     e60:	20000868 	andcs	r0, r0, r8, ror #16
     e64:	20000878 	andcs	r0, r0, r8, ror r8
     e68:	20000888 	andcs	r0, r0, r8, lsl #17
     e6c:	20000898 	mulcs	r0, r8, r8
     e70:	200008a8 	andcs	r0, r0, r8, lsr #17
     e74:	200008b8 			; <UNDEFINED> instruction: 0x200008b8
     e78:	200008c8 	andcs	r0, r0, r8, asr #17
     e7c:	200008d8 	ldrdcs	r0, [r0], -r8
     e80:	200008e8 	andcs	r0, r0, r8, ror #17
     e84:	200008f8 	strdcs	r0, [r0], -r8
     e88:	20000908 	andcs	r0, r0, r8, lsl #18
     e8c:	20000918 	andcs	r0, r0, r8, lsl r9
     e90:	20000928 	andcs	r0, r0, r8, lsr #18
     e94:	20000938 	andcs	r0, r0, r8, lsr r9
     e98:	20000948 	andcs	r0, r0, r8, asr #18
     e9c:	20000958 	andcs	r0, r0, r8, asr r9
     ea0:	20000968 	andcs	r0, r0, r8, ror #18
     ea4:	20000978 	andcs	r0, r0, r8, ror r9
     ea8:	20000988 	andcs	r0, r0, r8, lsl #19
     eac:	20000998 	mulcs	r0, r8, r9
     eb0:	200009a8 	andcs	r0, r0, r8, lsr #19
     eb4:	200009b8 			; <UNDEFINED> instruction: 0x200009b8
     eb8:	200009c8 	andcs	r0, r0, r8, asr #19
     ebc:	200009d8 	ldrdcs	r0, [r0], -r8
     ec0:	200009e8 	andcs	r0, r0, r8, ror #19
     ec4:	200009f8 	strdcs	r0, [r0], -r8

00000ec8 <GPIO_Direction_Registers>:
     ec8:	40004400 	andmi	r4, r0, r0, lsl #8
     ecc:	40005400 	andmi	r5, r0, r0, lsl #8
     ed0:	40006400 	andmi	r6, r0, r0, lsl #8
     ed4:	40007400 	andmi	r7, r0, r0, lsl #8
     ed8:	40024400 	andmi	r4, r2, r0, lsl #8
     edc:	40025400 	andmi	r5, r2, r0, lsl #8

00000ee0 <GPIO_AlternateFunctionSelect_Registers>:
     ee0:	40004420 	andmi	r4, r0, r0, lsr #8
     ee4:	40005420 	andmi	r5, r0, r0, lsr #8
     ee8:	40006420 	andmi	r6, r0, r0, lsr #8
     eec:	40007420 	andmi	r7, r0, r0, lsr #8
     ef0:	40024420 	andmi	r4, r2, r0, lsr #8
     ef4:	40025420 	andmi	r5, r2, r0, lsr #8

00000ef8 <GPIO_InterruptSense_Registers>:
     ef8:	40004404 	andmi	r4, r0, r4, lsl #8
     efc:	40005404 	andmi	r5, r0, r4, lsl #8
     f00:	40006404 	andmi	r6, r0, r4, lsl #8
     f04:	40007404 	andmi	r7, r0, r4, lsl #8
     f08:	40024404 	andmi	r4, r2, r4, lsl #8
     f0c:	40025404 	andmi	r5, r2, r4, lsl #8

00000f10 <GPIO_InterruptEvent_Registers>:
     f10:	4000440c 	andmi	r4, r0, ip, lsl #8
     f14:	4000540c 	andmi	r5, r0, ip, lsl #8
     f18:	4000640c 	andmi	r6, r0, ip, lsl #8
     f1c:	4000740c 	andmi	r7, r0, ip, lsl #8
     f20:	4002440c 	andmi	r4, r2, ip, lsl #8
     f24:	4002540c 	andmi	r5, r2, ip, lsl #8

00000f28 <GPIO_InterruptMask_Registers>:
     f28:	40004410 	andmi	r4, r0, r0, lsl r4
     f2c:	40005410 	andmi	r5, r0, r0, lsl r4
     f30:	40006410 	andmi	r6, r0, r0, lsl r4
     f34:	40007410 	andmi	r7, r0, r0, lsl r4
     f38:	40024410 	andmi	r4, r2, r0, lsl r4
     f3c:	40025410 	andmi	r5, r2, r0, lsl r4

00000f40 <GPIO_Data_Registers>:
     f40:	40004ff0 	strdmi	r4, [r0], -r0
     f44:	40005ff0 	strdmi	r5, [r0], -r0
     f48:	400063fc 	strdmi	r6, [r0], -ip
     f4c:	400073fc 	strdmi	r7, [r0], -ip
     f50:	40024ff0 	strdmi	r4, [r2], -r0
     f54:	40025038 	andmi	r5, r2, r8, lsr r0

00000f58 <GPIO_DigitalEnable_Registers>:
     f58:	4000451c 	andmi	r4, r0, ip, lsl r5
     f5c:	4000551c 	andmi	r5, r0, ip, lsl r5
     f60:	4000651c 	andmi	r6, r0, ip, lsl r5
     f64:	4000751c 	andmi	r7, r0, ip, lsl r5
     f68:	4002451c 	andmi	r4, r2, ip, lsl r5
     f6c:	4002551c 	andmi	r5, r2, ip, lsl r5

00000f70 <GPIO_PortControl_Registers>:
     f70:	4000452c 	andmi	r4, r0, ip, lsr #10
     f74:	4000552c 	andmi	r5, r0, ip, lsr #10
     f78:	4000652c 	andmi	r6, r0, ip, lsr #10
     f7c:	4000752c 	andmi	r7, r0, ip, lsr #10
     f80:	4002452c 	andmi	r4, r2, ip, lsr #10
     f84:	4002552c 	andmi	r5, r2, ip, lsr #10

00000f88 <GPIO_LOCK_Registers>:
     f88:	40004520 	andmi	r4, r0, r0, lsr #10
     f8c:	40005520 	andmi	r5, r0, r0, lsr #10
     f90:	40006520 	andmi	r6, r0, r0, lsr #10
     f94:	40007520 	andmi	r7, r0, r0, lsr #10
     f98:	40024520 	andmi	r4, r2, r0, lsr #10
     f9c:	40025520 	andmi	r5, r2, r0, lsr #10

00000fa0 <GPIO_Port_Commit>:
     fa0:	40004524 	andmi	r4, r0, r4, lsr #10
     fa4:	40005524 	andmi	r5, r0, r4, lsr #10
     fa8:	40006524 	andmi	r6, r0, r4, lsr #10
     fac:	40007524 	andmi	r7, r0, r4, lsr #10
     fb0:	40024524 	andmi	r4, r2, r4, lsr #10
     fb4:	40025524 	andmi	r5, r2, r4, lsr #10

00000fb8 <GPIO_InterruptClear_Registers>:
     fb8:	4000441c 	andmi	r4, r0, ip, lsl r4
     fbc:	4000541c 	andmi	r5, r0, ip, lsl r4
     fc0:	4000641c 	andmi	r6, r0, ip, lsl r4
     fc4:	4000741c 	andmi	r7, r0, ip, lsl r4
     fc8:	4002441c 	andmi	r4, r2, ip, lsl r4
     fcc:	4002541c 	andmi	r5, r2, ip, lsl r4

00000fd0 <GPIO_PullUp_Registers>:
     fd0:	40004510 	andmi	r4, r0, r0, lsl r5
     fd4:	40005510 	andmi	r5, r0, r0, lsl r5
     fd8:	40006510 	andmi	r6, r0, r0, lsl r5
     fdc:	40007510 	andmi	r7, r0, r0, lsl r5
     fe0:	40024510 	andmi	r4, r2, r0, lsl r5
     fe4:	40025510 	andmi	r5, r2, r0, lsl r5

00000fe8 <Timer0A_32_64Bit>:
     fe8:	00000402 	andeq	r0, r0, r2, lsl #8

00000fec <Timer0B_32_64Bit>:
     fec:	00010502 	andeq	r0, r1, r2, lsl #10

00000ff0 <Timer1A_32_64Bit>:
     ff0:	00020602 	andeq	r0, r2, r2, lsl #12

00000ff4 <Timer1B_32_64Bit>:
     ff4:	00030702 	andeq	r0, r3, r2, lsl #14

00000ff8 <Timer2A_32_64Bit>:
     ff8:	00040003 	andeq	r0, r4, r3

00000ffc <Timer2B_32_64Bit>:
     ffc:	00050103 	andeq	r0, r5, r3, lsl #2

00001000 <Timer3A_32_64Bit>:
    1000:	00060203 	andeq	r0, r6, r3, lsl #4

00001004 <Timer3B_32_64Bit>:
    1004:	00070303 	andeq	r0, r7, r3, lsl #6

00001008 <Timer4A_32_64Bit>:
    1008:	00080403 	andeq	r0, r8, r3, lsl #8

0000100c <Timer4B_32_64Bit>:
    100c:	00090503 	andeq	r0, r9, r3, lsl #10

00001010 <Timer5A_32_64Bit>:
    1010:	000a0603 	andeq	r0, sl, r3, lsl #12

00001014 <Timer5B_32_64Bit>:
    1014:	000b0703 	andeq	r0, fp, r3, lsl #14

00001018 <UART0_AFSELConfig>:
    1018:	00010000 	andeq	r0, r1, r0

0000101c <UART1_AFSELConfig>:
    101c:	00010001 	andeq	r0, r1, r1

00001020 <UART2_AFSELConfig>:
    1020:	00070603 	andeq	r0, r7, r3, lsl #12

00001024 <UART3_AFSELConfig>:
    1024:	00070602 	andeq	r0, r7, r2, lsl #12

00001028 <UART4_AFSELConfig>:
    1028:	00050402 	andeq	r0, r5, r2, lsl #8

0000102c <UART5_AFSELConfig>:
    102c:	00050404 	andeq	r0, r5, r4, lsl #8

00001030 <UART6_AFSELConfig>:
    1030:	00050403 	andeq	r0, r5, r3, lsl #8

00001034 <UART7_AFSELConfig>:
    1034:	00010004 	andeq	r0, r1, r4

00001038 <GPIO_TimerAFSELConfig_ArrPtrStruct>:
    1038:	00000fe8 	andeq	r0, r0, r8, ror #31
    103c:	00000fec 	andeq	r0, r0, ip, ror #31
    1040:	00000ff0 	strdeq	r0, [r0], -r0	; <UNPREDICTABLE>
    1044:	00000ff4 	strdeq	r0, [r0], -r4
    1048:	00000ff8 	strdeq	r0, [r0], -r8
    104c:	00000ffc 	strdeq	r0, [r0], -ip
    1050:	00001000 	andeq	r1, r0, r0
    1054:	00001004 	andeq	r1, r0, r4
    1058:	00001008 	andeq	r1, r0, r8
    105c:	0000100c 	andeq	r1, r0, ip
    1060:	00001010 	andeq	r1, r0, r0, lsl r0
    1064:	00001014 	andeq	r1, r0, r4, lsl r0

00001068 <GPIO_AFSELUARTConfig_ArrPtrStruct>:
    1068:	00001018 	andeq	r1, r0, r8, lsl r0
    106c:	0000101c 	andeq	r1, r0, ip, lsl r0
    1070:	00001020 	andeq	r1, r0, r0, lsr #32
    1074:	00001024 	andeq	r1, r0, r4, lsr #32
    1078:	00001028 	andeq	r1, r0, r8, lsr #32
    107c:	0000102c 	andeq	r1, r0, ip, lsr #32
    1080:	00001030 	andeq	r1, r0, r0, lsr r0
    1084:	00001034 	andeq	r1, r0, r4, lsr r0

00001088 <GPTM_16_32_BitTimerA_IntervalLoad>:
    1088:	40030028 	andmi	r0, r3, r8, lsr #32
    108c:	40031028 	andmi	r1, r3, r8, lsr #32
    1090:	40032028 	andmi	r2, r3, r8, lsr #32
    1094:	40033028 	andmi	r3, r3, r8, lsr #32
    1098:	40034028 	andmi	r4, r3, r8, lsr #32
    109c:	40035028 	andmi	r5, r3, r8, lsr #32

000010a0 <GPTM_32_64_BitTimerA_IntervalLoad>:
    10a0:	40036028 	andmi	r6, r3, r8, lsr #32
    10a4:	40037028 	andmi	r7, r3, r8, lsr #32
    10a8:	4004c028 	andmi	ip, r4, r8, lsr #32
    10ac:	4004d028 	andmi	sp, r4, r8, lsr #32
    10b0:	4004e028 	andmi	lr, r4, r8, lsr #32
    10b4:	4004f028 	andmi	pc, r4, r8, lsr #32

000010b8 <GPTM_16BitTimerB_IntervalLoad>:
    10b8:	4003002c 	andmi	r0, r3, ip, lsr #32
    10bc:	4003102c 	andmi	r1, r3, ip, lsr #32
    10c0:	4003202c 	andmi	r2, r3, ip, lsr #32
    10c4:	4003302c 	andmi	r3, r3, ip, lsr #32
    10c8:	4003402c 	andmi	r4, r3, ip, lsr #32
    10cc:	4003502c 	andmi	r5, r3, ip, lsr #32

000010d0 <GPTM_32BitTimerB_IntervalLoad>:
    10d0:	4003602c 	andmi	r6, r3, ip, lsr #32
    10d4:	4003702c 	andmi	r7, r3, ip, lsr #32
    10d8:	4004c02c 	andmi	ip, r4, ip, lsr #32
    10dc:	4004d02c 	andmi	sp, r4, ip, lsr #32
    10e0:	4004e02c 	andmi	lr, r4, ip, lsr #32
    10e4:	4004f02c 	andmi	pc, r4, ip, lsr #32

000010e8 <GPTM_32_64_BitTimerA_Match>:
    10e8:	40036030 	andmi	r6, r3, r0, lsr r0
    10ec:	40037030 	andmi	r7, r3, r0, lsr r0
    10f0:	4004c030 	andmi	ip, r4, r0, lsr r0
    10f4:	4004d030 	andmi	sp, r4, r0, lsr r0
    10f8:	4004e030 	andmi	lr, r4, r0, lsr r0
    10fc:	4004f030 	andmi	pc, r4, r0, lsr r0	; <UNPREDICTABLE>

00001100 <GPTM_32BitTimerB_Match>:
    1100:	40036034 	andmi	r6, r3, r4, lsr r0
    1104:	40036034 	andmi	r6, r3, r4, lsr r0
    1108:	40036034 	andmi	r6, r3, r4, lsr r0
    110c:	40036034 	andmi	r6, r3, r4, lsr r0
    1110:	40036034 	andmi	r6, r3, r4, lsr r0
    1114:	40036034 	andmi	r6, r3, r4, lsr r0

00001118 <GPTM_TimerMode>:
    1118:	40030004 	andmi	r0, r3, r4
    111c:	40031004 	andmi	r1, r3, r4
    1120:	40032004 	andmi	r2, r3, r4
    1124:	40033004 	andmi	r3, r3, r4
    1128:	40034004 	andmi	r4, r3, r4
    112c:	40035004 	andmi	r5, r3, r4
    1130:	40036004 	andmi	r6, r3, r4
    1134:	40037004 	andmi	r7, r3, r4
    1138:	4004c004 	andmi	ip, r4, r4
    113c:	4004d004 	andmi	sp, r4, r4
    1140:	4004e004 	andmi	lr, r4, r4
    1144:	4004f004 	andmi	pc, r4, r4
    1148:	40030008 	andmi	r0, r3, r8
    114c:	40031008 	andmi	r1, r3, r8
    1150:	40032008 	andmi	r2, r3, r8
    1154:	40033008 	andmi	r3, r3, r8
    1158:	40034008 	andmi	r4, r3, r8
    115c:	40035008 	andmi	r5, r3, r8
    1160:	40036008 	andmi	r6, r3, r8
    1164:	40037008 	andmi	r7, r3, r8
    1168:	4004c008 	andmi	ip, r4, r8
    116c:	4004d008 	andmi	sp, r4, r8
    1170:	4004e008 	andmi	lr, r4, r8
    1174:	4004f008 	andmi	pc, r4, r8

00001178 <GPTM_Control>:
    1178:	4003000c 	andmi	r0, r3, ip
    117c:	4003100c 	andmi	r1, r3, ip
    1180:	4003200c 	andmi	r2, r3, ip
    1184:	4003300c 	andmi	r3, r3, ip
    1188:	4003400c 	andmi	r4, r3, ip
    118c:	4003500c 	andmi	r5, r3, ip
    1190:	4003600c 	andmi	r6, r3, ip
    1194:	4003700c 	andmi	r7, r3, ip
    1198:	4004c00c 	andmi	ip, r4, ip
    119c:	4004d00c 	andmi	sp, r4, ip
    11a0:	4004e00c 	andmi	lr, r4, ip
    11a4:	4004f00c 	andmi	pc, r4, ip

000011a8 <GPTM_ConfigurationRegisters>:
    11a8:	40030000 	andmi	r0, r3, r0
    11ac:	40031000 	andmi	r1, r3, r0
    11b0:	40032000 	andmi	r2, r3, r0
    11b4:	40033000 	andmi	r3, r3, r0
    11b8:	40034000 	andmi	r4, r3, r0
    11bc:	40035000 	andmi	r5, r3, r0
    11c0:	40036000 	andmi	r6, r3, r0
    11c4:	40037000 	andmi	r7, r3, r0
    11c8:	4004c000 	andmi	ip, r4, r0
    11cc:	4004d000 	andmi	sp, r4, r0
    11d0:	4004e000 	andmi	lr, r4, r0
    11d4:	4004f000 	andmi	pc, r4, r0

000011d8 <GPTM_ICRRegisters>:
    11d8:	40030024 	andmi	r0, r3, r4, lsr #32
    11dc:	40031024 	andmi	r1, r3, r4, lsr #32
    11e0:	40032024 	andmi	r2, r3, r4, lsr #32
    11e4:	40033024 	andmi	r3, r3, r4, lsr #32
    11e8:	40034024 	andmi	r4, r3, r4, lsr #32
    11ec:	40035024 	andmi	r5, r3, r4, lsr #32
    11f0:	40036024 	andmi	r6, r3, r4, lsr #32
    11f4:	40037024 	andmi	r7, r3, r4, lsr #32
    11f8:	4004c024 	andmi	ip, r4, r4, lsr #32
    11fc:	4004d024 	andmi	sp, r4, r4, lsr #32
    1200:	4004e024 	andmi	lr, r4, r4, lsr #32
    1204:	4004f024 	andmi	pc, r4, r4, lsr #32

00001208 <GPTM_RISRegisters>:
    1208:	4003001c 	andmi	r0, r3, ip, lsl r0
    120c:	4003101c 	andmi	r1, r3, ip, lsl r0
    1210:	4003201c 	andmi	r2, r3, ip, lsl r0
    1214:	4003301c 	andmi	r3, r3, ip, lsl r0
    1218:	4003401c 	andmi	r4, r3, ip, lsl r0
    121c:	4003501c 	andmi	r5, r3, ip, lsl r0
    1220:	4003601c 	andmi	r6, r3, ip, lsl r0
    1224:	4003701c 	andmi	r7, r3, ip, lsl r0
    1228:	4004c01c 	andmi	ip, r4, ip, lsl r0
    122c:	4004d01c 	andmi	sp, r4, ip, lsl r0
    1230:	4004e01c 	andmi	lr, r4, ip, lsl r0
    1234:	4004f01c 	andmi	pc, r4, ip, lsl r0	; <UNPREDICTABLE>

00001238 <GPTM_Config_32BitTimer0A>:
    1238:	00010001 	andeq	r0, r1, r1

0000123c <GPTM_Config_32BitTimer0B>:
    123c:	00030801 	andeq	r0, r3, r1, lsl #16

00001240 <GPTM_Config_32BitTimer1A>:
    1240:	01010001 	tsteq	r1, r1

00001244 <GPTM_Config_32BitTimer1B>:
    1244:	01030801 	tsteq	r3, r1, lsl #16

00001248 <GPTM_Config_32BitTimer2A>:
    1248:	02010001 	andeq	r0, r1, #1

0000124c <GPTM_Config_32BitTimer2B>:
    124c:	02030801 	andeq	r0, r3, #65536	; 0x10000

00001250 <GPTM_Config_32BitTimer3A>:
    1250:	03010001 	movweq	r0, #4097	; 0x1001

00001254 <GPTM_Config_32BitTimer3B>:
    1254:	03030801 	movweq	r0, #14337	; 0x3801

00001258 <GPTM_Config_32BitTimer4A>:
    1258:	04010001 	streq	r0, [r1], #-1

0000125c <GPTM_Config_32BitTimer4B>:
    125c:	04030801 	streq	r0, [r3], #-2049	; 0xfffff7ff

00001260 <GPTM_Config_32BitTimer5A>:
    1260:	05010001 	streq	r0, [r1, #-1]

00001264 <GPTM_Config_32BitTimer5B>:
    1264:	05030801 	streq	r0, [r3, #-2049]	; 0xfffff7ff

00001268 <Interrupt_Enable_Registers>:
    1268:	e000e100 	and	lr, r0, r0, lsl #2
    126c:	e000e104 	and	lr, r0, r4, lsl #2
    1270:	e000e108 	and	lr, r0, r8, lsl #2
    1274:	e000e10c 	and	lr, r0, ip, lsl #2

00001278 <Interrupt_Clear_Registers>:
    1278:	e000e180 	and	lr, r0, r0, lsl #3
    127c:	e000e184 	and	lr, r0, r4, lsl #3
    1280:	e000e188 	and	lr, r0, r8, lsl #3
    1284:	e000e18c 	and	lr, r0, ip, lsl #3

00001288 <Set_Pending_Register>:
    1288:	e000e200 	and	lr, r0, r0, lsl #4
    128c:	e000e204 	and	lr, r0, r4, lsl #4
    1290:	e000e208 	and	lr, r0, r8, lsl #4
    1294:	e000e20c 	and	lr, r0, ip, lsl #4

00001298 <Clear_Pending_Register>:
    1298:	e000e280 	and	lr, r0, r0, lsl #5
    129c:	e000e284 	and	lr, r0, r4, lsl #5
    12a0:	e000e288 	and	lr, r0, r8, lsl #5
    12a4:	e000e28c 	and	lr, r0, ip, lsl #5

000012a8 <Interrupt_Priority_Register>:
    12a8:	e000e400 	and	lr, r0, r0, lsl #8
    12ac:	e000e404 	and	lr, r0, r4, lsl #8
    12b0:	e000e408 	and	lr, r0, r8, lsl #8
    12b4:	e000e40c 	and	lr, r0, ip, lsl #8
    12b8:	e000e410 	and	lr, r0, r0, lsl r4
    12bc:	e000e414 	and	lr, r0, r4, lsl r4
    12c0:	e000e418 	and	lr, r0, r8, lsl r4
    12c4:	e000e41c 	and	lr, r0, ip, lsl r4

000012c8 <SC_SYSDIV>:
    12c8:	04030201 	streq	r0, [r3], #-513	; 0xfffffdff
    12cc:	08070605 	stmdaeq	r7, {r0, r2, r9, sl}
    12d0:	0c0b0a09 			; <UNDEFINED> instruction: 0x0c0b0a09
    12d4:	100f0e0d 	andne	r0, pc, sp, lsl #28

000012d8 <SC_PWMDIV>:
    12d8:	10080402 	andne	r0, r8, r2, lsl #8
    12dc:	40404020 	submi	r4, r0, r0, lsr #32

000012e0 <UART_DataRegisters>:
    12e0:	4000c000 	andmi	ip, r0, r0
    12e4:	4000d000 	andmi	sp, r0, r0
    12e8:	4000e000 	andmi	lr, r0, r0
    12ec:	4000f000 	andmi	pc, r0, r0
    12f0:	40010000 	andmi	r0, r1, r0
    12f4:	40011000 	andmi	r1, r1, r0
    12f8:	40012000 	andmi	r2, r1, r0
    12fc:	40013000 	andmi	r3, r1, r0

00001300 <UART_FlagRegisters>:
    1300:	4000c018 	andmi	ip, r0, r8, lsl r0
    1304:	4000d018 	andmi	sp, r0, r8, lsl r0
    1308:	4000e018 	andmi	lr, r0, r8, lsl r0
    130c:	4000f018 	andmi	pc, r0, r8, lsl r0	; <UNPREDICTABLE>
    1310:	40010018 	andmi	r0, r1, r8, lsl r0
    1314:	40011018 	andmi	r1, r1, r8, lsl r0
    1318:	40012018 	andmi	r2, r1, r8, lsl r0
    131c:	40013018 	andmi	r3, r1, r8, lsl r0

00001320 <UART_InterruptClearRegisters>:
    1320:	4000c044 	andmi	ip, r0, r4, asr #32
    1324:	4000d044 	andmi	sp, r0, r4, asr #32
    1328:	4000e044 	andmi	lr, r0, r4, asr #32
    132c:	4000f044 	andmi	pc, r0, r4, asr #32
    1330:	40010044 	andmi	r0, r1, r4, asr #32
    1334:	40011044 	andmi	r1, r1, r4, asr #32
    1338:	40012044 	andmi	r2, r1, r4, asr #32
    133c:	40013044 	andmi	r3, r1, r4, asr #32

00001340 <UART_IntegerBaudRateDivisorRegisters>:
    1340:	4000c024 	andmi	ip, r0, r4, lsr #32
    1344:	4000d024 	andmi	sp, r0, r4, lsr #32
    1348:	4000e024 	andmi	lr, r0, r4, lsr #32
    134c:	4000f024 	andmi	pc, r0, r4, lsr #32
    1350:	40010024 	andmi	r0, r1, r4, lsr #32
    1354:	40011024 	andmi	r1, r1, r4, lsr #32
    1358:	40012024 	andmi	r2, r1, r4, lsr #32
    135c:	40013024 	andmi	r3, r1, r4, lsr #32

00001360 <UART_FractionalBaudRateDivisorRegisters>:
    1360:	4000c028 	andmi	ip, r0, r8, lsr #32
    1364:	4000d028 	andmi	sp, r0, r8, lsr #32
    1368:	4000e028 	andmi	lr, r0, r8, lsr #32
    136c:	4000f028 	andmi	pc, r0, r8, lsr #32
    1370:	40010028 	andmi	r0, r1, r8, lsr #32
    1374:	40011028 	andmi	r1, r1, r8, lsr #32
    1378:	40012028 	andmi	r2, r1, r8, lsr #32
    137c:	40013028 	andmi	r3, r1, r8, lsr #32

00001380 <UART_ClockConfigurationRegisters>:
    1380:	4000cfc8 	andmi	ip, r0, r8, asr #31
    1384:	4000dfc8 	andmi	sp, r0, r8, asr #31
    1388:	4000efc8 	andmi	lr, r0, r8, asr #31
    138c:	4000ffc8 	andmi	pc, r0, r8, asr #31
    1390:	40010fc8 	andmi	r0, r1, r8, asr #31
    1394:	40011fc8 	andmi	r1, r1, r8, asr #31
    1398:	40012fc8 	andmi	r2, r1, r8, asr #31
    139c:	40013fc8 	andmi	r3, r1, r8, asr #31

000013a0 <UART_ControlRegisters>:
    13a0:	4000c030 	andmi	ip, r0, r0, lsr r0
    13a4:	4000d030 	andmi	sp, r0, r0, lsr r0
    13a8:	4000e030 	andmi	lr, r0, r0, lsr r0
    13ac:	4000f030 	andmi	pc, r0, r0, lsr r0	; <UNPREDICTABLE>
    13b0:	40010030 	andmi	r0, r1, r0, lsr r0
    13b4:	40011030 	andmi	r1, r1, r0, lsr r0
    13b8:	40012030 	andmi	r2, r1, r0, lsr r0
    13bc:	40013030 	andmi	r3, r1, r0, lsr r0

000013c0 <UART_LineControlRegisters>:
    13c0:	4000c02c 	andmi	ip, r0, ip, lsr #32
    13c4:	4000d02c 	andmi	sp, r0, ip, lsr #32
    13c8:	4000e02c 	andmi	lr, r0, ip, lsr #32
    13cc:	4000f02c 	andmi	pc, r0, ip, lsr #32
    13d0:	4001002c 	andmi	r0, r1, ip, lsr #32
    13d4:	4001102c 	andmi	r1, r1, ip, lsr #32
    13d8:	4001202c 	andmi	r2, r1, ip, lsr #32
    13dc:	4001302c 	andmi	r3, r1, ip, lsr #32

000013e0 <UART_InterruptMaskRegisters>:
    13e0:	4000c038 	andmi	ip, r0, r8, lsr r0
    13e4:	4000d038 	andmi	sp, r0, r8, lsr r0
    13e8:	4000e038 	andmi	lr, r0, r8, lsr r0
    13ec:	4000f038 	andmi	pc, r0, r8, lsr r0	; <UNPREDICTABLE>
    13f0:	40010038 	andmi	r0, r1, r8, lsr r0
    13f4:	40011038 	andmi	r1, r1, r8, lsr r0
    13f8:	40012038 	andmi	r2, r1, r8, lsr r0
    13fc:	40013038 	andmi	r3, r1, r8, lsr r0

00001400 <UART_MaskedInterruptStatusRegisters>:
    1400:	4000c040 	andmi	ip, r0, r0, asr #32
    1404:	4000d040 	andmi	sp, r0, r0, asr #32
    1408:	4000e040 	andmi	lr, r0, r0, asr #32
    140c:	4000f040 	andmi	pc, r0, r0, asr #32
    1410:	40010040 	andmi	r0, r1, r0, asr #32
    1414:	40011040 	andmi	r1, r1, r0, asr #32
    1418:	40012040 	andmi	r2, r1, r0, asr #32
    141c:	40013040 	andmi	r3, r1, r0, asr #32

00001420 <UART_DMAControlRegisters>:
    1420:	4000c048 	andmi	ip, r0, r8, asr #32
    1424:	4000d048 	andmi	sp, r0, r8, asr #32
    1428:	4000e048 	andmi	lr, r0, r8, asr #32
    142c:	4000f048 	andmi	pc, r0, r8, asr #32
    1430:	40010048 	andmi	r0, r1, r8, asr #32
    1434:	40011048 	andmi	r1, r1, r8, asr #32
    1438:	40012048 	andmi	r2, r1, r8, asr #32
    143c:	40013048 	andmi	r3, r1, r8, asr #32

00001440 <UART_InterruptFIFOLevelSelect>:
    1440:	4000c034 	andmi	ip, r0, r4, lsr r0
    1444:	4000d034 	andmi	sp, r0, r4, lsr r0
    1448:	4000e034 	andmi	lr, r0, r4, lsr r0
    144c:	4000f034 	andmi	pc, r0, r4, lsr r0	; <UNPREDICTABLE>
    1450:	40010034 	andmi	r0, r1, r4, lsr r0
    1454:	40011034 	andmi	r1, r1, r4, lsr r0
    1458:	40012034 	andmi	r2, r1, r4, lsr r0
    145c:	40013034 	andmi	r3, r1, r4, lsr r0

Disassembly of section .data.DMA_ChannelMapSelectRegisters:

20000000 <DMA_ChannelMapSelectRegisters>:
20000000:	400ff510 	andmi	pc, pc, r0, lsl r5	; <UNPREDICTABLE>
20000004:	400ff514 	andmi	pc, pc, r4, lsl r5	; <UNPREDICTABLE>
20000008:	400ff518 	andmi	pc, pc, r8, lsl r5	; <UNPREDICTABLE>
2000000c:	400ff51c 	andmi	pc, pc, ip, lsl r5	; <UNPREDICTABLE>

Disassembly of section .data.DMAChannel30_MemToMem:

20000010 <DMAChannel30_MemToMem>:
20000010:	0000001e 	andeq	r0, r0, lr, lsl r0
20000014:	00010200 	andeq	r0, r1, r0, lsl #4
20000018:	0000010a 	andeq	r0, r0, sl, lsl #2
2000001c:	000003ff 	strdeq	r0, [r0], -pc	; <UNPREDICTABLE>

Disassembly of section .data.Pt_DMAChannel30_MemToMem:

20000020 <Pt_DMAChannel30_MemToMem>:
20000020:	20000010 	andcs	r0, r0, r0, lsl r0

Disassembly of section .data.GPIO_ConfigurePin_PF4:

20000024 <GPIO_ConfigurePin_PF4>:
20000024:	Address 0x20000024 is out of bounds.


Disassembly of section .data.GPIO_ConfigurePin_PF1:

20000028 <GPIO_ConfigurePin_PF1>:
20000028:	Address 0x20000028 is out of bounds.


Disassembly of section .data.GPIO_ConfigurePin_PF0:

2000002c <GPIO_ConfigurePin_PF0>:
2000002c:	Address 0x2000002c is out of bounds.


Disassembly of section .bss:

20000400 <DMA_InterruptFlag>:
	...

20000401 <ScatterGatherFlag>:
	...

20000800 <ui8ControlTable>:
	...

20000c00 <DMA_SoftwareTransfer_Callback>:
	...

20000c80 <DMA_ErrorHandler_Callback>:
	...

20000d00 <handlerCounter>:
20000d00:	00000000 	andeq	r0, r0, r0

20000d04 <EXTI_Callback>:
	...

20000d1c <SourceBuffer_DMA>:
	...

2000111c <DestBufferA>:
2000111c:	00000000 	andeq	r0, r0, r0

20001120 <DestBufferB>:
20001120:	00000000 	andeq	r0, r0, r0

20001124 <DestBuffer_DMA>:
	...

20001524 <ListDest>:
	...

2000153c <IndexCounter>:
2000153c:	00000000 	andeq	r0, r0, r0

20001540 <indexCounter>:
20001540:	00000000 	andeq	r0, r0, r0

20001544 <MySystemClock>:
20001544:	00000000 	andeq	r0, r0, r0

20001548 <SourceArray512>:
	...

20001748 <DestArray512>:
	...

20001948 <IdleLoopCounter>:
20001948:	00000000 	andeq	r0, r0, r0

2000194c <Stack_top>:
	...

20001d4c <Systick_Callback>:
20001d4c:	00000000 	andeq	r0, r0, r0

20001d50 <UARTDMA_TxFlag>:
	...

20001d51 <UARTDMA_RxFlag>:
20001d51:	 	andeq	r0, r0, r0

20001d54 <UART0_Callback>:
	...

20001d68 <UART1_Callback>:
	...

20001d7c <UART2_Callback>:
	...

20001d90 <UART3_Callback>:
	...

20001da4 <UART4_Callback>:
	...

20001db8 <UART5_Callback>:
	...

20001dcc <UART6_Callback>:
	...

20001de0 <UART7_Callback>:
	...

Disassembly of section .debug_info:

00000000 <.debug_info>:
       0:	00000fcd 	andeq	r0, r0, sp, asr #31
       4:	00000002 	andeq	r0, r0, r2
       8:	01040000 	mrseq	r0, (UNDEF: 4)
       c:	000001ac 	andeq	r0, r0, ip, lsr #3
      10:	00093d0c 	andeq	r3, r9, ip, lsl #26
      14:	00002e00 	andeq	r2, r0, r0, lsl #28
	...
      24:	02000000 	andeq	r0, r0, #0
      28:	00000853 	andeq	r0, r0, r3, asr r8
      2c:	381d0602 	ldmdacc	sp, {r1, r9, sl}
      30:	03000000 	movweq	r0, #0
      34:	00000027 	andeq	r0, r0, r7, lsr #32
      38:	14080104 	strne	r0, [r8], #-260	; 0xfffffefc
      3c:	0300000d 	movweq	r0, #13
      40:	00000038 	andeq	r0, r0, r8, lsr r0
      44:	16060104 	strne	r0, [r6], -r4, lsl #2
      48:	0400000d 	streq	r0, [r0], #-13
      4c:	0ee40702 	cdpeq	7, 14, cr0, cr4, cr2, {0}
      50:	02040000 	andeq	r0, r4, #0
      54:	000a6305 	andeq	r6, sl, r5, lsl #6
      58:	0a5d0200 	beq	1740860 <UART_InterruptFIFOLevelSelect+0x173f420>
      5c:	0e020000 	cdpeq	0, 0, cr0, cr2, cr0, {0}
      60:	00006a1c 	andeq	r6, r0, ip, lsl sl
      64:	00590300 	subseq	r0, r9, r0, lsl #6
      68:	04040000 	streq	r0, [r4], #-0
      6c:	00052707 	andeq	r2, r5, r7, lsl #14
      70:	05040400 	streq	r0, [r4, #-1024]	; 0xfffffc00
      74:	00000808 	andeq	r0, r0, r8, lsl #16
      78:	0a040404 	beq	101090 <UART_InterruptFIFOLevelSelect+0xffc50>
      7c:	04000005 	streq	r0, [r0], #-5
      80:	09b10408 	ldmibeq	r1!, {r3, sl}
      84:	08040000 	stmdaeq	r4, {}	; <UNPREDICTABLE>
      88:	00052207 	andeq	r2, r5, r7, lsl #4
      8c:	09850200 	stmibeq	r5, {r9}
      90:	19020000 	stmdbne	r2, {}	; <UNPREDICTABLE>
      94:	00009e10 	andeq	r9, r0, r0, lsl lr
      98:	008d0300 	addeq	r0, sp, r0, lsl #6
      9c:	04050000 	streq	r0, [r5], #-0
      a0:	000000a4 	andeq	r0, r0, r4, lsr #1
      a4:	38070106 	stmdacc	r7, {r1, r2, r8}
      a8:	b7000000 	strlt	r0, [r0, -r0]
      ac:	08000000 	stmdaeq	r0, {}	; <UNPREDICTABLE>
      b0:	000000b7 	strheq	r0, [r0], -r7
      b4:	040003ff 	streq	r0, [r0], #-1023	; 0xfffffc01
      b8:	052c0704 	streq	r0, [ip, #-1796]!	; 0xfffff8fc
      bc:	ff090000 			; <UNDEFINED> instruction: 0xff090000
      c0:	03000000 	movweq	r0, #0
      c4:	00a6160a 	adceq	r1, r6, sl, lsl #12
      c8:	01010000 	mrseq	r0, (UNDEF: 1)
      cc:	8003040a 	andhi	r0, r3, sl, lsl #8
      d0:	0000e805 	andeq	lr, r0, r5, lsl #16
      d4:	08220b00 	stmdaeq	r2!, {r8, r9, fp}
      d8:	83030000 	movwhi	r0, #12288	; 0x3000
      dc:	0000590f 	andeq	r5, r0, pc, lsl #18
      e0:	00160400 	andseq	r0, r6, r0, lsl #8
      e4:	00002302 	andeq	r2, r0, r2, lsl #6
      e8:	7e03040c 	cdpvc	4, 0, cr0, cr3, cr12, {0}
      ec:	00010a09 	andeq	r0, r1, r9, lsl #20
      f0:	19ab0d00 	stmibne	fp!, {r8, sl, fp}
      f4:	85030000 	strhi	r0, [r3, #-0]
      f8:	0000cc06 	andeq	ip, r0, r6, lsl #24
      fc:	2b2f0d00 	blcs	bc3504 <UART_InterruptFIFOLevelSelect+0xbc20c4>
     100:	87030000 	strhi	r0, [r3, -r0]
     104:	00005908 	andeq	r5, r0, r8, lsl #18
     108:	9d020000 	stcls	0, cr0, [r2, #-0]
     10c:	03000009 	movweq	r0, #9
     110:	00e80289 	rsceq	r0, r8, r9, lsl #5
     114:	040a0000 	streq	r0, [sl], #-0
     118:	32058e03 	andcc	r8, r5, #3, 28	; 0x30
     11c:	0b000001 	bleq	128 <DMA_ChannelControlStructureSet+0x1c>
     120:	00000cb4 			; <UNDEFINED> instruction: 0x00000cb4
     124:	590c9003 	stmdbpl	ip, {r0, r1, ip, pc}
     128:	04000000 	streq	r0, [r0], #-0
     12c:	23021f01 	movwcs	r1, #12033	; 0x2f01
     130:	040c0000 	streq	r0, [ip], #-0
     134:	54098c03 	strpl	r8, [r9], #-3075	; 0xfffff3fd
     138:	0d000001 	stceq	0, cr0, [r0, #-4]
     13c:	000019ab 	andeq	r1, r0, fp, lsr #19
     140:	16069203 	strne	r9, [r6], -r3, lsl #4
     144:	0d000001 	stceq	0, cr0, [r0, #-4]
     148:	00002b2f 	andeq	r2, r0, pc, lsr #22
     14c:	590b9403 	stmdbpl	fp, {r0, r1, sl, ip, pc}
     150:	00000000 	andeq	r0, r0, r0
     154:	0005bb02 	andeq	fp, r5, r2, lsl #22
     158:	02960300 	addseq	r0, r6, #0, 6
     15c:	00000132 	andeq	r0, r0, r2, lsr r1
     160:	9b03040a 	blls	c1190 <UART_InterruptFIFOLevelSelect+0xbfd50>
     164:	0001fa05 	andeq	pc, r1, r5, lsl #20
     168:	0f310b00 	svceq	0x00310b00
     16c:	9c030000 	stcls	0, cr0, [r3], {-0}
     170:	0000590f 	andeq	r5, r0, pc, lsl #18
     174:	1d030400 	cfstrsne	mvf0, [r3, #-0]
     178:	0b002302 	bleq	8d88 <UART_InterruptFIFOLevelSelect+0x7948>
     17c:	000005f0 	strdeq	r0, [r0], -r0	; <UNPREDICTABLE>
     180:	590f9d03 	stmdbpl	pc, {r0, r1, r8, sl, fp, ip, pc}	; <UNPREDICTABLE>
     184:	04000000 	streq	r0, [r0], #-0
     188:	23021c01 	movwcs	r1, #11265	; 0x2c01
     18c:	079c0b00 	ldreq	r0, [ip, r0, lsl #22]
     190:	9e030000 	cdpls	0, 0, cr0, cr3, cr0, {0}
     194:	0000590f 	andeq	r5, r0, pc, lsl #18
     198:	120a0400 	andne	r0, sl, #0, 8
     19c:	0b002302 	bleq	8dac <UART_InterruptFIFOLevelSelect+0x796c>
     1a0:	000003c4 	andeq	r0, r0, r4, asr #7
     1a4:	590f9f03 	stmdbpl	pc, {r0, r1, r8, r9, sl, fp, ip, pc}	; <UNPREDICTABLE>
     1a8:	04000000 	streq	r0, [r0], #-0
     1ac:	23020e04 	movwcs	r0, #11780	; 0x2e04
     1b0:	0e230b00 	vmuleq.f64	d0, d3, d0
     1b4:	a1030000 	mrsge	r0, (UNDEF: 3)
     1b8:	0000590f 	andeq	r5, r0, pc, lsl #18
     1bc:	06020400 	streq	r0, [r2], -r0, lsl #8
     1c0:	0b002302 	bleq	8dd0 <UART_InterruptFIFOLevelSelect+0x7990>
     1c4:	00000f54 	andeq	r0, r0, r4, asr pc
     1c8:	590fa203 	stmdbpl	pc, {r0, r1, r9, sp, pc}	; <UNPREDICTABLE>
     1cc:	04000000 	streq	r0, [r0], #-0
     1d0:	23020402 	movwcs	r0, #9218	; 0x2402
     1d4:	00da0b00 	sbcseq	r0, sl, r0, lsl #22
     1d8:	a3030000 	movwge	r0, #12288	; 0x3000
     1dc:	0000590f 	andeq	r5, r0, pc, lsl #18
     1e0:	02020400 	andeq	r0, r2, #0, 8
     1e4:	0b002302 	bleq	8df4 <UART_InterruptFIFOLevelSelect+0x79b4>
     1e8:	0000069a 	muleq	r0, sl, r6
     1ec:	590fa403 	stmdbpl	pc, {r0, r1, sl, sp, pc}	; <UNPREDICTABLE>
     1f0:	04000000 	streq	r0, [r0], #-0
     1f4:	23020002 	movwcs	r0, #8194	; 0x2002
     1f8:	040c0000 	streq	r0, [ip], #-0
     1fc:	1c099903 			; <UNDEFINED> instruction: 0x1c099903
     200:	0d000002 	stceq	0, cr0, [r0, #-8]
     204:	000019ab 	andeq	r1, r0, fp, lsr #19
     208:	6006a603 	andvs	sl, r6, r3, lsl #12
     20c:	0d000001 	stceq	0, cr0, [r0, #-4]
     210:	00002b2f 	andeq	r2, r0, pc, lsr #22
     214:	590ba803 	stmdbpl	fp, {r0, r1, fp, sp, pc}
     218:	00000000 	andeq	r0, r0, r0
     21c:	0005fc02 	andeq	pc, r5, r2, lsl #24
     220:	02aa0300 	adceq	r0, sl, #0, 6
     224:	000001fa 	strdeq	r0, [r0], -sl
     228:	00021c03 	andeq	r1, r2, r3, lsl #24
     22c:	03040a00 	movweq	r0, #18944	; 0x4a00
     230:	048705ee 	streq	r0, [r7], #1518	; 0x5ee
     234:	be0b0000 	cdplt	0, 0, cr0, cr11, cr0, {0}
     238:	0300000f 	movweq	r0, #15
     23c:	00590ff0 	ldrsheq	r0, [r9], #-240	; 0xffffff10
     240:	01040000 	mrseq	r0, (UNDEF: 4)
     244:	0023021f 	eoreq	r0, r3, pc, lsl r2
     248:	000fd70b 	andeq	sp, pc, fp, lsl #14
     24c:	0ff10300 	svceq	0x00f10300
     250:	00000059 	andeq	r0, r0, r9, asr r0
     254:	021e0104 	andseq	r0, lr, #4, 2
     258:	000b0023 	andeq	r0, fp, r3, lsr #32
     25c:	03000000 	movweq	r0, #0
     260:	00590ff2 	ldrsheq	r0, [r9], #-242	; 0xffffff0e
     264:	01040000 	mrseq	r0, (UNDEF: 4)
     268:	0023021d 	eoreq	r0, r3, sp, lsl r2
     26c:	0000190b 	andeq	r1, r0, fp, lsl #18
     270:	0ff30300 	svceq	0x00f30300
     274:	00000059 	andeq	r0, r0, r9, asr r0
     278:	021c0104 	andseq	r0, ip, #4, 2
     27c:	320b0023 	andcc	r0, fp, #35	; 0x23
     280:	03000000 	movweq	r0, #0
     284:	00590ff4 	ldrsheq	r0, [r9], #-244	; 0xffffff0c
     288:	01040000 	mrseq	r0, (UNDEF: 4)
     28c:	0023021b 	eoreq	r0, r3, fp, lsl r2
     290:	00004b0b 	andeq	r4, r0, fp, lsl #22
     294:	0ff50300 	svceq	0x00f50300
     298:	00000059 	andeq	r0, r0, r9, asr r0
     29c:	021a0104 	andseq	r0, sl, #4, 2
     2a0:	640b0023 	strvs	r0, [fp], #-35	; 0xffffffdd
     2a4:	03000000 	movweq	r0, #0
     2a8:	00590ff6 	ldrsheq	r0, [r9], #-246	; 0xffffff0a
     2ac:	01040000 	mrseq	r0, (UNDEF: 4)
     2b0:	00230219 	eoreq	r0, r3, r9, lsl r2
     2b4:	00007d0b 	andeq	r7, r0, fp, lsl #26
     2b8:	0ff70300 	svceq	0x00f70300
     2bc:	00000059 	andeq	r0, r0, r9, asr r0
     2c0:	02180104 	andseq	r0, r8, #4, 2
     2c4:	960b0023 	strls	r0, [fp], -r3, lsr #32
     2c8:	03000000 	movweq	r0, #0
     2cc:	00590ff8 	ldrsheq	r0, [r9], #-248	; 0xffffff08
     2d0:	01040000 	mrseq	r0, (UNDEF: 4)
     2d4:	00230217 	eoreq	r0, r3, r7, lsl r2
     2d8:	0000af0b 	andeq	sl, r0, fp, lsl #30
     2dc:	0ff90300 	svceq	0x00f90300
     2e0:	00000059 	andeq	r0, r0, r9, asr r0
     2e4:	02160104 	andseq	r0, r6, #4, 2
     2e8:	4f0b0023 	svcmi	0x000b0023
     2ec:	03000002 	movweq	r0, #2
     2f0:	00590ffa 	ldrsheq	r0, [r9], #-250	; 0xffffff06
     2f4:	01040000 	mrseq	r0, (UNDEF: 4)
     2f8:	00230215 	eoreq	r0, r3, r5, lsl r2
     2fc:	0002690b 	andeq	r6, r2, fp, lsl #18
     300:	0ffb0300 	svceq	0x00fb0300
     304:	00000059 	andeq	r0, r0, r9, asr r0
     308:	02140104 	andseq	r0, r4, #4, 2
     30c:	830b0023 	movwhi	r0, #45091	; 0xb023
     310:	03000002 	movweq	r0, #2
     314:	00590ffc 	ldrsheq	r0, [r9], #-252	; 0xffffff04
     318:	01040000 	mrseq	r0, (UNDEF: 4)
     31c:	00230213 	eoreq	r0, r3, r3, lsl r2
     320:	00029d0b 	andeq	r9, r2, fp, lsl #26
     324:	0ffd0300 	svceq	0x00fd0300
     328:	00000059 	andeq	r0, r0, r9, asr r0
     32c:	02120104 	andseq	r0, r2, #4, 2
     330:	b70b0023 	strlt	r0, [fp, -r3, lsr #32]
     334:	03000002 	movweq	r0, #2
     338:	00590ffe 	ldrsheq	r0, [r9], #-254	; 0xffffff02
     33c:	01040000 	mrseq	r0, (UNDEF: 4)
     340:	00230211 	eoreq	r0, r3, r1, lsl r2
     344:	0002d10b 	andeq	sp, r2, fp, lsl #2
     348:	0fff0300 	svceq	0x00ff0300
     34c:	00000059 	andeq	r0, r0, r9, asr r0
     350:	02100104 	andseq	r0, r0, #4, 2
     354:	eb0e0023 	bl	3803e8 <UART_InterruptFIFOLevelSelect+0x37efa8>
     358:	03000002 	movweq	r0, #2
     35c:	590f0100 	stmdbpl	pc, {r8}	; <UNPREDICTABLE>
     360:	04000000 	streq	r0, [r0], #-0
     364:	23020f01 	movwcs	r0, #12033	; 0x2f01
     368:	03050e00 	movweq	r0, #24064	; 0x5e00
     36c:	01030000 	mrseq	r0, (UNDEF: 3)
     370:	00590f01 	subseq	r0, r9, r1, lsl #30
     374:	01040000 	mrseq	r0, (UNDEF: 4)
     378:	0023020e 	eoreq	r0, r3, lr, lsl #4
     37c:	00031f0e 	andeq	r1, r3, lr, lsl #30
     380:	01020300 	mrseq	r0, LR_svc
     384:	0000590f 	andeq	r5, r0, pc, lsl #18
     388:	0d010400 	cfstrseq	mvf0, [r1, #-0]
     38c:	0e002302 	cdpeq	3, 0, cr2, cr0, cr2, {0}
     390:	00000339 	andeq	r0, r0, r9, lsr r3
     394:	0f010303 	svceq	0x00010303
     398:	00000059 	andeq	r0, r0, r9, asr r0
     39c:	020c0104 	andeq	r0, ip, #4, 2
     3a0:	fa0e0023 	blx	380434 <UART_InterruptFIFOLevelSelect+0x37eff4>
     3a4:	03000003 	movweq	r0, #3
     3a8:	590f0104 	stmdbpl	pc, {r2, r8}	; <UNPREDICTABLE>
     3ac:	04000000 	streq	r0, [r0], #-0
     3b0:	23020b01 	movwcs	r0, #11009	; 0x2b01
     3b4:	04140e00 	ldreq	r0, [r4], #-3584	; 0xfffff200
     3b8:	05030000 	streq	r0, [r3, #-0]
     3bc:	00590f01 	subseq	r0, r9, r1, lsl #30
     3c0:	01040000 	mrseq	r0, (UNDEF: 4)
     3c4:	0023020a 	eoreq	r0, r3, sl, lsl #4
     3c8:	00042e0e 	andeq	r2, r4, lr, lsl #28
     3cc:	01060300 	mrseq	r0, LR_und
     3d0:	0000590f 	andeq	r5, r0, pc, lsl #18
     3d4:	09010400 	stmdbeq	r1, {sl}
     3d8:	0e002302 	cdpeq	3, 0, cr2, cr0, cr2, {0}
     3dc:	00000448 	andeq	r0, r0, r8, asr #8
     3e0:	0f010703 	svceq	0x00010703
     3e4:	00000059 	andeq	r0, r0, r9, asr r0
     3e8:	02080104 	andeq	r0, r8, #4, 2
     3ec:	620e0023 	andvs	r0, lr, #35	; 0x23
     3f0:	03000004 	movweq	r0, #4
     3f4:	590f0108 	stmdbpl	pc, {r3, r8}	; <UNPREDICTABLE>
     3f8:	04000000 	streq	r0, [r0], #-0
     3fc:	23020701 	movwcs	r0, #9985	; 0x2701
     400:	047c0e00 	ldrbteq	r0, [ip], #-3584	; 0xfffff200
     404:	09030000 	stmdbeq	r3, {}	; <UNPREDICTABLE>
     408:	00590f01 	subseq	r0, r9, r1, lsl #30
     40c:	01040000 	mrseq	r0, (UNDEF: 4)
     410:	00230206 	eoreq	r0, r3, r6, lsl #4
     414:	0004960e 	andeq	r9, r4, lr, lsl #12
     418:	010a0300 	mrseq	r0, (UNDEF: 58)
     41c:	0000590f 	andeq	r5, r0, pc, lsl #18
     420:	05010400 	streq	r0, [r1, #-1024]	; 0xfffffc00
     424:	0e002302 	cdpeq	3, 0, cr2, cr0, cr2, {0}
     428:	000004b0 			; <UNDEFINED> instruction: 0x000004b0
     42c:	0f010b03 	svceq	0x00010b03
     430:	00000059 	andeq	r0, r0, r9, asr r0
     434:	02040104 	andeq	r0, r4, #4, 2
     438:	ca0e0023 	bgt	3804cc <UART_InterruptFIFOLevelSelect+0x37f08c>
     43c:	03000004 	movweq	r0, #4
     440:	590f010c 	stmdbpl	pc, {r2, r3, r8}	; <UNPREDICTABLE>
     444:	04000000 	streq	r0, [r0], #-0
     448:	23020301 	movwcs	r0, #8961	; 0x2301
     44c:	04e40e00 	strbteq	r0, [r4], #3584	; 0xe00
     450:	0d030000 	stceq	0, cr0, [r3, #-0]
     454:	00590f01 	subseq	r0, r9, r1, lsl #30
     458:	01040000 	mrseq	r0, (UNDEF: 4)
     45c:	00230202 	eoreq	r0, r3, r2, lsl #4
     460:	00055c0e 	andeq	r5, r5, lr, lsl #24
     464:	010e0300 	mrseq	r0, ELR_hyp
     468:	0000590f 	andeq	r5, r0, pc, lsl #18
     46c:	01010400 	tsteq	r1, r0, lsl #8
     470:	0e002302 	cdpeq	3, 0, cr2, cr0, cr2, {0}
     474:	00000576 	andeq	r0, r0, r6, ror r5
     478:	0f010f03 	svceq	0x00010f03
     47c:	00000059 	andeq	r0, r0, r9, asr r0
     480:	02000104 	andeq	r0, r0, #4, 2
     484:	0c000023 	stceq	0, cr0, [r0], {35}	; 0x23
     488:	09ec0304 	stmibeq	ip!, {r2, r8, r9}^
     48c:	000004ab 	andeq	r0, r0, fp, lsr #9
     490:	0019ab0f 	andseq	sl, r9, pc, lsl #22
     494:	01100300 	tsteq	r0, r0, lsl #6
     498:	00022d06 	andeq	r2, r2, r6, lsl #26
     49c:	2b2f0f00 	blcs	bc40a4 <UART_InterruptFIFOLevelSelect+0xbc2c64>
     4a0:	11030000 	mrsne	r0, (UNDEF: 3)
     4a4:	00590b01 	subseq	r0, r9, r1, lsl #22
     4a8:	10000000 	andne	r0, r0, r0
     4ac:	00000d08 	andeq	r0, r0, r8, lsl #26
     4b0:	02011203 	andeq	r1, r1, #805306368	; 0x30000000
     4b4:	00000487 	andeq	r0, r0, r7, lsl #9
     4b8:	38010711 	stmdacc	r1, {r0, r4, r8, r9, sl}
     4bc:	04000000 	streq	r0, [r0], #-0
     4c0:	05870d2e 	streq	r0, [r7, #3374]	; 0xd2e
     4c4:	76120000 	ldrvc	r0, [r2], -r0
     4c8:	0000000d 	andeq	r0, r0, sp
     4cc:	000d8312 	andeq	r8, sp, r2, lsl r3
     4d0:	90120100 	andsls	r0, r2, r0, lsl #2
     4d4:	0200000d 	andeq	r0, r0, #13
     4d8:	000d9d12 	andeq	r9, sp, r2, lsl sp
     4dc:	aa120300 	bge	4810e4 <UART_InterruptFIFOLevelSelect+0x47fca4>
     4e0:	0400000d 	streq	r0, [r0], #-13
     4e4:	000db712 	andeq	fp, sp, r2, lsl r7
     4e8:	c4120500 	ldrgt	r0, [r2], #-1280	; 0xfffffb00
     4ec:	0600000d 	streq	r0, [r0], -sp
     4f0:	000dd112 	andeq	sp, sp, r2, lsl r1
     4f4:	de120700 	cdple	7, 1, cr0, cr2, cr0, {0}
     4f8:	0800000d 	stmdaeq	r0, {r0, r2, r3}
     4fc:	000deb12 	andeq	lr, sp, r2, lsl fp
     500:	d3120900 	tstle	r2, #0, 18
     504:	0a00000b 	beq	538 <GPIO_SetData+0x50>
     508:	000be112 	andeq	lr, fp, r2, lsl r1
     50c:	ef120b00 	svc	0x00120b00
     510:	0c00000b 	stceq	0, cr0, [r0], {11}
     514:	000bfd12 	andeq	pc, fp, r2, lsl sp	; <UNPREDICTABLE>
     518:	0b120d00 	bleq	483920 <UART_InterruptFIFOLevelSelect+0x4824e0>
     51c:	0e00000c 	cdpeq	0, 0, cr0, cr0, cr12, {0}
     520:	000c1912 	andeq	r1, ip, r2, lsl r9
     524:	27120f00 	ldrcs	r0, [r2, -r0, lsl #30]
     528:	1000000c 	andne	r0, r0, ip
     52c:	000c3512 	andeq	r3, ip, r2, lsl r5
     530:	43121100 	tstmi	r2, #0, 2
     534:	1200000c 	andne	r0, r0, #12
     538:	000c5112 	andeq	r5, ip, r2, lsl r1
     53c:	ec121300 	ldc	3, cr1, [r2], {-0}
     540:	1400000c 	strne	r0, [r0], #-12
     544:	000cfa12 	andeq	pc, ip, r2, lsl sl	; <UNPREDICTABLE>
     548:	29121500 	ldmdbcs	r2, {r8, sl, ip}
     54c:	1600000b 	strne	r0, [r0], -fp
     550:	000b3712 	andeq	r3, fp, r2, lsl r7
     554:	22121700 	andscs	r1, r2, #0, 14
     558:	1800000d 	stmdane	r0, {r0, r2, r3}
     55c:	000d3012 	andeq	r3, sp, r2, lsl r0
     560:	3e121900 	vnmlscc.f16	s2, s4, s0	; <UNPREDICTABLE>
     564:	1a00000d 	bne	5a0 <GPIO_ConfigureDigitalEnable+0x28>
     568:	000d4c12 	andeq	r4, sp, r2, lsl ip
     56c:	5a121b00 	bpl	487174 <UART_InterruptFIFOLevelSelect+0x485d34>
     570:	1c00000d 	stcne	0, cr0, [r0], {13}
     574:	000d6812 	andeq	r6, sp, r2, lsl r8
     578:	90121d00 	andsls	r1, r2, r0, lsl #26
     57c:	1e00000e 	cdpne	0, 0, cr0, cr0, cr14, {0}
     580:	000e9e12 	andeq	r9, lr, r2, lsl lr
     584:	02001f00 	andeq	r1, r0, #0, 30
     588:	00000e3b 	andeq	r0, r0, fp, lsr lr
     58c:	b8025004 	stmdalt	r2, {r2, ip, lr}
     590:	11000004 	tstne	r0, r4
     594:	00380107 	eorseq	r0, r8, r7, lsl #2
     598:	52040000 	andpl	r0, r4, #0
     59c:	0005ba0d 	andeq	fp, r5, sp, lsl #20
     5a0:	07b71200 	ldreq	r1, [r7, r0, lsl #4]!
     5a4:	12000000 	andne	r0, r0, #0
     5a8:	00000811 	andeq	r0, r0, r1, lsl r8
     5ac:	08151201 	ldmdaeq	r5, {r0, r9, ip}
     5b0:	12020000 	andne	r0, r2, #0
     5b4:	0000086d 	andeq	r0, r0, sp, ror #16
     5b8:	87020003 	strhi	r0, [r2, -r3]
     5bc:	0400000f 	streq	r0, [r0], #-15
     5c0:	05930257 	ldreq	r0, [r3, #599]	; 0x257
     5c4:	07110000 	ldreq	r0, [r1, -r0]
     5c8:	00003801 	andeq	r3, r0, r1, lsl #16
     5cc:	0d5a0400 	cfldrdeq	mvd0, [sl, #-0]
     5d0:	000005ed 	andeq	r0, r0, sp, ror #11
     5d4:	00062212 	andeq	r2, r6, r2, lsl r2
     5d8:	e2120000 	ands	r0, r2, #0
     5dc:	01000009 	tsteq	r0, r9
     5e0:	0009e612 	andeq	lr, r9, r2, lsl r6
     5e4:	3c120200 	lfmcc	f0, 4, [r2], {-0}
     5e8:	03000002 	movweq	r0, #2
     5ec:	0a000200 	beq	df4 <AlternateDMA_ChannelControlWordRegisters+0x2c>
     5f0:	5f040000 	svcpl	0x00040000
     5f4:	0005c602 	andeq	ip, r5, r2, lsl #12
     5f8:	01071100 	mrseq	r1, (UNDEF: 23)
     5fc:	00000038 	andeq	r0, r0, r8, lsr r0
     600:	1a0d6204 	bne	358e18 <UART_InterruptFIFOLevelSelect+0x3579d8>
     604:	12000006 	andne	r0, r0, #6
     608:	00000c6d 	andeq	r0, r0, sp, ror #24
     60c:	07a51200 	streq	r1, [r5, r0, lsl #4]!
     610:	12010000 	andne	r0, r1, #0
     614:	000007a9 	andeq	r0, r0, r9, lsr #15
     618:	67020002 	strvs	r0, [r2, -r2]
     61c:	0400000f 	streq	r0, [r0], #-15
     620:	05f90266 	ldrbeq	r0, [r9, #614]!	; 0x266
     624:	07110000 	ldreq	r0, [r1, -r0]
     628:	00003801 	andeq	r3, r0, r1, lsl #16
     62c:	0d690400 	cfstrdeq	mvd0, [r9, #-0]
     630:	00000647 	andeq	r0, r0, r7, asr #12
     634:	00084612 	andeq	r4, r8, r2, lsl r6
     638:	a1120000 	tstge	r2, r0
     63c:	01000008 	tsteq	r0, r8
     640:	0008a512 	andeq	sl, r8, r2, lsl r5
     644:	02000200 	andeq	r0, r0, #0, 4
     648:	00000ca2 	andeq	r0, r0, r2, lsr #25
     64c:	26026d04 	strcs	r6, [r2], -r4, lsl #26
     650:	11000006 	tstne	r0, r6
     654:	00380107 	eorseq	r0, r8, r7, lsl #2
     658:	6f040000 	svcvs	0x00040000
     65c:	00066e0d 	andeq	r6, r6, sp, lsl #28
     660:	036d1200 	cmneq	sp, #0, 4
     664:	12000000 	andne	r0, r0, #0
     668:	00000143 	andeq	r0, r0, r3, asr #2
     66c:	fc020001 	stc2	0, cr0, [r2], {1}
     670:	04000006 	streq	r0, [r0], #-6
     674:	06530272 			; <UNDEFINED> instruction: 0x06530272
     678:	07110000 	ldreq	r0, [r1, -r0]
     67c:	00003801 	andeq	r3, r0, r1, lsl #16
     680:	0d740400 	cfldrdeq	mvd0, [r4, #-0]
     684:	00000695 	muleq	r0, r5, r6
     688:	0000ef12 	andeq	lr, r0, r2, lsl pc
     68c:	aa120000 	bge	480694 <UART_InterruptFIFOLevelSelect+0x47f254>
     690:	01000012 	tsteq	r0, r2, lsl r0
     694:	05480200 	strbeq	r0, [r8, #-512]	; 0xfffffe00
     698:	78040000 	stmdavc	r4, {}	; <UNPREDICTABLE>
     69c:	00067a02 	andeq	r7, r6, r2, lsl #20
     6a0:	01071100 	mrseq	r1, (UNDEF: 23)
     6a4:	00000038 	andeq	r0, r0, r8, lsr r0
     6a8:	ce0d7a04 	vmlagt.f32	s14, s26, s8
     6ac:	12000006 	andne	r0, r0, #6
     6b0:	000009b8 			; <UNDEFINED> instruction: 0x000009b8
     6b4:	09c61200 	stmibeq	r6, {r9, ip}^
     6b8:	12010000 	andne	r0, r1, #0
     6bc:	000009d4 	ldrdeq	r0, [r0], -r4
     6c0:	076d1202 	strbeq	r1, [sp, -r2, lsl #4]!
     6c4:	12030000 	andne	r0, r3, #0
     6c8:	000009f2 	strdeq	r0, [r0], -r2
     6cc:	67020004 	strvs	r0, [r2, -r4]
     6d0:	04000009 	streq	r0, [r0], #-9
     6d4:	06a10281 	strteq	r0, [r1], r1, lsl #5
     6d8:	07110000 	ldreq	r0, [r1, -r0]
     6dc:	00003801 	andeq	r3, r0, r1, lsl #16
     6e0:	0d830400 	cfstrseq	mvf0, [r3]
     6e4:	000006f5 	strdeq	r0, [r0], -r5
     6e8:	000f3a12 	andeq	r3, pc, r2, lsl sl	; <UNPREDICTABLE>
     6ec:	0f120000 	svceq	0x00120000
     6f0:	01000001 	tsteq	r0, r1
     6f4:	03530200 	cmpeq	r3, #0, 4
     6f8:	86040000 	strhi	r0, [r4], -r0
     6fc:	0006da02 	andeq	sp, r6, r2, lsl #20
     700:	01071100 	mrseq	r1, (UNDEF: 23)
     704:	00000038 	andeq	r0, r0, r8, lsr r0
     708:	400d8804 	andmi	r8, sp, r4, lsl #16
     70c:	12000007 	andne	r0, r0, #7
     710:	00000994 	muleq	r0, r4, r9
     714:	0c7b1200 	lfmeq	f1, 2, [fp], #-0
     718:	12010000 	andne	r0, r1, #0
     71c:	00000a1a 	andeq	r0, r0, sl, lsl sl
     720:	059f1202 	ldreq	r1, [pc, #514]	; 92a <NVIC_Clear_Interrupt+0x1e>
     724:	12030000 	andne	r0, r3, #0
     728:	0000012f 	andeq	r0, r0, pc, lsr #2
     72c:	01261204 			; <UNDEFINED> instruction: 0x01261204
     730:	12050000 	andne	r0, r5, #0
     734:	00000784 	andeq	r0, r0, r4, lsl #15
     738:	077b1206 	ldrbeq	r1, [fp, -r6, lsl #4]!
     73c:	00070000 	andeq	r0, r7, r0
     740:	000e4b02 	andeq	r4, lr, r2, lsl #22
     744:	02910400 	addseq	r0, r1, #0, 8
     748:	00000701 	andeq	r0, r0, r1, lsl #14
     74c:	38010711 	stmdacc	r1, {r0, r4, r8, r9, sl}
     750:	04000000 	streq	r0, [r0], #-0
     754:	079d0d93 			; <UNDEFINED> instruction: 0x079d0d93
     758:	d8120000 	ldmdale	r2, {}	; <UNPREDICTABLE>
     75c:	0000000e 	andeq	r0, r0, lr
     760:	0000e212 	andeq	lr, r0, r2, lsl r2
     764:	38120100 	ldmdacc	r2, {r8}
     768:	0200000a 	andeq	r0, r0, #10
     76c:	000f7a12 	andeq	r7, pc, r2, lsl sl	; <UNPREDICTABLE>
     770:	5f120300 	svcpl	0x00120300
     774:	0400000c 	streq	r0, [r0], #-12
     778:	000b0012 	andeq	r0, fp, r2, lsl r0
     77c:	3c120500 	cfldr32cc	mvfx0, [r2], {-0}
     780:	06000007 	streq	r0, [r0], -r7
     784:	000faf12 	andeq	sl, pc, r2, lsl pc	; <UNPREDICTABLE>
     788:	bd120700 	ldclt	7, cr0, [r2, #-0]
     78c:	0800000e 	stmdaeq	r0, {r1, r2, r3}
     790:	000cd712 	andeq	sp, ip, r2, lsl r7
     794:	2b120900 	blcs	482b9c <UART_InterruptFIFOLevelSelect+0x48175c>
     798:	0a00000e 	beq	7d8 <GPIO_ConfigureInputPin+0x18>
     79c:	06380200 	ldrteq	r0, [r8], -r0, lsl #4
     7a0:	9f040000 	svcls	0x00040000
     7a4:	00074c02 	andeq	r4, r7, r2, lsl #24
     7a8:	01071100 	mrseq	r1, (UNDEF: 23)
     7ac:	00000038 	andeq	r0, r0, r8, lsr r0
     7b0:	c40da104 	strgt	sl, [sp], #-260	; 0xfffffefc
     7b4:	12000007 	andne	r0, r0, #7
     7b8:	00000f1f 	andeq	r0, r0, pc, lsl pc
     7bc:	0eac1200 	cdpeq	2, 10, cr1, cr12, cr0, {0}
     7c0:	00010000 	andeq	r0, r1, r0
     7c4:	000a4502 	andeq	r4, sl, r2, lsl #10
     7c8:	02a40400 	adceq	r0, r4, #0, 8
     7cc:	000007a9 	andeq	r0, r0, r9, lsr #15
     7d0:	a704100a 	strge	r1, [r4, -sl]
     7d4:	00087f09 	andeq	r7, r8, r9, lsl #30
     7d8:	39aa1300 	stmibcc	sl!, {r8, r9, ip}
     7dc:	a8040000 	stmdage	r4, {}	; <UNPREDICTABLE>
     7e0:	00058715 	andeq	r8, r5, r5, lsl r7
     7e4:	00230200 	eoreq	r0, r3, r0, lsl #4
     7e8:	0003cc13 	andeq	ip, r3, r3, lsl ip
     7ec:	20a90400 	adccs	r0, r9, r0, lsl #8
     7f0:	000005ba 			; <UNDEFINED> instruction: 0x000005ba
     7f4:	13012302 	movwne	r2, #4866	; 0x1302
     7f8:	000008f7 	strdeq	r0, [r0], -r7
     7fc:	ed1faa04 	vldr	s20, [pc, #-16]	; 7f4 <GPIO_ConfigureInputPin+0x34>
     800:	02000005 	andeq	r0, r0, #5
     804:	a2130223 	andsge	r0, r3, #805306370	; 0x30000002
     808:	0400000f 	streq	r0, [r0], #-15
     80c:	061a18ab 	ldreq	r1, [sl], -fp, lsr #17
     810:	23020000 	movwcs	r0, #8192	; 0x2000
     814:	0b1d1303 	bleq	745428 <UART_InterruptFIFOLevelSelect+0x743fe8>
     818:	ac040000 	stcge	0, cr0, [r4], {-0}
     81c:	00064717 	andeq	r4, r6, r7, lsl r7
     820:	04230200 	strteq	r0, [r3], #-512	; 0xfffffe00
     824:	00097813 	andeq	r7, r9, r3, lsl r8
     828:	1ead0400 	cdpne	4, 10, cr0, cr13, cr0, {0}
     82c:	00000740 	andeq	r0, r0, r0, asr #14
     830:	13052302 	movwne	r2, #21250	; 0x5302
     834:	00000861 	andeq	r0, r0, r1, ror #16
     838:	f51fae04 			; <UNDEFINED> instruction: 0xf51fae04
     83c:	02000006 	andeq	r0, r0, #6
     840:	5b130623 	blpl	4c20d4 <UART_InterruptFIFOLevelSelect+0x4c0c94>
     844:	0400000f 	streq	r0, [r0], #-15
     848:	06ce16af 	strbeq	r1, [lr], pc, lsr #13
     84c:	23020000 	movwcs	r0, #8192	; 0x2000
     850:	083c1307 	ldmdaeq	ip!, {r0, r1, r2, r8, r9, ip}
     854:	b0040000 	andlt	r0, r4, r0
     858:	00079d1b 	andeq	r9, r7, fp, lsl sp
     85c:	08230200 	stmdaeq	r3!, {r9}
     860:	000f0313 	andeq	r0, pc, r3, lsl r3	; <UNPREDICTABLE>
     864:	1db10400 	cfldrsne	mvf0, [r1]
     868:	000007c4 	andeq	r0, r0, r4, asr #15
     86c:	13092302 	movwne	r2, #37634	; 0x9302
     870:	000003ed 	andeq	r0, r0, sp, ror #7
     874:	590bb204 	stmdbpl	fp, {r2, r9, ip, sp, pc}
     878:	02000000 	andeq	r0, r0, #0
     87c:	02000c23 	andeq	r0, r0, #8960	; 0x2300
     880:	0000066c 	andeq	r0, r0, ip, ror #12
     884:	d002b404 	andle	fp, r2, r4, lsl #8
     888:	0a000007 	beq	8ac <main+0x88>
     88c:	09b70410 	ldmibeq	r7!, {r4, sl}
     890:	000008d1 	ldrdeq	r0, [r0], -r1
     894:	00068713 	andeq	r8, r6, r3, lsl r7
     898:	0db80400 	cfldrseq	mvf0, [r8]
     89c:	000008d1 	ldrdeq	r0, [r0], -r1
     8a0:	13002302 	movwne	r2, #770	; 0x302
     8a4:	000005a8 	andeq	r0, r0, r8, lsr #11
     8a8:	d10db904 	tstle	sp, r4, lsl #18
     8ac:	02000008 	andeq	r0, r0, #8
     8b0:	e1130423 	tst	r3, r3, lsr #8
     8b4:	04000003 	streq	r0, [r0], #-3
     8b8:	00590bba 	ldrheq	r0, [r9], #-186	; 0xffffff46
     8bc:	23020000 	movwcs	r0, #8192	; 0x2000
     8c0:	074a1308 	strbeq	r1, [sl, -r8, lsl #6]
     8c4:	bb040000 	bllt	1008cc <UART_InterruptFIFOLevelSelect+0xff48c>
     8c8:	0000590b 	andeq	r5, r0, fp, lsl #18
     8cc:	0c230200 	sfmeq	f0, 4, [r3], #-0
     8d0:	59040500 	stmdbpl	r4, {r8, sl}
     8d4:	02000000 	andeq	r0, r0, #0
     8d8:	00000f0f 	andeq	r0, r0, pc, lsl #30
     8dc:	8b02bc04 	blhi	af8f4 <UART_InterruptFIFOLevelSelect+0xae4b4>
     8e0:	05000008 	streq	r0, [r0, #-8]
     8e4:	00087f04 	andeq	r7, r8, r4, lsl #30
     8e8:	06090900 	streq	r0, [r9], -r0, lsl #18
     8ec:	c1040000 	mrsgt	r0, (UNDEF: 4)
     8f0:	0008e324 	andeq	lr, r8, r4, lsr #6
     8f4:	07010100 	streq	r0, [r1, -r0, lsl #2]
     8f8:	000008d7 	ldrdeq	r0, [r0], -r7
     8fc:	00000907 	andeq	r0, r0, r7, lsl #18
     900:	0000b714 	andeq	fp, r0, r4, lsl r7
     904:	09000200 	stmdbeq	r0, {r9}
     908:	00000928 	andeq	r0, r0, r8, lsr #18
     90c:	f718ca04 			; <UNDEFINED> instruction: 0xf718ca04
     910:	01000008 	tsteq	r0, r8
     914:	0e640901 	vmuleq.f16	s1, s8, s2	; <UNPREDICTABLE>
     918:	cb040000 	blgt	100920 <UART_InterruptFIFOLevelSelect+0xff4e0>
     91c:	0008f718 	andeq	pc, r8, r8, lsl r7	; <UNPREDICTABLE>
     920:	11010100 	mrsne	r0, (UNDEF: 17)
     924:	00380107 	eorseq	r0, r8, r7, lsl #2
     928:	2a050000 	bcs	140930 <UART_InterruptFIFOLevelSelect+0x13f4f0>
     92c:	0009620e 	andeq	r6, r9, lr, lsl #4
     930:	0d791200 	lfmeq	f1, 2, [r9, #-0]
     934:	12000000 	andne	r0, r0, #0
     938:	00000d86 	andeq	r0, r0, r6, lsl #27
     93c:	0d931201 	lfmeq	f1, 4, [r3, #4]
     940:	12020000 	andne	r0, r2, #0
     944:	00000da0 	andeq	r0, r0, r0, lsr #27
     948:	0dad1203 	sfmeq	f1, 4, [sp, #12]!
     94c:	12040000 	andne	r0, r4, #0
     950:	00000dba 			; <UNDEFINED> instruction: 0x00000dba
     954:	0dc71205 	sfmeq	f1, 2, [r7, #20]
     958:	12060000 	andne	r0, r6, #0
     95c:	00000dd4 	ldrdeq	r0, [r0], -r4
     960:	07110007 	ldreq	r0, [r1, -r7]
     964:	00003801 	andeq	r3, r0, r1, lsl #16
     968:	0d380500 	cfldr32eq	mvfx0, [r8, #-0]
     96c:	0000099b 	muleq	r0, fp, r9
     970:	000ce612 	andeq	lr, ip, r2, lsl r6
     974:	f7120000 			; <UNDEFINED> instruction: 0xf7120000
     978:	0100000e 	tsteq	r0, lr
     97c:	000efd12 	andeq	pc, lr, r2, lsl sp	; <UNPREDICTABLE>
     980:	c8120200 	ldmdagt	r2, {r9}
     984:	03000000 	movweq	r0, #0
     988:	0000ce12 	andeq	ip, r0, r2, lsl lr
     98c:	d4120400 	ldrle	r0, [r2], #-1024	; 0xfffffc00
     990:	05000000 	streq	r0, [r0, #-0]
     994:	000df812 	andeq	pc, sp, r2, lsl r8	; <UNPREDICTABLE>
     998:	11000600 	tstne	r0, r0, lsl #12
     99c:	00380107 	eorseq	r0, r8, r7, lsl #2
     9a0:	4d050000 	stcmi	0, cr0, [r5, #-0]
     9a4:	0009b60e 	andeq	fp, r9, lr, lsl #12
     9a8:	062e1200 	strteq	r1, [lr], -r0, lsl #4
     9ac:	12000000 	andne	r0, r0, #0
     9b0:	0000091d 	andeq	r0, r0, sp, lsl r9
     9b4:	04150001 	ldreq	r0, [r5], #-1
     9b8:	746e6905 	strbtvc	r6, [lr], #-2309	; 0xfffff6fb
     9bc:	05080400 	streq	r0, [r8, #-1024]	; 0xfffffc00
     9c0:	00000803 	andeq	r0, r0, r3, lsl #16
     9c4:	ac040804 	stcge	8, cr0, [r4], {4}
     9c8:	16000009 	strne	r0, [r0], -r9
     9cc:	08010404 	stmdaeq	r1, {r2, sl}
     9d0:	00000d1d 	andeq	r0, r0, sp, lsl sp
     9d4:	00053909 	andeq	r3, r5, r9, lsl #18
     9d8:	1f130100 	svcne	0x00130100
     9dc:	0000003f 	andeq	r0, r0, pc, lsr r0
     9e0:	e8090101 	stmda	r9, {r0, r8}
     9e4:	01000008 	tsteq	r0, r8
     9e8:	003f1f14 	eorseq	r1, pc, r4, lsl pc	; <UNPREDICTABLE>
     9ec:	01010000 	mrseq	r0, (UNDEF: 1)
     9f0:	00051017 	andeq	r1, r5, r7, lsl r0
     9f4:	0d150100 	ldfeqs	f0, [r5, #-0]
     9f8:	00000027 	andeq	r0, r0, r7, lsr #32
     9fc:	04000305 	streq	r0, [r0], #-773	; 0xfffffcfb
     a00:	84182000 	ldrhi	r2, [r8], #-0
     a04:	01000003 	tsteq	r0, r3
     a08:	00330f1a 	eorseq	r0, r3, sl, lsl pc
     a0c:	05010000 	streq	r0, [r1, #-0]
     a10:	00040103 	andeq	r0, r4, r3, lsl #2
     a14:	00be1920 	adcseq	r1, lr, r0, lsr #18
     a18:	49010000 	stmdbmi	r1, {}	; <UNPREDICTABLE>
     a1c:	0003050f 	andeq	r0, r3, pc, lsl #10
     a20:	07200008 	streq	r0, [r0, -r8]!
     a24:	00000099 	muleq	r0, r9, r0
     a28:	00000a33 	andeq	r0, r0, r3, lsr sl
     a2c:	0000b714 	andeq	fp, r0, r4, lsl r7
     a30:	03001f00 	movweq	r1, #3840	; 0xf00
     a34:	00000a23 	andeq	r0, r0, r3, lsr #20
     a38:	000e0517 	andeq	r0, lr, r7, lsl r5
     a3c:	216a0100 	cmncs	sl, r0, lsl #2
     a40:	00000a33 	andeq	r0, r0, r3, lsr sl
     a44:	0c000305 	stceq	3, cr0, [r0], {5}
     a48:	c4172000 	ldrgt	r2, [r7], #-0
     a4c:	01000007 	tsteq	r0, r7
     a50:	0a33218e 	beq	cc9090 <UART_InterruptFIFOLevelSelect+0xcc7c50>
     a54:	03050000 	movweq	r0, #20480	; 0x5000
     a58:	20000c80 	andcs	r0, r0, r0, lsl #25
     a5c:	000a7707 	andeq	r7, sl, r7, lsl #14
     a60:	000a6c00 	andeq	r6, sl, r0, lsl #24
     a64:	00b71400 	adcseq	r1, r7, r0, lsl #8
     a68:	001f0000 	andseq	r0, pc, r0
     a6c:	000a5c1a 	andeq	r5, sl, sl, lsl ip
     a70:	7c040500 	cfstr32vc	mvfx0, [r4], {-0}
     a74:	1a00000a 	bne	aa4 <SC_GetSystemClock+0x78>
     a78:	00000a71 	andeq	r0, r0, r1, ror sl
     a7c:	00330405 	eorseq	r0, r3, r5, lsl #8
     a80:	b5180000 	ldrlt	r0, [r8, #-0]
     a84:	0100000b 	tsteq	r0, fp
     a88:	0a6c18e0 	beq	1b06e10 <UART_InterruptFIFOLevelSelect+0x1b059d0>
     a8c:	05010000 	streq	r0, [r1, #-0]
     a90:	000bc803 	andeq	ip, fp, r3, lsl #16
     a94:	0bac1b00 	bleq	feb0769c <_E_BSS+0xdeb058a8>
     a98:	05010000 	streq	r0, [r1, #-0]
     a9c:	0a6c1801 	beq	1b06aa8 <UART_InterruptFIFOLevelSelect+0x1b05668>
     aa0:	05010000 	streq	r0, [r1, #-0]
     aa4:	000c4803 	andeq	r4, ip, r3, lsl #16
     aa8:	0ab91b00 	beq	fee476b0 <_E_BSS+0xdee458bc>
     aac:	2a010000 	bcs	40ab4 <UART_InterruptFIFOLevelSelect+0x3f674>
     ab0:	0a6c1901 	beq	1b06ebc <UART_InterruptFIFOLevelSelect+0x1b05a7c>
     ab4:	05010000 	streq	r0, [r1, #-0]
     ab8:	000cc803 	andeq	ip, ip, r3, lsl #16
     abc:	0ab01b00 	beq	fec076c4 <_E_BSS+0xdec058d0>
     ac0:	4e010000 	cdpmi	0, 0, cr0, cr1, cr0, {0}
     ac4:	0a6c1901 	beq	1b06ed0 <UART_InterruptFIFOLevelSelect+0x1b05a90>
     ac8:	05010000 	streq	r0, [r1, #-0]
     acc:	000d4803 	andeq	r4, sp, r3, lsl #16
     ad0:	0aec0700 	beq	ffb026d8 <_E_BSS+0xdfb008e4>
     ad4:	0ae10000 	beq	ff840adc <_E_BSS+0xdf83ece8>
     ad8:	b7140000 	ldrlt	r0, [r4, -r0]
     adc:	1f000000 	svcne	0x00000000
     ae0:	0ad11a00 	beq	ff4472e8 <_E_BSS+0xdf4454f4>
     ae4:	04050000 	streq	r0, [r5], #-0
     ae8:	00000228 	andeq	r0, r0, r8, lsr #4
     aec:	000ae61a 	andeq	lr, sl, sl, lsl r6
     af0:	05c71c00 	strbeq	r1, [r7, #3072]	; 0xc00
     af4:	72010000 	andvc	r0, r1, #0
     af8:	0ae12601 	beq	ff84a304 <_E_BSS+0xdf848510>
     afc:	03050000 	movweq	r0, #20480	; 0x5000
     b00:	00000dc8 	andeq	r0, r0, r8, asr #27
     b04:	0005d01c 	andeq	sp, r5, ip, lsl r0
     b08:	01960100 	orrseq	r0, r6, r0, lsl #2
     b0c:	000ae126 	andeq	lr, sl, r6, lsr #2
     b10:	48030500 	stmdami	r3, {r8, sl}
     b14:	0700000e 	streq	r0, [r0, -lr]
     b18:	00000b27 	andeq	r0, r0, r7, lsr #22
     b1c:	00000b27 	andeq	r0, r0, r7, lsr #22
     b20:	0000b714 	andeq	fp, r0, r4, lsl r7
     b24:	05000300 	streq	r0, [r0, #-768]	; 0xfffffd00
     b28:	00006504 	andeq	r6, r0, r4, lsl #10
     b2c:	064e1c00 	strbeq	r1, [lr], -r0, lsl #24
     b30:	b9010000 	stmdblt	r1, {}	; <UNPREDICTABLE>
     b34:	0b171801 	bleq	5c6b40 <UART_InterruptFIFOLevelSelect+0x5c5700>
     b38:	03050000 	movweq	r0, #20480	; 0x5000
     b3c:	20000000 	andcs	r0, r0, r0
     b40:	000b0e1b 	andeq	r0, fp, fp, lsl lr
     b44:	01c10100 	biceq	r0, r1, r0, lsl #2
     b48:	00005907 	andeq	r5, r0, r7, lsl #18
     b4c:	03050100 	movweq	r0, #20736	; 0x5100
     b50:	20000d00 	andcs	r0, r0, r0, lsl #26
     b54:	08b2011d 	ldmeq	r2!, {r0, r2, r3, r4, r8}
     b58:	1c010000 	stcne	0, cr0, [r1], {-0}
     b5c:	00010703 	andeq	r0, r1, r3, lsl #14
	...
     b68:	01000000 	mrseq	r0, (UNDEF: 0)
     b6c:	00000b91 	muleq	r0, r1, fp
     b70:	0039aa1e 	eorseq	sl, r9, lr, lsl sl
     b74:	031c0100 	tsteq	ip, #0, 2
     b78:	00058741 	andeq	r8, r5, r1, asr #14
     b7c:	77910200 	ldrvc	r0, [r1, r0, lsl #4]
     b80:	0008811e 	andeq	r8, r8, lr, lsl r1
     b84:	031c0100 	tsteq	ip, #0, 2
     b88:	00008d5c 	andeq	r8, r0, ip, asr sp
     b8c:	70910200 	addsvc	r0, r1, r0, lsl #4
     b90:	96011d00 	strls	r1, [r1], -r0, lsl #26
     b94:	01000003 	tsteq	r0, r3
     b98:	01070316 	tsteq	r7, r6, lsl r3
	...
     ba4:	0000005c 	andeq	r0, r0, ip, asr r0
     ba8:	000bce01 	andeq	ip, fp, r1, lsl #28
     bac:	39aa1e00 	stmibcc	sl!, {r9, sl, fp, ip}
     bb0:	16010000 	strne	r0, [r1], -r0
     bb4:	05874503 	streq	r4, [r7, #1283]	; 0x503
     bb8:	91020000 	mrsls	r0, (UNDEF: 2)
     bbc:	08811e77 	stmeq	r1, {r0, r1, r2, r4, r5, r6, r9, sl, fp, ip}
     bc0:	16010000 	strne	r0, [r1], -r0
     bc4:	008d6003 	addeq	r6, sp, r3
     bc8:	91020000 	mrsls	r0, (UNDEF: 2)
     bcc:	011f0070 	tsteq	pc, r0, ror r0	; <UNPREDICTABLE>
     bd0:	00000716 	andeq	r0, r0, r6, lsl r7
     bd4:	06030201 	streq	r0, [r3], -r1, lsl #4
     bd8:	00000001 	andeq	r0, r0, r1
     bdc:	00000000 	andeq	r0, r0, r0
     be0:	0000b800 	andeq	fp, r0, r0, lsl #16
     be4:	0bfb0100 	bleq	ffec0fec <_E_BSS+0xdfebf1f8>
     be8:	a61e0000 	ldrge	r0, [lr], -r0
     bec:	0100000a 	tsteq	r0, sl
     bf0:	e3480302 	movt	r0, #33538	; 0x8302
     bf4:	02000008 	andeq	r0, r0, #8
     bf8:	1f007491 	svcne	0x00007491
     bfc:	000a6d01 	andeq	r6, sl, r1, lsl #26
     c00:	02ed0100 	rsceq	r0, sp, #0, 2
     c04:	00000106 	andeq	r0, r0, r6, lsl #2
     c08:	00000000 	andeq	r0, r0, r0
     c0c:	01080000 	mrseq	r0, (UNDEF: 8)
     c10:	28010000 	stmdacs	r1, {}	; <UNPREDICTABLE>
     c14:	1e00000c 	cdpne	0, 0, cr0, cr0, cr12, {0}
     c18:	00000aa6 	andeq	r0, r0, r6, lsr #21
     c1c:	3e02ed01 	cdpcc	13, 0, cr14, cr2, cr1, {0}
     c20:	000008e3 	andeq	r0, r0, r3, ror #17
     c24:	00749102 	rsbseq	r9, r4, r2, lsl #2
     c28:	06c2011f 			; <UNDEFINED> instruction: 0x06c2011f
     c2c:	e1010000 	mrs	r0, (UNDEF: 1)
     c30:	00010602 	andeq	r0, r1, r2, lsl #12
     c34:	00000000 	andeq	r0, r0, r0
     c38:	58000000 	stmdapl	r0, {}	; <UNPREDICTABLE>
     c3c:	01000001 	tsteq	r0, r1
     c40:	00000c65 	andeq	r0, r0, r5, ror #24
     c44:	0009591e 	andeq	r5, r9, lr, lsl r9
     c48:	02e10100 	rsceq	r0, r1, #0, 2
     c4c:	000c6527 	andeq	r6, ip, r7, lsr #10
     c50:	74910200 	ldrvc	r0, [r1], #512	; 0x200
     c54:	0004fe1e 	andeq	pc, r4, lr, lsl lr	; <UNPREDICTABLE>
     c58:	02e10100 	rsceq	r0, r1, #0, 2
     c5c:	000c653c 	andeq	r6, ip, ip, lsr r5
     c60:	70910200 	addsvc	r0, r1, r0, lsl #4
     c64:	27040500 	strcs	r0, [r4, -r0, lsl #10]
     c68:	1d000000 	stcne	0, cr0, [r0, #-0]
     c6c:	00088d01 	andeq	r8, r8, r1, lsl #26
     c70:	02d90100 	sbcseq	r0, r9, #0, 2
     c74:	00000106 	andeq	r0, r0, r6, lsl #2
     c78:	00000000 	andeq	r0, r0, r0
     c7c:	01a80000 			; <UNDEFINED> instruction: 0x01a80000
     c80:	c8010000 	stmdagt	r1, {}	; <UNPREDICTABLE>
     c84:	1e00000c 	cdpne	0, 0, cr0, cr0, cr12, {0}
     c88:	00000590 	muleq	r0, r0, r5
     c8c:	1f02d901 	svcne	0x0002d901
     c90:	00000027 	andeq	r0, r0, r7, lsr #32
     c94:	1e6f9102 	lgnnee	f1, f2
     c98:	00000f5b 	andeq	r0, r0, fp, asr pc
     c9c:	4002d901 	andmi	sp, r2, r1, lsl #18
     ca0:	000006ce 	andeq	r0, r0, lr, asr #13
     ca4:	1c6e9102 	stfnep	f1, [lr], #-8
     ca8:	00000ecc 	andeq	r0, r0, ip, asr #29
     cac:	0a02db01 	beq	b78b8 <UART_InterruptFIFOLevelSelect+0xb6478>
     cb0:	00000027 	andeq	r0, r0, r7, lsr #32
     cb4:	1c779102 	ldfnep	f1, [r7], #-8
     cb8:	00002ae8 	andeq	r2, r0, r8, ror #21
     cbc:	0a02dc01 	beq	b7cc8 <UART_InterruptFIFOLevelSelect+0xb6888>
     cc0:	00000027 	andeq	r0, r0, r7, lsr #32
     cc4:	00769102 	rsbseq	r9, r6, r2, lsl #2
     cc8:	0a26011d 	beq	981144 <UART_InterruptFIFOLevelSelect+0x97fd04>
     ccc:	d2010000 	andle	r0, r1, #0
     cd0:	a0010602 	andge	r0, r1, r2, lsl #12
     cd4:	f8000003 			; <UNDEFINED> instruction: 0xf8000003
     cd8:	04000003 	streq	r0, [r0], #-3
     cdc:	01000002 	tsteq	r0, r2
     ce0:	00000d25 	andeq	r0, r0, r5, lsr #26
     ce4:	0005901e 	andeq	r9, r5, lr, lsl r0
     ce8:	02d20100 	sbcseq	r0, r2, #0, 2
     cec:	0000271d 	andeq	r2, r0, sp, lsl r7
     cf0:	6f910200 	svcvs	0x00910200
     cf4:	000f5b1e 	andeq	r5, pc, lr, lsl fp	; <UNPREDICTABLE>
     cf8:	02d20100 	sbcseq	r0, r2, #0, 2
     cfc:	0006ce3e 	andeq	ip, r6, lr, lsr lr
     d00:	6e910200 	cdpvs	2, 9, cr0, cr1, cr0, {0}
     d04:	000ecc1c 	andeq	ip, lr, ip, lsl ip
     d08:	02d40100 	sbcseq	r0, r4, #0, 2
     d0c:	0000270a 	andeq	r2, r0, sl, lsl #14
     d10:	77910200 	ldrvc	r0, [r1, r0, lsl #4]
     d14:	002ae81c 	eoreq	lr, sl, ip, lsl r8
     d18:	02d50100 	sbcseq	r0, r5, #0, 2
     d1c:	0000270a 	andeq	r2, r0, sl, lsl #14
     d20:	76910200 	ldrvc	r0, [r1], r0, lsl #4
     d24:	43011d00 	movwmi	r1, #7424	; 0x1d00
     d28:	01000009 	tsteq	r0, r9
     d2c:	010602c3 	smlabteq	r6, r3, r2, r0
     d30:	00000348 	andeq	r0, r0, r8, asr #6
     d34:	000003a0 	andeq	r0, r0, r0, lsr #7
     d38:	00000260 	andeq	r0, r0, r0, ror #4
     d3c:	000d6201 	andeq	r6, sp, r1, lsl #4
     d40:	08581e00 	ldmdaeq	r8, {r9, sl, fp, ip}^
     d44:	c3010000 	movwgt	r0, #4096	; 0x1000
     d48:	06f53602 	ldrbteq	r3, [r5], r2, lsl #12
     d4c:	91020000 	mrsls	r0, (UNDEF: 2)
     d50:	39aa1e77 	stmibcc	sl!, {r0, r1, r2, r4, r5, r6, r9, sl, fp, ip}
     d54:	c3010000 	movwgt	r0, #4096	; 0x1000
     d58:	05875c02 	streq	r5, [r7, #3074]	; 0xc02
     d5c:	91020000 	mrsls	r0, (UNDEF: 2)
     d60:	011d0076 	tsteq	sp, r6, ror r0
     d64:	00000b8e 	andeq	r0, r0, lr, lsl #23
     d68:	0602b701 	streq	fp, [r2], -r1, lsl #14
     d6c:	0002f401 	andeq	pc, r2, r1, lsl #8
     d70:	00034800 	andeq	r4, r3, r0, lsl #16
     d74:	0002bc00 	andeq	fp, r2, r0, lsl #24
     d78:	0d9f0100 	ldfeqs	f0, [pc]	; d80 <AlternateDestinationAddressPointerRegisters+0x38>
     d7c:	f21e0000 	vhadd.s16	d0, d14, d0
     d80:	01000019 	tsteq	r0, r9, lsl r0
     d84:	953802b7 	ldrls	r0, [r8, #-695]!	; 0xfffffd49
     d88:	02000006 	andeq	r0, r0, #6
     d8c:	aa1e7791 	bge	79ebd8 <UART_InterruptFIFOLevelSelect+0x79d798>
     d90:	01000039 	tsteq	r0, r9, lsr r0
     d94:	875002b7 			; <UNDEFINED> instruction: 0x875002b7
     d98:	02000005 	andeq	r0, r0, #5
     d9c:	1f007691 	svcne	0x00007691
     da0:	0006a101 	andeq	sl, r6, r1, lsl #2
     da4:	02a70100 	adceq	r0, r7, #0, 2
     da8:	02bc0106 	adcseq	r0, ip, #-2147483647	; 0x80000001
     dac:	02f40000 	rscseq	r0, r4, #0
     db0:	03180000 	tsteq	r8, #0
     db4:	cc010000 	stcgt	0, cr0, [r1], {-0}
     db8:	1e00000d 	cdpne	0, 0, cr0, cr0, cr13, {0}
     dbc:	000019f2 	strdeq	r1, [r0], -r2
     dc0:	3b02a701 	blcc	aa9cc <UART_InterruptFIFOLevelSelect+0xa958c>
     dc4:	00000695 	muleq	r0, r5, r6
     dc8:	00779102 	rsbseq	r9, r7, r2, lsl #2
     dcc:	06de011d 			; <UNDEFINED> instruction: 0x06de011d
     dd0:	a2010000 	andge	r0, r1, #0
     dd4:	00010602 	andeq	r0, r1, r2, lsl #12
     dd8:	00000000 	andeq	r0, r0, r0
     ddc:	68000000 	stmdavs	r0, {}	; <UNPREDICTABLE>
     de0:	01000003 	tsteq	r0, r3
     de4:	00000df9 	strdeq	r0, [r0], -r9
     de8:	0008dc1e 	andeq	sp, r8, lr, lsl ip
     dec:	02a20100 	adceq	r0, r2, #0, 2
     df0:	0000592a 	andeq	r5, r0, sl, lsr #18
     df4:	74910200 	ldrvc	r0, [r1], #512	; 0x200
     df8:	dc011d00 	stcle	13, cr1, [r1], {-0}
     dfc:	0100000a 	tsteq	r0, sl
     e00:	01060292 			; <UNDEFINED> instruction: 0x01060292
     e04:	00000264 	andeq	r0, r0, r4, ror #4
     e08:	000002bc 			; <UNDEFINED> instruction: 0x000002bc
     e0c:	000003c4 	andeq	r0, r0, r4, asr #7
     e10:	000e3601 	andeq	r3, lr, r1, lsl #12
     e14:	01591e00 	cmpeq	r9, r0, lsl #28
     e18:	92010000 	andls	r0, r1, #0
     e1c:	066e4402 	strbteq	r4, [lr], -r2, lsl #8
     e20:	91020000 	mrsls	r0, (UNDEF: 2)
     e24:	39aa1e77 	stmibcc	sl!, {r0, r1, r2, r4, r5, r6, r9, sl, fp, ip}
     e28:	92010000 	andls	r0, r1, #0
     e2c:	05876002 	streq	r6, [r7, #2]
     e30:	91020000 	mrsls	r0, (UNDEF: 2)
     e34:	011d0076 	tsteq	sp, r6, ror r0
     e38:	00000184 	andeq	r0, r0, r4, lsl #3
     e3c:	06027d01 	streq	r7, [r2], -r1, lsl #26
     e40:	00000001 	andeq	r0, r0, r1
     e44:	00000000 	andeq	r0, r0, r0
     e48:	00042000 	andeq	r2, r4, r0
     e4c:	0e830100 	rmfeqs	f0, f3, f0
     e50:	a61e0000 	ldrge	r0, [lr], -r0
     e54:	0100000a 	tsteq	r0, sl
     e58:	e34a027d 	movt	r0, #41597	; 0xa27d
     e5c:	02000008 	andeq	r0, r0, #8
     e60:	591e7491 	ldmdbpl	lr, {r0, r4, r7, sl, ip, sp, lr}
     e64:	01000009 	tsteq	r0, r9
     e68:	655a027d 	ldrbvs	r0, [sl, #-637]	; 0xfffffd83
     e6c:	0200000c 	andeq	r0, r0, #12
     e70:	fe1e7091 	mrc2	0, 0, r7, cr14, cr1, {4}
     e74:	01000004 	tsteq	r0, r4
     e78:	656f027d 	strbvs	r0, [pc, #-637]!	; c03 <SourceAddressPointerRegisters+0x3b>
     e7c:	0200000c 	andeq	r0, r0, #12
     e80:	1d006c91 	stcne	12, cr6, [r0, #-580]	; 0xfffffdbc
     e84:	00016501 	andeq	r6, r1, r1, lsl #10
     e88:	02690100 	rsbeq	r0, r9, #0, 2
     e8c:	010c0106 	tsteq	ip, r6, lsl #2
     e90:	02640000 	rsbeq	r0, r4, #0
     e94:	047c0000 	ldrbteq	r0, [ip], #-0
     e98:	d0010000 	andle	r0, r1, r0
     e9c:	1e00000e 	cdpne	0, 0, cr0, cr0, cr14, {0}
     ea0:	00000aa6 	andeq	r0, r0, r6, lsr #21
     ea4:	41026901 	tstmi	r2, r1, lsl #18
     ea8:	000008e3 	andeq	r0, r0, r3, ror #17
     eac:	1e749102 	expnes	f1, f2
     eb0:	00000959 	andeq	r0, r0, r9, asr r9
     eb4:	51026901 	tstpl	r2, r1, lsl #18
     eb8:	00000c65 	andeq	r0, r0, r5, ror #24
     ebc:	1e709102 	expnes	f1, f2
     ec0:	000004fe 	strdeq	r0, [r0], -lr
     ec4:	66026901 	strvs	r6, [r2], -r1, lsl #18
     ec8:	00000c65 	andeq	r0, r0, r5, ror #24
     ecc:	006c9102 	rsbeq	r9, ip, r2, lsl #2
     ed0:	090b011d 	stmdbeq	fp, {r0, r2, r3, r4, r8}
     ed4:	64010000 	strvs	r0, [r1], #-0
     ed8:	e0010602 	and	r0, r1, r2, lsl #12
     edc:	0c000000 	stceq	0, cr0, [r0], {-0}
     ee0:	d8000001 	stmdale	r0, {r0}
     ee4:	01000004 	tsteq	r0, r4
     ee8:	00000efd 	strdeq	r0, [r0], -sp
     eec:	0039aa1e 	eorseq	sl, r9, lr, lsl sl
     ef0:	02640100 	rsbeq	r0, r4, #0, 2
     ef4:	00058728 	andeq	r8, r5, r8, lsr #14
     ef8:	77910200 	ldrvc	r0, [r1, r0, lsl #4]
     efc:	de011d00 	cdple	13, 0, cr1, cr1, cr0, {0}
     f00:	01000007 	tsteq	r0, r7
     f04:	0106025f 	tsteq	r6, pc, asr r2
	...
     f10:	00000534 	andeq	r0, r0, r4, lsr r5
     f14:	000f2a01 	andeq	r2, pc, r1, lsl #20
     f18:	0b7f1e00 	bleq	1fc8720 <UART_InterruptFIFOLevelSelect+0x1fc72e0>
     f1c:	5f010000 	svcpl	0x00010000
     f20:	09cb3102 	stmibeq	fp, {r1, r8, ip, sp}^
     f24:	91020000 	mrsls	r0, (UNDEF: 2)
     f28:	011d0074 	tsteq	sp, r4, ror r0
     f2c:	00000a89 	andeq	r0, r0, r9, lsl #21
     f30:	06024f01 	streq	r4, [r2], -r1, lsl #30
     f34:	00000001 	andeq	r0, r0, r1
     f38:	00000000 	andeq	r0, r0, r0
     f3c:	00059000 	andeq	r9, r5, r0
     f40:	0f570100 	svceq	0x00570100
     f44:	451e0000 	ldrmi	r0, [lr, #-0]
     f48:	0100000b 	tsteq	r0, fp
     f4c:	e33f024f 	teq	pc, #-268435452	; 0xf0000004
     f50:	02000008 	andeq	r0, r0, #8
     f54:	1f007491 	svcne	0x00007491
     f58:	00075101 	andeq	r5, r7, r1, lsl #2
     f5c:	02350100 	eorseq	r0, r5, #0, 2
     f60:	00540106 	subseq	r0, r4, r6, lsl #2
     f64:	00e00000 	rsceq	r0, r0, r0
     f68:	05ec0000 	strbeq	r0, [ip, #0]!
     f6c:	84010000 	strhi	r0, [r1], #-0
     f70:	1e00000f 	cdpne	0, 0, cr0, cr0, cr15, {0}
     f74:	00000b45 	andeq	r0, r0, r5, asr #22
     f78:	3e023501 	cfsh32cc	mvfx3, mvfx2, #1
     f7c:	000008e3 	andeq	r0, r0, r3, ror #17
     f80:	00749102 	rsbseq	r9, r4, r2, lsl #2
     f84:	0c850120 	stfeqs	f0, [r5], {32}
     f88:	22010000 	andcs	r0, r1, #0
     f8c:	001c0602 	andseq	r0, ip, r2, lsl #12
     f90:	00540000 	subseq	r0, r4, r0
     f94:	063c0000 	ldrteq	r0, [ip], -r0
     f98:	21010000 	mrscs	r0, (UNDEF: 1)
     f9c:	000b6301 	andeq	r6, fp, r1, lsl #6
     fa0:	01c30100 	biceq	r0, r3, r0, lsl #2
     fa4:	0009b601 	andeq	fp, r9, r1, lsl #12
	...
     fb0:	00068000 	andeq	r8, r6, r0
     fb4:	01220100 			; <UNDEFINED> instruction: 0x01220100
     fb8:	00000b52 	andeq	r0, r0, r2, asr fp
     fbc:	b601cb01 	strlt	ip, [r1], -r1, lsl #22
     fc0:	00000009 	andeq	r0, r0, r9
     fc4:	00000000 	andeq	r0, r0, r0
     fc8:	ac000000 	stcge	0, cr0, [r0], {-0}
     fcc:	01000006 	tsteq	r0, r6
     fd0:	0007aa00 	andeq	sl, r7, r0, lsl #20
     fd4:	20000200 	andcs	r0, r0, r0, lsl #4
     fd8:	04000002 	streq	r0, [r0], #-2
     fdc:	0001ac01 	andeq	sl, r1, r1, lsl #24
     fe0:	100c0c00 	andne	r0, ip, r0, lsl #24
     fe4:	002e0000 	eoreq	r0, lr, r0
     fe8:	00000510 	andeq	r0, r0, r0, lsl r5
     fec:	14080102 	strne	r0, [r8], #-258	; 0xfffffefe
     ff0:	0200000d 	andeq	r0, r0, #13
     ff4:	0d160601 	ldceq	6, cr0, [r6, #-4]
     ff8:	02020000 	andeq	r0, r2, #0
     ffc:	000ee407 	andeq	lr, lr, r7, lsl #8
    1000:	05020200 	streq	r0, [r2, #-512]	; 0xfffffe00
    1004:	00000a63 	andeq	r0, r0, r3, ror #20
    1008:	000a5d03 	andeq	r5, sl, r3, lsl #26
    100c:	1c0e0100 	stfnes	f0, [lr], {-0}
    1010:	00000043 	andeq	r0, r0, r3, asr #32
    1014:	27070402 	strcs	r0, [r7, -r2, lsl #8]
    1018:	02000005 	andeq	r0, r0, #5
    101c:	08080504 	stmdaeq	r8, {r2, r8, sl}
    1020:	04020000 	streq	r0, [r2], #-0
    1024:	00050a04 	andeq	r0, r5, r4, lsl #20
    1028:	04080200 	streq	r0, [r8], #-512	; 0xfffffe00
    102c:	000009b1 			; <UNDEFINED> instruction: 0x000009b1
    1030:	22070802 	andcs	r0, r7, #131072	; 0x20000
    1034:	04000005 	streq	r0, [r0], #-5
    1038:	001b0107 	andseq	r0, fp, r7, lsl #2
    103c:	2e020000 	cdpcs	0, 0, cr0, cr2, cr0, {0}
    1040:	0001350d 	andeq	r3, r1, sp, lsl #10
    1044:	0d760500 	cfldr64eq	mvdx0, [r6, #-0]
    1048:	05000000 	streq	r0, [r0, #-0]
    104c:	00000d83 	andeq	r0, r0, r3, lsl #27
    1050:	0d900501 	cfldr32eq	mvfx0, [r0, #4]
    1054:	05020000 	streq	r0, [r2, #-0]
    1058:	00000d9d 	muleq	r0, sp, sp
    105c:	0daa0503 	cfstr32eq	mvfx0, [sl, #12]!
    1060:	05040000 	streq	r0, [r4, #-0]
    1064:	00000db7 			; <UNDEFINED> instruction: 0x00000db7
    1068:	0dc40505 	cfstr64eq	mvdx0, [r4, #20]
    106c:	05060000 	streq	r0, [r6, #-0]
    1070:	00000dd1 	ldrdeq	r0, [r0], -r1
    1074:	0dde0507 	cfldr64eq	mvdx0, [lr, #28]
    1078:	05080000 	streq	r0, [r8, #-0]
    107c:	00000deb 	andeq	r0, r0, fp, ror #27
    1080:	0bd30509 	bleq	ff4c24ac <_E_BSS+0xdf4c06b8>
    1084:	050a0000 	streq	r0, [sl, #-0]
    1088:	00000be1 	andeq	r0, r0, r1, ror #23
    108c:	0bef050b 	bleq	ffbc24c0 <_E_BSS+0xdfbc06cc>
    1090:	050c0000 	streq	r0, [ip, #-0]
    1094:	00000bfd 	strdeq	r0, [r0], -sp
    1098:	0c0b050d 	cfstr32eq	mvfx0, [fp], {13}
    109c:	050e0000 	streq	r0, [lr, #-0]
    10a0:	00000c19 	andeq	r0, r0, r9, lsl ip
    10a4:	0c27050f 	cfstr32eq	mvfx0, [r7], #-60	; 0xffffffc4
    10a8:	05100000 	ldreq	r0, [r0, #-0]
    10ac:	00000c35 	andeq	r0, r0, r5, lsr ip
    10b0:	0c430511 	cfstr64eq	mvdx0, [r3], {17}
    10b4:	05120000 	ldreq	r0, [r2, #-0]
    10b8:	00000c51 	andeq	r0, r0, r1, asr ip
    10bc:	0cec0513 	cfstr64eq	mvdx0, [ip], #76	; 0x4c
    10c0:	05140000 	ldreq	r0, [r4, #-0]
    10c4:	00000cfa 	strdeq	r0, [r0], -sl
    10c8:	0b290515 	bleq	a42524 <UART_InterruptFIFOLevelSelect+0xa410e4>
    10cc:	05160000 	ldreq	r0, [r6, #-0]
    10d0:	00000b37 	andeq	r0, r0, r7, lsr fp
    10d4:	0d220517 	cfstr32eq	mvfx0, [r2, #-92]!	; 0xffffffa4
    10d8:	05180000 	ldreq	r0, [r8, #-0]
    10dc:	00000d30 	andeq	r0, r0, r0, lsr sp
    10e0:	0d3e0519 	cfldr32eq	mvfx0, [lr, #-100]!	; 0xffffff9c
    10e4:	051a0000 	ldreq	r0, [sl, #-0]
    10e8:	00000d4c 	andeq	r0, r0, ip, asr #26
    10ec:	0d5a051b 	cfldr64eq	mvdx0, [sl, #-108]	; 0xffffff94
    10f0:	051c0000 	ldreq	r0, [ip, #-0]
    10f4:	00000d68 	andeq	r0, r0, r8, ror #26
    10f8:	0e90051d 	mrceq	5, 4, r0, cr0, cr13, {0}
    10fc:	051e0000 	ldreq	r0, [lr, #-0]
    1100:	00000e9e 	muleq	r0, lr, lr
    1104:	3b03001f 	blcc	c1188 <UART_InterruptFIFOLevelSelect+0xbfd48>
    1108:	0200000e 	andeq	r0, r0, #14
    110c:	00660250 	rsbeq	r0, r6, r0, asr r2
    1110:	07040000 	streq	r0, [r4, -r0]
    1114:	00001b01 	andeq	r1, r0, r1, lsl #22
    1118:	0d520200 	lfmeq	f0, 2, [r2, #-0]
    111c:	00000168 	andeq	r0, r0, r8, ror #2
    1120:	0007b705 	andeq	fp, r7, r5, lsl #14
    1124:	11050000 	mrsne	r0, (UNDEF: 5)
    1128:	01000008 	tsteq	r0, r8
    112c:	00081505 	andeq	r1, r8, r5, lsl #10
    1130:	6d050200 	sfmvs	f0, 4, [r5, #-0]
    1134:	03000008 	movweq	r0, #8
    1138:	0f870300 	svceq	0x00870300
    113c:	57020000 	strpl	r0, [r2, -r0]
    1140:	00014102 	andeq	r4, r1, r2, lsl #2
    1144:	01070400 	tsteq	r7, r0, lsl #8
    1148:	0000001b 	andeq	r0, r0, fp, lsl r0
    114c:	9b0d5a02 	blls	35795c <UART_InterruptFIFOLevelSelect+0x35651c>
    1150:	05000001 	streq	r0, [r0, #-1]
    1154:	00000622 	andeq	r0, r0, r2, lsr #12
    1158:	09e20500 	stmibeq	r2!, {r8, sl}^
    115c:	05010000 	streq	r0, [r1, #-0]
    1160:	000009e6 	andeq	r0, r0, r6, ror #19
    1164:	023c0502 	eorseq	r0, ip, #8388608	; 0x800000
    1168:	00030000 	andeq	r0, r3, r0
    116c:	000a0003 	andeq	r0, sl, r3
    1170:	025f0200 	subseq	r0, pc, #0, 4
    1174:	00000174 	andeq	r0, r0, r4, ror r1
    1178:	1b010704 	blne	42d90 <UART_InterruptFIFOLevelSelect+0x41950>
    117c:	02000000 	andeq	r0, r0, #0
    1180:	01c80d62 	biceq	r0, r8, r2, ror #26
    1184:	6d050000 	stcvs	0, cr0, [r5, #-0]
    1188:	0000000c 	andeq	r0, r0, ip
    118c:	0007a505 	andeq	sl, r7, r5, lsl #10
    1190:	a9050100 	stmdbge	r5, {r8}
    1194:	02000007 	andeq	r0, r0, #7
    1198:	0f670300 	svceq	0x00670300
    119c:	66020000 	strvs	r0, [r2], -r0
    11a0:	0001a702 	andeq	sl, r1, r2, lsl #14
    11a4:	01070400 	tsteq	r7, r0, lsl #8
    11a8:	0000001b 	andeq	r0, r0, fp, lsl r0
    11ac:	f50d6902 			; <UNDEFINED> instruction: 0xf50d6902
    11b0:	05000001 	streq	r0, [r0, #-1]
    11b4:	00000846 	andeq	r0, r0, r6, asr #16
    11b8:	08a10500 	stmiaeq	r1!, {r8, sl}
    11bc:	05010000 	streq	r0, [r1, #-0]
    11c0:	000008a5 	andeq	r0, r0, r5, lsr #17
    11c4:	a2030002 	andge	r0, r3, #2
    11c8:	0200000c 	andeq	r0, r0, #12
    11cc:	01d4026d 	bicseq	r0, r4, sp, ror #4
    11d0:	07040000 	streq	r0, [r4, -r0]
    11d4:	00001b01 	andeq	r1, r0, r1, lsl #22
    11d8:	0d7a0200 	lfmeq	f0, 2, [sl, #-0]
    11dc:	0000022e 	andeq	r0, r0, lr, lsr #4
    11e0:	0009b805 	andeq	fp, r9, r5, lsl #16
    11e4:	c6050000 	strgt	r0, [r5], -r0
    11e8:	01000009 	tsteq	r0, r9
    11ec:	0009d405 	andeq	sp, r9, r5, lsl #8
    11f0:	6d050200 	sfmvs	f0, 4, [r5, #-0]
    11f4:	03000007 	movweq	r0, #7
    11f8:	0009f205 	andeq	pc, r9, r5, lsl #4
    11fc:	03000400 	movweq	r0, #1024	; 0x400
    1200:	00000967 	andeq	r0, r0, r7, ror #18
    1204:	01028102 	tsteq	r2, r2, lsl #2
    1208:	04000002 	streq	r0, [r0], #-2
    120c:	001b0107 	andseq	r0, fp, r7, lsl #2
    1210:	83020000 	movwhi	r0, #8192	; 0x2000
    1214:	0002550d 	andeq	r5, r2, sp, lsl #10
    1218:	0f3a0500 	svceq	0x003a0500
    121c:	05000000 	streq	r0, [r0, #-0]
    1220:	0000010f 	andeq	r0, r0, pc, lsl #2
    1224:	53030001 	movwpl	r0, #12289	; 0x3001
    1228:	02000003 	andeq	r0, r0, #3
    122c:	023a0286 	eorseq	r0, sl, #1610612744	; 0x60000008
    1230:	07040000 	streq	r0, [r4, -r0]
    1234:	00001b01 	andeq	r1, r0, r1, lsl #22
    1238:	0d880200 	sfmeq	f0, 4, [r8]
    123c:	000002a0 	andeq	r0, r0, r0, lsr #5
    1240:	00099405 	andeq	r9, r9, r5, lsl #8
    1244:	7b050000 	blvc	14124c <UART_InterruptFIFOLevelSelect+0x13fe0c>
    1248:	0100000c 	tsteq	r0, ip
    124c:	000a1a05 	andeq	r1, sl, r5, lsl #20
    1250:	9f050200 	svcls	0x00050200
    1254:	03000005 	movweq	r0, #5
    1258:	00012f05 	andeq	r2, r1, r5, lsl #30
    125c:	26050400 	strcs	r0, [r5], -r0, lsl #8
    1260:	05000001 	streq	r0, [r0, #-1]
    1264:	00078405 	andeq	r8, r7, r5, lsl #8
    1268:	7b050600 	blvc	142a70 <UART_InterruptFIFOLevelSelect+0x141630>
    126c:	07000007 	streq	r0, [r0, -r7]
    1270:	0e4b0300 	cdpeq	3, 4, cr0, cr11, cr0, {0}
    1274:	91020000 	mrsls	r0, (UNDEF: 2)
    1278:	00026102 	andeq	r6, r2, r2, lsl #2
    127c:	01070400 	tsteq	r7, r0, lsl #8
    1280:	0000001b 	andeq	r0, r0, fp, lsl r0
    1284:	fd0d9302 	stc2	3, cr9, [sp, #-8]
    1288:	05000002 	streq	r0, [r0, #-2]
    128c:	00000ed8 	ldrdeq	r0, [r0], -r8
    1290:	00e20500 	rsceq	r0, r2, r0, lsl #10
    1294:	05010000 	streq	r0, [r1, #-0]
    1298:	00000a38 	andeq	r0, r0, r8, lsr sl
    129c:	0f7a0502 	svceq	0x007a0502
    12a0:	05030000 	streq	r0, [r3, #-0]
    12a4:	00000c5f 	andeq	r0, r0, pc, asr ip
    12a8:	0b000504 	bleq	26c0 <UART_InterruptFIFOLevelSelect+0x1280>
    12ac:	05050000 	streq	r0, [r5, #-0]
    12b0:	0000073c 	andeq	r0, r0, ip, lsr r7
    12b4:	0faf0506 	svceq	0x00af0506
    12b8:	05070000 	streq	r0, [r7, #-0]
    12bc:	00000ebd 			; <UNDEFINED> instruction: 0x00000ebd
    12c0:	0cd70508 	cfldr64eq	mvdx0, [r7], {8}
    12c4:	05090000 	streq	r0, [r9, #-0]
    12c8:	00000e2b 	andeq	r0, r0, fp, lsr #28
    12cc:	3803000a 	stmdacc	r3, {r1, r3}
    12d0:	02000006 	andeq	r0, r0, #6
    12d4:	02ac029f 	adceq	r0, ip, #-268435447	; 0xf0000009
    12d8:	07040000 	streq	r0, [r4, -r0]
    12dc:	00001b01 	andeq	r1, r0, r1, lsl #22
    12e0:	0da10200 	sfmeq	f0, 4, [r1]
    12e4:	00000324 	andeq	r0, r0, r4, lsr #6
    12e8:	000f1f05 	andeq	r1, pc, r5, lsl #30
    12ec:	ac050000 	stcge	0, cr0, [r5], {-0}
    12f0:	0100000e 	tsteq	r0, lr
    12f4:	0a450300 	beq	1141efc <UART_InterruptFIFOLevelSelect+0x1140abc>
    12f8:	a4020000 	strge	r0, [r2], #-0
    12fc:	00030902 	andeq	r0, r3, r2, lsl #18
    1300:	02100600 	andseq	r0, r0, #0, 12
    1304:	03df09a7 	bicseq	r0, pc, #2736128	; 0x29c000
    1308:	aa070000 	bge	1c1310 <UART_InterruptFIFOLevelSelect+0x1bfed0>
    130c:	02000039 	andeq	r0, r0, #57	; 0x39
    1310:	013515a8 	teqeq	r5, r8, lsr #11
    1314:	23020000 	movwcs	r0, #8192	; 0x2000
    1318:	03cc0700 	biceq	r0, ip, #0, 14
    131c:	a9020000 	stmdbge	r2, {}	; <UNPREDICTABLE>
    1320:	00016820 	andeq	r6, r1, r0, lsr #16
    1324:	01230200 			; <UNDEFINED> instruction: 0x01230200
    1328:	0008f707 	andeq	pc, r8, r7, lsl #14
    132c:	1faa0200 	svcne	0x00aa0200
    1330:	0000019b 	muleq	r0, fp, r1
    1334:	07022302 	streq	r2, [r2, -r2, lsl #6]
    1338:	00000fa2 	andeq	r0, r0, r2, lsr #31
    133c:	c818ab02 	ldmdagt	r8, {r1, r8, r9, fp, sp, pc}
    1340:	02000001 	andeq	r0, r0, #1
    1344:	1d070323 	stcne	3, cr0, [r7, #-140]	; 0xffffff74
    1348:	0200000b 	andeq	r0, r0, #11
    134c:	01f517ac 	mvnseq	r1, ip, lsr #15
    1350:	23020000 	movwcs	r0, #8192	; 0x2000
    1354:	09780704 	ldmdbeq	r8!, {r2, r8, r9, sl}^
    1358:	ad020000 	stcge	0, cr0, [r2, #-0]
    135c:	0002a01e 	andeq	sl, r2, lr, lsl r0
    1360:	05230200 	streq	r0, [r3, #-512]!	; 0xfffffe00
    1364:	00086107 	andeq	r6, r8, r7, lsl #2
    1368:	1fae0200 	svcne	0x00ae0200
    136c:	00000255 	andeq	r0, r0, r5, asr r2
    1370:	07062302 	streq	r2, [r6, -r2, lsl #6]
    1374:	00000f5b 	andeq	r0, r0, fp, asr pc
    1378:	2e16af02 	cdpcs	15, 1, cr10, cr6, cr2, {0}
    137c:	02000002 	andeq	r0, r0, #2
    1380:	3c070723 	stccc	7, cr0, [r7], {35}	; 0x23
    1384:	02000008 	andeq	r0, r0, #8
    1388:	02fd1bb0 	rscseq	r1, sp, #176, 22	; 0x2c000
    138c:	23020000 	movwcs	r0, #8192	; 0x2000
    1390:	0f030708 	svceq	0x00030708
    1394:	b1020000 	mrslt	r0, (UNDEF: 2)
    1398:	0003241d 	andeq	r2, r3, sp, lsl r4
    139c:	09230200 	stmdbeq	r3!, {r9}
    13a0:	0003ed07 	andeq	lr, r3, r7, lsl #26
    13a4:	0bb20200 	bleq	fec81bac <_E_BSS+0xdec7fdb8>
    13a8:	00000037 	andeq	r0, r0, r7, lsr r0
    13ac:	000c2302 	andeq	r2, ip, r2, lsl #6
    13b0:	00066c03 	andeq	r6, r6, r3, lsl #24
    13b4:	02b40200 	adcseq	r0, r4, #0, 4
    13b8:	00000330 	andeq	r0, r0, r0, lsr r3
    13bc:	b7021006 	strlt	r1, [r2, -r6]
    13c0:	00043109 	andeq	r3, r4, r9, lsl #2
    13c4:	06870700 	streq	r0, [r7], r0, lsl #14
    13c8:	b8020000 	stmdalt	r2, {}	; <UNPREDICTABLE>
    13cc:	0004310d 	andeq	r3, r4, sp, lsl #2
    13d0:	00230200 	eoreq	r0, r3, r0, lsl #4
    13d4:	0005a807 	andeq	sl, r5, r7, lsl #16
    13d8:	0db90200 	lfmeq	f0, 4, [r9]
    13dc:	00000431 	andeq	r0, r0, r1, lsr r4
    13e0:	07042302 	streq	r2, [r4, -r2, lsl #6]
    13e4:	000003e1 	andeq	r0, r0, r1, ror #7
    13e8:	370bba02 	strcc	fp, [fp, -r2, lsl #20]
    13ec:	02000000 	andeq	r0, r0, #0
    13f0:	4a070823 	bmi	1c3484 <UART_InterruptFIFOLevelSelect+0x1c2044>
    13f4:	02000007 	andeq	r0, r0, #7
    13f8:	00370bbb 	ldrhteq	r0, [r7], -fp
    13fc:	23020000 	movwcs	r0, #8192	; 0x2000
    1400:	0408000c 	streq	r0, [r8], #-12
    1404:	00000037 	andeq	r0, r0, r7, lsr r0
    1408:	000f0f03 	andeq	r0, pc, r3, lsl #30
    140c:	02bc0200 	adcseq	r0, ip, #0, 4
    1410:	000003eb 	andeq	r0, r0, fp, ror #7
    1414:	00045a09 	andeq	r5, r4, r9, lsl #20
    1418:	00045300 	andeq	r5, r4, r0, lsl #6
    141c:	04530a00 	ldrbeq	r0, [r3], #-2560	; 0xfffff600
    1420:	00070000 	andeq	r0, r7, r0
    1424:	2c070402 	cfstrscs	mvf0, [r7], {2}
    1428:	08000005 	stmdaeq	r0, {r0, r2}
    142c:	0003df04 	andeq	sp, r3, r4, lsl #30
    1430:	10f00b00 	rscsne	r0, r0, r0, lsl #22
    1434:	bf020000 	svclt	0x00020000
    1438:	00044324 	andeq	r4, r4, r4, lsr #6
    143c:	0b010100 	bleq	41844 <UART_InterruptFIFOLevelSelect+0x40404>
    1440:	00001053 	andeq	r1, r0, r3, asr r0
    1444:	4324c002 			; <UNDEFINED> instruction: 0x4324c002
    1448:	01000004 	tsteq	r0, r4
    144c:	06090b01 	streq	r0, [r9], -r1, lsl #22
    1450:	c1020000 	mrsgt	r0, (UNDEF: 2)
    1454:	00045a24 	andeq	r5, r4, r4, lsr #20
    1458:	0b010100 	bleq	41860 <UART_InterruptFIFOLevelSelect+0x40420>
    145c:	0000121e 	andeq	r1, r0, lr, lsl r2
    1460:	5a24c202 	bpl	931c70 <UART_InterruptFIFOLevelSelect+0x930830>
    1464:	01000004 	tsteq	r0, r4
    1468:	12370b01 	eorsne	r0, r7, #1024	; 0x400
    146c:	c3020000 	movwgt	r0, #8192	; 0x2000
    1470:	00045a24 	andeq	r5, r4, r4, lsr #20
    1474:	0b010100 	bleq	4187c <UART_InterruptFIFOLevelSelect+0x4043c>
    1478:	0000113c 	andeq	r1, r0, ip, lsr r1
    147c:	5a24c402 	bpl	93248c <UART_InterruptFIFOLevelSelect+0x93104c>
    1480:	01000004 	tsteq	r0, r4
    1484:	11540b01 	cmpne	r4, r1, lsl #22
    1488:	c5020000 	strgt	r0, [r2, #-0]
    148c:	00045a24 	andeq	r5, r4, r4, lsr #20
    1490:	09010100 	stmdbeq	r1, {r8}
    1494:	00000437 	andeq	r0, r0, r7, lsr r4
    1498:	000004d2 	ldrdeq	r0, [r0], -r2
    149c:	0004530a 	andeq	r5, r4, sl, lsl #6
    14a0:	0b000200 	bleq	1ca8 <UART_InterruptFIFOLevelSelect+0x868>
    14a4:	00000928 	andeq	r0, r0, r8, lsr #18
    14a8:	c218ca02 	andsgt	ip, r8, #8192	; 0x2000
    14ac:	01000004 	tsteq	r0, r4
    14b0:	0e640b01 	vmuleq.f64	d16, d4, d1
    14b4:	cb020000 	blgt	814bc <UART_InterruptFIFOLevelSelect+0x8007c>
    14b8:	0004c218 	andeq	ip, r4, r8, lsl r2
    14bc:	09010100 	stmdbeq	r1, {r8}
    14c0:	00000037 	andeq	r0, r0, r7, lsr r0
    14c4:	000004fe 	strdeq	r0, [r0], -lr
    14c8:	0004530a 	andeq	r5, r4, sl, lsl #6
    14cc:	0b000000 	bleq	14d4 <UART_InterruptFIFOLevelSelect+0x94>
    14d0:	000010bc 	strheq	r1, [r0], -ip
    14d4:	ee0e0f03 	cdp	15, 0, cr0, cr14, cr3, {0}
    14d8:	01000004 	tsteq	r0, r4
    14dc:	11870b01 	orrne	r0, r7, r1, lsl #22
    14e0:	10030000 	andne	r0, r3, r0
    14e4:	0004ee0e 	andeq	lr, r4, lr, lsl #28
    14e8:	09010100 	stmdbeq	r1, {r8}
    14ec:	00000037 	andeq	r0, r0, r7, lsr r0
    14f0:	0000052a 	andeq	r0, r0, sl, lsr #10
    14f4:	0004530a 	andeq	r5, r4, sl, lsl #6
    14f8:	0b000500 	bleq	2900 <UART_InterruptFIFOLevelSelect+0x14c0>
    14fc:	0000102f 	andeq	r1, r0, pc, lsr #32
    1500:	1a0e1103 	bne	385914 <UART_InterruptFIFOLevelSelect+0x3844d4>
    1504:	01000005 	tsteq	r0, r5
    1508:	10c20b01 	sbcne	r0, r2, r1, lsl #22
    150c:	12030000 	andne	r0, r3, #0
    1510:	0004ee0e 	andeq	lr, r4, lr, lsl #28
    1514:	09010100 	stmdbeq	r1, {r8}
    1518:	00000037 	andeq	r0, r0, r7, lsr r0
    151c:	00000556 	andeq	r0, r0, r6, asr r5
    1520:	0004530a 	andeq	r5, r4, sl, lsl #6
    1524:	0b000100 	bleq	192c <UART_InterruptFIFOLevelSelect+0x4ec>
    1528:	000010c8 	andeq	r1, r0, r8, asr #1
    152c:	460e1803 	strmi	r1, [lr], -r3, lsl #16
    1530:	01000005 	tsteq	r0, r5
    1534:	10ce0b01 	sbcne	r0, lr, r1, lsl #22
    1538:	19030000 	stmdbne	r3, {}	; <UNPREDICTABLE>
    153c:	0005460e 	andeq	r4, r5, lr, lsl #12
    1540:	0b010100 	bleq	41948 <UART_InterruptFIFOLevelSelect+0x40508>
    1544:	0000118d 	andeq	r1, r0, sp, lsl #3
    1548:	460e1a03 	strmi	r1, [lr], -r3, lsl #20
    154c:	01000005 	tsteq	r0, r5
    1550:	10380c01 	eorsne	r0, r8, r1, lsl #24
    1554:	1d030000 	stcne	0, cr0, [r3, #-0]
    1558:	0003df1d 	andeq	sp, r3, sp, lsl pc
    155c:	03050100 	movweq	r0, #20736	; 0x5100
    1560:	00000000 	andeq	r0, r0, r0
    1564:	0011930c 	andseq	r9, r1, ip, lsl #6
    1568:	1c270300 	stcne	3, cr0, [r7], #-0
    156c:	000003df 	ldrdeq	r0, [r0], -pc	; <UNPREDICTABLE>
    1570:	00030501 	andeq	r0, r3, r1, lsl #10
    1574:	0c000000 	stceq	0, cr0, [r0], {-0}
    1578:	00001250 	andeq	r1, r0, r0, asr r2
    157c:	df1d3203 	svcle	0x001d3203
    1580:	01000003 	tsteq	r0, r3
    1584:	00000305 	andeq	r0, r0, r5, lsl #6
    1588:	d40c0000 	strle	r0, [ip], #-0
    158c:	03000010 	movweq	r0, #16
    1590:	03df1d41 	bicseq	r1, pc, #4160	; 0x1040
    1594:	05010000 	streq	r0, [r1, #-0]
    1598:	00000003 	andeq	r0, r0, r3
    159c:	116c0c00 	cmnne	ip, r0, lsl #24
    15a0:	5e030000 	cdppl	0, 0, cr0, cr3, cr0, {0}
    15a4:	0003df1c 	andeq	sp, r3, ip, lsl pc
    15a8:	03050100 	movweq	r0, #20736	; 0x5100
    15ac:	00000000 	andeq	r0, r0, r0
    15b0:	000ff00c 	andeq	pc, pc, ip
    15b4:	1c680300 	stclne	3, cr0, [r8], #-0
    15b8:	000003df 	ldrdeq	r0, [r0], -pc	; <UNPREDICTABLE>
    15bc:	00030501 	andeq	r0, r3, r1, lsl #10
    15c0:	0c000000 	stceq	0, cr0, [r0], {-0}
    15c4:	00001068 	andeq	r1, r0, r8, rrx
    15c8:	df1c7303 	svcle	0x001c7303
    15cc:	01000003 	tsteq	r0, r3
    15d0:	00000305 	andeq	r0, r0, r5, lsl #6
    15d4:	ca0c0000 	bgt	3015dc <UART_InterruptFIFOLevelSelect+0x30019c>
    15d8:	03000011 	movweq	r0, #17
    15dc:	03df1c7d 	bicseq	r1, pc, #32000	; 0x7d00
    15e0:	05010000 	streq	r0, [r1, #-0]
    15e4:	00000003 	andeq	r0, r0, r3
    15e8:	10a00c00 	adcne	r0, r0, r0, lsl #24
    15ec:	87030000 	strhi	r0, [r3, -r0]
    15f0:	0003df1d 	andeq	sp, r3, sp, lsl pc
    15f4:	03050100 	movweq	r0, #20736	; 0x5100
    15f8:	00000000 	andeq	r0, r0, r0
    15fc:	0012020c 	andseq	r0, r2, ip, lsl #4
    1600:	1c910300 	ldcne	3, cr0, [r1], {0}
    1604:	000003df 	ldrdeq	r0, [r0], -pc	; <UNPREDICTABLE>
    1608:	00030501 	andeq	r0, r3, r1, lsl #10
    160c:	0c000000 	stceq	0, cr0, [r0], {-0}
    1610:	00001105 	andeq	r1, r0, r5, lsl #2
    1614:	df1c9d03 	svcle	0x001c9d03
    1618:	01000003 	tsteq	r0, r3
    161c:	00000305 	andeq	r0, r0, r5, lsl #6
    1620:	6c0c0000 	stcvs	0, cr0, [ip], {-0}
    1624:	03000012 	movweq	r0, #18
    1628:	03df1ca7 	bicseq	r1, pc, #42752	; 0xa700
    162c:	05010000 	streq	r0, [r1, #-0]
    1630:	00000003 	andeq	r0, r0, r3
    1634:	11ae0c00 			; <UNDEFINED> instruction: 0x11ae0c00
    1638:	b1030000 	mrslt	r0, (UNDEF: 3)
    163c:	0003df1c 	andeq	sp, r3, ip, lsl pc
    1640:	03050100 	movweq	r0, #20736	; 0x5100
    1644:	00000000 	andeq	r0, r0, r0
    1648:	0011e60c 	andseq	lr, r1, ip, lsl #12
    164c:	1cbb0300 	ldcne	3, cr0, [fp]
    1650:	000003df 	ldrdeq	r0, [r0], -pc	; <UNPREDICTABLE>
    1654:	00030501 	andeq	r0, r3, r1, lsl #10
    1658:	0c000000 	stceq	0, cr0, [r0], {-0}
    165c:	00001120 	andeq	r1, r0, r0, lsr #2
    1660:	df1cc503 	svcle	0x001cc503
    1664:	01000003 	tsteq	r0, r3
    1668:	00000305 	andeq	r0, r0, r5, lsl #6
    166c:	840c0000 	strhi	r0, [ip], #-0
    1670:	03000010 	movweq	r0, #16
    1674:	03df1ccf 	bicseq	r1, pc, #52992	; 0xcf00
    1678:	05010000 	streq	r0, [r1, #-0]
    167c:	00000003 	andeq	r0, r0, r3
    1680:	04600d00 	strbteq	r0, [r0], #-3328	; 0xfffff300
    1684:	da030000 	ble	c168c <UART_InterruptFIFOLevelSelect+0xc024c>
    1688:	00030521 	andeq	r0, r3, r1, lsr #10
    168c:	0d000000 	stceq	0, cr0, [r0, #-0]
    1690:	0000046e 	andeq	r0, r0, lr, ror #8
    1694:	051de603 	ldreq	lr, [sp, #-1539]	; 0xfffff9fd
    1698:	00000003 	andeq	r0, r0, r3
    169c:	113f0e00 	teqne	pc, r0, lsl #28
    16a0:	07030000 	streq	r0, [r3, -r0]
    16a4:	03df1d01 	bicseq	r1, pc, #1, 26	; 0x40
    16a8:	05010000 	streq	r0, [r1, #-0]
    16ac:	00000003 	andeq	r0, r0, r3
    16b0:	11570e00 	cmpne	r7, r0, lsl #28
    16b4:	15030000 	strne	r0, [r3, #-0]
    16b8:	03df1d01 	bicseq	r1, pc, #1, 26	; 0x40
    16bc:	05010000 	streq	r0, [r1, #-0]
    16c0:	00000003 	andeq	r0, r0, r3
    16c4:	060c0e00 	streq	r0, [ip], -r0, lsl #28
    16c8:	24030000 	strcs	r0, [r3], #-0
    16cc:	03df1d01 	bicseq	r1, pc, #1, 26	; 0x40
    16d0:	05010000 	streq	r0, [r1, #-0]
    16d4:	00001003 	andeq	r1, r0, r3
    16d8:	12210e20 	eorne	r0, r1, #32, 28	; 0x200
    16dc:	32030000 	andcc	r0, r3, #0
    16e0:	03df1d01 	bicseq	r1, pc, #1, 26	; 0x40
    16e4:	05010000 	streq	r0, [r1, #-0]
    16e8:	00000003 	andeq	r0, r0, r3
    16ec:	123a0e00 	eorsne	r0, sl, #0, 28
    16f0:	40030000 	andmi	r0, r3, r0
    16f4:	03df1d01 	bicseq	r1, pc, #1, 26	; 0x40
    16f8:	05010000 	streq	r0, [r1, #-0]
    16fc:	00000003 	andeq	r0, r0, r3
    1700:	10190e00 	andsne	r0, r9, r0, lsl #28
    1704:	4e030000 	cdpmi	0, 0, cr0, cr3, cr0, {0}
    1708:	03df1d01 	bicseq	r1, pc, #1, 26	; 0x40
    170c:	05010000 	streq	r0, [r1, #-0]
    1710:	00000003 	andeq	r0, r0, r3
    1714:	047c0f00 	ldrbteq	r0, [ip], #-3840	; 0xfffff100
    1718:	5d030000 	stcpl	0, cr0, [r3, #-0]
    171c:	03051d01 	movweq	r1, #23809	; 0x5d01
    1720:	20000020 	andcs	r0, r0, r0, lsr #32
    1724:	00048a0f 	andeq	r8, r4, pc, lsl #20
    1728:	015e0300 	cmpeq	lr, r0, lsl #6
    172c:	0003051d 	andeq	r0, r3, sp, lsl r5
    1730:	0f000000 	svceq	0x00000000
    1734:	00000498 	muleq	r0, r8, r4
    1738:	1d015f03 	stcne	15, cr5, [r1, #-12]
    173c:	00000305 	andeq	r0, r0, r5, lsl #6
    1740:	a60f0000 	strge	r0, [pc], -r0
    1744:	03000004 	movweq	r0, #4
    1748:	051d0160 	ldreq	r0, [sp, #-352]	; 0xfffffea0
    174c:	00000003 	andeq	r0, r0, r3
    1750:	04b40f00 	ldrteq	r0, [r4], #3840	; 0xf00
    1754:	61030000 	mrsvs	r0, (UNDEF: 3)
    1758:	03051d01 	movweq	r1, #23809	; 0x5d01
    175c:	00000000 	andeq	r0, r0, r0
    1760:	0004d20f 	andeq	sp, r4, pc, lsl #4
    1764:	01700300 	cmneq	r0, r0, lsl #6
    1768:	00030511 	andeq	r0, r3, r1, lsl r5
    176c:	0f000000 	svceq	0x00000000
    1770:	000004e0 	andeq	r0, r0, r0, ror #9
    1774:	11018603 	tstne	r1, r3, lsl #12
    1778:	00000305 	andeq	r0, r0, r5, lsl #6
    177c:	57000000 	strpl	r0, [r0, -r0]
    1780:	02000010 	andeq	r0, r0, #16
    1784:	0002f800 	andeq	pc, r2, r0, lsl #16
    1788:	ac010400 	cfstrsge	mvf0, [r1], {-0}
    178c:	0c000001 	stceq	0, cr0, [r0], {1}
    1790:	000017a0 	andeq	r1, r0, r0, lsr #15
    1794:	00b0002e 	adcseq	r0, r0, lr, lsr #32
	...
    17a0:	05570000 	ldrbeq	r0, [r7, #-0]
    17a4:	53020000 	movwpl	r0, #8192	; 0x2000
    17a8:	02000008 	andeq	r0, r0, #8
    17ac:	00331d06 	eorseq	r1, r3, r6, lsl #26
    17b0:	01030000 	mrseq	r0, (UNDEF: 3)
    17b4:	000d1408 	andeq	r1, sp, r8, lsl #8
    17b8:	06010300 	streq	r0, [r1], -r0, lsl #6
    17bc:	00000d16 	andeq	r0, r0, r6, lsl sp
    17c0:	e4070203 	str	r0, [r7], #-515	; 0xfffffdfd
    17c4:	0300000e 	movweq	r0, #14
    17c8:	0a630502 	beq	18c2bd8 <UART_InterruptFIFOLevelSelect+0x18c1798>
    17cc:	5d020000 	stcpl	0, cr0, [r2, #-0]
    17d0:	0200000a 	andeq	r0, r0, #10
    17d4:	00601c0e 	rsbeq	r1, r0, lr, lsl #24
    17d8:	4f040000 	svcmi	0x00040000
    17dc:	03000000 	movweq	r0, #0
    17e0:	05270704 	streq	r0, [r7, #-1796]!	; 0xfffff8fc
    17e4:	60040000 	andvs	r0, r4, r0
    17e8:	03000000 	movweq	r0, #0
    17ec:	08080504 	stmdaeq	r8, {r2, r8, sl}
    17f0:	04030000 	streq	r0, [r3], #-0
    17f4:	00050a04 	andeq	r0, r5, r4, lsl #20
    17f8:	04080300 	streq	r0, [r8], #-768	; 0xfffffd00
    17fc:	000009b1 			; <UNDEFINED> instruction: 0x000009b1
    1800:	22070803 	andcs	r0, r7, #196608	; 0x30000
    1804:	02000005 	andeq	r0, r0, #5
    1808:	00000985 	andeq	r0, r0, r5, lsl #19
    180c:	99101902 	ldmdbls	r0, {r1, r8, fp, ip}
    1810:	04000000 	streq	r0, [r0], #-0
    1814:	00000088 	andeq	r0, r0, r8, lsl #1
    1818:	009f0405 	addseq	r0, pc, r5, lsl #8
    181c:	01060000 	mrseq	r0, (UNDEF: 6)
    1820:	14030407 	strne	r0, [r3], #-1031	; 0xfffffbf9
    1824:	0000cf05 	andeq	ip, r0, r5, lsl #30
    1828:	15520800 	ldrbne	r0, [r2, #-2048]	; 0xfffff800
    182c:	16030000 	strne	r0, [r3], -r0
    1830:	00004f0b 	andeq	r4, r0, fp, lsl #30
    1834:	18080400 	stmdane	r8, {sl}
    1838:	08002302 	stmdaeq	r0, {r1, r8, r9, sp}
    183c:	00001512 	andeq	r1, r0, r2, lsl r5
    1840:	4f0b1703 	svcmi	0x000b1703
    1844:	04000000 	streq	r0, [r0], #-0
    1848:	23020018 	movwcs	r0, #8216	; 0x2018
    184c:	04090000 	streq	r0, [r9], #-0
    1850:	f1091203 			; <UNDEFINED> instruction: 0xf1091203
    1854:	0a000000 	beq	185c <UART_InterruptFIFOLevelSelect+0x41c>
    1858:	000019ab 	andeq	r1, r0, fp, lsr #19
    185c:	a1021903 	tstge	r2, r3, lsl #18
    1860:	0a000000 	beq	1868 <UART_InterruptFIFOLevelSelect+0x428>
    1864:	00002b2f 	andeq	r2, r0, pc, lsr #22
    1868:	4f081b03 	svcmi	0x00081b03
    186c:	00000000 	andeq	r0, r0, r0
    1870:	00156202 	andseq	r6, r5, r2, lsl #4
    1874:	021d0300 	andseq	r0, sp, #0, 6
    1878:	000000cf 	andeq	r0, r0, pc, asr #1
    187c:	0000f104 	andeq	pc, r0, r4, lsl #2
    1880:	03040700 	movweq	r0, #18176	; 0x4700
    1884:	01300145 	teqeq	r0, r5, asr #2
    1888:	e2080000 	and	r0, r8, #0
    188c:	03000015 	movweq	r0, #21
    1890:	004f0847 	subeq	r0, pc, r7, asr #16
    1894:	08040000 	stmdaeq	r4, {}	; <UNPREDICTABLE>
    1898:	00230218 	eoreq	r0, r3, r8, lsl r2
    189c:	00151208 	andseq	r1, r5, r8, lsl #4
    18a0:	08480300 	stmdaeq	r8, {r8, r9}^
    18a4:	0000004f 	andeq	r0, r0, pc, asr #32
    18a8:	02001804 	andeq	r1, r0, #4, 16	; 0x40000
    18ac:	09000023 	stmdbeq	r0, {r0, r1, r5}
    18b0:	09440304 	stmdbeq	r4, {r2, r8, r9}^
    18b4:	00000152 	andeq	r0, r0, r2, asr r1
    18b8:	0019ab0a 	andseq	sl, r9, sl, lsl #22
    18bc:	024a0300 	subeq	r0, sl, #0, 6
    18c0:	00000102 	andeq	r0, r0, r2, lsl #2
    18c4:	002b2f0a 	eoreq	r2, fp, sl, lsl #30
    18c8:	084c0300 	stmdaeq	ip, {r8, r9}^
    18cc:	0000004f 	andeq	r0, r0, pc, asr #32
    18d0:	14db0200 	ldrbne	r0, [fp], #512	; 0x200
    18d4:	4e030000 	cdpmi	0, 0, cr0, cr3, cr0, {0}
    18d8:	00013002 	andeq	r3, r1, r2
    18dc:	01520400 	cmpeq	r2, r0, lsl #8
    18e0:	04070000 	streq	r0, [r7], #-0
    18e4:	91015c03 	tstls	r1, r3, lsl #24
    18e8:	08000001 	stmdaeq	r0, {r0}
    18ec:	0000135d 	andeq	r1, r0, sp, asr r3
    18f0:	4f085e03 	svcmi	0x00085e03
    18f4:	04000000 	streq	r0, [r0], #-0
    18f8:	23021808 	movwcs	r1, #10248	; 0x2808
    18fc:	15120800 	ldrne	r0, [r2, #-2048]	; 0xfffff800
    1900:	5f030000 	svcpl	0x00030000
    1904:	00004f08 	andeq	r4, r0, r8, lsl #30
    1908:	00180400 	andseq	r0, r8, r0, lsl #8
    190c:	00002302 	andeq	r2, r0, r2, lsl #6
    1910:	5b030409 	blpl	c293c <UART_InterruptFIFOLevelSelect+0xc14fc>
    1914:	0001b309 	andeq	fp, r1, r9, lsl #6
    1918:	19ab0a00 	stmibne	fp!, {r9, fp}
    191c:	61030000 	mrsvs	r0, (UNDEF: 3)
    1920:	00016302 	andeq	r6, r1, r2, lsl #6
    1924:	2b2f0a00 	blcs	bc412c <UART_InterruptFIFOLevelSelect+0xbc2cec>
    1928:	63030000 	movwvs	r0, #12288	; 0x3000
    192c:	00004f08 	andeq	r4, r0, r8, lsl #30
    1930:	be020000 	cdplt	0, 0, cr0, cr2, cr0, {0}
    1934:	03000017 	movweq	r0, #23
    1938:	01910265 	orrseq	r0, r1, r5, ror #4
    193c:	b3040000 	movwlt	r0, #16384	; 0x4000
    1940:	07000001 	streq	r0, [r0, -r1]
    1944:	05730304 	ldrbeq	r0, [r3, #-772]!	; 0xfffffcfc
    1948:	000001f2 	strdeq	r0, [r0], -r2
    194c:	0008ad08 	andeq	sl, r8, r8, lsl #26
    1950:	0f740300 	svceq	0x00740300
    1954:	0000004f 	andeq	r0, r0, pc, asr #32
    1958:	02180804 	andseq	r0, r8, #4, 16	; 0x40000
    195c:	12080023 	andne	r0, r8, #35	; 0x23
    1960:	03000015 	movweq	r0, #21
    1964:	004f0f75 	subeq	r0, pc, r5, ror pc	; <UNPREDICTABLE>
    1968:	18040000 	stmdane	r4, {}	; <UNPREDICTABLE>
    196c:	00230200 	eoreq	r0, r3, r0, lsl #4
    1970:	03040900 	movweq	r0, #18688	; 0x4900
    1974:	02140971 	andseq	r0, r4, #1851392	; 0x1c4000
    1978:	090a0000 	stmdbeq	sl, {}	; <UNPREDICTABLE>
    197c:	03000027 	movweq	r0, #39	; 0x27
    1980:	01c40677 	biceq	r0, r4, r7, ror r6
    1984:	2f0a0000 	svccs	0x000a0000
    1988:	0300002b 	movweq	r0, #43	; 0x2b
    198c:	004f0b79 	subeq	r0, pc, r9, ror fp	; <UNPREDICTABLE>
    1990:	02000000 	andeq	r0, r0, #0
    1994:	00001455 	andeq	r1, r0, r5, asr r4
    1998:	f2027b03 	vqdmulh.s<illegal width 8>	d7, d2, d3
    199c:	04000001 	streq	r0, [r0], #-1
    19a0:	00000214 	andeq	r0, r0, r4, lsl r2
    19a4:	7f030407 	svcvc	0x00030407
    19a8:	00025305 	andeq	r5, r2, r5, lsl #6
    19ac:	1ad90800 	bne	ff6439b4 <_E_BSS+0xdf641bc0>
    19b0:	80030000 	andhi	r0, r3, r0
    19b4:	00004f0f 	andeq	r4, r0, pc, lsl #30
    19b8:	18080400 	stmdane	r8, {sl}
    19bc:	08002302 	stmdaeq	r0, {r1, r8, r9, sp}
    19c0:	00001512 	andeq	r1, r0, r2, lsl r5
    19c4:	4f0f8103 	svcmi	0x000f8103
    19c8:	04000000 	streq	r0, [r0], #-0
    19cc:	23020018 	movwcs	r0, #8216	; 0x2018
    19d0:	04090000 	streq	r0, [r9], #-0
    19d4:	75097d03 	strvc	r7, [r9, #-3331]	; 0xfffff2fd
    19d8:	0a000002 	beq	19e8 <UART_InterruptFIFOLevelSelect+0x5a8>
    19dc:	00002709 	andeq	r2, r0, r9, lsl #14
    19e0:	25068303 	strcs	r8, [r6, #-771]	; 0xfffffcfd
    19e4:	0a000002 	beq	19f4 <UART_InterruptFIFOLevelSelect+0x5b4>
    19e8:	00002b2f 	andeq	r2, r0, pc, lsr #22
    19ec:	4f0b8503 	svcmi	0x000b8503
    19f0:	00000000 	andeq	r0, r0, r0
    19f4:	0017f102 	andseq	pc, r7, r2, lsl #2
    19f8:	02870300 	addeq	r0, r7, #0, 6
    19fc:	00000253 	andeq	r0, r0, r3, asr r2
    1a00:	00027504 	andeq	r7, r2, r4, lsl #10
    1a04:	03040700 	movweq	r0, #18176	; 0x4700
    1a08:	02b4058c 	adcseq	r0, r4, #140, 10	; 0x23000000
    1a0c:	7f080000 	svcvc	0x00080000
    1a10:	03000013 	movweq	r0, #19
    1a14:	004f0f8d 	subeq	r0, pc, sp, lsl #31
    1a18:	08040000 	stmdaeq	r4, {}	; <UNPREDICTABLE>
    1a1c:	00230218 	eoreq	r0, r3, r8, lsl r2
    1a20:	00151208 	andseq	r1, r5, r8, lsl #4
    1a24:	0f8e0300 	svceq	0x008e0300
    1a28:	0000004f 	andeq	r0, r0, pc, asr #32
    1a2c:	02001804 	andeq	r1, r0, #4, 16	; 0x40000
    1a30:	09000023 	stmdbeq	r0, {r0, r1, r5}
    1a34:	098a0304 	stmibeq	sl, {r2, r8, r9}
    1a38:	000002d6 	ldrdeq	r0, [r0], -r6
    1a3c:	0027090a 	eoreq	r0, r7, sl, lsl #18
    1a40:	06900300 	ldreq	r0, [r0], r0, lsl #6
    1a44:	00000286 	andeq	r0, r0, r6, lsl #5
    1a48:	002b2f0a 	eoreq	r2, fp, sl, lsl #30
    1a4c:	08920300 	ldmeq	r2, {r8, r9}
    1a50:	0000004f 	andeq	r0, r0, pc, asr #32
    1a54:	13020200 	movwne	r0, #8704	; 0x2200
    1a58:	94030000 	strls	r0, [r3], #-0
    1a5c:	0002b402 	andeq	fp, r2, r2, lsl #8
    1a60:	02d60400 	sbcseq	r0, r6, #0, 8
    1a64:	04070000 	streq	r0, [r7], #-0
    1a68:	15059803 	strne	r9, [r5, #-2051]	; 0xfffff7fd
    1a6c:	08000003 	stmdaeq	r0, {r0, r1}
    1a70:	000016dc 	ldrdeq	r1, [r0], -ip
    1a74:	4f0f9903 	svcmi	0x000f9903
    1a78:	04000000 	streq	r0, [r0], #-0
    1a7c:	23021808 	movwcs	r1, #10248	; 0x2808
    1a80:	15120800 	ldrne	r0, [r2, #-2048]	; 0xfffff800
    1a84:	9a030000 	bls	c1a8c <UART_InterruptFIFOLevelSelect+0xc064c>
    1a88:	00004f0f 	andeq	r4, r0, pc, lsl #30
    1a8c:	00180400 	andseq	r0, r8, r0, lsl #8
    1a90:	00002302 	andeq	r2, r0, r2, lsl #6
    1a94:	96030409 	strls	r0, [r3], -r9, lsl #8
    1a98:	00033709 	andeq	r3, r3, r9, lsl #14
    1a9c:	27090a00 	strcs	r0, [r9, -r0, lsl #20]
    1aa0:	9c030000 	stcls	0, cr0, [r3], {-0}
    1aa4:	0002e706 	andeq	lr, r2, r6, lsl #14
    1aa8:	2b2f0a00 	blcs	bc42b0 <UART_InterruptFIFOLevelSelect+0xbc2e70>
    1aac:	9e030000 	cdpls	0, 0, cr0, cr3, cr0, {0}
    1ab0:	00004f09 	andeq	r4, r0, r9, lsl #30
    1ab4:	94020000 	strls	r0, [r2], #-0
    1ab8:	03000014 	movweq	r0, #20
    1abc:	031502a0 	tsteq	r5, #160, 4
    1ac0:	37040000 	strcc	r0, [r4, -r0]
    1ac4:	07000003 	streq	r0, [r0, -r3]
    1ac8:	05b00304 	ldreq	r0, [r0, #772]!	; 0x304
    1acc:	00000376 	andeq	r0, r0, r6, ror r3
    1ad0:	00181808 	andseq	r1, r8, r8, lsl #16
    1ad4:	0fb10300 	svceq	0x00b10300
    1ad8:	0000004f 	andeq	r0, r0, pc, asr #32
    1adc:	02180804 	andseq	r0, r8, #4, 16	; 0x40000
    1ae0:	12080023 	andne	r0, r8, #35	; 0x23
    1ae4:	03000015 	movweq	r0, #21
    1ae8:	004f0fb2 	strheq	r0, [pc], #-242	; <UNPREDICTABLE>
    1aec:	18040000 	stmdane	r4, {}	; <UNPREDICTABLE>
    1af0:	00230200 	eoreq	r0, r3, r0, lsl #4
    1af4:	03040900 	movweq	r0, #18688	; 0x4900
    1af8:	039809ae 	orrseq	r0, r8, #2850816	; 0x2b8000
    1afc:	090a0000 	stmdbeq	sl, {}	; <UNPREDICTABLE>
    1b00:	03000027 	movweq	r0, #39	; 0x27
    1b04:	034806b3 	movteq	r0, #34483	; 0x86b3
    1b08:	2f0a0000 	svccs	0x000a0000
    1b0c:	0300002b 	movweq	r0, #43	; 0x2b
    1b10:	004f0bb5 	strheq	r0, [pc], #-181	; <UNPREDICTABLE>
    1b14:	02000000 	andeq	r0, r0, #0
    1b18:	00001a2e 	andeq	r1, r0, lr, lsr #20
    1b1c:	7602b703 	strvc	fp, [r2], -r3, lsl #14
    1b20:	04000003 	streq	r0, [r0], #-3
    1b24:	00000398 	muleq	r0, r8, r3
    1b28:	bc030407 	cfstrslt	mvf0, [r3], {7}
    1b2c:	0003d705 	andeq	sp, r3, r5, lsl #14
    1b30:	38a50800 	stmiacc	r5!, {fp}
    1b34:	be030000 	cdplt	0, 0, cr0, cr3, cr0, {0}
    1b38:	00004f10 	andeq	r4, r0, r0, lsl pc
    1b3c:	18080400 	stmdane	r8, {sl}
    1b40:	08002302 	stmdaeq	r0, {r1, r8, r9, sp}
    1b44:	00001512 	andeq	r1, r0, r2, lsl r5
    1b48:	4f0fbf03 	svcmi	0x000fbf03
    1b4c:	04000000 	streq	r0, [r0], #-0
    1b50:	23020018 	movwcs	r0, #8216	; 0x2018
    1b54:	04090000 	streq	r0, [r9], #-0
    1b58:	f909ba03 			; <UNDEFINED> instruction: 0xf909ba03
    1b5c:	0a000003 	beq	1b70 <UART_InterruptFIFOLevelSelect+0x730>
    1b60:	00002709 	andeq	r2, r0, r9, lsl #14
    1b64:	a906c103 	stmdbge	r6, {r0, r1, r8, lr, pc}
    1b68:	0a000003 	beq	1b7c <UART_InterruptFIFOLevelSelect+0x73c>
    1b6c:	00002b2f 	andeq	r2, r0, pc, lsr #22
    1b70:	4f0bc303 	svcmi	0x000bc303
    1b74:	00000000 	andeq	r0, r0, r0
    1b78:	001a4702 	andseq	r4, sl, r2, lsl #14
    1b7c:	02c50300 	sbceq	r0, r5, #0, 6
    1b80:	000003d7 	ldrdeq	r0, [r0], -r7
    1b84:	0003f904 	andeq	pc, r3, r4, lsl #18
    1b88:	03040700 	movweq	r0, #18176	; 0x4700
    1b8c:	043805c8 	ldrteq	r0, [r8], #-1480	; 0xfffffa38
    1b90:	ac080000 	stcge	0, cr0, [r8], {-0}
    1b94:	0300001a 	movweq	r0, #26
    1b98:	004f0ec9 	subeq	r0, pc, r9, asr #29
    1b9c:	06040000 	streq	r0, [r4], -r0
    1ba0:	0023021a 	eoreq	r0, r3, sl, lsl r2
    1ba4:	00151208 	andseq	r1, r5, r8, lsl #4
    1ba8:	0eca0300 	cdpeq	3, 12, cr0, cr10, cr0, {0}
    1bac:	0000004f 	andeq	r0, r0, pc, asr #32
    1bb0:	02001a04 	andeq	r1, r0, #4, 20	; 0x4000
    1bb4:	09000023 	stmdbeq	r0, {r0, r1, r5}
    1bb8:	09c70304 	stmibeq	r7, {r2, r8, r9}^
    1bbc:	0000045a 	andeq	r0, r0, sl, asr r4
    1bc0:	0019ab0a 	andseq	sl, r9, sl, lsl #22
    1bc4:	06cd0300 	strbeq	r0, [sp], r0, lsl #6
    1bc8:	0000040a 	andeq	r0, r0, sl, lsl #8
    1bcc:	002b2f0a 	eoreq	r2, fp, sl, lsl #30
    1bd0:	0bcf0300 	bleq	ff3c27d8 <_E_BSS+0xdf3c09e4>
    1bd4:	0000004f 	andeq	r0, r0, pc, asr #32
    1bd8:	1a3a0200 	bne	e823e0 <UART_InterruptFIFOLevelSelect+0xe80fa0>
    1bdc:	d1030000 	mrsle	r0, (UNDEF: 3)
    1be0:	00043802 	andeq	r3, r4, r2, lsl #16
    1be4:	03040700 	movweq	r0, #18176	; 0x4700
    1be8:	048205dd 	streq	r0, [r2], #1501	; 0x5dd
    1bec:	ec080000 	stc	0, cr0, [r8], {-0}
    1bf0:	03000018 	movweq	r0, #24
    1bf4:	004f0fdf 	ldrdeq	r0, [pc], #-255	; <UNPREDICTABLE>
    1bf8:	08040000 	stmdaeq	r4, {}	; <UNPREDICTABLE>
    1bfc:	00230218 	eoreq	r0, r3, r8, lsl r2
    1c00:	03040900 	movweq	r0, #18688	; 0x4900
    1c04:	04a409db 	strteq	r0, [r4], #2523	; 0x9db
    1c08:	ab0a0000 	blge	281c10 <UART_InterruptFIFOLevelSelect+0x2807d0>
    1c0c:	03000019 	movweq	r0, #25
    1c10:	046606e1 	strbteq	r0, [r6], #-1761	; 0xfffff91f
    1c14:	2f0a0000 	svccs	0x000a0000
    1c18:	0300002b 	movweq	r0, #43	; 0x2b
    1c1c:	004f0be3 	subeq	r0, pc, r3, ror #23
    1c20:	02000000 	andeq	r0, r0, #0
    1c24:	000017a7 	andeq	r1, r0, r7, lsr #15
    1c28:	8202e403 	andhi	lr, r2, #50331648	; 0x3000000
    1c2c:	04000004 	streq	r0, [r0], #-4
    1c30:	000004a4 	andeq	r0, r0, r4, lsr #9
    1c34:	3301070b 	movwcc	r0, #5899	; 0x170b
    1c38:	04000000 	streq	r0, [r0], #-0
    1c3c:	04f40e2a 	ldrbteq	r0, [r4], #3626	; 0xe2a
    1c40:	790c0000 	stmdbvc	ip, {}	; <UNPREDICTABLE>
    1c44:	0000000d 	andeq	r0, r0, sp
    1c48:	000d860c 	andeq	r8, sp, ip, lsl #12
    1c4c:	930c0100 	movwls	r0, #49408	; 0xc100
    1c50:	0200000d 	andeq	r0, r0, #13
    1c54:	000da00c 	andeq	sl, sp, ip
    1c58:	ad0c0300 	stcge	3, cr0, [ip, #-0]
    1c5c:	0400000d 	streq	r0, [r0], #-13
    1c60:	000dba0c 	andeq	fp, sp, ip, lsl #20
    1c64:	c70c0500 	strgt	r0, [ip, -r0, lsl #10]
    1c68:	0600000d 	streq	r0, [r0], -sp
    1c6c:	000dd40c 	andeq	sp, sp, ip, lsl #8
    1c70:	02000700 	andeq	r0, r0, #0, 14
    1c74:	000014c0 	andeq	r1, r0, r0, asr #9
    1c78:	b5023504 	strlt	r3, [r2, #-1284]	; 0xfffffafc
    1c7c:	0b000004 	bleq	1c94 <UART_InterruptFIFOLevelSelect+0x854>
    1c80:	00330107 	eorseq	r0, r3, r7, lsl #2
    1c84:	38040000 	stmdacc	r4, {}	; <UNPREDICTABLE>
    1c88:	0005390d 	andeq	r3, r5, sp, lsl #18
    1c8c:	0ce60c00 	stcleq	12, cr0, [r6]
    1c90:	0c000000 	stceq	0, cr0, [r0], {-0}
    1c94:	00000ef7 	strdeq	r0, [r0], -r7
    1c98:	0efd0c01 	cdpeq	12, 15, cr0, cr13, cr1, {0}
    1c9c:	0c020000 	stceq	0, cr0, [r2], {-0}
    1ca0:	000000c8 	andeq	r0, r0, r8, asr #1
    1ca4:	00ce0c03 	sbceq	r0, lr, r3, lsl #24
    1ca8:	0c040000 	stceq	0, cr0, [r4], {-0}
    1cac:	000000d4 	ldrdeq	r0, [r0], -r4
    1cb0:	0df80c05 	ldcleq	12, cr0, [r8, #20]!
    1cb4:	00060000 	andeq	r0, r6, r0
    1cb8:	00175f02 	andseq	r5, r7, r2, lsl #30
    1cbc:	02410400 	subeq	r0, r1, #0, 8
    1cc0:	00000500 	andeq	r0, r0, r0, lsl #10
    1cc4:	3301070b 	movwcc	r0, #5899	; 0x170b
    1cc8:	04000000 	streq	r0, [r0], #-0
    1ccc:	056c0d44 	strbeq	r0, [ip, #-3396]!	; 0xfffff2bc
    1cd0:	520c0000 	andpl	r0, ip, #0
    1cd4:	00000013 	andeq	r0, r0, r3, lsl r0
    1cd8:	0030e30c 	eorseq	lr, r0, ip, lsl #6
    1cdc:	2f0c0100 	svccs	0x000c0100
    1ce0:	00000019 	andeq	r0, r0, r9, lsl r0
    1ce4:	0014a30c 	andseq	sl, r4, ip, lsl #6
    1ce8:	02000100 	andeq	r0, r0, #0, 2
    1cec:	000012f2 	strdeq	r1, [r0], -r2
    1cf0:	45024a04 	strmi	r4, [r2, #-2564]	; 0xfffff5fc
    1cf4:	0b000005 	bleq	1d10 <UART_InterruptFIFOLevelSelect+0x8d0>
    1cf8:	00330107 	eorseq	r0, r3, r7, lsl #2
    1cfc:	4d040000 	stcmi	0, cr0, [r4, #-0]
    1d00:	0005930e 	andeq	r9, r5, lr, lsl #6
    1d04:	062e0c00 	strteq	r0, [lr], -r0, lsl #24
    1d08:	0c000000 	stceq	0, cr0, [r0], {-0}
    1d0c:	0000091d 	andeq	r0, r0, sp, lsl r9
    1d10:	6e020001 	cdpvs	0, 0, cr0, cr2, cr1, {0}
    1d14:	04000016 	streq	r0, [r0], #-22	; 0xffffffea
    1d18:	05780250 	ldrbeq	r0, [r8, #-592]!	; 0xfffffdb0
    1d1c:	070b0000 	streq	r0, [fp, -r0]
    1d20:	00003301 	andeq	r3, r0, r1, lsl #6
    1d24:	0d530400 	cfldrdeq	mvd0, [r3, #-0]
    1d28:	000005ba 			; <UNDEFINED> instruction: 0x000005ba
    1d2c:	0018ce0c 	andseq	ip, r8, ip, lsl #28
    1d30:	da0c0000 	ble	301d38 <UART_InterruptFIFOLevelSelect+0x3008f8>
    1d34:	01000013 	tsteq	r0, r3, lsl r0
    1d38:	14af0200 	strtne	r0, [pc], #512	; 1d40 <UART_InterruptFIFOLevelSelect+0x900>
    1d3c:	56040000 	strpl	r0, [r4], -r0
    1d40:	00059f02 	andeq	r9, r5, r2, lsl #30
    1d44:	01070b00 	tsteq	r7, r0, lsl #22
    1d48:	00000033 	andeq	r0, r0, r3, lsr r0
    1d4c:	e10d5804 	tst	sp, r4, lsl #16
    1d50:	0c000005 	stceq	0, cr0, [r0], {5}
    1d54:	00001a6a 	andeq	r1, r0, sl, ror #20
    1d58:	15be0c00 	ldrne	r0, [lr, #3072]!	; 0xc00
    1d5c:	00010000 	andeq	r0, r1, r0
    1d60:	00151b02 	andseq	r1, r5, r2, lsl #22
    1d64:	025b0400 	subseq	r0, fp, #0, 8
    1d68:	000005c6 	andeq	r0, r0, r6, asr #11
    1d6c:	3301070b 	movwcc	r0, #5899	; 0x170b
    1d70:	04000000 	streq	r0, [r0], #-0
    1d74:	065c0d5e 			; <UNDEFINED> instruction: 0x065c0d5e
    1d78:	3d0c0000 	stccc	0, cr0, [ip, #-0]
    1d7c:	00000018 	andeq	r0, r0, r8, lsl r0
    1d80:	0018480c 	andseq	r4, r8, ip, lsl #16
    1d84:	530c0100 	movwpl	r0, #49408	; 0xc100
    1d88:	02000018 	andeq	r0, r0, #24
    1d8c:	00185e0c 	andseq	r5, r8, ip, lsl #28
    1d90:	690c0300 	stmdbvs	ip, {r8, r9}
    1d94:	04000018 	streq	r0, [r0], #-24	; 0xffffffe8
    1d98:	0018740c 	andseq	r7, r8, ip, lsl #8
    1d9c:	7f0c0500 	svcvc	0x000c0500
    1da0:	06000018 			; <UNDEFINED> instruction: 0x06000018
    1da4:	00188a0c 	andseq	r8, r8, ip, lsl #20
    1da8:	950c0700 	strls	r0, [ip, #-1792]	; 0xfffff900
    1dac:	08000018 	stmdaeq	r0, {r3, r4}
    1db0:	0018a00c 	andseq	sl, r8, ip
    1db4:	8e0c0900 	vmlahi.f16	s0, s24, s0	; <UNPREDICTABLE>
    1db8:	0a000015 	beq	1e14 <UART_InterruptFIFOLevelSelect+0x9d4>
    1dbc:	0013460c 	andseq	r4, r3, ip, lsl #12
    1dc0:	9a0c0b00 	bls	3049c8 <UART_InterruptFIFOLevelSelect+0x303588>
    1dc4:	0c000015 	stceq	0, cr0, [r0], {21}
    1dc8:	0015a60c 	andseq	sl, r5, ip, lsl #12
    1dcc:	b20c0d00 	andlt	r0, ip, #0, 26
    1dd0:	0e000015 	mcreq	0, 0, r0, cr0, cr5, {0}
    1dd4:	0019b00c 	andseq	fp, r9, ip
    1dd8:	02000f00 	andeq	r0, r0, #0, 30
    1ddc:	0000172d 	andeq	r1, r0, sp, lsr #14
    1de0:	ed026f04 	stc	15, cr6, [r2, #-16]
    1de4:	0b000005 	bleq	1e00 <UART_InterruptFIFOLevelSelect+0x9c0>
    1de8:	00330107 	eorseq	r0, r3, r7, lsl #2
    1dec:	72040000 	andvc	r0, r4, #0
    1df0:	0006830d 	andeq	r8, r6, sp, lsl #6
    1df4:	15cb0c00 	strbne	r0, [fp, #3072]	; 0xc00
    1df8:	0c000000 	stceq	0, cr0, [r0], {-0}
    1dfc:	0000153c 	andeq	r1, r0, ip, lsr r5
    1e00:	3e020001 	cdpcc	0, 0, cr0, cr2, cr1, {0}
    1e04:	04000016 	streq	r0, [r0], #-22	; 0xffffffea
    1e08:	06680275 			; <UNDEFINED> instruction: 0x06680275
    1e0c:	070b0000 	streq	r0, [fp, -r0]
    1e10:	00003301 	andeq	r3, r0, r1, lsl #6
    1e14:	0d7e0400 	cfldrdeq	mvd0, [lr, #-0]
    1e18:	000006aa 	andeq	r0, r0, sl, lsr #13
    1e1c:	0017b30c 	andseq	fp, r7, ip, lsl #6
    1e20:	490c0000 	stmdbmi	ip, {}	; <UNPREDICTABLE>
    1e24:	01000014 	tsteq	r0, r4, lsl r0
    1e28:	194f0200 	stmdbne	pc, {r9}^	; <UNPREDICTABLE>
    1e2c:	81040000 	mrshi	r0, (UNDEF: 4)
    1e30:	00068f02 	andeq	r8, r6, r2, lsl #30
    1e34:	01070b00 	tsteq	r7, r0, lsl #22
    1e38:	00000033 	andeq	r0, r0, r3, lsr r0
    1e3c:	d10d8404 	tstle	sp, r4, lsl #8
    1e40:	0c000006 	stceq	0, cr0, [r0], {6}
    1e44:	0000195f 	andeq	r1, r0, pc, asr r9
    1e48:	17170c00 	ldrne	r0, [r7, -r0, lsl #24]
    1e4c:	00010000 	andeq	r0, r1, r0
    1e50:	001a1502 	andseq	r1, sl, r2, lsl #10
    1e54:	02870400 	addeq	r0, r7, #0, 8
    1e58:	000006b6 			; <UNDEFINED> instruction: 0x000006b6
    1e5c:	a1040307 	tstge	r4, r7, lsl #6
    1e60:	00071409 	andeq	r1, r7, r9, lsl #8
    1e64:	141e0d00 	ldrne	r0, [lr], #-3328	; 0xfffff300
    1e68:	a2040000 	andge	r0, r4, #0
    1e6c:	0005391c 	andeq	r3, r5, ip, lsl r9
    1e70:	00230200 	eoreq	r0, r3, r0, lsl #4
    1e74:	00157a0d 	andseq	r7, r5, sp, lsl #20
    1e78:	20a30400 	adccs	r0, r3, r0, lsl #8
    1e7c:	000004f4 	strdeq	r0, [r0], -r4
    1e80:	0d012302 	stceq	3, cr2, [r1, #-8]
    1e84:	000019d4 	ldrdeq	r1, [r0], -r4
    1e88:	270aa404 	strcs	sl, [sl, -r4, lsl #8]
    1e8c:	02000000 	andeq	r0, r0, #0
    1e90:	0e000223 	cdpeq	2, 0, cr0, cr0, cr3, {1}
    1e94:	000006dd 	ldrdeq	r0, [r0], -sp
    1e98:	001a9202 	andseq	r9, sl, r2, lsl #4
    1e9c:	08a50400 	stmiaeq	r5!, {sl}
    1ea0:	00000714 	andeq	r0, r0, r4, lsl r7
    1ea4:	b0040307 	andlt	r0, r4, r7, lsl #6
    1ea8:	00075c09 	andeq	r5, r7, r9, lsl #24
    1eac:	141e0d00 	ldrne	r0, [lr], #-3328	; 0xfffff300
    1eb0:	b1040000 	mrslt	r0, (UNDEF: 4)
    1eb4:	0005391c 	andeq	r3, r5, ip, lsl r9
    1eb8:	00230200 	eoreq	r0, r3, r0, lsl #4
    1ebc:	0016810d 	andseq	r8, r6, sp, lsl #2
    1ec0:	20b20400 	adcscs	r0, r2, r0, lsl #8
    1ec4:	000004f4 	strdeq	r0, [r0], -r4
    1ec8:	0d012302 	stceq	3, cr2, [r1, #-8]
    1ecc:	000018f9 	strdeq	r1, [r0], -r9
    1ed0:	f420b304 	vld2.8	{d11-d14}, [r0], r4
    1ed4:	02000004 	andeq	r0, r0, #4
    1ed8:	0e000223 	cdpeq	2, 0, cr0, cr0, cr3, {1}
    1edc:	00000725 	andeq	r0, r0, r5, lsr #14
    1ee0:	00190602 	andseq	r0, r9, r2, lsl #12
    1ee4:	08b40400 	ldmeq	r4!, {sl}
    1ee8:	0000075c 	andeq	r0, r0, ip, asr r7
    1eec:	b8040207 	stmdalt	r4, {r0, r1, r2, r9}
    1ef0:	00079509 	andeq	r9, r7, r9, lsl #10
    1ef4:	141e0d00 	ldrne	r0, [lr], #-3328	; 0xfffff300
    1ef8:	ba040000 	blt	101f00 <UART_InterruptFIFOLevelSelect+0x100ac0>
    1efc:	0005391c 	andeq	r3, r5, ip, lsl r9
    1f00:	00230200 	eoreq	r0, r3, r0, lsl #4
    1f04:	00157a0d 	andseq	r7, r5, sp, lsl #20
    1f08:	20bb0400 	adcscs	r0, fp, r0, lsl #8
    1f0c:	000004f4 	strdeq	r0, [r0], -r4
    1f10:	00012302 	andeq	r2, r1, r2, lsl #6
    1f14:	00193b02 	andseq	r3, r9, r2, lsl #22
    1f18:	03bc0400 			; <UNDEFINED> instruction: 0x03bc0400
    1f1c:	0000076d 	andeq	r0, r0, sp, ror #14
    1f20:	2c070403 	cfstrscs	mvf0, [r7], {3}
    1f24:	05000005 	streq	r0, [r0, #-5]
    1f28:	00071904 	andeq	r1, r7, r4, lsl #18
    1f2c:	61040500 	tstvs	r4, r0, lsl #10
    1f30:	0f000007 	svceq	0x00000007
    1f34:	6e690504 	cdpvs	5, 6, cr0, cr9, cr4, {0}
    1f38:	08030074 	stmdaeq	r3, {r2, r4, r5, r6}
    1f3c:	00080305 	andeq	r0, r8, r5, lsl #6
    1f40:	04080300 	streq	r0, [r8], #-768	; 0xfffffd00
    1f44:	000009ac 	andeq	r0, r0, ip, lsr #19
    1f48:	1d080103 	stfnes	f0, [r8, #-12]
    1f4c:	1000000d 	andne	r0, r0, sp
    1f50:	00000094 	muleq	r0, r4, r0
    1f54:	000007e0 	andeq	r0, r0, r0, ror #15
    1f58:	0007a111 	andeq	sl, r7, r1, lsl r1
    1f5c:	04000500 	streq	r0, [r0], #-1280	; 0xfffffb00
    1f60:	000007d0 	ldrdeq	r0, [r0], -r0	; <UNPREDICTABLE>
    1f64:	0012b912 	andseq	fp, r2, r2, lsl r9
    1f68:	22430100 	subcs	r0, r3, #0, 2
    1f6c:	000007e0 	andeq	r0, r0, r0, ror #15
    1f70:	0d040305 	stceq	3, cr0, [r4, #-20]	; 0xffffffec
    1f74:	12102000 	andsne	r2, r0, #0
    1f78:	07000008 	streq	r0, [r0, -r8]
    1f7c:	11000008 	tstne	r0, r8
    1f80:	000007a1 	andeq	r0, r0, r1, lsr #15
    1f84:	f70e0005 			; <UNDEFINED> instruction: 0xf70e0005
    1f88:	05000007 	streq	r0, [r0, #-7]
    1f8c:	00028104 	andeq	r8, r2, r4, lsl #2
    1f90:	080c0e00 	stmdaeq	ip, {r9, sl, fp}
    1f94:	f1130000 			; <UNDEFINED> instruction: 0xf1130000
    1f98:	01000015 	tsteq	r0, r5, lsl r0
    1f9c:	072c0113 			; <UNDEFINED> instruction: 0x072c0113
    1fa0:	05000008 	streq	r0, [r0, #-8]
    1fa4:	000ec803 	andeq	ip, lr, r3, lsl #16
    1fa8:	08451000 	stmdaeq	r5, {ip}^
    1fac:	083a0000 	ldmdaeq	sl!, {}	; <UNPREDICTABLE>
    1fb0:	a1110000 	tstge	r1, r0
    1fb4:	05000007 	streq	r0, [r0, #-7]
    1fb8:	082a0e00 	stmdaeq	sl!, {r9, sl, fp}
    1fbc:	04050000 	streq	r0, [r5], #-0
    1fc0:	00000343 	andeq	r0, r0, r3, asr #6
    1fc4:	00083f0e 	andeq	r3, r8, lr, lsl #30
    1fc8:	19741300 	ldmdbne	r4!, {r8, r9, ip}^
    1fcc:	2a010000 	bcs	41fd4 <UART_InterruptFIFOLevelSelect+0x40b94>
    1fd0:	083a2701 	ldmdaeq	sl!, {r0, r8, r9, sl, sp}
    1fd4:	03050000 	movweq	r0, #20480	; 0x5000
    1fd8:	00000ee0 	andeq	r0, r0, r0, ror #29
    1fdc:	00087810 	andeq	r7, r8, r0, lsl r8
    1fe0:	00086d00 	andeq	r6, r8, r0, lsl #26
    1fe4:	07a11100 	streq	r1, [r1, r0, lsl #2]!
    1fe8:	00050000 	andeq	r0, r5, r0
    1fec:	00085d0e 	andeq	r5, r8, lr, lsl #26
    1ff0:	fd040500 	stc2	5, cr0, [r4, #-0]
    1ff4:	0e000000 	cdpeq	0, 0, cr0, cr0, cr0, {0}
    1ff8:	00000872 	andeq	r0, r0, r2, ror r8
    1ffc:	00177613 	andseq	r7, r7, r3, lsl r6
    2000:	013f0100 	teqeq	pc, r0, lsl #2
    2004:	00086d31 	andeq	r6, r8, r1, lsr sp
    2008:	f8030500 			; <UNDEFINED> instruction: 0xf8030500
    200c:	1000000e 	andne	r0, r0, lr
    2010:	000008ab 	andeq	r0, r0, fp, lsr #17
    2014:	000008a0 	andeq	r0, r0, r0, lsr #17
    2018:	0007a111 	andeq	sl, r7, r1, lsl r1
    201c:	0e000500 	cfsh32eq	mvfx0, mvfx0, #0
    2020:	00000890 	muleq	r0, r0, r8
    2024:	015e0405 	cmpeq	lr, r5, lsl #8
    2028:	a50e0000 	strge	r0, [lr, #-0]
    202c:	13000008 	movwne	r0, #8
    2030:	0000181f 	andeq	r1, r0, pc, lsl r8
    2034:	31016201 	tstcc	r1, r1, lsl #4
    2038:	000008a0 	andeq	r0, r0, r0, lsr #17
    203c:	0f100305 	svceq	0x00100305
    2040:	de100000 	cdple	0, 1, cr0, cr0, cr0, {0}
    2044:	d3000008 	movwle	r0, #8
    2048:	11000008 	tstne	r0, r8
    204c:	000007a1 	andeq	r0, r0, r1, lsr #15
    2050:	c30e0005 	movwgt	r0, #57349	; 0xe005
    2054:	05000008 	streq	r0, [r0, #-8]
    2058:	0001bf04 	andeq	fp, r1, r4, lsl #30
    205c:	08d80e00 	ldmeq	r8, {r9, sl, fp}^
    2060:	a0130000 	andsge	r0, r3, r0
    2064:	01000016 	tsteq	r0, r6, lsl r0
    2068:	d3300178 	teqle	r0, #120, 2
    206c:	05000008 	streq	r0, [r0, #-8]
    2070:	000f2803 	andeq	r2, pc, r3, lsl #16
    2074:	09111000 	ldmdbeq	r1, {ip}
    2078:	09060000 	stmdbeq	r6, {}	; <UNPREDICTABLE>
    207c:	a1110000 	tstge	r1, r0
    2080:	05000007 	streq	r0, [r0, #-7]
    2084:	08f60e00 	ldmeq	r6!, {r9, sl, fp}^
    2088:	04050000 	streq	r0, [r5], #-0
    208c:	00000220 	andeq	r0, r0, r0, lsr #4
    2090:	00090b0e 	andeq	r0, r9, lr, lsl #22
    2094:	138d1300 	orrne	r1, sp, #0, 6
    2098:	8e010000 	cdphi	0, 0, cr0, cr1, cr0, {0}
    209c:	09062801 	stmdbeq	r6, {r0, fp, sp}
    20a0:	03050000 	movweq	r0, #20480	; 0x5000
    20a4:	00000f40 	andeq	r0, r0, r0, asr #30
    20a8:	00094410 	andeq	r4, r9, r0, lsl r4
    20ac:	00093900 	andeq	r3, r9, r0, lsl #18
    20b0:	07a11100 	streq	r1, [r1, r0, lsl #2]!
    20b4:	00050000 	andeq	r0, r5, r0
    20b8:	0009290e 	andeq	r2, r9, lr, lsl #18
    20bc:	e2040500 	and	r0, r4, #0, 10
    20c0:	0e000002 	cdpeq	0, 0, cr0, cr0, cr2, {0}
    20c4:	0000093e 	andeq	r0, r0, lr, lsr r9
    20c8:	00165113 	andseq	r5, r6, r3, lsl r1
    20cc:	01a50100 			; <UNDEFINED> instruction: 0x01a50100
    20d0:	00093931 	andeq	r3, r9, r1, lsr r9
    20d4:	58030500 	stmdapl	r3, {r8, sl}
    20d8:	1000000f 	andne	r0, r0, pc
    20dc:	00000977 	andeq	r0, r0, r7, ror r9
    20e0:	0000096c 	andeq	r0, r0, ip, ror #18
    20e4:	0007a111 	andeq	sl, r7, r1, lsl r1
    20e8:	0e000500 	cfsh32eq	mvfx0, mvfx0, #0
    20ec:	0000095c 	andeq	r0, r0, ip, asr r9
    20f0:	005b0405 	subseq	r0, fp, r5, lsl #8
    20f4:	710e0000 	mrsvc	r0, (UNDEF: 14)
    20f8:	13000009 	movwne	r0, #9
    20fc:	0000142e 	andeq	r1, r0, lr, lsr #8
    2100:	2001bb01 	andcs	fp, r1, r1, lsl #22
    2104:	0000096c 	andeq	r0, r0, ip, ror #18
    2108:	0f700305 	svceq	0x00700305
    210c:	0a130000 	beq	4c2114 <UART_InterruptFIFOLevelSelect+0x4c0cd4>
    2110:	01000014 	tsteq	r0, r4, lsl r0
    2114:	6c1f01d1 	ldfvss	f0, [pc], {209}	; 0xd1
    2118:	05000009 	streq	r0, [r0, #-9]
    211c:	000f8803 	andeq	r8, pc, r3, lsl #16
    2120:	09bd1000 	ldmibeq	sp!, {ip}
    2124:	09b20000 	ldmibeq	r2!, {}	; <UNPREDICTABLE>
    2128:	a1110000 	tstge	r1, r0
    212c:	05000007 	streq	r0, [r0, #-7]
    2130:	09a20e00 	stmibeq	r2!, {r9, sl, fp}
    2134:	04050000 	streq	r0, [r5], #-0
    2138:	000003a4 	andeq	r0, r0, r4, lsr #7
    213c:	0009b70e 	andeq	fp, r9, lr, lsl #14
    2140:	16bd1300 	ldrtne	r1, [sp], r0, lsl #6
    2144:	e7010000 	str	r0, [r1, -r0]
    2148:	09b22401 	ldmibeq	r2!, {r0, sl, sp}
    214c:	03050000 	movweq	r0, #20480	; 0x5000
    2150:	00000fa0 	andeq	r0, r0, r0, lsr #31
    2154:	0009f010 	andeq	pc, r9, r0, lsl r0	; <UNPREDICTABLE>
    2158:	0009e500 	andeq	lr, r9, r0, lsl #10
    215c:	07a11100 	streq	r1, [r1, r0, lsl #2]!
    2160:	00050000 	andeq	r0, r5, r0
    2164:	0009d50e 	andeq	sp, r9, lr, lsl #10
    2168:	05040500 	streq	r0, [r4, #-1280]	; 0xfffffb00
    216c:	0e000004 	cdpeq	0, 0, cr0, cr0, cr4, {0}
    2170:	000009ea 	andeq	r0, r0, sl, ror #19
    2174:	00162013 	andseq	r2, r6, r3, lsl r0
    2178:	01fd0100 	mvnseq	r0, r0, lsl #2
    217c:	0009e526 	andeq	lr, r9, r6, lsr #10
    2180:	b8030500 	stmdalt	r3, {r8, sl}
    2184:	1000000f 	andne	r0, r0, pc
    2188:	00000a23 	andeq	r0, r0, r3, lsr #20
    218c:	00000a18 	andeq	r0, r0, r8, lsl sl
    2190:	0007a111 	andeq	sl, r7, r1, lsl r1
    2194:	0e000500 	cfsh32eq	mvfx0, mvfx0, #0
    2198:	00000a08 	andeq	r0, r0, r8, lsl #20
    219c:	04b00405 	ldrteq	r0, [r0], #1029	; 0x405
    21a0:	1d0e0000 	stcne	0, cr0, [lr, #-0]
    21a4:	1300000a 	movwne	r0, #10
    21a8:	00001a54 	andeq	r1, r0, r4, asr sl
    21ac:	24020a01 	strcs	r0, [r2], #-2561	; 0xfffff5ff
    21b0:	00000a18 	andeq	r0, r0, r8, lsl sl
    21b4:	0fd00305 	svceq	0x00d00305
    21b8:	67100000 	ldrvs	r0, [r0, -r0]
    21bc:	4b000000 	blmi	21c4 <UART_InterruptFIFOLevelSelect+0xd84>
    21c0:	1100000a 	tstne	r0, sl
    21c4:	000007a1 	andeq	r0, r0, r1, lsr #15
    21c8:	3b040005 	blcc	1021e4 <UART_InterruptFIFOLevelSelect+0x100da4>
    21cc:	1400000a 	strne	r0, [r0], #-10
    21d0:	000019bc 			; <UNDEFINED> instruction: 0x000019bc
    21d4:	18021401 	stmdane	r2, {r0, sl, ip}
    21d8:	00000a4b 	andeq	r0, r0, fp, asr #20
    21dc:	00030501 	andeq	r0, r3, r1, lsl #10
    21e0:	15000000 	strne	r0, [r0, #-0]
    21e4:	0038dc01 	eorseq	sp, r8, r1, lsl #24
    21e8:	037e0100 	cmneq	lr, #0, 2
    21ec:	00000106 	andeq	r0, r0, r6, lsl #2
    21f0:	00000000 	andeq	r0, r0, r0
    21f4:	06f00000 	ldrbteq	r0, [r0], r0
    21f8:	a1010000 	mrsge	r0, (UNDEF: 1)
    21fc:	1600000a 	strne	r0, [r0], -sl
    2200:	0000141e 	andeq	r1, r0, lr, lsl r4
    2204:	36037e01 	strcc	r7, [r3], -r1, lsl #28
    2208:	00000539 	andeq	r0, r0, r9, lsr r5
    220c:	16779102 	ldrbtne	r9, [r7], -r2, lsl #2
    2210:	00000881 	andeq	r0, r0, r1, lsl #17
    2214:	55037e01 	strpl	r7, [r3, #-3585]	; 0xfffff1ff
    2218:	00000088 	andeq	r0, r0, r8, lsl #1
    221c:	00709102 	rsbseq	r9, r0, r2, lsl #2
    2220:	13300117 	teqne	r0, #-1073741819	; 0xc0000005
    2224:	6e010000 	cdpvs	0, 0, cr0, cr1, cr0, {0}
    2228:	00010603 	andeq	r0, r1, r3, lsl #12
    222c:	00000000 	andeq	r0, r0, r0
    2230:	4c000000 	stcmi	0, cr0, [r0], {-0}
    2234:	01000007 	tsteq	r0, r7
    2238:	00000ace 	andeq	r0, r0, lr, asr #21
    223c:	0013b516 	andseq	fp, r3, r6, lsl r5
    2240:	036e0100 	cmneq	lr, #0, 2
    2244:	0007ae36 	andeq	sl, r7, r6, lsr lr
    2248:	74910200 	ldrvc	r0, [r1], #512	; 0x200
    224c:	f4011700 	vst1.8	{d1}, [r1], r0
    2250:	01000013 	tsteq	r0, r3, lsl r0
    2254:	01060346 	tsteq	r6, r6, asr #6
	...
    2260:	0000079c 	muleq	r0, ip, r7
    2264:	000afb01 	andeq	pc, sl, r1, lsl #22
    2268:	12dc1600 	sbcsne	r1, ip, #0, 12
    226c:	46010000 	strmi	r0, [r1], -r0
    2270:	07a83803 	streq	r3, [r8, r3, lsl #16]!
    2274:	91020000 	mrsls	r0, (UNDEF: 2)
    2278:	01150074 	tsteq	r5, r4, ror r0
    227c:	0000160a 	andeq	r1, r0, sl, lsl #12
    2280:	06033401 	streq	r3, [r3], -r1, lsl #8
    2284:	00000001 	andeq	r0, r0, r1
    2288:	00000000 	andeq	r0, r0, r0
    228c:	0007ec00 	andeq	lr, r7, r0, lsl #24
    2290:	0b480100 	bleq	1202698 <UART_InterruptFIFOLevelSelect+0x1201258>
    2294:	aa160000 	bge	58229c <UART_InterruptFIFOLevelSelect+0x580e5c>
    2298:	01000039 	tsteq	r0, r9, lsr r0
    229c:	f4370334 			; <UNDEFINED> instruction: 0xf4370334
    22a0:	02000004 	andeq	r0, r0, #4
    22a4:	1e167791 	mrcne	7, 0, r7, cr6, cr1, {4}
    22a8:	01000014 	tsteq	r0, r4, lsl r0
    22ac:	395a0334 	ldmdbcc	sl, {r2, r4, r5, r8, r9}^
    22b0:	02000005 	andeq	r0, r0, #5
    22b4:	94167691 	ldrls	r7, [r6], #-1681	; 0xfffff96f
    22b8:	01000017 	tsteq	r0, r7, lsl r0
    22bc:	937f0334 	cmnls	pc, #52, 6	; 0xd0000000
    22c0:	02000005 	andeq	r0, r0, #5
    22c4:	18007591 	stmdane	r0, {r0, r4, r7, r8, sl, ip, sp, lr}
    22c8:	00199b01 	andseq	r9, r9, r1, lsl #22
    22cc:	032e0100 			; <UNDEFINED> instruction: 0x032e0100
    22d0:	004f0107 	subeq	r0, pc, r7, lsl #2
	...
    22dc:	08480000 	stmdaeq	r8, {}^	; <UNPREDICTABLE>
    22e0:	89010000 	stmdbhi	r1, {}	; <UNPREDICTABLE>
    22e4:	1600000b 	strne	r0, [r0], -fp
    22e8:	000039aa 	andeq	r3, r0, sl, lsr #19
    22ec:	37032e01 	strcc	r2, [r3, -r1, lsl #28]
    22f0:	000004f4 	strdeq	r0, [r0], -r4
    22f4:	16779102 	ldrbtne	r9, [r7], -r2, lsl #2
    22f8:	0000141e 	andeq	r1, r0, lr, lsl r4
    22fc:	5a032e01 	bpl	cdb08 <UART_InterruptFIFOLevelSelect+0xcc6c8>
    2300:	00000539 	andeq	r0, r0, r9, lsr r5
    2304:	00769102 	rsbseq	r9, r6, r2, lsl #2
    2308:	13190115 	tstne	r9, #1073741829	; 0x40000005
    230c:	27010000 	strcs	r0, [r1, -r0]
    2310:	00010603 	andeq	r0, r1, r3, lsl #12
    2314:	00000000 	andeq	r0, r0, r0
    2318:	a4000000 	strge	r0, [r0], #-0
    231c:	01000008 	tsteq	r0, r8
    2320:	00000bc6 	andeq	r0, r0, r6, asr #23
    2324:	0039aa16 	eorseq	sl, r9, r6, lsl sl
    2328:	03270100 			; <UNDEFINED> instruction: 0x03270100
    232c:	0004f438 	andeq	pc, r4, r8, lsr r4	; <UNPREDICTABLE>
    2330:	77910200 	ldrvc	r0, [r1, r0, lsl #4]
    2334:	00141e16 	andseq	r1, r4, r6, lsl lr
    2338:	03270100 			; <UNDEFINED> instruction: 0x03270100
    233c:	0005395b 	andeq	r3, r5, fp, asr r9
    2340:	76910200 	ldrvc	r0, [r1], r0, lsl #4
    2344:	ab011700 	blge	47f4c <UART_InterruptFIFOLevelSelect+0x46b0c>
    2348:	01000018 	tsteq	r0, r8, lsl r0
    234c:	01060314 	tsteq	r6, r4, lsl r3
    2350:	000007c0 	andeq	r0, r0, r0, asr #15
    2354:	00000824 	andeq	r0, r0, r4, lsr #16
    2358:	00000900 	andeq	r0, r0, r0, lsl #18
    235c:	000bf301 	andeq	pc, fp, r1, lsl #6
    2360:	18dc1600 	ldmne	ip, {r9, sl, ip}^
    2364:	14010000 	strne	r0, [r1], #-0
    2368:	0bf33203 	bleq	ffcceb7c <_E_BSS+0xdfcccd88>
    236c:	91020000 	mrsls	r0, (UNDEF: 2)
    2370:	04050074 	streq	r0, [r5], #-116	; 0xffffff8c
    2374:	00000795 	muleq	r0, r5, r7
    2378:	18040115 	stmdane	r4, {r0, r2, r4, r8}
    237c:	0e010000 	cdpeq	0, 0, cr0, cr1, cr0, {0}
    2380:	74010603 	strvc	r0, [r1], #-1539	; 0xfffff9fd
    2384:	c0000007 	andgt	r0, r0, r7
    2388:	50000007 	andpl	r0, r0, r7
    238c:	01000009 	tsteq	r0, r9
    2390:	00000c36 	andeq	r0, r0, r6, lsr ip
    2394:	00141e16 	andseq	r1, r4, r6, lsl lr
    2398:	030e0100 	movweq	r0, #57600	; 0xe100
    239c:	00053931 	andeq	r3, r5, r1, lsr r9
    23a0:	77910200 	ldrvc	r0, [r1, r0, lsl #4]
    23a4:	00157a16 	andseq	r7, r5, r6, lsl sl
    23a8:	030e0100 	movweq	r0, #57600	; 0xe100
    23ac:	0004f45d 	andeq	pc, r4, sp, asr r4	; <UNPREDICTABLE>
    23b0:	76910200 	ldrvc	r0, [r1], r0, lsl #4
    23b4:	ce011500 	cfsh32gt	mvfx1, mvfx1, #0
    23b8:	0100001a 	tsteq	r0, sl, lsl r0
    23bc:	010602fa 	strdeq	r0, [r6, -sl]
    23c0:	000006e4 	andeq	r0, r0, r4, ror #13
    23c4:	00000774 	andeq	r0, r0, r4, ror r7
    23c8:	000009ac 	andeq	r0, r0, ip, lsr #19
    23cc:	000c8301 	andeq	r8, ip, r1, lsl #6
    23d0:	141e1600 	ldrne	r1, [lr], #-1536	; 0xfffffa00
    23d4:	fa010000 	blx	423dc <UART_InterruptFIFOLevelSelect+0x40f9c>
    23d8:	05393202 	ldreq	r3, [r9, #-514]!	; 0xfffffdfe
    23dc:	91020000 	mrsls	r0, (UNDEF: 2)
    23e0:	157a1677 	ldrbne	r1, [sl, #-1655]!	; 0xfffff989
    23e4:	fa010000 	blx	423ec <UART_InterruptFIFOLevelSelect+0x40fac>
    23e8:	04f45e02 	ldrbteq	r5, [r4], #3586	; 0xe02
    23ec:	91020000 	mrsls	r0, (UNDEF: 2)
    23f0:	14731676 	ldrbtne	r1, [r3], #-1654	; 0xfffff98a
    23f4:	fa010000 	blx	423fc <UART_InterruptFIFOLevelSelect+0x40fbc>
    23f8:	056c8302 	strbeq	r8, [ip, #-770]!	; 0xfffffcfe
    23fc:	91020000 	mrsls	r0, (UNDEF: 2)
    2400:	01170075 	tsteq	r7, r5, ror r0
    2404:	0000147c 	andeq	r1, r0, ip, ror r4
    2408:	0602ec01 	streq	lr, [r2], -r1, lsl #24
    240c:	00068801 	andeq	r8, r6, r1, lsl #16
    2410:	0006e200 	andeq	lr, r6, r0, lsl #4
    2414:	000a0800 	andeq	r0, sl, r0, lsl #16
    2418:	0cb00100 	ldfeqs	f0, [r0]
    241c:	dc160000 	ldcle	0, cr0, [r6], {-0}
    2420:	01000018 	tsteq	r0, r8, lsl r0
    2424:	f33302ec 	vhsub.u<illegal width 64>	q0, <illegal reg q9.5>, q14
    2428:	0200000b 	andeq	r0, r0, #11
    242c:	15007491 	strne	r7, [r0, #-1169]	; 0xfffffb6f
    2430:	0017d501 	andseq	sp, r7, r1, lsl #10
    2434:	02d80100 	sbcseq	r0, r8, #0, 2
    2438:	00000106 	andeq	r0, r0, r6, lsl #2
    243c:	00000000 	andeq	r0, r0, r0
    2440:	0a580000 	beq	1602448 <UART_InterruptFIFOLevelSelect+0x1601008>
    2444:	fd010000 	stc2	0, cr0, [r1, #-0]
    2448:	1600000c 	strne	r0, [r0], -ip
    244c:	0000141e 	andeq	r1, r0, lr, lsl r4
    2450:	3902d801 	stmdbcc	r2, {r0, fp, ip, lr, pc}
    2454:	00000539 	andeq	r0, r0, r9, lsr r5
    2458:	16779102 	ldrbtne	r9, [r7], -r2, lsl #2
    245c:	0000157a 	andeq	r1, r0, sl, ror r5
    2460:	6502d801 	strvs	sp, [r2, #-2049]	; 0xfffff7ff
    2464:	000004f4 	strdeq	r0, [r0], -r4
    2468:	16769102 	ldrbtne	r9, [r6], -r2, lsl #2
    246c:	000019f9 	strdeq	r1, [r0], -r9
    2470:	9302d801 	movwls	sp, #10241	; 0x2801
    2474:	000006d1 	ldrdeq	r0, [r0], -r1
    2478:	00759102 	rsbseq	r9, r5, r2, lsl #2
    247c:	12a10115 	adcne	r0, r1, #1073741829	; 0x40000005
    2480:	d2010000 	andle	r0, r1, #0
    2484:	00010602 	andeq	r0, r1, r2, lsl #12
    2488:	00000000 	andeq	r0, r0, r0
    248c:	b4000000 	strlt	r0, [r0], #-0
    2490:	0100000a 	tsteq	r0, sl
    2494:	00000d3a 	andeq	r0, r0, sl, lsr sp
    2498:	00141e16 	andseq	r1, r4, r6, lsl lr
    249c:	02d20100 	sbcseq	r0, r2, #0, 2
    24a0:	00053935 	andeq	r3, r5, r5, lsr r9
    24a4:	77910200 	ldrvc	r0, [r1, r0, lsl #4]
    24a8:	00157a16 	andseq	r7, r5, r6, lsl sl
    24ac:	02d20100 	sbcseq	r0, r2, #0, 2
    24b0:	0004f461 	andeq	pc, r4, r1, ror #8
    24b4:	76910200 	ldrvc	r0, [r1], r0, lsl #4
    24b8:	c7011500 	strgt	r1, [r1, -r0, lsl #10]
    24bc:	01000012 	tsteq	r0, r2, lsl r0
    24c0:	010602c1 	smlabteq	r6, r1, r2, r0
    24c4:	00000608 	andeq	r0, r0, r8, lsl #12
    24c8:	00000688 	andeq	r0, r0, r8, lsl #13
    24cc:	00000b10 	andeq	r0, r0, r0, lsl fp
    24d0:	000d8701 	andeq	r8, sp, r1, lsl #14
    24d4:	141e1600 	ldrne	r1, [lr], #-1536	; 0xfffffa00
    24d8:	c1010000 	mrsgt	r0, (UNDEF: 1)
    24dc:	05393202 	ldreq	r3, [r9, #-514]!	; 0xfffffdfe
    24e0:	91020000 	mrsls	r0, (UNDEF: 2)
    24e4:	157a1677 	ldrbne	r1, [sl, #-1655]!	; 0xfffff989
    24e8:	c1010000 	mrsgt	r0, (UNDEF: 1)
    24ec:	04f45e02 	ldrbteq	r5, [r4], #3586	; 0xe02
    24f0:	91020000 	mrsls	r0, (UNDEF: 2)
    24f4:	17461676 	smlsldxne	r1, r6, r6, r6
    24f8:	c1010000 	mrsgt	r0, (UNDEF: 1)
    24fc:	06aa8302 	strteq	r8, [sl], r2, lsl #6
    2500:	91020000 	mrsls	r0, (UNDEF: 2)
    2504:	01150075 	tsteq	r5, r5, ror r0
    2508:	00001371 	andeq	r1, r0, r1, ror r3
    250c:	0602b001 	streq	fp, [r2], -r1
    2510:	00057801 	andeq	r7, r5, r1, lsl #16
    2514:	00060800 	andeq	r0, r6, r0, lsl #16
    2518:	000b6c00 	andeq	r6, fp, r0, lsl #24
    251c:	0dd40100 	ldfeqe	f0, [r4]
    2520:	1e160000 	cdpne	0, 1, cr0, cr6, cr0, {0}
    2524:	01000014 	tsteq	r0, r4, lsl r0
    2528:	393902b0 	ldmdbcc	r9!, {r4, r5, r7, r9}
    252c:	02000005 	andeq	r0, r0, #5
    2530:	7a167791 	bvc	5a037c <UART_InterruptFIFOLevelSelect+0x59ef3c>
    2534:	01000015 	tsteq	r0, r5, lsl r0
    2538:	f46502b0 	vld1.32	{d16-d19}, [r5 :256], r0
    253c:	02000004 	andeq	r0, r0, #4
    2540:	c2167691 	andsgt	r7, r6, #152043520	; 0x9100000
    2544:	01000018 	tsteq	r0, r8, lsl r0
    2548:	838d02b0 	orrhi	r0, sp, #176, 4
    254c:	02000006 	andeq	r0, r0, #6
    2550:	15007591 	strne	r7, [r0, #-1425]	; 0xfffffa6f
    2554:	001a7801 	andseq	r7, sl, r1, lsl #16
    2558:	02980100 	addseq	r0, r8, #0, 2
    255c:	00000106 	andeq	r0, r0, r6, lsl #2
    2560:	00000000 	andeq	r0, r0, r0
    2564:	0bc80000 	bleq	ff20256c <_E_BSS+0xdf200778>
    2568:	21010000 	mrscs	r0, (UNDEF: 1)
    256c:	1600000e 	strne	r0, [r0], -lr
    2570:	0000141e 	andeq	r1, r0, lr, lsl r4
    2574:	37029801 	strcc	r9, [r2, -r1, lsl #16]
    2578:	00000539 	andeq	r0, r0, r9, lsr r5
    257c:	16779102 	ldrbtne	r9, [r7], -r2, lsl #2
    2580:	0000157a 	andeq	r1, r0, sl, ror r5
    2584:	63029801 	movwvs	r9, #10241	; 0x2801
    2588:	000004f4 	strdeq	r0, [r0], -r4
    258c:	16769102 	ldrbtne	r9, [r6], -r2, lsl #2
    2590:	0000168e 	andeq	r1, r0, lr, lsl #13
    2594:	91029801 	tstls	r2, r1, lsl #16
    2598:	0000065c 	andeq	r0, r0, ip, asr r6
    259c:	00759102 	rsbseq	r9, r5, r2, lsl #2
    25a0:	14f30115 	ldrbtne	r0, [r3], #277	; 0x115
    25a4:	89010000 	stmdbhi	r1, {}	; <UNPREDICTABLE>
    25a8:	00010602 	andeq	r0, r1, r2, lsl #12
    25ac:	00000000 	andeq	r0, r0, r0
    25b0:	24000000 	strcs	r0, [r0], #-0
    25b4:	0100000c 	tsteq	r0, ip
    25b8:	00000e6e 	andeq	r0, r0, lr, ror #28
    25bc:	00141e16 	andseq	r1, r4, r6, lsl lr
    25c0:	02890100 	addeq	r0, r9, #0, 2
    25c4:	0005393c 	andeq	r3, r5, ip, lsr r9
    25c8:	77910200 	ldrvc	r0, [r1, r0, lsl #4]
    25cc:	00157a16 	andseq	r7, r5, r6, lsl sl
    25d0:	02890100 	addeq	r0, r9, #0, 2
    25d4:	0004f468 	andeq	pc, r4, r8, ror #8
    25d8:	76910200 	ldrvc	r0, [r1], r0, lsl #4
    25dc:	001a0b16 	andseq	r0, sl, r6, lsl fp
    25e0:	02890100 	addeq	r0, r9, #0, 2
    25e4:	0005e18e 	andeq	lr, r5, lr, lsl #3
    25e8:	75910200 	ldrvc	r0, [r1, #512]	; 0x200
    25ec:	ce011500 	cfsh32gt	mvfx1, mvfx1, #0
    25f0:	01000016 	tsteq	r0, r6, lsl r0
    25f4:	01060279 	tsteq	r6, r9, ror r2
	...
    2600:	00000c80 	andeq	r0, r0, r0, lsl #25
    2604:	000ebb01 	andeq	fp, lr, r1, lsl #22
    2608:	141e1600 	ldrne	r1, [lr], #-1536	; 0xfffffa00
    260c:	79010000 	stmdbvc	r1, {}	; <UNPREDICTABLE>
    2610:	05394302 	ldreq	r4, [r9, #-770]!	; 0xfffffcfe
    2614:	91020000 	mrsls	r0, (UNDEF: 2)
    2618:	157a1677 	ldrbne	r1, [sl, #-1655]!	; 0xfffff989
    261c:	79010000 	stmdbvc	r1, {}	; <UNPREDICTABLE>
    2620:	04f46f02 	ldrbteq	r6, [r4], #3842	; 0xf02
    2624:	91020000 	mrsls	r0, (UNDEF: 2)
    2628:	12871676 	addne	r1, r7, #123731968	; 0x7600000
    262c:	79010000 	stmdbvc	r1, {}	; <UNPREDICTABLE>
    2630:	05ba9602 	ldreq	r9, [sl, #1538]!	; 0x602
    2634:	91020000 	mrsls	r0, (UNDEF: 2)
    2638:	01150075 	tsteq	r5, r5, ror r0
    263c:	000013a1 	andeq	r1, r0, r1, lsr #7
    2640:	06026e01 	streq	r6, [r2], -r1, lsl #28
    2644:	00000001 	andeq	r0, r0, r1
    2648:	00000000 	andeq	r0, r0, r0
    264c:	000cdc00 	andeq	sp, ip, r0, lsl #24
    2650:	0ef80100 	cdpeq	1, 15, cr0, cr8, cr0, {0}
    2654:	1e160000 	cdpne	0, 1, cr0, cr6, cr0, {0}
    2658:	01000014 	tsteq	r0, r4, lsl r0
    265c:	3931026e 	ldmdbcc	r1!, {r1, r2, r3, r5, r6, r9}
    2660:	02000005 	andeq	r0, r0, #5
    2664:	7a167791 	bvc	5a04b0 <UART_InterruptFIFOLevelSelect+0x59f070>
    2668:	01000015 	tsteq	r0, r5, lsl r0
    266c:	f45d026e 			; <UNDEFINED> instruction: 0xf45d026e
    2670:	02000004 	andeq	r0, r0, #4
    2674:	15007691 	strne	r7, [r0, #-1681]	; 0xfffff96f
    2678:	0013e701 	andseq	lr, r3, r1, lsl #14
    267c:	02580100 	subseq	r0, r8, #0, 2
    2680:	04e80106 	strbteq	r0, [r8], #262	; 0x106
    2684:	05780000 	ldrbeq	r0, [r8, #-0]!
    2688:	0d380000 	ldceq	0, cr0, [r8, #-0]
    268c:	45010000 	strmi	r0, [r1, #-0]
    2690:	1600000f 	strne	r0, [r0], -pc
    2694:	0000141e 	andeq	r1, r0, lr, lsl r4
    2698:	2a025801 	bcs	986a4 <UART_InterruptFIFOLevelSelect+0x97264>
    269c:	00000539 	andeq	r0, r0, r9, lsr r5
    26a0:	16779102 	ldrbtne	r9, [r7], -r2, lsl #2
    26a4:	0000157a 	andeq	r1, r0, sl, ror r5
    26a8:	57025801 	strpl	r5, [r2, -r1, lsl #16]
    26ac:	000004f4 	strdeq	r0, [r0], -r4
    26b0:	16769102 	ldrbtne	r9, [r6], -r2, lsl #2
    26b4:	00001794 	muleq	r0, r4, r7
    26b8:	7f025801 	svcvc	0x00025801
    26bc:	00000593 	muleq	r0, r3, r5
    26c0:	00759102 	rsbseq	r9, r5, r2, lsl #2
    26c4:	19e70115 	stmibne	r7!, {r0, r2, r4, r8}^
    26c8:	42010000 	andmi	r0, r1, #0
    26cc:	58010602 	stmdapl	r1, {r1, r9, sl}
    26d0:	e8000004 	stmda	r0, {r2}
    26d4:	94000004 	strls	r0, [r0], #-4
    26d8:	0100000d 	tsteq	r0, sp
    26dc:	00000f92 	muleq	r0, r2, pc	; <UNPREDICTABLE>
    26e0:	00141e16 	andseq	r1, r4, r6, lsl lr
    26e4:	02420100 	subeq	r0, r2, #0, 2
    26e8:	0005392f 	andeq	r3, r5, pc, lsr #18
    26ec:	77910200 	ldrvc	r0, [r1, r0, lsl #4]
    26f0:	00157a16 	andseq	r7, r5, r6, lsl sl
    26f4:	02420100 	subeq	r0, r2, #0, 2
    26f8:	0004f45b 	andeq	pc, r4, fp, asr r4	; <UNPREDICTABLE>
    26fc:	76910200 	ldrvc	r0, [r1], r0, lsl #4
    2700:	00147316 	andseq	r7, r4, r6, lsl r3
    2704:	02420100 	subeq	r0, r2, #0, 2
    2708:	00056c80 	andeq	r6, r5, r0, lsl #25
    270c:	75910200 	ldrvc	r0, [r1, #512]	; 0x200
    2710:	16f41900 	ldrbtne	r1, [r4], r0, lsl #18
    2714:	20010000 	andcs	r0, r1, r0
    2718:	f8011402 			; <UNDEFINED> instruction: 0xf8011402
    271c:	58000003 	stmdapl	r0, {r0, r1}
    2720:	f0000004 			; <UNDEFINED> instruction: 0xf0000004
    2724:	0100000d 	tsteq	r0, sp
    2728:	00000fbe 			; <UNDEFINED> instruction: 0x00000fbe
    272c:	00141e16 	andseq	r1, r4, r6, lsl lr
    2730:	02200100 	eoreq	r0, r0, #0, 2
    2734:	0005394e 	andeq	r3, r5, lr, asr #18
    2738:	77910200 	ldrvc	r0, [r1, r0, lsl #4]
    273c:	63011a00 	movwvs	r1, #6656	; 0x1a00
    2740:	01000014 	tsteq	r0, r4, lsl r0
    2744:	07b401fd 			; <UNDEFINED> instruction: 0x07b401fd
	...
    2750:	0e4c0000 	cdpeq	0, 4, cr0, cr12, cr0, {0}
    2754:	1a010000 	bne	4275c <UART_InterruptFIFOLevelSelect+0x4131c>
    2758:	00191f01 	andseq	r1, r9, r1, lsl #30
    275c:	01dc0100 	bicseq	r0, ip, r0, lsl #2
    2760:	000007b4 			; <UNDEFINED> instruction: 0x000007b4
	...
    276c:	00000e78 	andeq	r0, r0, r8, ror lr
    2770:	91011a01 	tstls	r1, r1, lsl #20
    2774:	01000012 	tsteq	r0, r2, lsl r0
    2778:	07b401bd 			; <UNDEFINED> instruction: 0x07b401bd
	...
    2784:	0ea40000 	cdpeq	0, 10, cr0, cr4, cr0, {0}
    2788:	1a010000 	bne	42790 <UART_InterruptFIFOLevelSelect+0x41350>
    278c:	00174f01 	andseq	r4, r7, r1, lsl #30
    2790:	019e0100 	orrseq	r0, lr, r0, lsl #2
    2794:	000007b4 			; <UNDEFINED> instruction: 0x000007b4
	...
    27a0:	00000ed0 	ldrdeq	r0, [r0], -r0	; <UNPREDICTABLE>
    27a4:	ca011a01 	bgt	48fb0 <UART_InterruptFIFOLevelSelect+0x47b70>
    27a8:	01000013 	tsteq	r0, r3, lsl r0
    27ac:	07b4027d 			; <UNDEFINED> instruction: 0x07b4027d
	...
    27b8:	0efc0000 	cdpeq	0, 15, cr0, cr12, cr0, {0}
    27bc:	1a010000 	bne	427c4 <UART_InterruptFIFOLevelSelect+0x41384>
    27c0:	00152c01 	andseq	r2, r5, r1, lsl #24
    27c4:	025d0100 	subseq	r0, sp, #0, 2
    27c8:	000007b4 			; <UNDEFINED> instruction: 0x000007b4
	...
    27d4:	00000f28 	andeq	r0, r0, r8, lsr #30
    27d8:	043d0001 	ldrteq	r0, [sp], #-1
    27dc:	00020000 	andeq	r0, r2, r0
    27e0:	000004a4 	andeq	r0, r0, r4, lsr #9
    27e4:	01ac0104 			; <UNDEFINED> instruction: 0x01ac0104
    27e8:	0b0c0000 	bleq	3027f0 <UART_InterruptFIFOLevelSelect+0x3013b0>
    27ec:	2e00001c 	mcrcs	0, 0, r0, cr0, cr12, {0}
    27f0:	000a9900 	andeq	r9, sl, r0, lsl #18
    27f4:	08530200 	ldmdaeq	r3, {r9}^
    27f8:	06010000 	streq	r0, [r1], -r0
    27fc:	0000271d 	andeq	r2, r0, sp, lsl r7
    2800:	08010300 	stmdaeq	r1, {r8, r9}
    2804:	00000d14 	andeq	r0, r0, r4, lsl sp
    2808:	16060103 	strne	r0, [r6], -r3, lsl #2
    280c:	0300000d 	movweq	r0, #13
    2810:	0ee40702 	cdpeq	7, 14, cr0, cr4, cr2, {0}
    2814:	02030000 	andeq	r0, r3, #0
    2818:	000a6305 	andeq	r6, sl, r5, lsl #6
    281c:	07040300 	streq	r0, [r4, -r0, lsl #6]
    2820:	00000527 	andeq	r0, r0, r7, lsr #10
    2824:	08050403 	stmdaeq	r5, {r0, r1, sl}
    2828:	03000008 	movweq	r0, #8
    282c:	050a0404 	streq	r0, [sl, #-1028]	; 0xfffffbfc
    2830:	08030000 	stmdaeq	r3, {}	; <UNPREDICTABLE>
    2834:	0009b104 	andeq	fp, r9, r4, lsl #2
    2838:	07080300 	streq	r0, [r8, -r0, lsl #6]
    283c:	00000522 	andeq	r0, r0, r2, lsr #10
    2840:	27010704 	strcs	r0, [r1, -r4, lsl #14]
    2844:	02000000 	andeq	r0, r0, #0
    2848:	00a50e2a 	adceq	r0, r5, sl, lsr #28
    284c:	79050000 	stmdbvc	r5, {}	; <UNPREDICTABLE>
    2850:	0000000d 	andeq	r0, r0, sp
    2854:	000d8605 	andeq	r8, sp, r5, lsl #12
    2858:	93050100 	movwls	r0, #20736	; 0x5100
    285c:	0200000d 	andeq	r0, r0, #13
    2860:	000da005 	andeq	sl, sp, r5
    2864:	ad050300 	stcge	3, cr0, [r5, #-0]
    2868:	0400000d 	streq	r0, [r0], #-13
    286c:	000dba05 	andeq	fp, sp, r5, lsl #20
    2870:	c7050500 	strgt	r0, [r5, -r0, lsl #10]
    2874:	0600000d 	streq	r0, [r0], -sp
    2878:	000dd405 	andeq	sp, sp, r5, lsl #8
    287c:	02000700 	andeq	r0, r0, #0, 14
    2880:	000014c0 	andeq	r1, r0, r0, asr #9
    2884:	66023502 	strvs	r3, [r2], -r2, lsl #10
    2888:	04000000 	streq	r0, [r0], #-0
    288c:	00270107 	eoreq	r0, r7, r7, lsl #2
    2890:	38020000 	stmdacc	r2, {}	; <UNPREDICTABLE>
    2894:	0000ea0d 	andeq	lr, r0, sp, lsl #20
    2898:	0ce60500 	cfstr64eq	mvdx0, [r6]
    289c:	05000000 	streq	r0, [r0, #-0]
    28a0:	00000ef7 	strdeq	r0, [r0], -r7
    28a4:	0efd0501 	cdpeq	5, 15, cr0, cr13, cr1, {0}
    28a8:	05020000 	streq	r0, [r2, #-0]
    28ac:	000000c8 	andeq	r0, r0, r8, asr #1
    28b0:	00ce0503 	sbceq	r0, lr, r3, lsl #10
    28b4:	05040000 	streq	r0, [r4, #-0]
    28b8:	000000d4 	ldrdeq	r0, [r0], -r4
    28bc:	0df80505 	cfldr64eq	mvdx0, [r8, #20]!
    28c0:	00060000 	andeq	r0, r6, r0
    28c4:	00175f02 	andseq	r5, r7, r2, lsl #30
    28c8:	02410200 	subeq	r0, r1, #0, 4
    28cc:	000000b1 	strheq	r0, [r0], -r1
    28d0:	a1020306 	tstge	r2, r6, lsl #6
    28d4:	00012d09 	andeq	r2, r1, r9, lsl #26
    28d8:	141e0700 	ldrne	r0, [lr], #-1792	; 0xfffff900
    28dc:	a2020000 	andge	r0, r2, #0
    28e0:	0000ea1c 	andeq	lr, r0, ip, lsl sl
    28e4:	00230200 	eoreq	r0, r3, r0, lsl #4
    28e8:	00157a07 	andseq	r7, r5, r7, lsl #20
    28ec:	20a30200 	adccs	r0, r3, r0, lsl #4
    28f0:	000000a5 	andeq	r0, r0, r5, lsr #1
    28f4:	07012302 	streq	r2, [r1, -r2, lsl #6]
    28f8:	000019d4 	ldrdeq	r1, [r0], -r4
    28fc:	1b0aa402 	blne	2ab90c <UART_InterruptFIFOLevelSelect+0x2aa4cc>
    2900:	02000000 	andeq	r0, r0, #0
    2904:	08000223 	stmdaeq	r0, {r0, r1, r5, r9}
    2908:	000000f6 	strdeq	r0, [r0], -r6
    290c:	001a9202 	andseq	r9, sl, r2, lsl #4
    2910:	08a50200 	stmiaeq	r5!, {r9}
    2914:	0000012d 	andeq	r0, r0, sp, lsr #2
    2918:	b0020306 	andlt	r0, r2, r6, lsl #6
    291c:	00017509 	andeq	r7, r1, r9, lsl #10
    2920:	141e0700 	ldrne	r0, [lr], #-1792	; 0xfffff900
    2924:	b1020000 	mrslt	r0, (UNDEF: 2)
    2928:	0000ea1c 	andeq	lr, r0, ip, lsl sl
    292c:	00230200 	eoreq	r0, r3, r0, lsl #4
    2930:	00168107 	andseq	r8, r6, r7, lsl #2
    2934:	20b20200 	adcscs	r0, r2, r0, lsl #4
    2938:	000000a5 	andeq	r0, r0, r5, lsr #1
    293c:	07012302 	streq	r2, [r1, -r2, lsl #6]
    2940:	000018f9 	strdeq	r1, [r0], -r9
    2944:	a520b302 	strge	fp, [r0, #-770]!	; 0xfffffcfe
    2948:	02000000 	andeq	r0, r0, #0
    294c:	08000223 	stmdaeq	r0, {r0, r1, r5, r9}
    2950:	0000013e 	andeq	r0, r0, lr, lsr r1
    2954:	00190602 	andseq	r0, r9, r2, lsl #12
    2958:	08b40200 	ldmeq	r4!, {r9}
    295c:	00000175 	andeq	r0, r0, r5, ror r1
    2960:	b8020206 	stmdalt	r2, {r1, r2, r9}
    2964:	0001ae09 	andeq	sl, r1, r9, lsl #28
    2968:	141e0700 	ldrne	r0, [lr], #-1792	; 0xfffff900
    296c:	ba020000 	blt	82974 <UART_InterruptFIFOLevelSelect+0x81534>
    2970:	0000ea1c 	andeq	lr, r0, ip, lsl sl
    2974:	00230200 	eoreq	r0, r3, r0, lsl #4
    2978:	00157a07 	andseq	r7, r5, r7, lsl #20
    297c:	20bb0200 	adcscs	r0, fp, r0, lsl #4
    2980:	000000a5 	andeq	r0, r0, r5, lsr #1
    2984:	00012302 	andeq	r2, r1, r2, lsl #6
    2988:	00193b02 	andseq	r3, r9, r2, lsl #22
    298c:	03bc0200 			; <UNDEFINED> instruction: 0x03bc0200
    2990:	00000186 	andeq	r0, r0, r6, lsl #3
    2994:	0001dc09 	andeq	sp, r1, r9, lsl #24
    2998:	0001ca00 	andeq	ip, r1, r0, lsl #20
    299c:	01cf0a00 	biceq	r0, pc, r0, lsl #20
    29a0:	000b0000 	andeq	r0, fp, r0
    29a4:	0001ba08 	andeq	fp, r1, r8, lsl #20
    29a8:	07040300 	streq	r0, [r4, -r0, lsl #6]
    29ac:	0000052c 	andeq	r0, r0, ip, lsr #10
    29b0:	0132040b 	teqeq	r2, fp, lsl #8
    29b4:	d6080000 	strle	r0, [r8], -r0
    29b8:	0c000001 	stceq	0, cr0, [r0], {1}
    29bc:	00001c2a 	andeq	r1, r0, sl, lsr #24
    29c0:	ca2abf02 	bgt	ab25d0 <UART_InterruptFIFOLevelSelect+0xab1190>
    29c4:	01000001 	tsteq	r0, r1
    29c8:	020a0901 	andeq	r0, sl, #16384	; 0x4000
    29cc:	01ff0000 	mvnseq	r0, r0
    29d0:	cf0a0000 	svcgt	0x000a0000
    29d4:	07000001 	streq	r0, [r0, -r1]
    29d8:	01ef0800 	mvneq	r0, r0, lsl #16
    29dc:	040b0000 	streq	r0, [fp], #-0
    29e0:	0000017a 	andeq	r0, r0, sl, ror r1
    29e4:	00020408 	andeq	r0, r2, r8, lsl #8
    29e8:	1c5e0c00 	mrrcne	12, 0, r0, lr, cr0
    29ec:	c0020000 	andgt	r0, r2, r0
    29f0:	0001ff29 	andeq	pc, r1, r9, lsr #30
    29f4:	0c010100 	stfeqs	f0, [r1], {-0}
    29f8:	00001cd8 	ldrdeq	r1, [r0], -r8
    29fc:	ae1cc202 	cdpge	2, 1, cr12, cr12, cr2, {0}
    2a00:	01000001 	tsteq	r0, r1
    2a04:	1cac0c01 	stcne	12, cr0, [ip], #4
    2a08:	c3020000 	movwgt	r0, #8192	; 0x2000
    2a0c:	0001ae1c 	andeq	sl, r1, ip, lsl lr
    2a10:	0c010100 	stfeqs	f0, [r1], {-0}
    2a14:	00001c96 	muleq	r0, r6, ip
    2a18:	ae1cc402 	cfmulsge	mvf12, mvf12, mvf2
    2a1c:	01000001 	tsteq	r0, r1
    2a20:	1cc20c01 	stclne	12, cr0, [r2], {1}
    2a24:	c5020000 	strgt	r0, [r2, #-0]
    2a28:	0001ae1c 	andeq	sl, r1, ip, lsl lr
    2a2c:	0c010100 	stfeqs	f0, [r1], {-0}
    2a30:	00001c80 	andeq	r1, r0, r0, lsl #25
    2a34:	ae1cc602 	cfmsub32ge	mvax0, mvfx12, mvfx12, mvfx2
    2a38:	01000001 	tsteq	r0, r1
    2a3c:	1af40d01 	bne	ffd05e48 <_E_BSS+0xdfd04054>
    2a40:	0e030000 	cdpeq	0, 0, cr0, cr3, cr0, {0}
    2a44:	0001321b 	andeq	r3, r1, fp, lsl r2
    2a48:	03050100 	movweq	r0, #20736	; 0x5100
    2a4c:	00000fe8 	andeq	r0, r0, r8, ror #31
    2a50:	001b920d 	andseq	r9, fp, sp, lsl #4
    2a54:	1b140300 	blne	50365c <UART_InterruptFIFOLevelSelect+0x50221c>
    2a58:	00000132 	andeq	r0, r0, r2, lsr r1
    2a5c:	ec030501 	cfstr32	mvfx0, [r3], {1}
    2a60:	0d00000f 	stceq	0, cr0, [r0, #-60]	; 0xffffffc4
    2a64:	00001ae3 	andeq	r1, r0, r3, ror #21
    2a68:	321b1a03 	andscc	r1, fp, #12288	; 0x3000
    2a6c:	01000001 	tsteq	r0, r1
    2a70:	0ff00305 	svceq	0x00f00305
    2a74:	5d0d0000 	stcpl	0, cr0, [sp, #-0]
    2a78:	0300001b 	movweq	r0, #27
    2a7c:	01321b20 	teqeq	r2, r0, lsr #22
    2a80:	05010000 	streq	r0, [r1, #-0]
    2a84:	000ff403 	andeq	pc, pc, r3, lsl #8
    2a88:	1ba30d00 	blne	fe8c5e90 <_E_BSS+0xde8c409c>
    2a8c:	26030000 	strcs	r0, [r3], -r0
    2a90:	0001321b 	andeq	r3, r1, fp, lsl r2
    2a94:	03050100 	movweq	r0, #20736	; 0x5100
    2a98:	00000ff8 	strdeq	r0, [r0], -r8
    2a9c:	001c4d0d 	andseq	r4, ip, sp, lsl #26
    2aa0:	1b2c0300 	blne	b036a8 <UART_InterruptFIFOLevelSelect+0xb02268>
    2aa4:	00000132 	andeq	r0, r0, r2, lsr r1
    2aa8:	fc030501 	stc2	5, cr0, [r3], {1}
    2aac:	0d00000f 	stceq	0, cr0, [r0, #-60]	; 0xffffffc4
    2ab0:	00001b28 	andeq	r1, r0, r8, lsr #22
    2ab4:	321b3203 	andscc	r3, fp, #805306368	; 0x30000000
    2ab8:	01000001 	tsteq	r0, r1
    2abc:	10000305 	andne	r0, r0, r5, lsl #6
    2ac0:	190d0000 	stmdbne	sp, {}	; <UNPREDICTABLE>
    2ac4:	0300001c 	movweq	r0, #28
    2ac8:	01321b38 	teqeq	r2, r8, lsr fp
    2acc:	05010000 	streq	r0, [r1, #-0]
    2ad0:	00100403 	andseq	r0, r0, r3, lsl #8
    2ad4:	1b050d00 	blne	145edc <UART_InterruptFIFOLevelSelect+0x144a9c>
    2ad8:	3e030000 	cdpcc	0, 0, cr0, cr3, cr0, {0}
    2adc:	0001321b 	andeq	r3, r1, fp, lsl r2
    2ae0:	03050100 	movweq	r0, #20736	; 0x5100
    2ae4:	00001008 	andeq	r1, r0, r8
    2ae8:	001bc50d 	andseq	ip, fp, sp, lsl #10
    2aec:	1b440300 	blne	11036f4 <UART_InterruptFIFOLevelSelect+0x11022b4>
    2af0:	00000132 	andeq	r0, r0, r2, lsr r1
    2af4:	0c030501 	cfstr32eq	mvfx0, [r3], {1}
    2af8:	0d000010 	stceq	0, cr0, [r0, #-64]	; 0xffffffc0
    2afc:	00001bd6 	ldrdeq	r1, [r0], -r6
    2b00:	321b4a03 	andscc	r4, fp, #12288	; 0x3000
    2b04:	01000001 	tsteq	r0, r1
    2b08:	10100305 	andsne	r0, r0, r5, lsl #6
    2b0c:	b40d0000 	strlt	r0, [sp], #-0
    2b10:	0300001b 	movweq	r0, #27
    2b14:	01321b50 	teqeq	r2, r0, asr fp
    2b18:	05010000 	streq	r0, [r1, #-0]
    2b1c:	00101403 	andseq	r1, r0, r3, lsl #8
    2b20:	1b390d00 	blne	e45f28 <UART_InterruptFIFOLevelSelect+0xe44ae8>
    2b24:	5a030000 	bpl	c2b2c <UART_InterruptFIFOLevelSelect+0xc16ec>
    2b28:	00017a1a 	andeq	r7, r1, sl, lsl sl
    2b2c:	03050100 	movweq	r0, #20736	; 0x5100
    2b30:	00001018 	andeq	r1, r0, r8, lsl r0
    2b34:	001be70d 	andseq	lr, fp, sp, lsl #14
    2b38:	1a600300 	bne	1803740 <UART_InterruptFIFOLevelSelect+0x1802300>
    2b3c:	0000017a 	andeq	r0, r0, sl, ror r1
    2b40:	1c030501 	cfstr32ne	mvfx0, [r3], {1}
    2b44:	0d000010 	stceq	0, cr0, [r0, #-64]	; 0xffffffc0
    2b48:	00001cee 	andeq	r1, r0, lr, ror #25
    2b4c:	7a1a6703 	bvc	69c760 <UART_InterruptFIFOLevelSelect+0x69b320>
    2b50:	01000001 	tsteq	r0, r1
    2b54:	10200305 	eorne	r0, r0, r5, lsl #6
    2b58:	f90d0000 			; <UNDEFINED> instruction: 0xf90d0000
    2b5c:	0300001b 	movweq	r0, #27
    2b60:	017a1a6e 	cmneq	sl, lr, ror #20
    2b64:	05010000 	streq	r0, [r1, #-0]
    2b68:	00102403 	andseq	r2, r0, r3, lsl #8
    2b6c:	1b6e0d00 	blne	1b85f74 <UART_InterruptFIFOLevelSelect+0x1b84b34>
    2b70:	75030000 	strvc	r0, [r3, #-0]
    2b74:	00017a1a 	andeq	r7, r1, sl, lsl sl
    2b78:	03050100 	movweq	r0, #20736	; 0x5100
    2b7c:	00001028 	andeq	r1, r0, r8, lsr #32
    2b80:	001b4b0d 	andseq	r4, fp, sp, lsl #22
    2b84:	1a7c0300 	bne	1f0378c <UART_InterruptFIFOLevelSelect+0x1f0234c>
    2b88:	0000017a 	andeq	r0, r0, sl, ror r1
    2b8c:	2c030501 	cfstr32cs	mvfx0, [r3], {1}
    2b90:	0d000010 	stceq	0, cr0, [r0, #-64]	; 0xffffffc0
    2b94:	00001b80 	andeq	r1, r0, r0, lsl #23
    2b98:	7a1a8303 	bvc	6a37ac <UART_InterruptFIFOLevelSelect+0x6a236c>
    2b9c:	01000001 	tsteq	r0, r1
    2ba0:	10300305 	eorsne	r0, r0, r5, lsl #6
    2ba4:	160d0000 	strne	r0, [sp], -r0
    2ba8:	0300001b 	movweq	r0, #27
    2bac:	017a1a8a 	cmneq	sl, sl, lsl #21
    2bb0:	05010000 	streq	r0, [r1, #-0]
    2bb4:	00103403 	andseq	r3, r0, r3, lsl #8
    2bb8:	021d0e00 	andseq	r0, sp, #0, 28
    2bbc:	92030000 	andls	r0, r3, #0
    2bc0:	24030515 	strcs	r0, [r3], #-1301	; 0xfffffaeb
    2bc4:	0e200000 	cdpeq	0, 2, cr0, cr0, cr0, {0}
    2bc8:	0000022b 	andeq	r0, r0, fp, lsr #4
    2bcc:	05169703 	ldreq	r9, [r6, #-1795]	; 0xfffff8fd
    2bd0:	00000003 	andeq	r0, r0, r3
    2bd4:	02390e00 	eorseq	r0, r9, #0, 28
    2bd8:	9d030000 	stcls	0, cr0, [r3, #-0]
    2bdc:	28030516 	stmdacs	r3, {r1, r2, r4, r8, sl}
    2be0:	0e200000 	cdpeq	0, 2, cr0, cr0, cr0, {0}
    2be4:	00000255 	andeq	r0, r0, r5, asr r2
    2be8:	0516a303 	ldreq	sl, [r6, #-771]	; 0xfffffcfd
    2bec:	00002c03 	andeq	r2, r0, r3, lsl #24
    2bf0:	02470e20 	subeq	r0, r7, #32, 28	; 0x200
    2bf4:	a8030000 	stmdage	r3, {}	; <UNPREDICTABLE>
    2bf8:	00030516 	andeq	r0, r3, r6, lsl r5
    2bfc:	0e000000 	cdpeq	0, 0, cr0, cr0, cr0, {0}
    2c00:	000001e1 	andeq	r0, r0, r1, ror #3
    2c04:	0523b103 	streq	fp, [r3, #-259]!	; 0xfffffefd
    2c08:	00103803 	andseq	r3, r0, r3, lsl #16
    2c0c:	020f0f00 	andeq	r0, pc, #0, 30
    2c10:	22030000 	andcs	r0, r3, #0
    2c14:	10680305 	rsbne	r0, r8, r5, lsl #6
    2c18:	b7000000 	strlt	r0, [r0, -r0]
    2c1c:	0200000b 	andeq	r0, r0, #11
    2c20:	00056e00 	andeq	r6, r5, r0, lsl #28
    2c24:	ac010400 	cfstrsge	mvf0, [r1], {-0}
    2c28:	0c000001 	stceq	0, cr0, [r0], {1}
    2c2c:	00002283 	andeq	r2, r0, r3, lsl #5
    2c30:	0190002e 	orrseq	r0, r0, lr, lsr #32
	...
    2c3c:	0ae20000 	beq	ff882c44 <_E_BSS+0xdf880e50>
    2c40:	53020000 	movwpl	r0, #8192	; 0x2000
    2c44:	02000008 	andeq	r0, r0, #8
    2c48:	00331d06 	eorseq	r1, r3, r6, lsl #26
    2c4c:	01030000 	mrseq	r0, (UNDEF: 3)
    2c50:	000d1408 	andeq	r1, sp, r8, lsl #8
    2c54:	06010300 	streq	r0, [r1], -r0, lsl #6
    2c58:	00000d16 	andeq	r0, r0, r6, lsl sp
    2c5c:	00233602 	eoreq	r3, r3, r2, lsl #12
    2c60:	1c0a0200 	sfmne	f0, 4, [sl], {-0}
    2c64:	00000052 	andeq	r0, r0, r2, asr r0
    2c68:	00004104 	andeq	r4, r0, r4, lsl #2
    2c6c:	07020300 	streq	r0, [r2, -r0, lsl #6]
    2c70:	00000ee4 	andeq	r0, r0, r4, ror #29
    2c74:	63050203 	movwvs	r0, #20995	; 0x5203
    2c78:	0200000a 	andeq	r0, r0, #10
    2c7c:	00000a5d 	andeq	r0, r0, sp, asr sl
    2c80:	711c0e02 	tstvc	ip, r2, lsl #28
    2c84:	04000000 	streq	r0, [r0], #-0
    2c88:	00000060 	andeq	r0, r0, r0, rrx
    2c8c:	27070403 	strcs	r0, [r7, -r3, lsl #8]
    2c90:	03000005 	movweq	r0, #5
    2c94:	08080504 	stmdaeq	r8, {r2, r8, sl}
    2c98:	04030000 	streq	r0, [r3], #-0
    2c9c:	00050a04 	andeq	r0, r5, r4, lsl #20
    2ca0:	04080300 	streq	r0, [r8], #-768	; 0xfffffd00
    2ca4:	000009b1 			; <UNDEFINED> instruction: 0x000009b1
    2ca8:	0021b702 	eoreq	fp, r1, r2, lsl #14
    2cac:	1d170200 	lfmne	f0, 4, [r7, #-0]
    2cb0:	00000099 	muleq	r0, r9, r0
    2cb4:	22070803 	andcs	r0, r7, #196608	; 0x30000
    2cb8:	05000005 	streq	r0, [r0, #-5]
    2cbc:	05210304 	streq	r0, [r1, #-772]!	; 0xfffffcfc
    2cc0:	00000170 	andeq	r0, r0, r0, ror r1
    2cc4:	0023a506 	eoreq	sl, r3, r6, lsl #10
    2cc8:	0d230300 	stceq	3, cr0, [r3, #-0]
    2ccc:	00000060 	andeq	r0, r0, r0, rrx
    2cd0:	021f0104 	andseq	r0, pc, #4, 2
    2cd4:	cd060023 	stcgt	0, cr0, [r6, #-140]	; 0xffffff74
    2cd8:	03000020 	movweq	r0, #32
    2cdc:	00600d24 	rsbeq	r0, r0, r4, lsr #26
    2ce0:	01040000 	mrseq	r0, (UNDEF: 4)
    2ce4:	0023021e 	eoreq	r0, r3, lr, lsl r2
    2ce8:	001d8706 	andseq	r8, sp, r6, lsl #14
    2cec:	0d250300 	stceq	3, cr0, [r5, #-0]
    2cf0:	00000060 	andeq	r0, r0, r0, rrx
    2cf4:	021d0104 	andseq	r0, sp, #4, 2
    2cf8:	a6060023 	strge	r0, [r6], -r3, lsr #32
    2cfc:	0300001f 	movweq	r0, #31
    2d00:	00600d26 	rsbeq	r0, r0, r6, lsr #26
    2d04:	01040000 	mrseq	r0, (UNDEF: 4)
    2d08:	0023021c 	eoreq	r0, r3, ip, lsl r2
    2d0c:	0023b306 	eoreq	fp, r3, r6, lsl #6
    2d10:	0d270300 	stceq	3, cr0, [r7, #-0]
    2d14:	00000060 	andeq	r0, r0, r0, rrx
    2d18:	021b0104 	andseq	r0, fp, #4, 2
    2d1c:	7e060023 	cdpvc	0, 0, cr0, cr6, cr3, {1}
    2d20:	0300001e 	movweq	r0, #30
    2d24:	00600d28 	rsbeq	r0, r0, r8, lsr #26
    2d28:	01040000 	mrseq	r0, (UNDEF: 4)
    2d2c:	0023021a 	eoreq	r0, r3, sl, lsl r2
    2d30:	00215906 	eoreq	r5, r1, r6, lsl #18
    2d34:	0d290300 	stceq	3, cr0, [r9, #-0]
    2d38:	00000060 	andeq	r0, r0, r0, rrx
    2d3c:	02190104 	andseq	r0, r9, #4, 2
    2d40:	05060023 	streq	r0, [r6, #-35]	; 0xffffffdd
    2d44:	03000023 	movweq	r0, #35	; 0x23
    2d48:	00600d2a 	rsbeq	r0, r0, sl, lsr #26
    2d4c:	01040000 	mrseq	r0, (UNDEF: 4)
    2d50:	00230218 	eoreq	r0, r3, r8, lsl r2
    2d54:	00202406 	eoreq	r2, r0, r6, lsl #8
    2d58:	0d2b0300 	stceq	3, cr0, [fp, #-0]
    2d5c:	00000060 	andeq	r0, r0, r0, rrx
    2d60:	02170104 	andseq	r0, r7, #4, 2
    2d64:	3d060023 	stccc	0, cr0, [r6, #-140]	; 0xffffff74
    2d68:	0300001f 	movweq	r0, #31
    2d6c:	00600d2c 	rsbeq	r0, r0, ip, lsr #26
    2d70:	01040000 	mrseq	r0, (UNDEF: 4)
    2d74:	00230216 	eoreq	r0, r3, r6, lsl r2
    2d78:	00241e06 	eoreq	r1, r4, r6, lsl #28
    2d7c:	0d2d0300 	stceq	3, cr0, [sp, #-0]
    2d80:	00000060 	andeq	r0, r0, r0, rrx
    2d84:	02150104 	andseq	r0, r5, #4, 2
    2d88:	07000023 	streq	r0, [r0, -r3, lsr #32]
    2d8c:	091f0304 	ldmdbeq	pc, {r2, r8, r9}	; <UNPREDICTABLE>
    2d90:	00000192 	muleq	r0, r2, r1
    2d94:	00270908 	eoreq	r0, r7, r8, lsl #18
    2d98:	062f0300 	strteq	r0, [pc], -r0, lsl #6
    2d9c:	000000a0 	andeq	r0, r0, r0, lsr #1
    2da0:	002b2f08 	eoreq	r2, fp, r8, lsl #30
    2da4:	0b310300 	bleq	c439ac <UART_InterruptFIFOLevelSelect+0xc4256c>
    2da8:	00000060 	andeq	r0, r0, r0, rrx
    2dac:	1e4f0200 	cdpne	2, 4, cr0, cr15, cr0, {0}
    2db0:	32030000 	andcc	r0, r3, #0
    2db4:	00017002 	andeq	r7, r1, r2
    2db8:	01920400 	orrseq	r0, r2, r0, lsl #8
    2dbc:	04050000 	streq	r0, [r5], #-0
    2dc0:	bf053703 	svclt	0x00053703
    2dc4:	06000001 	streq	r0, [r0], -r1
    2dc8:	00002d58 	andeq	r2, r0, r8, asr sp
    2dcc:	600f3903 	andvs	r3, pc, r3, lsl #18
    2dd0:	04000000 	streq	r0, [r0], #-0
    2dd4:	23021d03 	movwcs	r1, #11523	; 0x2d03
    2dd8:	04070000 	streq	r0, [r7], #-0
    2ddc:	e1093503 	tst	r9, r3, lsl #10
    2de0:	08000001 	stmdaeq	r0, {r0}
    2de4:	00002709 	andeq	r2, r0, r9, lsl #14
    2de8:	a3063c03 	movwge	r3, #27651	; 0x6c03
    2dec:	08000001 	stmdaeq	r0, {r0}
    2df0:	00002b2f 	andeq	r2, r0, pc, lsr #22
    2df4:	600b3e03 	andvs	r3, fp, r3, lsl #28
    2df8:	00000000 	andeq	r0, r0, r0
    2dfc:	00212b02 	eoreq	r2, r1, r2, lsl #22
    2e00:	023f0300 	eorseq	r0, pc, #0, 6
    2e04:	000001bf 			; <UNDEFINED> instruction: 0x000001bf
    2e08:	0001e104 	andeq	lr, r1, r4, lsl #2
    2e0c:	03040500 	movweq	r0, #17664	; 0x4500
    2e10:	02c20544 	sbceq	r0, r2, #68, 10	; 0x11000000
    2e14:	4f060000 	svcmi	0x00060000
    2e18:	03000021 	movweq	r0, #33	; 0x21
    2e1c:	00600f46 	rsbeq	r0, r0, r6, asr #30
    2e20:	02040000 	andeq	r0, r4, #0
    2e24:	0023021e 	eoreq	r0, r3, lr, lsl r2
    2e28:	00236706 	eoreq	r6, r3, r6, lsl #14
    2e2c:	0f470300 	svceq	0x00470300
    2e30:	00000060 	andeq	r0, r0, r0, rrx
    2e34:	021d0104 	andseq	r0, sp, #4, 2
    2e38:	8a060023 	bhi	182ecc <UART_InterruptFIFOLevelSelect+0x181a8c>
    2e3c:	03000022 	movweq	r0, #34	; 0x22
    2e40:	00600f48 	rsbeq	r0, r0, r8, asr #30
    2e44:	01040000 	mrseq	r0, (UNDEF: 4)
    2e48:	0023021c 	eoreq	r0, r3, ip, lsl r2
    2e4c:	0021a306 	eoreq	sl, r1, r6, lsl #6
    2e50:	0f490300 	svceq	0x00490300
    2e54:	00000060 	andeq	r0, r0, r0, rrx
    2e58:	021b0104 	andseq	r0, fp, #4, 2
    2e5c:	11060023 	tstne	r6, r3, lsr #32
    2e60:	03000021 	movweq	r0, #33	; 0x21
    2e64:	00600f4a 	rsbeq	r0, r0, sl, asr #30
    2e68:	01040000 	mrseq	r0, (UNDEF: 4)
    2e6c:	0023021a 	eoreq	r0, r3, sl, lsl r2
    2e70:	001d0006 	andseq	r0, sp, r6
    2e74:	0f4b0300 	svceq	0x004b0300
    2e78:	00000060 	andeq	r0, r0, r0, rrx
    2e7c:	02190104 	andseq	r0, r9, #4, 2
    2e80:	58060023 	stmdapl	r6, {r0, r1, r5}
    2e84:	0300001f 	movweq	r0, #31
    2e88:	00600f4c 	rsbeq	r0, r0, ip, asr #30
    2e8c:	01040000 	mrseq	r0, (UNDEF: 4)
    2e90:	00230218 	eoreq	r0, r3, r8, lsl r2
    2e94:	00222706 	eoreq	r2, r2, r6, lsl #14
    2e98:	0f4d0300 	svceq	0x004d0300
    2e9c:	00000060 	andeq	r0, r0, r0, rrx
    2ea0:	02170104 	andseq	r0, r7, #4, 2
    2ea4:	94060023 	strls	r0, [r6], #-35	; 0xffffffdd
    2ea8:	0300001e 	movweq	r0, #30
    2eac:	00600f4e 	rsbeq	r0, r0, lr, asr #30
    2eb0:	01040000 	mrseq	r0, (UNDEF: 4)
    2eb4:	00230216 	eoreq	r0, r3, r6, lsl r2
    2eb8:	001dae06 	andseq	sl, sp, r6, lsl #28
    2ebc:	0f4f0300 	svceq	0x004f0300
    2ec0:	00000060 	andeq	r0, r0, r0, rrx
    2ec4:	02150104 	andseq	r0, r5, #4, 2
    2ec8:	d2060023 	andle	r0, r6, #35	; 0x23
    2ecc:	03000022 	movweq	r0, #34	; 0x22
    2ed0:	00600f50 	rsbeq	r0, r0, r0, asr pc
    2ed4:	01040000 	mrseq	r0, (UNDEF: 4)
    2ed8:	00230214 	eoreq	r0, r3, r4, lsl r2
    2edc:	03040700 	movweq	r0, #18176	; 0x4700
    2ee0:	02e40942 	rsceq	r0, r4, #1081344	; 0x108000
    2ee4:	09080000 	stmdbeq	r8, {}	; <UNPREDICTABLE>
    2ee8:	03000027 	movweq	r0, #39	; 0x27
    2eec:	01f20653 	mvnseq	r0, r3, asr r6
    2ef0:	2f080000 	svccs	0x00080000
    2ef4:	0300002b 	movweq	r0, #43	; 0x2b
    2ef8:	00600b55 	rsbeq	r0, r0, r5, asr fp
    2efc:	02000000 	andeq	r0, r0, #0
    2f00:	00001f0d 	andeq	r1, r0, sp, lsl #30
    2f04:	c2025703 	andgt	r5, r2, #786432	; 0xc0000
    2f08:	04000002 	streq	r0, [r0], #-2
    2f0c:	000002e4 	andeq	r0, r0, r4, ror #5
    2f10:	71030405 	tstvc	r3, r5, lsl #8
    2f14:	0003b305 	andeq	fp, r3, r5, lsl #6
    2f18:	23ce0600 	biccs	r0, lr, #0, 12
    2f1c:	72030000 	andvc	r0, r3, #0
    2f20:	0000600f 	andeq	r6, r0, pc
    2f24:	1f010400 	svcne	0x00010400
    2f28:	06002302 	streq	r2, [r0], -r2, lsl #6
    2f2c:	0000223e 	andeq	r2, r0, lr, lsr r2
    2f30:	600f7303 	andvs	r7, pc, r3, lsl #6
    2f34:	04000000 	streq	r0, [r0], #-0
    2f38:	23021e01 	movwcs	r1, #11777	; 0x2e01
    2f3c:	21ec0600 	mvncs	r0, r0, lsl #12
    2f40:	74030000 	strvc	r0, [r3], #-0
    2f44:	0000600f 	andeq	r6, r0, pc
    2f48:	1d010400 	cfstrsne	mvf0, [r1, #-0]
    2f4c:	06002302 	streq	r2, [r0], -r2, lsl #6
    2f50:	000020ed 	andeq	r2, r0, sp, ror #1
    2f54:	600f7503 	andvs	r7, pc, r3, lsl #10
    2f58:	04000000 	streq	r0, [r0], #-0
    2f5c:	23021c01 	movwcs	r1, #11265	; 0x2c01
    2f60:	22a30600 	adccs	r0, r3, #0, 12
    2f64:	76030000 	strvc	r0, [r3], -r0
    2f68:	0000600f 	andeq	r6, r0, pc
    2f6c:	1b010400 	blne	43f74 <UART_InterruptFIFOLevelSelect+0x42b34>
    2f70:	06002302 	streq	r2, [r0], -r2, lsl #6
    2f74:	00001ff7 	strdeq	r1, [r0], -r7
    2f78:	600f7803 	andvs	r7, pc, r3, lsl #16
    2f7c:	04000000 	streq	r0, [r0], #-0
    2f80:	23021701 	movwcs	r1, #9985	; 0x2701
    2f84:	22fd0600 	rscscs	r0, sp, #0, 12
    2f88:	79030000 	stmdbvc	r3, {}	; <UNPREDICTABLE>
    2f8c:	0000600f 	andeq	r6, r0, pc
    2f90:	16010400 	strne	r0, [r1], -r0, lsl #8
    2f94:	06002302 	streq	r2, [r0], -r2, lsl #6
    2f98:	00001e24 	andeq	r1, r0, r4, lsr #28
    2f9c:	600f7a03 	andvs	r7, pc, r3, lsl #20
    2fa0:	04000000 	streq	r0, [r0], #-0
    2fa4:	23021501 	movwcs	r1, #9473	; 0x2501
    2fa8:	1e5b0600 	cdpne	6, 5, cr0, cr11, cr0, {0}
    2fac:	7b030000 	blvc	c2fb4 <UART_InterruptFIFOLevelSelect+0xc1b74>
    2fb0:	0000600f 	andeq	r6, r0, pc
    2fb4:	14010400 	strne	r0, [r1], #-1024	; 0xfffffc00
    2fb8:	06002302 	streq	r2, [r0], -r2, lsl #6
    2fbc:	0000232e 	andeq	r2, r0, lr, lsr #6
    2fc0:	600f7d03 	andvs	r7, pc, r3, lsl #26
    2fc4:	04000000 	streq	r0, [r0], #-0
    2fc8:	23020f01 	movwcs	r0, #12033	; 0x2f01
    2fcc:	04070000 	streq	r0, [r7], #-0
    2fd0:	d5097003 	strle	r7, [r9, #-3]
    2fd4:	08000003 	stmdaeq	r0, {r0, r1}
    2fd8:	00002709 	andeq	r2, r0, r9, lsl #14
    2fdc:	f5068003 			; <UNDEFINED> instruction: 0xf5068003
    2fe0:	08000002 	stmdaeq	r0, {r1}
    2fe4:	00002b2f 	andeq	r2, r0, pc, lsr #22
    2fe8:	60088103 	andvs	r8, r8, r3, lsl #2
    2fec:	00000000 	andeq	r0, r0, r0
    2ff0:	001ebc02 	andseq	fp, lr, r2, lsl #24
    2ff4:	02820300 	addeq	r0, r2, #0, 6
    2ff8:	000003b3 			; <UNDEFINED> instruction: 0x000003b3
    2ffc:	0003d504 	andeq	sp, r3, r4, lsl #10
    3000:	03040500 	movweq	r0, #17664	; 0x4500
    3004:	04a40585 	strteq	r0, [r4], #1413	; 0x585
    3008:	a7060000 	strge	r0, [r6, -r0]
    300c:	03000020 	movweq	r0, #32
    3010:	00600f87 	rsbeq	r0, r0, r7, lsl #31
    3014:	01040000 	mrseq	r0, (UNDEF: 4)
    3018:	0023021f 	eoreq	r0, r3, pc, lsl r2
    301c:	00239e06 	eoreq	r9, r3, r6, lsl #28
    3020:	0f880300 	svceq	0x00880300
    3024:	00000060 	andeq	r0, r0, r0, rrx
    3028:	021e0104 	andseq	r0, lr, #4, 2
    302c:	cb060023 	blgt	1830c0 <UART_InterruptFIFOLevelSelect+0x181c80>
    3030:	03000022 	movweq	r0, #34	; 0x22
    3034:	00600f89 	rsbeq	r0, r0, r9, lsl #31
    3038:	01040000 	mrseq	r0, (UNDEF: 4)
    303c:	0023021d 	eoreq	r0, r3, sp, lsl r2
    3040:	001edf06 	andseq	sp, lr, r6, lsl #30
    3044:	0f8a0300 	svceq	0x008a0300
    3048:	00000060 	andeq	r0, r0, r0, rrx
    304c:	021c0104 	andseq	r0, ip, #4, 2
    3050:	35060023 	strcc	r0, [r6, #-35]	; 0xffffffdd
    3054:	03000020 	movweq	r0, #32
    3058:	00600f8b 	rsbeq	r0, r0, fp, lsl #31
    305c:	01040000 	mrseq	r0, (UNDEF: 4)
    3060:	0023021b 	eoreq	r0, r3, fp, lsl r2
    3064:	00243406 	eoreq	r3, r4, r6, lsl #8
    3068:	0f8d0300 	svceq	0x008d0300
    306c:	00000060 	andeq	r0, r0, r0, rrx
    3070:	02170104 	andseq	r0, r7, #4, 2
    3074:	90060023 	andls	r0, r6, r3, lsr #32
    3078:	03000020 	movweq	r0, #32
    307c:	00600f8e 	rsbeq	r0, r0, lr, lsl #31
    3080:	01040000 	mrseq	r0, (UNDEF: 4)
    3084:	00230216 	eoreq	r0, r3, r6, lsl r2
    3088:	001fb606 	andseq	fp, pc, r6, lsl #12
    308c:	0f8f0300 	svceq	0x008f0300
    3090:	00000060 	andeq	r0, r0, r0, rrx
    3094:	02150104 	andseq	r0, r5, #4, 2
    3098:	2c060023 	stccs	0, cr0, [r6], {35}	; 0x23
    309c:	0300001e 	movweq	r0, #30
    30a0:	00600f90 	mlseq	r0, r0, pc, r0	; <UNPREDICTABLE>
    30a4:	01040000 	mrseq	r0, (UNDEF: 4)
    30a8:	00230214 	eoreq	r0, r3, r4, lsl r2
    30ac:	00214306 	eoreq	r4, r1, r6, lsl #6
    30b0:	0f920300 	svceq	0x00920300
    30b4:	00000060 	andeq	r0, r0, r0, rrx
    30b8:	020f0104 	andeq	r0, pc, #4, 2
    30bc:	07000023 	streq	r0, [r0, -r3, lsr #32]
    30c0:	09840304 	stmibeq	r4, {r2, r8, r9}
    30c4:	000004c6 	andeq	r0, r0, r6, asr #9
    30c8:	00270908 	eoreq	r0, r7, r8, lsl #18
    30cc:	06940300 	ldreq	r0, [r4], r0, lsl #6
    30d0:	000003e6 	andeq	r0, r0, r6, ror #7
    30d4:	002b2f08 	eoreq	r2, fp, r8, lsl #30
    30d8:	0b950300 	bleq	fe543ce0 <_E_BSS+0xde541eec>
    30dc:	00000060 	andeq	r0, r0, r0, rrx
    30e0:	23220200 			; <UNDEFINED> instruction: 0x23220200
    30e4:	96030000 	strls	r0, [r3], -r0
    30e8:	0004a402 	andeq	sl, r4, r2, lsl #8
    30ec:	04c60400 	strbeq	r0, [r6], #1024	; 0x400
    30f0:	07090000 	streq	r0, [r9, -r0]
    30f4:	00003301 	andeq	r3, r0, r1, lsl #6
    30f8:	0e2a0400 	cdpeq	4, 2, cr0, cr10, cr0, {0}
    30fc:	00000516 	andeq	r0, r0, r6, lsl r5
    3100:	000d790a 	andeq	r7, sp, sl, lsl #18
    3104:	860a0000 	strhi	r0, [sl], -r0
    3108:	0100000d 	tsteq	r0, sp
    310c:	000d930a 	andeq	r9, sp, sl, lsl #6
    3110:	a00a0200 	andge	r0, sl, r0, lsl #4
    3114:	0300000d 	movweq	r0, #13
    3118:	000dad0a 	andeq	sl, sp, sl, lsl #26
    311c:	ba0a0400 	blt	284124 <UART_InterruptFIFOLevelSelect+0x282ce4>
    3120:	0500000d 	streq	r0, [r0, #-13]
    3124:	000dc70a 	andeq	ip, sp, sl, lsl #14
    3128:	d40a0600 	strle	r0, [sl], #-1536	; 0xfffffa00
    312c:	0700000d 	streq	r0, [r0, -sp]
    3130:	14c00200 	strbne	r0, [r0], #512	; 0x200
    3134:	35040000 	strcc	r0, [r4, #-0]
    3138:	0004d702 	andeq	sp, r4, r2, lsl #14
    313c:	01070900 	tsteq	r7, r0, lsl #18
    3140:	00000033 	andeq	r0, r0, r3, lsr r0
    3144:	5b0d3804 	blpl	35115c <UART_InterruptFIFOLevelSelect+0x34fd1c>
    3148:	0a000005 	beq	3164 <UART_InterruptFIFOLevelSelect+0x1d24>
    314c:	00000ce6 	andeq	r0, r0, r6, ror #25
    3150:	0ef70a00 	vmoveq.f32	s1, #112	; 0x3f800000  1.0
    3154:	0a010000 	beq	4315c <UART_InterruptFIFOLevelSelect+0x41d1c>
    3158:	00000efd 	strdeq	r0, [r0], -sp
    315c:	00c80a02 	sbceq	r0, r8, r2, lsl #20
    3160:	0a030000 	beq	c3168 <UART_InterruptFIFOLevelSelect+0xc1d28>
    3164:	000000ce 	andeq	r0, r0, lr, asr #1
    3168:	00d40a04 	sbcseq	r0, r4, r4, lsl #20
    316c:	0a050000 	beq	143174 <UART_InterruptFIFOLevelSelect+0x141d34>
    3170:	00000df8 	strdeq	r0, [r0], -r8
    3174:	5f020006 	svcpl	0x00020006
    3178:	04000017 	streq	r0, [r0], #-23	; 0xffffffe9
    317c:	05220241 	streq	r0, [r2, #-577]!	; 0xfffffdbf
    3180:	03050000 	movweq	r0, #20480	; 0x5000
    3184:	9e09a104 	mvflse	f2, f4
    3188:	0b000005 	bleq	31a4 <UART_InterruptFIFOLevelSelect+0x1d64>
    318c:	0000141e 	andeq	r1, r0, lr, lsl r4
    3190:	5b1ca204 	blpl	72b9a8 <UART_InterruptFIFOLevelSelect+0x72a568>
    3194:	02000005 	andeq	r0, r0, #5
    3198:	7a0b0023 	bvc	2c322c <UART_InterruptFIFOLevelSelect+0x2c1dec>
    319c:	04000015 	streq	r0, [r0], #-21	; 0xffffffeb
    31a0:	051620a3 	ldreq	r2, [r6, #-163]	; 0xffffff5d
    31a4:	23020000 	movwcs	r0, #8192	; 0x2000
    31a8:	19d40b01 	ldmibne	r4, {r0, r8, r9, fp}^
    31ac:	a4040000 	strge	r0, [r4], #-0
    31b0:	0000270a 	andeq	r2, r0, sl, lsl #14
    31b4:	02230200 	eoreq	r0, r3, #0, 4
    31b8:	05670c00 	strbeq	r0, [r7, #-3072]!	; 0xfffff400
    31bc:	92020000 	andls	r0, r2, #0
    31c0:	0400001a 	streq	r0, [r0], #-26	; 0xffffffe6
    31c4:	059e08a5 	ldreq	r0, [lr, #2213]	; 0x8a5
    31c8:	04030000 	streq	r0, [r3], #-0
    31cc:	00052c07 	andeq	r2, r5, r7, lsl #24
    31d0:	a3040d00 	movwge	r0, #19712	; 0x4d00
    31d4:	09000005 	stmdbeq	r0, {r0, r2}
    31d8:	00330107 	eorseq	r0, r3, r7, lsl #2
    31dc:	2a050000 	bcs	1431e4 <UART_InterruptFIFOLevelSelect+0x141da4>
    31e0:	0005f50d 	andeq	pc, r5, sp, lsl #10
    31e4:	1d130a00 	vldrne	s0, [r3, #-0]
    31e8:	0a000000 	beq	31f0 <UART_InterruptFIFOLevelSelect+0x1db0>
    31ec:	00001d1a 	andeq	r1, r0, sl, lsl sp
    31f0:	1d210a01 	vstmdbne	r1!, {s0}
    31f4:	0a020000 	beq	831fc <UART_InterruptFIFOLevelSelect+0x81dbc>
    31f8:	00001d28 	andeq	r1, r0, r8, lsr #26
    31fc:	1d2f0a03 	vstmdbne	pc!, {s0-s2}
    3200:	0a040000 	beq	103208 <UART_InterruptFIFOLevelSelect+0x101dc8>
    3204:	00001d36 	andeq	r1, r0, r6, lsr sp
    3208:	1d590a05 	vldrne	s1, [r9, #-20]	; 0xffffffec
    320c:	00060000 	andeq	r0, r6, r0
    3210:	001ec802 	andseq	ip, lr, r2, lsl #16
    3214:	02320500 	eorseq	r0, r2, #0, 10
    3218:	000005bc 			; <UNDEFINED> instruction: 0x000005bc
    321c:	33010709 	movwcc	r0, #5897	; 0x1709
    3220:	05000000 	streq	r0, [r0, #-0]
    3224:	06220d35 			; <UNDEFINED> instruction: 0x06220d35
    3228:	3d0a0000 	stccc	0, cr0, [sl, #-0]
    322c:	0000001d 	andeq	r0, r0, sp, lsl r0
    3230:	001de10a 	andseq	lr, sp, sl, lsl #2
    3234:	740a0100 	strvc	r0, [sl], #-256	; 0xffffff00
    3238:	02000020 	andeq	r0, r0, #32
    323c:	21780200 	cmncs	r8, r0, lsl #4
    3240:	39050000 	stmdbcc	r5, {}	; <UNPREDICTABLE>
    3244:	00060102 	andeq	r0, r6, r2, lsl #2
    3248:	01070900 	tsteq	r7, r0, lsl #18
    324c:	00000033 	andeq	r0, r0, r3, lsr r0
    3250:	490d3c05 	stmdbmi	sp, {r0, r2, sl, fp, ip, sp}
    3254:	0a000006 	beq	3274 <UART_InterruptFIFOLevelSelect+0x1e34>
    3258:	000022b4 			; <UNDEFINED> instruction: 0x000022b4
    325c:	22c40a00 	sbccs	r0, r4, #0, 20
    3260:	00080000 	andeq	r0, r8, r0
    3264:	001f8c02 	andseq	r8, pc, r2, lsl #24
    3268:	023f0500 	eorseq	r0, pc, #0, 10
    326c:	0000062e 	andeq	r0, r0, lr, lsr #12
    3270:	33010709 	movwcc	r0, #5897	; 0x1709
    3274:	05000000 	streq	r0, [r0, #-0]
    3278:	06820d42 	streq	r0, [r2], r2, asr #26
    327c:	ab0a0000 	blge	283284 <UART_InterruptFIFOLevelSelect+0x281e44>
    3280:	00000022 	andeq	r0, r0, r2, lsr #32
    3284:	0022530a 	eoreq	r5, r2, sl, lsl #6
    3288:	bb0a0100 	bllt	283690 <UART_InterruptFIFOLevelSelect+0x282250>
    328c:	02000022 	andeq	r0, r0, #34	; 0x22
    3290:	0020970a 	eoreq	r9, r0, sl, lsl #14
    3294:	bd0a0300 	stclt	3, cr0, [sl, #-0]
    3298:	0400001f 	streq	r0, [r0], #-31	; 0xffffffe1
    329c:	233c0200 	teqcs	ip, #0, 4
    32a0:	48050000 	stmdami	r5, {}	; <UNPREDICTABLE>
    32a4:	00065502 	andeq	r5, r6, r2, lsl #10
    32a8:	01070900 	tsteq	r7, r0, lsl #18
    32ac:	00000033 	andeq	r0, r0, r3, lsr r0
    32b0:	af0d4b05 	svcge	0x000d4b05
    32b4:	0a000006 	beq	32d4 <UART_InterruptFIFOLevelSelect+0x1e94>
    32b8:	00002000 	andeq	r2, r0, r0
    32bc:	23910a00 	orrscs	r0, r1, #0, 20
    32c0:	0a010000 	beq	432c8 <UART_InterruptFIFOLevelSelect+0x41e88>
    32c4:	00001f6a 	andeq	r1, r0, sl, ror #30
    32c8:	07090004 	streq	r0, [r9, -r4]
    32cc:	00003301 	andeq	r3, r0, r1, lsl #6
    32d0:	0e580500 	cdpeq	5, 5, cr0, cr8, cr0, {0}
    32d4:	000006d0 	ldrdeq	r0, [r0], -r0	; <UNPREDICTABLE>
    32d8:	0021370a 	eoreq	r3, r1, sl, lsl #14
    32dc:	fd0a0100 	stc2	1, cr0, [sl, #-0]
    32e0:	0200001d 	andeq	r0, r0, #29
    32e4:	00236c0a 	eoreq	r6, r3, sl, lsl #24
    32e8:	09000300 	stmdbeq	r0, {r8, r9}
    32ec:	00330107 	eorseq	r0, r3, r7, lsl #2
    32f0:	65050000 	strvs	r0, [r5, #-0]
    32f4:	0006eb0e 	andeq	lr, r6, lr, lsl #22
    32f8:	1e0a0a00 	vmlane.f32	s0, s20, s0
    32fc:	0a000000 	beq	3304 <UART_InterruptFIFOLevelSelect+0x1ec4>
    3300:	00002378 	andeq	r2, r0, r8, ror r3
    3304:	07090001 	streq	r0, [r9, -r1]
    3308:	00003301 	andeq	r3, r0, r1, lsl #6
    330c:	0e6b0500 	cdpeq	5, 6, cr0, cr11, cr0, {0}
    3310:	00000706 	andeq	r0, r0, r6, lsl #14
    3314:	001d980a 	andseq	r9, sp, sl, lsl #16
    3318:	790a0000 	stmdbvc	sl, {}	; <UNPREDICTABLE>
    331c:	0100001f 	tsteq	r0, pc, lsl r0
    3320:	04070900 	streq	r0, [r7], #-2304	; 0xfffff700
    3324:	000005af 	andeq	r0, r0, pc, lsr #11
    3328:	2b0f7105 	blcs	3df744 <UART_InterruptFIFOLevelSelect+0x3de304>
    332c:	0e000007 	cdpeq	0, 0, cr0, cr0, cr7, {0}
    3330:	00002318 	andeq	r2, r0, r8, lsl r3
    3334:	bd0f03e8 	stclt	3, cr0, [pc, #-928]	; 2f9c <UART_InterruptFIFOLevelSelect+0x1b5c>
    3338:	40000021 	andmi	r0, r0, r1, lsr #32
    333c:	10000f42 	andne	r0, r0, r2, asr #30
    3340:	00636553 	rsbeq	r6, r3, r3, asr r5
    3344:	67020001 	strvs	r0, [r2, -r1]
    3348:	05000021 	streq	r0, [r0, #-33]	; 0xffffffdf
    334c:	07060375 	smlsdxeq	r6, r5, r3, r0
    3350:	04050000 	streq	r0, [r5], #-0
    3354:	7d0a7a05 	vstrvc	s14, [sl, #-20]	; 0xffffffec
    3358:	0b000007 	bleq	337c <UART_InterruptFIFOLevelSelect+0x1f3c>
    335c:	000023f9 	strdeq	r2, [r0], -r9
    3360:	221e7b05 	andscs	r7, lr, #5120	; 0x1400
    3364:	02000006 	andeq	r0, r0, #6
    3368:	0b0b0023 	bleq	2c33fc <UART_InterruptFIFOLevelSelect+0x2c1fbc>
    336c:	05000024 	streq	r0, [r0, #-36]	; 0xffffffdc
    3370:	06491f7c 			; <UNDEFINED> instruction: 0x06491f7c
    3374:	23020000 	movwcs	r0, #8192	; 0x2000
    3378:	203c0b01 	eorscs	r0, ip, r1, lsl #22
    337c:	7d050000 	stcvc	0, cr0, [r5, #-0]
    3380:	00068222 	andeq	r8, r6, r2, lsr #4
    3384:	02230200 	eoreq	r0, r3, #0, 4
    3388:	001eac0b 	andseq	sl, lr, fp, lsl #24
    338c:	1c7e0500 	cfldr64ne	mvdx0, [lr], #-0
    3390:	000005f5 	strdeq	r0, [r0], -r5
    3394:	00032302 	andeq	r2, r3, r2, lsl #6
    3398:	0007370c 	andeq	r3, r7, ip, lsl #14
    339c:	20f50200 	rscscs	r0, r5, r0, lsl #4
    33a0:	80050000 	andhi	r0, r5, r0
    33a4:	00077d09 	andeq	r7, r7, r9, lsl #26
    33a8:	82040d00 	andhi	r0, r4, #0, 26
    33ac:	11000007 	tstne	r0, r7
    33b0:	000007af 	andeq	r0, r0, pc, lsr #15
    33b4:	000007a4 	andeq	r0, r0, r4, lsr #15
    33b8:	0005af12 	andeq	sl, r5, r2, lsl pc
    33bc:	0c000500 	cfstr32eq	mvfx0, [r0], {-0}
    33c0:	00000794 	muleq	r0, r4, r7
    33c4:	07b4040d 	ldreq	r0, [r4, sp, lsl #8]!
    33c8:	a90c0000 	stmdbge	ip, {}	; <UNPREDICTABLE>
    33cc:	13000007 	movwne	r0, #7
    33d0:	00205214 	eoreq	r5, r0, r4, lsl r2
    33d4:	1d200100 	stfnes	f0, [r0, #-0]
    33d8:	000007a4 	andeq	r0, r0, r4, lsr #15
    33dc:	10880305 	addne	r0, r8, r5, lsl #6
    33e0:	d7140000 	ldrle	r0, [r4, -r0]
    33e4:	01000023 	tsteq	r0, r3, lsr #32
    33e8:	07a41d30 			; <UNDEFINED> instruction: 0x07a41d30
    33ec:	03050000 	movweq	r0, #20480	; 0x5000
    33f0:	000010a0 	andeq	r1, r0, r0, lsr #1
    33f4:	0007f411 	andeq	pc, r7, r1, lsl r4	; <UNPREDICTABLE>
    33f8:	0007e900 	andeq	lr, r7, r0, lsl #18
    33fc:	05af1200 	streq	r1, [pc, #512]!	; 3604 <UART_InterruptFIFOLevelSelect+0x21c4>
    3400:	00050000 	andeq	r0, r5, r0
    3404:	0007d90c 	andeq	sp, r7, ip, lsl #18
    3408:	4d040d00 	stcmi	13, cr0, [r4, #-0]
    340c:	0c000000 	stceq	0, cr0, [r0], {-0}
    3410:	000007ee 	andeq	r0, r0, lr, ror #15
    3414:	0021f414 	eoreq	pc, r1, r4, lsl r4	; <UNPREDICTABLE>
    3418:	1e3a0100 	rsfnee	f0, f2, f0
    341c:	000007e9 	andeq	r0, r0, r9, ror #15
    3420:	10b80305 	adcsne	r0, r8, r5, lsl #6
    3424:	26110000 	ldrcs	r0, [r1], -r0
    3428:	1b000008 	blne	3450 <UART_InterruptFIFOLevelSelect+0x2010>
    342c:	12000008 	andne	r0, r0, #8
    3430:	000005af 	andeq	r0, r0, pc, lsr #11
    3434:	0b0c0005 	bleq	303450 <UART_InterruptFIFOLevelSelect+0x302010>
    3438:	0d000008 	stceq	0, cr0, [r0, #-32]	; 0xffffffe0
    343c:	00006c04 	andeq	r6, r0, r4, lsl #24
    3440:	08200c00 	stmdaeq	r0!, {sl, fp}
    3444:	af140000 	svcge	0x00140000
    3448:	01000020 	tsteq	r0, r0, lsr #32
    344c:	081b1e43 	ldmdaeq	fp, {r0, r1, r6, r9, sl, fp, ip}
    3450:	03050000 	movweq	r0, #20480	; 0x5000
    3454:	000010d0 	ldrdeq	r1, [r0], -r0
    3458:	001e6314 	andseq	r6, lr, r4, lsl r3
    345c:	1d550100 	ldfnee	f0, [r5, #-0]
    3460:	000007a4 	andeq	r0, r0, r4, lsr #15
    3464:	10e80305 	rscne	r0, r8, r5, lsl #6
    3468:	d3140000 	tstle	r4, #0
    346c:	0100001f 	tsteq	r0, pc, lsl r0
    3470:	081b1e5e 	ldmdaeq	fp, {r1, r2, r3, r4, r6, r9, sl, fp, ip}
    3474:	03050000 	movweq	r0, #20480	; 0x5000
    3478:	00001100 	andeq	r1, r0, r0, lsl #2
    347c:	00088211 	andeq	r8, r8, r1, lsl r2
    3480:	00087700 	andeq	r7, r8, r0, lsl #14
    3484:	05af1200 	streq	r1, [pc, #512]!	; 368c <UART_InterruptFIFOLevelSelect+0x224c>
    3488:	12030000 	andne	r0, r3, #0
    348c:	000005af 	andeq	r0, r0, pc, lsr #11
    3490:	610c0005 	tstvs	ip, r5
    3494:	0d000008 	stceq	0, cr0, [r0, #-32]	; 0xffffffe0
    3498:	0002f004 	andeq	pc, r2, r4
    349c:	087c0c00 	ldmdaeq	ip!, {sl, fp}^
    34a0:	4a140000 	bmi	5034a8 <UART_InterruptFIFOLevelSelect+0x502068>
    34a4:	01000021 	tsteq	r0, r1, lsr #32
    34a8:	0877246a 	ldmdaeq	r7!, {r1, r3, r5, r6, sl, sp}^
    34ac:	03050000 	movweq	r0, #20480	; 0x5000
    34b0:	00001118 	andeq	r1, r0, r8, lsl r1
    34b4:	0008ba11 	andeq	fp, r8, r1, lsl sl
    34b8:	0008af00 	andeq	sl, r8, r0, lsl #30
    34bc:	05af1200 	streq	r1, [pc, #512]!	; 36c4 <UART_InterruptFIFOLevelSelect+0x2284>
    34c0:	12010000 	andne	r0, r1, #0
    34c4:	000005af 	andeq	r0, r0, pc, lsr #11
    34c8:	990c0005 	stmdbls	ip, {r0, r2}
    34cc:	0d000008 	stceq	0, cr0, [r0, #-32]	; 0xffffffe0
    34d0:	00019e04 	andeq	r9, r1, r4, lsl #28
    34d4:	08b40c00 	ldmeq	r4!, {sl, fp}
    34d8:	46140000 	ldrmi	r0, [r4], -r0
    34dc:	01000022 	tsteq	r0, r2, lsr #32
    34e0:	08af248f 	stmiaeq	pc!, {r0, r1, r2, r3, r7, sl, sp}	; <UNPREDICTABLE>
    34e4:	03050000 	movweq	r0, #20480	; 0x5000
    34e8:	00001178 	andeq	r1, r0, r8, ror r1
    34ec:	0008f211 	andeq	pc, r8, r1, lsl r2	; <UNPREDICTABLE>
    34f0:	0008e700 	andeq	lr, r8, r0, lsl #14
    34f4:	05af1200 	streq	r1, [pc, #512]!	; 36fc <UART_InterruptFIFOLevelSelect+0x22bc>
    34f8:	12010000 	andne	r0, r1, #0
    34fc:	000005af 	andeq	r0, r0, pc, lsr #11
    3500:	d10c0005 	tstle	ip, r5
    3504:	0d000008 	stceq	0, cr0, [r0, #-32]	; 0xffffffe0
    3508:	0001ed04 	andeq	lr, r1, r4, lsl #26
    350c:	08ec0c00 	stmiaeq	ip!, {sl, fp}^
    3510:	33140000 	tstcc	r4, #0
    3514:	0100001e 	tsteq	r0, lr, lsl r0
    3518:	08e724a7 	stmiaeq	r7!, {r0, r1, r2, r5, r7, sl, sp}^
    351c:	03050000 	movweq	r0, #20480	; 0x5000
    3520:	000011a8 	andeq	r1, r0, r8, lsr #3
    3524:	00092a11 	andeq	r2, r9, r1, lsl sl
    3528:	00091f00 	andeq	r1, r9, r0, lsl #30
    352c:	05af1200 	streq	r1, [pc, #512]!	; 3734 <UART_InterruptFIFOLevelSelect+0x22f4>
    3530:	12010000 	andne	r0, r1, #0
    3534:	000005af 	andeq	r0, r0, pc, lsr #11
    3538:	090c0005 	stmdbeq	ip, {r0, r2}
    353c:	0d000009 	stceq	0, cr0, [r0, #-36]	; 0xffffffdc
    3540:	0003e104 	andeq	lr, r3, r4, lsl #2
    3544:	09240c00 	stmdbeq	r4!, {sl, fp}
    3548:	2b140000 	blcs	503550 <UART_InterruptFIFOLevelSelect+0x502110>
    354c:	0100001f 	tsteq	r0, pc, lsl r0
    3550:	091f24bd 	ldmdbeq	pc, {r0, r2, r3, r4, r5, r7, sl, sp}	; <UNPREDICTABLE>
    3554:	03050000 	movweq	r0, #20480	; 0x5000
    3558:	000011d8 	ldrdeq	r1, [r0], -r8
    355c:	00096211 	andeq	r6, r9, r1, lsl r2
    3560:	00095700 	andeq	r5, r9, r0, lsl #14
    3564:	05af1200 	streq	r1, [pc, #512]!	; 376c <UART_InterruptFIFOLevelSelect+0x232c>
    3568:	12010000 	andne	r0, r1, #0
    356c:	000005af 	andeq	r0, r0, pc, lsr #11
    3570:	410c0005 	tstmi	ip, r5
    3574:	0d000009 	stceq	0, cr0, [r0, #-36]	; 0xffffffdc
    3578:	0004d204 	andeq	sp, r4, r4, lsl #4
    357c:	095c0c00 	ldmdbeq	ip, {sl, fp}^
    3580:	e6140000 	ldr	r0, [r4], -r0
    3584:	0100001e 	tsteq	r0, lr, lsl r0
    3588:	095724d5 	ldmdbeq	r7, {r0, r2, r4, r6, r7, sl, sp}^
    358c:	03050000 	movweq	r0, #20480	; 0x5000
    3590:	00001208 	andeq	r1, r0, r8, lsl #4
    3594:	20110115 	andscs	r0, r1, r5, lsl r1
    3598:	61010000 	mrsvs	r0, (UNDEF: 1)
    359c:	00010601 	andeq	r0, r1, r1, lsl #12
    35a0:	00000000 	andeq	r0, r0, r0
    35a4:	54000000 	strpl	r0, [r0], #-0
    35a8:	0100000f 	tsteq	r0, pc
    35ac:	000009f6 	strdeq	r0, [r0], -r6
    35b0:	0012dc16 	andseq	sp, r2, r6, lsl ip
    35b4:	01610100 	cmneq	r1, r0, lsl #2
    35b8:	00078e36 	andeq	r8, r7, r6, lsr lr
    35bc:	5c910200 	lfmpl	f0, 4, [r1], {0}
    35c0:	0020e016 	eoreq	lr, r0, r6, lsl r0
    35c4:	01610100 	cmneq	r1, r0, lsl #2
    35c8:	00006053 	andeq	r6, r0, r3, asr r0
    35cc:	58910200 	ldmpl	r1, {r9}
    35d0:	0020e316 	eoreq	lr, r0, r6, lsl r3
    35d4:	01610100 	cmneq	r1, r0, lsl #2
    35d8:	00072b72 	andeq	r2, r7, r2, ror fp
    35dc:	54910200 	ldrpl	r0, [r1], #512	; 0x200
    35e0:	00235917 	eoreq	r5, r3, r7, lsl r9
    35e4:	01630100 	cmneq	r3, r0, lsl #2
    35e8:	00008d0d 	andeq	r8, r0, sp, lsl #26
    35ec:	68910200 	ldmvs	r1, {r9}
    35f0:	00227417 	eoreq	r7, r2, r7, lsl r4
    35f4:	01640100 	cmneq	r4, r0, lsl #2
    35f8:	0000600d 	andeq	r6, r0, sp
    35fc:	64910200 	ldrvs	r0, [r1], #512	; 0x200
    3600:	00221217 	eoreq	r1, r2, r7, lsl r2
    3604:	01710100 	cmneq	r1, r0, lsl #2
    3608:	0000600b 	andeq	r6, r0, fp
    360c:	74910200 	ldrvc	r0, [r1], #512	; 0x200
    3610:	6e011500 	cfsh32vs	mvfx1, mvfx1, #0
    3614:	0100001d 	tsteq	r0, sp, lsl r0
    3618:	01060150 	tsteq	r6, r0, asr r1
	...
    3624:	00000fa4 	andeq	r0, r0, r4, lsr #31
    3628:	000a3301 	andeq	r3, sl, r1, lsl #6
    362c:	1dc71600 	stclne	6, cr1, [r7]
    3630:	50010000 	andpl	r0, r1, r0
    3634:	05b63b01 	ldreq	r3, [r6, #2817]!	; 0xb01
    3638:	91020000 	mrsls	r0, (UNDEF: 2)
    363c:	12dc1674 	sbcsne	r1, ip, #116, 12	; 0x7400000
    3640:	50010000 	andpl	r0, r1, r0
    3644:	078e7301 	streq	r7, [lr, r1, lsl #6]
    3648:	91020000 	mrsls	r0, (UNDEF: 2)
    364c:	01150070 	tsteq	r5, r0, ror r0
    3650:	000021c7 	andeq	r2, r0, r7, asr #3
    3654:	06012a01 	streq	r2, [r1], -r1, lsl #20
    3658:	00000001 	andeq	r0, r0, r1
    365c:	00000000 	andeq	r0, r0, r0
    3660:	000ff400 	andeq	pc, pc, r0, lsl #8
    3664:	0ab00100 	beq	fec03a6c <_E_BSS+0xdec01c78>
    3668:	f8160000 			; <UNDEFINED> instruction: 0xf8160000
    366c:	0100001e 	tsteq	r0, lr, lsl r0
    3670:	8e34012a 	rsfhisp	f0, f4, #2.0
    3674:	02000007 	andeq	r0, r0, #7
    3678:	9a166491 	bls	59c8c4 <UART_InterruptFIFOLevelSelect+0x59b484>
    367c:	01000030 	tsteq	r0, r0, lsr r0
    3680:	6050012a 	subsvs	r0, r0, sl, lsr #2
    3684:	02000000 	andeq	r0, r0, #0
    3688:	86166091 			; <UNDEFINED> instruction: 0x86166091
    368c:	01000020 	tsteq	r0, r0, lsr #32
    3690:	2762012a 	strbcs	r0, [r2, -sl, lsr #2]!
    3694:	02000000 	andeq	r0, r0, #0
    3698:	59175f91 	ldmdbpl	r7, {r0, r4, r7, r8, r9, sl, fp, ip, lr}
    369c:	01000023 	tsteq	r0, r3, lsr #32
    36a0:	8d08012e 	stfhis	f0, [r8, #-184]	; 0xffffff48
    36a4:	02000000 	andeq	r0, r0, #0
    36a8:	ea177091 	b	5df8f4 <UART_InterruptFIFOLevelSelect+0x5de4b4>
    36ac:	0100001f 	tsteq	r0, pc, lsl r0
    36b0:	6008012f 	andvs	r0, r8, pc, lsr #2
    36b4:	02000000 	andeq	r0, r0, #0
    36b8:	74176c91 	ldrvc	r6, [r7], #-3217	; 0xfffff36f
    36bc:	01000022 	tsteq	r0, r2, lsr #32
    36c0:	60080130 	andvs	r0, r8, r0, lsr r1
    36c4:	02000000 	andeq	r0, r0, #0
    36c8:	15006891 	strne	r6, [r0, #-2193]	; 0xfffff76f
    36cc:	0022ea01 	eoreq	lr, r2, r1, lsl #20
    36d0:	01120100 	tsteq	r2, r0, lsl #2
    36d4:	00000106 	andeq	r0, r0, r6, lsl #2
    36d8:	00000000 	andeq	r0, r0, r0
    36dc:	10440000 	subne	r0, r4, r0
    36e0:	ed010000 	stc	0, cr0, [r1, #-0]
    36e4:	1600000a 	strne	r0, [r0], -sl
    36e8:	00001ef8 	strdeq	r1, [r0], -r8
    36ec:	36011201 	strcc	r1, [r1], -r1, lsl #4
    36f0:	0000078e 	andeq	r0, r0, lr, lsl #15
    36f4:	16749102 	ldrbtne	r9, [r4], -r2, lsl #2
    36f8:	00002191 	muleq	r0, r1, r1
    36fc:	67011201 	strvs	r1, [r1, -r1, lsl #4]
    3700:	000005b6 			; <UNDEFINED> instruction: 0x000005b6
    3704:	00709102 	rsbseq	r9, r0, r2, lsl #2
    3708:	001f1918 	andseq	r1, pc, r8, lsl r9	; <UNPREDICTABLE>
    370c:	01050100 	mrseq	r0, (UNDEF: 21)
    3710:	00000114 	andeq	r0, r0, r4, lsl r1
    3714:	00000000 	andeq	r0, r0, r0
    3718:	10940000 	addsne	r0, r4, r0
    371c:	39010000 	stmdbcc	r1, {}	; <UNPREDICTABLE>
    3720:	1600000b 	strne	r0, [r0], -fp
    3724:	0000240b 	andeq	r2, r0, fp, lsl #8
    3728:	40010501 	andmi	r0, r1, r1, lsl #10
    372c:	00000649 	andeq	r0, r0, r9, asr #12
    3730:	166f9102 	strbtne	r9, [pc], -r2, lsl #2
    3734:	00001ec8 	andeq	r1, r0, r8, asr #29
    3738:	6b010501 	blvs	44b44 <UART_InterruptFIFOLevelSelect+0x43704>
    373c:	000005f5 	strdeq	r0, [r0], -r5
    3740:	166e9102 	strbtne	r9, [lr], -r2, lsl #2
    3744:	000023f9 	strdeq	r2, [r0], -r9
    3748:	9d010501 	cfstr32ls	mvfx0, [r1, #-4]
    374c:	00000622 	andeq	r0, r0, r2, lsr #12
    3750:	006d9102 	rsbeq	r9, sp, r2, lsl #2
    3754:	00226318 	eoreq	r6, r2, r8, lsl r3
    3758:	01000100 	mrseq	r0, (UNDEF: 16)
    375c:	00000114 	andeq	r0, r0, r4, lsl r1
    3760:	00000000 	andeq	r0, r0, r0
    3764:	10f00000 	rscsne	r0, r0, r0
    3768:	85010000 	strhi	r0, [r1, #-0]
    376c:	1600000b 	strne	r0, [r0], -fp
    3770:	0000240b 	andeq	r2, r0, fp, lsl #8
    3774:	3f010001 	svccc	0x00010001
    3778:	00000649 	andeq	r0, r0, r9, asr #12
    377c:	166f9102 	strbtne	r9, [pc], -r2, lsl #2
    3780:	00001ec8 	andeq	r1, r0, r8, asr #29
    3784:	6a010001 	bvs	43790 <UART_InterruptFIFOLevelSelect+0x42350>
    3788:	000005f5 	strdeq	r0, [r0], -r5
    378c:	166e9102 	strbtne	r9, [lr], -r2, lsl #2
    3790:	000023f9 	strdeq	r2, [r0], -r9
    3794:	9c010001 	stcls	0, cr0, [r1], {1}
    3798:	00000622 	andeq	r0, r0, r2, lsr #12
    379c:	006d9102 	rsbeq	r9, sp, r2, lsl #2
    37a0:	0021d819 	eoreq	sp, r1, r9, lsl r8
    37a4:	14f30100 	ldrbtne	r0, [r3], #256	; 0x100
    37a8:	00000001 	andeq	r0, r0, r1
    37ac:	00000000 	andeq	r0, r0, r0
    37b0:	00114c00 	andseq	r4, r1, r0, lsl #24
    37b4:	c81a0100 	ldmdagt	sl, {r8}
    37b8:	0100001e 	tsteq	r0, lr, lsl r0
    37bc:	05f53ff3 	ldrbeq	r3, [r5, #4083]!	; 0xff3
    37c0:	91020000 	mrsls	r0, (UNDEF: 2)
    37c4:	23f91a77 	mvnscs	r1, #487424	; 0x77000
    37c8:	f3010000 	vhadd.u8	d0, d1, d0
    37cc:	00062270 	andeq	r2, r6, r0, ror r2
    37d0:	76910200 	ldrvc	r0, [r1], r0, lsl #4
    37d4:	029d0000 	addseq	r0, sp, #0
    37d8:	00020000 	andeq	r0, r2, r0
    37dc:	000006ea 	andeq	r0, r0, sl, ror #13
    37e0:	01ac0104 			; <UNDEFINED> instruction: 0x01ac0104
    37e4:	1d0c0000 	stcne	0, cr0, [ip, #-0]
    37e8:	2e000025 	cdpcs	0, 0, cr0, cr0, cr5, {1}
    37ec:	000d7f00 	andeq	r7, sp, r0, lsl #30
    37f0:	08010200 	stmdaeq	r1, {r9}
    37f4:	00000d14 	andeq	r0, r0, r4, lsl sp
    37f8:	16060102 	strne	r0, [r6], -r2, lsl #2
    37fc:	0200000d 	andeq	r0, r0, #13
    3800:	0ee40702 	cdpeq	7, 14, cr0, cr4, cr2, {0}
    3804:	02020000 	andeq	r0, r2, #0
    3808:	000a6305 	andeq	r6, sl, r5, lsl #6
    380c:	07040200 	streq	r0, [r4, -r0, lsl #4]
    3810:	00000527 	andeq	r0, r0, r7, lsr #10
    3814:	08050402 	stmdaeq	r5, {r1, sl}
    3818:	02000008 	andeq	r0, r0, #8
    381c:	050a0404 	streq	r0, [sl, #-1028]	; 0xfffffbfc
    3820:	08020000 	stmdaeq	r2, {}	; <UNPREDICTABLE>
    3824:	0009b104 	andeq	fp, r9, r4, lsl #2
    3828:	07080200 	streq	r0, [r8, -r0, lsl #4]
    382c:	00000522 	andeq	r0, r0, r2, lsr #10
    3830:	2c070402 	cfstrscs	mvf0, [r7], {2}
    3834:	03000005 	movweq	r0, #5
    3838:	001b0107 	andseq	r0, fp, r7, lsl #2
    383c:	2a010000 	bcs	43844 <UART_InterruptFIFOLevelSelect+0x42404>
    3840:	00009a0d 	andeq	r9, r0, sp, lsl #20
    3844:	1d130400 	cfldrsne	mvf0, [r3, #-0]
    3848:	04000000 	streq	r0, [r0], #-0
    384c:	00001d1a 	andeq	r1, r0, sl, lsl sp
    3850:	1d210401 	cfstrsne	mvf0, [r1, #-4]!
    3854:	04020000 	streq	r0, [r2], #-0
    3858:	00001d28 	andeq	r1, r0, r8, lsr #26
    385c:	1d2f0403 	cfstrsne	mvf0, [pc, #-12]!	; 3858 <UART_InterruptFIFOLevelSelect+0x2418>
    3860:	04040000 	streq	r0, [r4], #-0
    3864:	00001d36 	andeq	r1, r0, r6, lsr sp
    3868:	1d590405 	cfldrdne	mvd0, [r9, #-20]	; 0xffffffec
    386c:	00060000 	andeq	r0, r6, r0
    3870:	001ec805 	andseq	ip, lr, r5, lsl #16
    3874:	02320100 	eorseq	r0, r2, #0, 2
    3878:	00000061 	andeq	r0, r0, r1, rrx
    387c:	1b010703 	blne	45490 <UART_InterruptFIFOLevelSelect+0x44050>
    3880:	01000000 	mrseq	r0, (UNDEF: 0)
    3884:	00c70d35 	sbceq	r0, r7, r5, lsr sp
    3888:	3d040000 	stccc	0, cr0, [r4, #-0]
    388c:	0000001d 	andeq	r0, r0, sp, lsl r0
    3890:	001de104 	andseq	lr, sp, r4, lsl #2
    3894:	74040100 	strvc	r0, [r4], #-256	; 0xffffff00
    3898:	02000020 	andeq	r0, r0, #32
    389c:	21780500 	cmncs	r8, r0, lsl #10
    38a0:	39010000 	stmdbcc	r1, {}	; <UNPREDICTABLE>
    38a4:	0000a602 	andeq	sl, r0, r2, lsl #12
    38a8:	01070300 	mrseq	r0, SP_und
    38ac:	0000001b 	andeq	r0, r0, fp, lsl r0
    38b0:	ee0d3c01 	cdp	12, 0, cr3, cr13, cr1, {0}
    38b4:	04000000 	streq	r0, [r0], #-0
    38b8:	000022b4 			; <UNDEFINED> instruction: 0x000022b4
    38bc:	22c40400 	sbccs	r0, r4, #0, 8
    38c0:	00080000 	andeq	r0, r8, r0
    38c4:	001f8c05 	andseq	r8, pc, r5, lsl #24
    38c8:	023f0100 	eorseq	r0, pc, #0, 2
    38cc:	000000d3 	ldrdeq	r0, [r0], -r3
    38d0:	1b010703 	blne	454e4 <UART_InterruptFIFOLevelSelect+0x440a4>
    38d4:	01000000 	mrseq	r0, (UNDEF: 0)
    38d8:	01270d42 			; <UNDEFINED> instruction: 0x01270d42
    38dc:	ab040000 	blge	1038e4 <UART_InterruptFIFOLevelSelect+0x1024a4>
    38e0:	00000022 	andeq	r0, r0, r2, lsr #32
    38e4:	00225304 	eoreq	r5, r2, r4, lsl #6
    38e8:	bb040100 	bllt	103cf0 <UART_InterruptFIFOLevelSelect+0x1028b0>
    38ec:	02000022 	andeq	r0, r0, #34	; 0x22
    38f0:	00209704 	eoreq	r9, r0, r4, lsl #14
    38f4:	bd040300 	stclt	3, cr0, [r4, #-0]
    38f8:	0400001f 	streq	r0, [r0], #-31	; 0xffffffe1
    38fc:	233c0500 	teqcs	ip, #0, 10
    3900:	48010000 	stmdami	r1, {}	; <UNPREDICTABLE>
    3904:	0000fa02 	andeq	pc, r0, r2, lsl #20
    3908:	01040600 	tsteq	r4, r0, lsl #12
    390c:	01790a7a 	cmneq	r9, sl, ror sl
    3910:	f9070000 			; <UNDEFINED> instruction: 0xf9070000
    3914:	01000023 	tsteq	r0, r3, lsr #32
    3918:	00c71e7b 	sbceq	r1, r7, fp, ror lr
    391c:	23020000 	movwcs	r0, #8192	; 0x2000
    3920:	240b0700 	strcs	r0, [fp], #-1792	; 0xfffff900
    3924:	7c010000 	stcvc	0, cr0, [r1], {-0}
    3928:	0000ee1f 	andeq	lr, r0, pc, lsl lr
    392c:	01230200 			; <UNDEFINED> instruction: 0x01230200
    3930:	00203c07 	eoreq	r3, r0, r7, lsl #24
    3934:	227d0100 	rsbscs	r0, sp, #0, 2
    3938:	00000127 	andeq	r0, r0, r7, lsr #2
    393c:	07022302 	streq	r2, [r2, -r2, lsl #6]
    3940:	00001eac 	andeq	r1, r0, ip, lsr #29
    3944:	9a1c7e01 	bls	723150 <UART_InterruptFIFOLevelSelect+0x721d10>
    3948:	02000000 	andeq	r0, r0, #0
    394c:	08000323 	stmdaeq	r0, {r0, r1, r5, r8, r9}
    3950:	00000133 	andeq	r0, r0, r3, lsr r1
    3954:	0020f505 	eoreq	pc, r0, r5, lsl #10
    3958:	09800100 	stmibeq	r0, {r8}
    395c:	00000179 	andeq	r0, r0, r9, ror r1
    3960:	00019a09 	andeq	r9, r1, r9, lsl #20
    3964:	00019a00 	andeq	r9, r1, r0, lsl #20
    3968:	005a0a00 	subseq	r0, sl, r0, lsl #20
    396c:	000b0000 	andeq	r0, fp, r0
    3970:	017e040b 	cmneq	lr, fp, lsl #8
    3974:	d20c0000 	andle	r0, ip, #0
    3978:	01000024 	tsteq	r0, r4, lsr #32
    397c:	018a2782 	orreq	r2, sl, r2, lsl #15
    3980:	01010000 	mrseq	r0, (UNDEF: 1)
    3984:	00252b0d 	eoreq	r2, r5, sp, lsl #22
    3988:	1d080200 	sfmne	f0, 4, [r8, #-0]
    398c:	0000017e 	andeq	r0, r0, lr, ror r1
    3990:	38030501 	stmdacc	r3, {r0, r8, sl}
    3994:	0d000012 	stceq	0, cr0, [r0, #-72]	; 0xffffffb8
    3998:	00002544 	andeq	r2, r0, r4, asr #10
    399c:	7e1d0f02 	cdpvc	15, 1, cr0, cr13, cr2, {0}
    39a0:	01000001 	tsteq	r0, r1
    39a4:	123c0305 	eorsne	r0, ip, #335544320	; 0x14000000
    39a8:	3c0d0000 	stccc	0, cr0, [sp], {-0}
    39ac:	02000024 	andeq	r0, r0, #36	; 0x24
    39b0:	017e1d17 	cmneq	lr, r7, lsl sp
    39b4:	05010000 	streq	r0, [r1, #-0]
    39b8:	00124003 	andseq	r4, r2, r3
    39bc:	24550d00 	ldrbcs	r0, [r5], #-3328	; 0xfffff300
    39c0:	1e020000 	cdpne	0, 0, cr0, cr2, cr0, {0}
    39c4:	00017e1d 	andeq	r7, r1, sp, lsl lr
    39c8:	03050100 	movweq	r0, #20736	; 0x5100
    39cc:	00001244 	andeq	r1, r0, r4, asr #4
    39d0:	0024a00d 	eoreq	sl, r4, sp
    39d4:	1d260200 	sfmne	f0, 4, [r6, #-0]
    39d8:	0000017e 	andeq	r0, r0, lr, ror r1
    39dc:	48030501 	stmdami	r3, {r0, r8, sl}
    39e0:	0d000012 	stceq	0, cr0, [r0, #-72]	; 0xffffffb8
    39e4:	000024b9 			; <UNDEFINED> instruction: 0x000024b9
    39e8:	7e1d2d02 	cdpvc	13, 1, cr2, cr13, cr2, {0}
    39ec:	01000001 	tsteq	r0, r1
    39f0:	124c0305 	subne	r0, ip, #335544320	; 0x14000000
    39f4:	eb0d0000 	bl	3439fc <UART_InterruptFIFOLevelSelect+0x3425bc>
    39f8:	02000024 	andeq	r0, r0, #36	; 0x24
    39fc:	017e1d35 	cmneq	lr, r5, lsr sp
    3a00:	05010000 	streq	r0, [r1, #-0]
    3a04:	00125003 	andseq	r5, r2, r3
    3a08:	25040d00 	strcs	r0, [r4, #-3328]	; 0xfffff300
    3a0c:	3c020000 	stccc	0, cr0, [r2], {-0}
    3a10:	00017e1d 	andeq	r7, r1, sp, lsl lr
    3a14:	03050100 	movweq	r0, #20736	; 0x5100
    3a18:	00001254 	andeq	r1, r0, r4, asr r2
    3a1c:	00255d0d 	eoreq	r5, r5, sp, lsl #26
    3a20:	1d440200 	sfmne	f0, 2, [r4, #-0]
    3a24:	0000017e 	andeq	r0, r0, lr, ror r1
    3a28:	58030501 	stmdapl	r3, {r0, r8, sl}
    3a2c:	0d000012 	stceq	0, cr0, [r0, #-72]	; 0xffffffb8
    3a30:	00002576 	andeq	r2, r0, r6, ror r5
    3a34:	7e1d4b02 	vnmlsvc.f64	d4, d13, d2
    3a38:	01000001 	tsteq	r0, r1
    3a3c:	125c0305 	subsne	r0, ip, #335544320	; 0x14000000
    3a40:	6e0d0000 	cdpvs	0, 0, cr0, cr13, cr0, {0}
    3a44:	02000024 	andeq	r0, r0, #36	; 0x24
    3a48:	017e1d53 	cmneq	lr, r3, asr sp
    3a4c:	05010000 	streq	r0, [r1, #-0]
    3a50:	00126003 	andseq	r6, r2, r3
    3a54:	24870d00 	strcs	r0, [r7], #3328	; 0xd00
    3a58:	5a020000 	bpl	83a60 <UART_InterruptFIFOLevelSelect+0x82620>
    3a5c:	00017e1d 	andeq	r7, r1, sp, lsl lr
    3a60:	03050100 	movweq	r0, #20736	; 0x5100
    3a64:	00001264 	andeq	r1, r0, r4, ror #4
    3a68:	0001a00e 	andeq	sl, r1, lr
    3a6c:	1f610200 	svcne	0x00610200
    3a70:	00000305 	andeq	r0, r0, r5, lsl #6
    3a74:	ac000000 	stcge	0, cr0, [r0], {-0}
    3a78:	02000004 	andeq	r0, r0, #4
    3a7c:	0007a700 	andeq	sl, r7, r0, lsl #14
    3a80:	ac010400 	cfstrsge	mvf0, [r1], {-0}
    3a84:	0c000001 	stceq	0, cr0, [r0], {1}
    3a88:	000025f3 	strdeq	r2, [r0], -r3
    3a8c:	01d0002e 	bicseq	r0, r0, lr, lsr #32
	...
    3a98:	0dbe0000 	ldceq	0, cr0, [lr]
    3a9c:	53020000 	movwpl	r0, #8192	; 0x2000
    3aa0:	02000008 	andeq	r0, r0, #8
    3aa4:	00331d06 	eorseq	r1, r3, r6, lsl #26
    3aa8:	01030000 	mrseq	r0, (UNDEF: 3)
    3aac:	000d1408 	andeq	r1, sp, r8, lsl #8
    3ab0:	06010300 	streq	r0, [r1], -r0, lsl #6
    3ab4:	00000d16 	andeq	r0, r0, r6, lsl sp
    3ab8:	e4070203 	str	r0, [r7], #-515	; 0xfffffdfd
    3abc:	0300000e 	movweq	r0, #14
    3ac0:	0a630502 	beq	18c4ed0 <UART_InterruptFIFOLevelSelect+0x18c3a90>
    3ac4:	5d020000 	stcpl	0, cr0, [r2, #-0]
    3ac8:	0200000a 	andeq	r0, r0, #10
    3acc:	005b1c0e 	subseq	r1, fp, lr, lsl #24
    3ad0:	04030000 	streq	r0, [r3], #-0
    3ad4:	00052707 	andeq	r2, r5, r7, lsl #14
    3ad8:	05040300 	streq	r0, [r4, #-768]	; 0xfffffd00
    3adc:	00000808 	andeq	r0, r0, r8, lsl #16
    3ae0:	0a040403 	beq	104af4 <UART_InterruptFIFOLevelSelect+0x1036b4>
    3ae4:	03000005 	movweq	r0, #5
    3ae8:	09b10408 	ldmibeq	r1!, {r3, sl}
    3aec:	08030000 	stmdaeq	r3, {}	; <UNPREDICTABLE>
    3af0:	00052207 	andeq	r2, r5, r7, lsl #4
    3af4:	01070400 	tsteq	r7, r0, lsl #8
    3af8:	00000033 	andeq	r0, r0, r3, lsr r0
    3afc:	bd0d0703 	stclt	7, cr0, [sp, #-12]
    3b00:	05000000 	streq	r0, [r0, #-0]
    3b04:	000025fb 	strdeq	r2, [r0], -fp
    3b08:	26090500 	strcs	r0, [r9], -r0, lsl #10
    3b0c:	05010000 	streq	r0, [r1, #-0]
    3b10:	00002617 	andeq	r2, r0, r7, lsl r6
    3b14:	26250502 	strtcs	r0, [r5], -r2, lsl #10
    3b18:	05030000 	streq	r0, [r3, #-0]
    3b1c:	00002633 	andeq	r2, r0, r3, lsr r6
    3b20:	26410504 	strbcs	r0, [r1], -r4, lsl #10
    3b24:	05050000 	streq	r0, [r5, #-0]
    3b28:	0000264f 	andeq	r2, r0, pc, asr #12
    3b2c:	265d0506 	ldrbcs	r0, [sp], -r6, lsl #10
    3b30:	00070000 	andeq	r0, r7, r0
    3b34:	00267202 	eoreq	r7, r6, r2, lsl #4
    3b38:	02110300 	andseq	r0, r1, #0, 6
    3b3c:	0000007e 	andeq	r0, r0, lr, ror r0
    3b40:	33010704 	movwcc	r0, #5892	; 0x1704
    3b44:	03000000 	movweq	r0, #0
    3b48:	00e40d13 	rsceq	r0, r4, r3, lsl sp
    3b4c:	7d050000 	stcvc	0, cr0, [r5, #-0]
    3b50:	0000002d 	andeq	r0, r0, sp, lsr #32
    3b54:	00274105 	eoreq	r4, r7, r5, lsl #2
    3b58:	02000500 	andeq	r0, r0, #0, 10
    3b5c:	000025e0 	andeq	r2, r0, r0, ror #11
    3b60:	c9011903 	stmdbgt	r1, {r0, r1, r8, fp, ip}
    3b64:	04000000 	streq	r0, [r0], #-0
    3b68:	00330107 	eorseq	r0, r3, r7, lsl #2
    3b6c:	1c030000 	stcne	0, cr0, [r3], {-0}
    3b70:	0001170d 	andeq	r1, r1, sp, lsl #14
    3b74:	27070500 	strcs	r0, [r7, -r0, lsl #10]
    3b78:	05000000 	streq	r0, [r0, #-0]
    3b7c:	0000266b 	andeq	r2, r0, fp, ror #12
    3b80:	25a60501 	strcs	r0, [r6, #1281]!	; 0x501
    3b84:	05020000 	streq	r0, [r2, #-0]
    3b88:	000026d0 	ldrdeq	r2, [r0], -r0
    3b8c:	f0020003 			; <UNDEFINED> instruction: 0xf0020003
    3b90:	03000026 	movweq	r0, #38	; 0x26
    3b94:	00f00222 	rscseq	r0, r0, r2, lsr #4
    3b98:	0c060000 	stceq	0, cr0, [r6], {-0}
    3b9c:	78093203 	stmdavc	r9, {r0, r1, r9, ip, sp}
    3ba0:	07000001 	streq	r0, [r0, -r1]
    3ba4:	00000915 	andeq	r0, r0, r5, lsl r9
    3ba8:	bd143403 	cfldrslt	mvf3, [r4, #-12]
    3bac:	02000000 	andeq	r0, r0, #0
    3bb0:	d5070023 	strle	r0, [r7, #-35]	; 0xffffffdd
    3bb4:	03000025 	movweq	r0, #37	; 0x25
    3bb8:	01171835 	tsteq	r7, r5, lsr r8
    3bbc:	23020000 	movwcs	r0, #8192	; 0x2000
    3bc0:	27350701 	ldrcs	r0, [r5, -r1, lsl #14]!
    3bc4:	36030000 	strcc	r0, [r3], -r0
    3bc8:	0000e418 	andeq	lr, r0, r8, lsl r4
    3bcc:	02230200 	eoreq	r0, r3, #0, 4
    3bd0:	00270207 	eoreq	r0, r7, r7, lsl #4
    3bd4:	0b370300 	bleq	dc47dc <UART_InterruptFIFOLevelSelect+0xdc339c>
    3bd8:	0000004f 	andeq	r0, r0, pc, asr #32
    3bdc:	07042302 	streq	r2, [r4, -r2, lsl #6]
    3be0:	000026eb 	andeq	r2, r0, fp, ror #13
    3be4:	4f0b3803 	svcmi	0x000b3803
    3be8:	02000000 	andeq	r0, r0, #0
    3bec:	02000823 	andeq	r0, r0, #2293760	; 0x230000
    3bf0:	00002692 	muleq	r0, r2, r6
    3bf4:	23023a03 	movwcs	r3, #10755	; 0x2a03
    3bf8:	08000001 	stmdaeq	r0, {r0}
    3bfc:	000025ad 	andeq	r2, r0, sp, lsr #11
    3c00:	78165103 	ldmdavc	r6, {r0, r1, r8, ip, lr}
    3c04:	01000001 	tsteq	r0, r1
    3c08:	01070401 	tsteq	r7, r1, lsl #8
    3c0c:	00000033 	andeq	r0, r0, r3, lsr r0
    3c10:	d10e2a04 	tstle	lr, r4, lsl #20
    3c14:	05000001 	streq	r0, [r0, #-1]
    3c18:	00000d79 	andeq	r0, r0, r9, ror sp
    3c1c:	0d860500 	cfstr32eq	mvfx0, [r6]
    3c20:	05010000 	streq	r0, [r1, #-0]
    3c24:	00000d93 	muleq	r0, r3, sp
    3c28:	0da00502 	cfstr32eq	mvfx0, [r0, #8]!
    3c2c:	05030000 	streq	r0, [r3, #-0]
    3c30:	00000dad 	andeq	r0, r0, sp, lsr #27
    3c34:	0dba0504 	cfldr32eq	mvfx0, [sl, #16]!
    3c38:	05050000 	streq	r0, [r5, #-0]
    3c3c:	00000dc7 	andeq	r0, r0, r7, asr #27
    3c40:	0dd40506 	cfldr64eq	mvdx0, [r4, #24]
    3c44:	00070000 	andeq	r0, r7, r0
    3c48:	0014c002 	andseq	ip, r4, r2
    3c4c:	02350400 	eorseq	r0, r5, #0, 8
    3c50:	00000192 	muleq	r0, r2, r1
    3c54:	33010704 	movwcc	r0, #5892	; 0x1704
    3c58:	04000000 	streq	r0, [r0], #-0
    3c5c:	02160d38 	andseq	r0, r6, #56, 26	; 0xe00
    3c60:	e6050000 	str	r0, [r5], -r0
    3c64:	0000000c 	andeq	r0, r0, ip
    3c68:	000ef705 	andeq	pc, lr, r5, lsl #14
    3c6c:	fd050100 	stc2	1, cr0, [r5, #-0]
    3c70:	0200000e 	andeq	r0, r0, #14
    3c74:	0000c805 	andeq	ip, r0, r5, lsl #16
    3c78:	ce050300 	cdpgt	3, 0, cr0, cr5, cr0, {0}
    3c7c:	04000000 	streq	r0, [r0], #-0
    3c80:	0000d405 	andeq	sp, r0, r5, lsl #8
    3c84:	f8050500 			; <UNDEFINED> instruction: 0xf8050500
    3c88:	0600000d 	streq	r0, [r0], -sp
    3c8c:	175f0200 	ldrbne	r0, [pc, -r0, lsl #4]
    3c90:	41040000 	mrsmi	r0, (UNDEF: 4)
    3c94:	0001dd02 	andeq	sp, r1, r2, lsl #26
    3c98:	04030600 	streq	r0, [r3], #-1536	; 0xfffffa00
    3c9c:	025909b0 	subseq	r0, r9, #176, 18	; 0x2c0000
    3ca0:	1e070000 	cdpne	0, 0, cr0, cr7, cr0, {0}
    3ca4:	04000014 	streq	r0, [r0], #-20	; 0xffffffec
    3ca8:	02161cb1 	andseq	r1, r6, #45312	; 0xb100
    3cac:	23020000 	movwcs	r0, #8192	; 0x2000
    3cb0:	16810700 	strne	r0, [r1], r0, lsl #14
    3cb4:	b2040000 	andlt	r0, r4, #0
    3cb8:	0001d120 	andeq	sp, r1, r0, lsr #2
    3cbc:	01230200 			; <UNDEFINED> instruction: 0x01230200
    3cc0:	0018f907 	andseq	pc, r8, r7, lsl #18
    3cc4:	20b30400 	adcscs	r0, r3, r0, lsl #8
    3cc8:	000001d1 	ldrdeq	r0, [r0], -r1
    3ccc:	00022302 	andeq	r2, r2, r2, lsl #6
    3cd0:	00022209 	andeq	r2, r2, r9, lsl #4
    3cd4:	19060200 	stmdbne	r6, {r9}
    3cd8:	b4040000 	strlt	r0, [r4], #-0
    3cdc:	00025908 	andeq	r5, r2, r8, lsl #18
    3ce0:	07040300 	streq	r0, [r4, -r0, lsl #6]
    3ce4:	0000052c 	andeq	r0, r0, ip, lsr #10
    3ce8:	00028c0a 	andeq	r8, r2, sl, lsl #24
    3cec:	00028100 	andeq	r8, r2, r0, lsl #2
    3cf0:	026a0b00 	rsbeq	r0, sl, #0, 22
    3cf4:	00070000 	andeq	r0, r7, r0
    3cf8:	00027109 	andeq	r7, r2, r9, lsl #2
    3cfc:	5e040c00 	cdppl	12, 0, cr0, cr4, cr0, {0}
    3d00:	09000002 	stmdbeq	r0, {r1}
    3d04:	00000286 	andeq	r0, r0, r6, lsl #5
    3d08:	001c5e08 	andseq	r5, ip, r8, lsl #28
    3d0c:	29c00400 	stmibcs	r0, {sl}^
    3d10:	00000281 	andeq	r0, r0, r1, lsl #5
    3d14:	07040101 	streq	r0, [r4, -r1, lsl #2]
    3d18:	00003301 	andeq	r3, r0, r1, lsl #6
    3d1c:	0d2e0500 	cfstr32eq	mvfx0, [lr, #-0]
    3d20:	0000036e 	andeq	r0, r0, lr, ror #6
    3d24:	000d7605 	andeq	r7, sp, r5, lsl #12
    3d28:	83050000 	movwhi	r0, #20480	; 0x5000
    3d2c:	0100000d 	tsteq	r0, sp
    3d30:	000d9005 	andeq	r9, sp, r5
    3d34:	9d050200 	sfmls	f0, 4, [r5, #-0]
    3d38:	0300000d 	movweq	r0, #13
    3d3c:	000daa05 	andeq	sl, sp, r5, lsl #20
    3d40:	b7050400 	strlt	r0, [r5, -r0, lsl #8]
    3d44:	0500000d 	streq	r0, [r0, #-13]
    3d48:	000dc405 	andeq	ip, sp, r5, lsl #8
    3d4c:	d1050600 	tstle	r5, r0, lsl #12
    3d50:	0700000d 	streq	r0, [r0, -sp]
    3d54:	000dde05 	andeq	sp, sp, r5, lsl #28
    3d58:	eb050800 	bl	145d60 <UART_InterruptFIFOLevelSelect+0x144920>
    3d5c:	0900000d 	stmdbeq	r0, {r0, r2, r3}
    3d60:	000bd305 	andeq	sp, fp, r5, lsl #6
    3d64:	e1050a00 	tst	r5, r0, lsl #20
    3d68:	0b00000b 	bleq	3d9c <UART_InterruptFIFOLevelSelect+0x295c>
    3d6c:	000bef05 	andeq	lr, fp, r5, lsl #30
    3d70:	fd050c00 	stc2	12, cr0, [r5, #-0]
    3d74:	0d00000b 	stceq	0, cr0, [r0, #-44]	; 0xffffffd4
    3d78:	000c0b05 	andeq	r0, ip, r5, lsl #22
    3d7c:	19050e00 	stmdbne	r5, {r9, sl, fp}
    3d80:	0f00000c 	svceq	0x0000000c
    3d84:	000c2705 	andeq	r2, ip, r5, lsl #14
    3d88:	35051000 	strcc	r1, [r5, #-0]
    3d8c:	1100000c 	tstne	r0, ip
    3d90:	000c4305 	andeq	r4, ip, r5, lsl #6
    3d94:	51051200 	mrspl	r1, SP_usr
    3d98:	1300000c 	movwne	r0, #12
    3d9c:	000cec05 	andeq	lr, ip, r5, lsl #24
    3da0:	fa051400 	blx	148da8 <UART_InterruptFIFOLevelSelect+0x147968>
    3da4:	1500000c 	strne	r0, [r0, #-12]
    3da8:	000b2905 	andeq	r2, fp, r5, lsl #18
    3dac:	37051600 	strcc	r1, [r5, -r0, lsl #12]
    3db0:	1700000b 	strne	r0, [r0, -fp]
    3db4:	000d2205 	andeq	r2, sp, r5, lsl #4
    3db8:	30051800 	andcc	r1, r5, r0, lsl #16
    3dbc:	1900000d 	stmdbne	r0, {r0, r2, r3}
    3dc0:	000d3e05 	andeq	r3, sp, r5, lsl #28
    3dc4:	4c051a00 			; <UNDEFINED> instruction: 0x4c051a00
    3dc8:	1b00000d 	blne	3e04 <UART_InterruptFIFOLevelSelect+0x29c4>
    3dcc:	000d5a05 	andeq	r5, sp, r5, lsl #20
    3dd0:	68051c00 	stmdavs	r5, {sl, fp, ip}
    3dd4:	1d00000d 	stcne	0, cr0, [r0, #-52]	; 0xffffffcc
    3dd8:	000e9005 	andeq	r9, lr, r5
    3ddc:	9e051e00 	cdpls	14, 0, cr1, cr5, cr0, {0}
    3de0:	1f00000e 	svcne	0x0000000e
    3de4:	01070400 	tsteq	r7, r0, lsl #8
    3de8:	00000033 	andeq	r0, r0, r3, lsr r0
    3dec:	890d6f05 	stmdbhi	sp, {r0, r2, r8, r9, sl, fp, sp, lr}
    3df0:	05000003 	streq	r0, [r0, #-3]
    3df4:	0000036d 	andeq	r0, r0, sp, ror #6
    3df8:	01430500 	cmpeq	r3, r0, lsl #10
    3dfc:	00010000 	andeq	r0, r1, r0
    3e00:	33010704 	movwcc	r0, #5892	; 0x1704
    3e04:	05000000 	streq	r0, [r0, #-0]
    3e08:	03a40d83 			; <UNDEFINED> instruction: 0x03a40d83
    3e0c:	3a050000 	bcc	143e14 <UART_InterruptFIFOLevelSelect+0x1429d4>
    3e10:	0000000f 	andeq	r0, r0, pc
    3e14:	00010f05 	andeq	r0, r1, r5, lsl #30
    3e18:	0d000100 	stfeqs	f0, [r0, #-0]
    3e1c:	00268101 	eoreq	r8, r6, r1, lsl #2
    3e20:	06370100 	ldrteq	r0, [r7], -r0, lsl #2
    3e24:	00000001 	andeq	r0, r0, r1
    3e28:	00000000 	andeq	r0, r0, r0
    3e2c:	0011a800 	andseq	sl, r1, r0, lsl #16
    3e30:	03cf0100 	biceq	r0, pc, #0, 2
    3e34:	8b0e0000 	blhi	383e3c <UART_InterruptFIFOLevelSelect+0x3829fc>
    3e38:	01000026 	tsteq	r0, r6, lsr #32
    3e3c:	03cf1d37 	biceq	r1, pc, #3520	; 0xdc0
    3e40:	91020000 	mrsls	r0, (UNDEF: 2)
    3e44:	040c0074 	streq	r0, [ip], #-116	; 0xffffff8c
    3e48:	00000027 	andeq	r0, r0, r7, lsr #32
    3e4c:	2726010d 	strcs	r0, [r6, -sp, lsl #2]!
    3e50:	32010000 	andcc	r0, r1, #0
    3e54:	00000106 	andeq	r0, r0, r6, lsl #2
    3e58:	00000000 	andeq	r0, r0, r0
    3e5c:	11f80000 	mvnsne	r0, r0
    3e60:	00010000 	andeq	r0, r1, r0
    3e64:	0e000004 	cdpeq	0, 0, cr0, cr0, cr4, {0}
    3e68:	000025cb 	andeq	r2, r0, fp, asr #11
    3e6c:	cf1b3201 	svcgt	0x001b3201
    3e70:	02000003 	andeq	r0, r0, #3
    3e74:	0d007491 	cfstrseq	mvf7, [r0, #-580]	; 0xfffffdbc
    3e78:	0026a001 	eoreq	sl, r6, r1
    3e7c:	062b0100 	strteq	r0, [fp], -r0, lsl #2
    3e80:	00000001 	andeq	r0, r0, r1
    3e84:	00000000 	andeq	r0, r0, r0
    3e88:	00124800 	andseq	r4, r2, r0, lsl #16
    3e8c:	042b0100 	strteq	r0, [fp], #-256	; 0xffffff00
    3e90:	ae0e0000 	cdpge	0, 0, cr0, cr14, cr0, {0}
    3e94:	01000026 	tsteq	r0, r6, lsr #32
    3e98:	03cf1a2b 	biceq	r1, pc, #176128	; 0x2b000
    3e9c:	91020000 	mrsls	r0, (UNDEF: 2)
    3ea0:	010d0074 	tsteq	sp, r4, ror r0
    3ea4:	0000258f 	andeq	r2, r0, pc, lsl #11
    3ea8:	01062101 	tsteq	r6, r1, lsl #2
	...
    3eb4:	00001298 	muleq	r0, r8, r2
    3eb8:	00045601 	andeq	r5, r4, r1, lsl #12
    3ebc:	25c10e00 	strbcs	r0, [r1, #3584]	; 0xe00
    3ec0:	21010000 	mrscs	r0, (UNDEF: 1)
    3ec4:	0003cf23 	andeq	ip, r3, r3, lsr #30
    3ec8:	74910200 	ldrvc	r0, [r1], #512	; 0x200
    3ecc:	bc010d00 	stclt	13, cr0, [r1], {-0}
    3ed0:	01000026 	tsteq	r0, r6, lsr #32
    3ed4:	00010616 	andeq	r0, r1, r6, lsl r6
    3ed8:	00000000 	andeq	r0, r0, r0
    3edc:	e8000000 	stmda	r0, {}	; <UNPREDICTABLE>
    3ee0:	01000012 	tsteq	r0, r2, lsl r0
    3ee4:	00000481 	andeq	r0, r0, r1, lsl #9
    3ee8:	0025cb0e 	eoreq	ip, r5, lr, lsl #22
    3eec:	20160100 	andscs	r0, r6, r0, lsl #2
    3ef0:	000003cf 	andeq	r0, r0, pc, asr #7
    3ef4:	00749102 	rsbseq	r9, r4, r2, lsl #2
    3ef8:	270e010f 	strcs	r0, [lr, -pc, lsl #2]
    3efc:	0d010000 	stceq	0, cr0, [r1, #-0]
    3f00:	00000106 	andeq	r0, r0, r6, lsl #2
    3f04:	00000000 	andeq	r0, r0, r0
    3f08:	13380000 	teqne	r8, #0
    3f0c:	0f010000 	svceq	0x00010000
    3f10:	0026d701 	eoreq	sp, r6, r1, lsl #14
    3f14:	06080100 	streq	r0, [r8], -r0, lsl #2
    3f18:	00000001 	andeq	r0, r0, r1
    3f1c:	00000000 	andeq	r0, r0, r0
    3f20:	00136400 	andseq	r6, r3, r0, lsl #8
    3f24:	82000100 	andhi	r0, r0, #0, 2
    3f28:	02000008 	andeq	r0, r0, #8
    3f2c:	00088f00 	andeq	r8, r8, r0, lsl #30
    3f30:	ac010400 	cfstrsge	mvf0, [r1], {-0}
    3f34:	0c000001 	stceq	0, cr0, [r0], {1}
    3f38:	00002746 	andeq	r2, r0, r6, asr #14
    3f3c:	0210002e 	andseq	r0, r0, #46	; 0x2e
	...
    3f48:	0ecf0000 	cdpeq	0, 12, cr0, cr15, cr0, {0}
    3f4c:	53020000 	movwpl	r0, #8192	; 0x2000
    3f50:	02000008 	andeq	r0, r0, #8
    3f54:	00331d06 	eorseq	r1, r3, r6, lsl #26
    3f58:	01030000 	mrseq	r0, (UNDEF: 3)
    3f5c:	000d1408 	andeq	r1, sp, r8, lsl #8
    3f60:	06010300 	streq	r0, [r1], -r0, lsl #6
    3f64:	00000d16 	andeq	r0, r0, r6, lsl sp
    3f68:	e4070203 	str	r0, [r7], #-515	; 0xfffffdfd
    3f6c:	0300000e 	movweq	r0, #14
    3f70:	0a630502 	beq	18c5380 <UART_InterruptFIFOLevelSelect+0x18c3f40>
    3f74:	5d020000 	stcpl	0, cr0, [r2, #-0]
    3f78:	0200000a 	andeq	r0, r0, #10
    3f7c:	00601c0e 	rsbeq	r1, r0, lr, lsl #24
    3f80:	4f040000 	svcmi	0x00040000
    3f84:	03000000 	movweq	r0, #0
    3f88:	05270704 	streq	r0, [r7, #-1796]!	; 0xfffff8fc
    3f8c:	bc020000 	stclt	0, cr0, [r2], {-0}
    3f90:	02000027 	andeq	r0, r0, #39	; 0x27
    3f94:	00731c0f 	rsbseq	r1, r3, pc, lsl #24
    3f98:	04030000 	streq	r0, [r3], #-0
    3f9c:	00080805 	andeq	r0, r8, r5, lsl #16
    3fa0:	04040300 	streq	r0, [r4], #-768	; 0xfffffd00
    3fa4:	0000050a 	andeq	r0, r0, sl, lsl #10
    3fa8:	b1040803 	tstlt	r4, r3, lsl #16
    3fac:	03000009 	movweq	r0, #9
    3fb0:	05220708 	streq	r0, [r2, #-1800]!	; 0xfffff8f8
    3fb4:	07050000 	streq	r0, [r5, -r0]
    3fb8:	00003301 	andeq	r3, r0, r1, lsl #6
    3fbc:	0e2a0300 	cdpeq	3, 2, cr0, cr10, cr0, {0}
    3fc0:	000000ce 	andeq	r0, r0, lr, asr #1
    3fc4:	000d7906 	andeq	r7, sp, r6, lsl #18
    3fc8:	86060000 	strhi	r0, [r6], -r0
    3fcc:	0100000d 	tsteq	r0, sp
    3fd0:	000d9306 	andeq	r9, sp, r6, lsl #6
    3fd4:	a0060200 	andge	r0, r6, r0, lsl #4
    3fd8:	0300000d 	movweq	r0, #13
    3fdc:	000dad06 	andeq	sl, sp, r6, lsl #26
    3fe0:	ba060400 	blt	184fe8 <UART_InterruptFIFOLevelSelect+0x183ba8>
    3fe4:	0500000d 	streq	r0, [r0, #-13]
    3fe8:	000dc706 	andeq	ip, sp, r6, lsl #14
    3fec:	d4060600 	strle	r0, [r6], #-1536	; 0xfffffa00
    3ff0:	0700000d 	streq	r0, [r0, -sp]
    3ff4:	14c00200 	strbne	r0, [r0], #512	; 0x200
    3ff8:	35030000 	strcc	r0, [r3, #-0]
    3ffc:	00008f02 	andeq	r8, r0, r2, lsl #30
    4000:	01070500 	tsteq	r7, r0, lsl #10
    4004:	00000033 	andeq	r0, r0, r3, lsr r0
    4008:	130d3803 	movwne	r3, #55299	; 0xd803
    400c:	06000001 	streq	r0, [r0], -r1
    4010:	00000ce6 	andeq	r0, r0, r6, ror #25
    4014:	0ef70600 	cdpeq	6, 15, cr0, cr7, cr0, {0}
    4018:	06010000 	streq	r0, [r1], -r0
    401c:	00000efd 	strdeq	r0, [r0], -sp
    4020:	00c80602 	sbceq	r0, r8, r2, lsl #12
    4024:	06030000 	streq	r0, [r3], -r0
    4028:	000000ce 	andeq	r0, r0, lr, asr #1
    402c:	00d40604 	sbcseq	r0, r4, r4, lsl #12
    4030:	06050000 	streq	r0, [r5], -r0
    4034:	00000df8 	strdeq	r0, [r0], -r8
    4038:	5f020006 	svcpl	0x00020006
    403c:	03000017 	movweq	r0, #23
    4040:	00da0241 	sbcseq	r0, sl, r1, asr #4
    4044:	02070000 	andeq	r0, r7, #0
    4048:	4709b803 	strmi	fp, [r9, -r3, lsl #16]
    404c:	08000001 	stmdaeq	r0, {r0}
    4050:	0000141e 	andeq	r1, r0, lr, lsl r4
    4054:	131cba03 	tstne	ip, #12288	; 0x3000
    4058:	02000001 	andeq	r0, r0, #1
    405c:	7a080023 	bvc	2040f0 <UART_InterruptFIFOLevelSelect+0x202cb0>
    4060:	03000015 	movweq	r0, #21
    4064:	00ce20bb 	strheq	r2, [lr], #11
    4068:	23020000 	movwcs	r0, #8192	; 0x2000
    406c:	3b020001 	blcc	84078 <UART_InterruptFIFOLevelSelect+0x82c38>
    4070:	03000019 	movweq	r0, #25
    4074:	011f03bc 			; <UNDEFINED> instruction: 0x011f03bc
    4078:	04030000 	streq	r0, [r3], #-0
    407c:	00052c07 	andeq	r2, r5, r7, lsl #24
    4080:	1cd80900 			; <UNDEFINED> instruction: 0x1cd80900
    4084:	c2030000 	andgt	r0, r3, #0
    4088:	0001471c 	andeq	r4, r1, ip, lsl r7
    408c:	09010100 	stmdbeq	r1, {r8}
    4090:	00001c96 	muleq	r0, r6, ip
    4094:	471cc403 	ldrmi	ip, [ip, -r3, lsl #8]
    4098:	01000001 	tsteq	r0, r1
    409c:	1c800901 			; <UNDEFINED> instruction: 0x1c800901
    40a0:	c6030000 	strgt	r0, [r3], -r0
    40a4:	0001471c 	andeq	r4, r1, ip, lsl r7
    40a8:	05010100 	streq	r0, [r1, #-256]	; 0xffffff00
    40ac:	01530407 	cmpeq	r3, r7, lsl #8
    40b0:	71040000 	mrsvc	r0, (UNDEF: 4)
    40b4:	0001a90f 	andeq	sl, r1, pc, lsl #18
    40b8:	23180a00 	tstcs	r8, #0, 20
    40bc:	03e80000 	mvneq	r0, #0
    40c0:	0021bd0b 	eoreq	fp, r1, fp, lsl #26
    40c4:	0f424000 	svceq	0x00424000
    40c8:	65530c00 	ldrbvs	r0, [r3, #-3072]	; 0xfffff400
    40cc:	00010063 	andeq	r0, r1, r3, rrx
    40d0:	33010705 	movwcc	r0, #5893	; 0x1705
    40d4:	05000000 	streq	r0, [r0, #-0]
    40d8:	02780d2e 	rsbseq	r0, r8, #2944	; 0xb80
    40dc:	76060000 	strvc	r0, [r6], -r0
    40e0:	0000000d 	andeq	r0, r0, sp
    40e4:	000d8306 	andeq	r8, sp, r6, lsl #6
    40e8:	90060100 	andls	r0, r6, r0, lsl #2
    40ec:	0200000d 	andeq	r0, r0, #13
    40f0:	000d9d06 	andeq	r9, sp, r6, lsl #26
    40f4:	aa060300 	bge	184cfc <UART_InterruptFIFOLevelSelect+0x1838bc>
    40f8:	0400000d 	streq	r0, [r0], #-13
    40fc:	000db706 	andeq	fp, sp, r6, lsl #14
    4100:	c4060500 	strgt	r0, [r6], #-1280	; 0xfffffb00
    4104:	0600000d 	streq	r0, [r0], -sp
    4108:	000dd106 	andeq	sp, sp, r6, lsl #2
    410c:	de060700 	cdple	7, 0, cr0, cr6, cr0, {0}
    4110:	0800000d 	stmdaeq	r0, {r0, r2, r3}
    4114:	000deb06 	andeq	lr, sp, r6, lsl #22
    4118:	d3060900 	movwle	r0, #26880	; 0x6900
    411c:	0a00000b 	beq	4150 <UART_InterruptFIFOLevelSelect+0x2d10>
    4120:	000be106 	andeq	lr, fp, r6, lsl #2
    4124:	ef060b00 	svc	0x00060b00
    4128:	0c00000b 	stceq	0, cr0, [r0], {11}
    412c:	000bfd06 	andeq	pc, fp, r6, lsl #26
    4130:	0b060d00 	bleq	187538 <UART_InterruptFIFOLevelSelect+0x1860f8>
    4134:	0e00000c 	cdpeq	0, 0, cr0, cr0, cr12, {0}
    4138:	000c1906 	andeq	r1, ip, r6, lsl #18
    413c:	27060f00 	strcs	r0, [r6, -r0, lsl #30]
    4140:	1000000c 	andne	r0, r0, ip
    4144:	000c3506 	andeq	r3, ip, r6, lsl #10
    4148:	43061100 	movwmi	r1, #24832	; 0x6100
    414c:	1200000c 	andne	r0, r0, #12
    4150:	000c5106 	andeq	r5, ip, r6, lsl #2
    4154:	ec061300 	stc	3, cr1, [r6], {-0}
    4158:	1400000c 	strne	r0, [r0], #-12
    415c:	000cfa06 	andeq	pc, ip, r6, lsl #20
    4160:	29061500 	stmdbcs	r6, {r8, sl, ip}
    4164:	1600000b 	strne	r0, [r0], -fp
    4168:	000b3706 	andeq	r3, fp, r6, lsl #14
    416c:	22061700 	andcs	r1, r6, #0, 14
    4170:	1800000d 	stmdane	r0, {r0, r2, r3}
    4174:	000d3006 	andeq	r3, sp, r6
    4178:	3e061900 	vmlacc.f16	s2, s12, s0	; <UNPREDICTABLE>
    417c:	1a00000d 	bne	41b8 <UART_InterruptFIFOLevelSelect+0x2d78>
    4180:	000d4c06 	andeq	r4, sp, r6, lsl #24
    4184:	5a061b00 	bpl	18ad8c <UART_InterruptFIFOLevelSelect+0x18994c>
    4188:	1c00000d 	stcne	0, cr0, [r0], {13}
    418c:	000d6806 	andeq	r6, sp, r6, lsl #16
    4190:	90061d00 	andls	r1, r6, r0, lsl #26
    4194:	1e00000e 	cdpne	0, 0, cr0, cr0, cr14, {0}
    4198:	000e9e06 	andeq	r9, lr, r6, lsl #28
    419c:	02001f00 	andeq	r1, r0, #0, 30
    41a0:	00000e3b 	andeq	r0, r0, fp, lsr lr
    41a4:	a9025005 	stmdbge	r2, {r0, r2, ip, lr}
    41a8:	05000001 	streq	r0, [r0, #-1]
    41ac:	00330107 	eorseq	r0, r3, r7, lsl #2
    41b0:	52050000 	andpl	r0, r5, #0
    41b4:	0002ab0d 	andeq	sl, r2, sp, lsl #22
    41b8:	07b70600 	ldreq	r0, [r7, r0, lsl #12]!
    41bc:	06000000 	streq	r0, [r0], -r0
    41c0:	00000811 	andeq	r0, r0, r1, lsl r8
    41c4:	08150601 	ldmdaeq	r5, {r0, r9, sl}
    41c8:	06020000 	streq	r0, [r2], -r0
    41cc:	0000086d 	andeq	r0, r0, sp, ror #16
    41d0:	87020003 	strhi	r0, [r2, -r3]
    41d4:	0500000f 	streq	r0, [r0, #-15]
    41d8:	02840257 	addeq	r0, r4, #1879048197	; 0x70000005
    41dc:	07050000 	streq	r0, [r5, -r0]
    41e0:	00003301 	andeq	r3, r0, r1, lsl #6
    41e4:	0d5a0500 	cfldr64eq	mvdx0, [sl, #-0]
    41e8:	000002de 	ldrdeq	r0, [r0], -lr
    41ec:	00062206 	andeq	r2, r6, r6, lsl #4
    41f0:	e2060000 	and	r0, r6, #0
    41f4:	01000009 	tsteq	r0, r9
    41f8:	0009e606 	andeq	lr, r9, r6, lsl #12
    41fc:	3c060200 	sfmcc	f0, 4, [r6], {-0}
    4200:	03000002 	movweq	r0, #2
    4204:	0a000200 	beq	4a0c <UART_InterruptFIFOLevelSelect+0x35cc>
    4208:	5f050000 	svcpl	0x00050000
    420c:	0002b702 	andeq	fp, r2, r2, lsl #14
    4210:	01070500 	tsteq	r7, r0, lsl #10
    4214:	00000033 	andeq	r0, r0, r3, lsr r0
    4218:	0b0d6205 	bleq	35ca34 <UART_InterruptFIFOLevelSelect+0x35b5f4>
    421c:	06000003 	streq	r0, [r0], -r3
    4220:	00000c6d 	andeq	r0, r0, sp, ror #24
    4224:	07a50600 	streq	r0, [r5, r0, lsl #12]!
    4228:	06010000 	streq	r0, [r1], -r0
    422c:	000007a9 	andeq	r0, r0, r9, lsr #15
    4230:	67020002 	strvs	r0, [r2, -r2]
    4234:	0500000f 	streq	r0, [r0, #-15]
    4238:	02ea0266 	rsceq	r0, sl, #1610612742	; 0x60000006
    423c:	07050000 	streq	r0, [r5, -r0]
    4240:	00003301 	andeq	r3, r0, r1, lsl #6
    4244:	0d690500 	cfstr64eq	mvdx0, [r9, #-0]
    4248:	00000338 	andeq	r0, r0, r8, lsr r3
    424c:	00084606 	andeq	r4, r8, r6, lsl #12
    4250:	a1060000 	mrsge	r0, (UNDEF: 6)
    4254:	01000008 	tsteq	r0, r8
    4258:	0008a506 	andeq	sl, r8, r6, lsl #10
    425c:	02000200 	andeq	r0, r0, #0, 4
    4260:	00000ca2 	andeq	r0, r0, r2, lsr #25
    4264:	17026d05 	strne	r6, [r2, -r5, lsl #26]
    4268:	05000003 	streq	r0, [r0, #-3]
    426c:	00330107 	eorseq	r0, r3, r7, lsl #2
    4270:	6f050000 	svcvs	0x00050000
    4274:	00035f0d 	andeq	r5, r3, sp, lsl #30
    4278:	036d0600 	cmneq	sp, #0, 12
    427c:	06000000 	streq	r0, [r0], -r0
    4280:	00000143 	andeq	r0, r0, r3, asr #2
    4284:	07050001 	streq	r0, [r5, -r1]
    4288:	00003301 	andeq	r3, r0, r1, lsl #6
    428c:	0d740500 	cfldr64eq	mvdx0, [r4, #-0]
    4290:	0000037a 	andeq	r0, r0, sl, ror r3
    4294:	0000ef06 	andeq	lr, r0, r6, lsl #30
    4298:	aa060000 	bge	1842a0 <UART_InterruptFIFOLevelSelect+0x182e60>
    429c:	01000012 	tsteq	r0, r2, lsl r0
    42a0:	01070500 	tsteq	r7, r0, lsl #10
    42a4:	00000033 	andeq	r0, r0, r3, lsr r0
    42a8:	a70d7a05 	strge	r7, [sp, -r5, lsl #20]
    42ac:	06000003 	streq	r0, [r0], -r3
    42b0:	000009b8 			; <UNDEFINED> instruction: 0x000009b8
    42b4:	09c60600 	stmibeq	r6, {r9, sl}^
    42b8:	06010000 	streq	r0, [r1], -r0
    42bc:	000009d4 	ldrdeq	r0, [r0], -r4
    42c0:	076d0602 	strbeq	r0, [sp, -r2, lsl #12]!
    42c4:	06030000 	streq	r0, [r3], -r0
    42c8:	000009f2 	strdeq	r0, [r0], -r2
    42cc:	67020004 	strvs	r0, [r2, -r4]
    42d0:	05000009 	streq	r0, [r0, #-9]
    42d4:	037a0281 	cmneq	sl, #268435464	; 0x10000008
    42d8:	07050000 	streq	r0, [r5, -r0]
    42dc:	00003301 	andeq	r3, r0, r1, lsl #6
    42e0:	0d830500 	cfstr32eq	mvfx0, [r3]
    42e4:	000003ce 	andeq	r0, r0, lr, asr #7
    42e8:	000f3a06 	andeq	r3, pc, r6, lsl #20
    42ec:	0f060000 	svceq	0x00060000
    42f0:	01000001 	tsteq	r0, r1
    42f4:	03530200 	cmpeq	r3, #0, 4
    42f8:	86050000 	strhi	r0, [r5], -r0
    42fc:	0003b302 	andeq	fp, r3, r2, lsl #6
    4300:	01070500 	tsteq	r7, r0, lsl #10
    4304:	00000033 	andeq	r0, r0, r3, lsr r0
    4308:	190d8805 	stmdbne	sp, {r0, r2, fp, pc}
    430c:	06000004 	streq	r0, [r0], -r4
    4310:	00000994 	muleq	r0, r4, r9
    4314:	0c7b0600 	ldcleq	6, cr0, [fp], #-0
    4318:	06010000 	streq	r0, [r1], -r0
    431c:	00000a1a 	andeq	r0, r0, sl, lsl sl
    4320:	059f0602 	ldreq	r0, [pc, #1538]	; 492a <UART_InterruptFIFOLevelSelect+0x34ea>
    4324:	06030000 	streq	r0, [r3], -r0
    4328:	0000012f 	andeq	r0, r0, pc, lsr #2
    432c:	01260604 			; <UNDEFINED> instruction: 0x01260604
    4330:	06050000 	streq	r0, [r5], -r0
    4334:	00000784 	andeq	r0, r0, r4, lsl #15
    4338:	077b0606 	ldrbeq	r0, [fp, -r6, lsl #12]!
    433c:	00070000 	andeq	r0, r7, r0
    4340:	000e4b02 	andeq	r4, lr, r2, lsl #22
    4344:	02910500 	addseq	r0, r1, #0, 10
    4348:	000003da 	ldrdeq	r0, [r0], -sl
    434c:	33010705 	movwcc	r0, #5893	; 0x1705
    4350:	05000000 	streq	r0, [r0, #-0]
    4354:	04760d93 	ldrbteq	r0, [r6], #-3475	; 0xfffff26d
    4358:	d8060000 	stmdale	r6, {}	; <UNPREDICTABLE>
    435c:	0000000e 	andeq	r0, r0, lr
    4360:	0000e206 	andeq	lr, r0, r6, lsl #4
    4364:	38060100 	stmdacc	r6, {r8}
    4368:	0200000a 	andeq	r0, r0, #10
    436c:	000f7a06 	andeq	r7, pc, r6, lsl #20
    4370:	5f060300 	svcpl	0x00060300
    4374:	0400000c 	streq	r0, [r0], #-12
    4378:	000b0006 	andeq	r0, fp, r6
    437c:	3c060500 	cfstr32cc	mvfx0, [r6], {-0}
    4380:	06000007 	streq	r0, [r0], -r7
    4384:	000faf06 	andeq	sl, pc, r6, lsl #30
    4388:	bd060700 	stclt	7, cr0, [r6, #-0]
    438c:	0800000e 	stmdaeq	r0, {r1, r2, r3}
    4390:	000cd706 	andeq	sp, ip, r6, lsl #14
    4394:	2b060900 	blcs	18679c <UART_InterruptFIFOLevelSelect+0x18535c>
    4398:	0a00000e 	beq	43d8 <UART_InterruptFIFOLevelSelect+0x2f98>
    439c:	06380200 	ldrteq	r0, [r8], -r0, lsl #4
    43a0:	9f050000 	svcls	0x00050000
    43a4:	00042502 	andeq	r2, r4, r2, lsl #10
    43a8:	01070500 	tsteq	r7, r0, lsl #10
    43ac:	00000033 	andeq	r0, r0, r3, lsr r0
    43b0:	9d0da105 	stflsd	f2, [sp, #-20]	; 0xffffffec
    43b4:	06000004 	streq	r0, [r0], -r4
    43b8:	00000f1f 	andeq	r0, r0, pc, lsl pc
    43bc:	0eac0600 	cdpeq	6, 10, cr0, cr12, cr0, {0}
    43c0:	00010000 	andeq	r0, r1, r0
    43c4:	000a4502 	andeq	r4, sl, r2, lsl #10
    43c8:	02a40500 	adceq	r0, r4, #0, 10
    43cc:	00000482 	andeq	r0, r0, r2, lsl #9
    43d0:	a7051007 	strge	r1, [r5, -r7]
    43d4:	00055809 	andeq	r5, r5, r9, lsl #16
    43d8:	39aa0800 	stmibcc	sl!, {fp}
    43dc:	a8050000 	stmdage	r5, {}	; <UNPREDICTABLE>
    43e0:	00027815 	andeq	r7, r2, r5, lsl r8
    43e4:	00230200 	eoreq	r0, r3, r0, lsl #4
    43e8:	0003cc08 	andeq	ip, r3, r8, lsl #24
    43ec:	20a90500 	adccs	r0, r9, r0, lsl #10
    43f0:	000002ab 	andeq	r0, r0, fp, lsr #5
    43f4:	08012302 	stmdaeq	r1, {r1, r8, r9, sp}
    43f8:	000008f7 	strdeq	r0, [r0], -r7
    43fc:	de1faa05 	vnmlsle.f32	s20, s30, s10
    4400:	02000002 	andeq	r0, r0, #2
    4404:	a2080223 	andge	r0, r8, #805306370	; 0x30000002
    4408:	0500000f 	streq	r0, [r0, #-15]
    440c:	030b18ab 	movweq	r1, #47275	; 0xb8ab
    4410:	23020000 	movwcs	r0, #8192	; 0x2000
    4414:	0b1d0803 	bleq	746428 <UART_InterruptFIFOLevelSelect+0x744fe8>
    4418:	ac050000 	stcge	0, cr0, [r5], {-0}
    441c:	00033817 	andeq	r3, r3, r7, lsl r8
    4420:	04230200 	strteq	r0, [r3], #-512	; 0xfffffe00
    4424:	00097808 	andeq	r7, r9, r8, lsl #16
    4428:	1ead0500 	cdpne	5, 10, cr0, cr13, cr0, {0}
    442c:	00000419 	andeq	r0, r0, r9, lsl r4
    4430:	08052302 	stmdaeq	r5, {r1, r8, r9, sp}
    4434:	00000861 	andeq	r0, r0, r1, ror #16
    4438:	ce1fae05 	cdpgt	14, 1, cr10, cr15, cr5, {0}
    443c:	02000003 	andeq	r0, r0, #3
    4440:	5b080623 	blpl	205cd4 <UART_InterruptFIFOLevelSelect+0x204894>
    4444:	0500000f 	streq	r0, [r0, #-15]
    4448:	03a716af 			; <UNDEFINED> instruction: 0x03a716af
    444c:	23020000 	movwcs	r0, #8192	; 0x2000
    4450:	083c0807 	ldmdaeq	ip!, {r0, r1, r2, fp}
    4454:	b0050000 	andlt	r0, r5, r0
    4458:	0004761b 	andeq	r7, r4, fp, lsl r6
    445c:	08230200 	stmdaeq	r3!, {r9}
    4460:	000f0308 	andeq	r0, pc, r8, lsl #6
    4464:	1db10500 	cfldr32ne	mvfx0, [r1]
    4468:	0000049d 	muleq	r0, sp, r4
    446c:	08092302 	stmdaeq	r9, {r1, r8, r9, sp}
    4470:	000003ed 	andeq	r0, r0, sp, ror #7
    4474:	4f0bb205 	svcmi	0x000bb205
    4478:	02000000 	andeq	r0, r0, #0
    447c:	02000c23 	andeq	r0, r0, #8960	; 0x2300
    4480:	0000066c 	andeq	r0, r0, ip, ror #12
    4484:	a902b405 	stmdbge	r2, {r0, r2, sl, ip, sp, pc}
    4488:	0d000004 	stceq	0, cr0, [r0, #-16]
    448c:	00055804 	andeq	r5, r5, r4, lsl #16
    4490:	06090900 	streq	r0, [r9], -r0, lsl #18
    4494:	c1050000 	mrsgt	r0, (UNDEF: 5)
    4498:	00056424 	andeq	r6, r5, r4, lsr #8
    449c:	05010100 	streq	r0, [r1, #-256]	; 0xffffff00
    44a0:	00330107 	eorseq	r0, r3, r7, lsl #2
    44a4:	10060000 	andne	r0, r6, r0
    44a8:	0005930d 	andeq	r9, r5, sp, lsl #6
    44ac:	27a40600 	strcs	r0, [r4, r0, lsl #12]!
    44b0:	06000000 	streq	r0, [r0], -r0
    44b4:	0000286e 	andeq	r2, r0, lr, ror #16
    44b8:	08030001 	stmdaeq	r3, {r0}
    44bc:	00080305 	andeq	r0, r8, r5, lsl #6
    44c0:	05040e00 	streq	r0, [r4, #-3584]	; 0xfffff200
    44c4:	00746e69 	rsbseq	r6, r4, r9, ror #28
    44c8:	ac040803 	stcge	8, cr0, [r4], {3}
    44cc:	03000009 	movweq	r0, #9
    44d0:	0d1d0801 	ldceq	8, cr0, [sp, #-4]
    44d4:	510f0000 	mrspl	r0, CPSR
    44d8:	01000027 	tsteq	r0, r7, lsr #32
    44dc:	00270611 	eoreq	r0, r7, r1, lsl r6
    44e0:	05010000 	streq	r0, [r1, #-0]
    44e4:	00000003 	andeq	r0, r0, r3
    44e8:	274d0f00 	strbcs	r0, [sp, -r0, lsl #30]
    44ec:	12010000 	andne	r0, r1, #0
    44f0:	0005d507 	andeq	sp, r5, r7, lsl #10
    44f4:	03050100 	movweq	r0, #20736	; 0x5100
    44f8:	00000000 	andeq	r0, r0, r0
    44fc:	0027040d 	eoreq	r0, r7, sp, lsl #8
    4500:	27100000 	ldrcs	r0, [r0, -r0]
    4504:	ec000000 	stc	0, cr0, [r0], {-0}
    4508:	11000005 	tstne	r0, r5
    450c:	00000153 	andeq	r0, r0, r3, asr r1
    4510:	0f0003ff 	svceq	0x000003ff
    4514:	0000275b 	andeq	r2, r0, fp, asr r7
    4518:	db061401 	blle	189524 <UART_InterruptFIFOLevelSelect+0x1880e4>
    451c:	01000005 	tsteq	r0, r5
    4520:	0d1c0305 	ldceq	3, cr0, [ip, #-20]	; 0xffffffec
    4524:	27102000 	ldrcs	r2, [r0, -r0]
    4528:	0f000000 	svceq	0x00000000
    452c:	12000006 	andne	r0, r0, #6
    4530:	00000153 	andeq	r0, r0, r3, asr r1
    4534:	df0f0000 	svcle	0x000f0000
    4538:	01000027 	tsteq	r0, r7, lsr #32
    453c:	05ff0615 	ldrbeq	r0, [pc, #1557]!	; 4b59 <UART_InterruptFIFOLevelSelect+0x3719>
    4540:	05010000 	streq	r0, [r1, #-0]
    4544:	00111c03 	andseq	r1, r1, r3, lsl #24
    4548:	27eb0f20 	strbcs	r0, [fp, r0, lsr #30]!
    454c:	16010000 	strne	r0, [r1], -r0
    4550:	0005ff06 	andeq	pc, r5, r6, lsl #30
    4554:	03050100 	movweq	r0, #20736	; 0x5100
    4558:	20001120 	andcs	r1, r0, r0, lsr #2
    455c:	0028100f 	eoreq	r1, r8, pc
    4560:	06170100 	ldreq	r0, [r7], -r0, lsl #2
    4564:	000005db 	ldrdeq	r0, [r0], -fp
    4568:	24030501 	strcs	r0, [r3], #-1281	; 0xfffffaff
    456c:	10200011 	eorne	r0, r0, r1, lsl r0
    4570:	0000004f 	andeq	r0, r0, pc, asr #32
    4574:	00000658 	andeq	r0, r0, r8, asr r6
    4578:	00015312 	andeq	r5, r1, r2, lsl r3
    457c:	0f000000 	svceq	0x00000000
    4580:	000010bc 	strheq	r1, [r0], -ip
    4584:	48071a01 	stmdami	r7, {r0, r9, fp, ip}
    4588:	01000006 	tsteq	r0, r6
    458c:	00000305 	andeq	r0, r0, r5, lsl #6
    4590:	870f0000 	strhi	r0, [pc, -r0]
    4594:	01000011 	tsteq	r0, r1, lsl r0
    4598:	0648071b 			; <UNDEFINED> instruction: 0x0648071b
    459c:	05010000 	streq	r0, [r1, #-0]
    45a0:	00000003 	andeq	r0, r0, r3
    45a4:	10c20f00 	sbcne	r0, r2, r0, lsl #30
    45a8:	1c010000 	stcne	0, cr0, [r1], {-0}
    45ac:	00064807 	andeq	r4, r6, r7, lsl #16
    45b0:	03050100 	movweq	r0, #20736	; 0x5100
    45b4:	00000000 	andeq	r0, r0, r0
    45b8:	00004f10 	andeq	r4, r0, r0, lsl pc
    45bc:	0006a100 	andeq	sl, r6, r0, lsl #2
    45c0:	01531200 	cmpeq	r3, r0, lsl #4
    45c4:	00010000 	andeq	r0, r1, r0
    45c8:	0010c80f 	andseq	ip, r0, pc, lsl #16
    45cc:	071f0100 	ldreq	r0, [pc, -r0, lsl #2]
    45d0:	00000691 	muleq	r0, r1, r6
    45d4:	00030501 	andeq	r0, r3, r1, lsl #10
    45d8:	0f000000 	svceq	0x00000000
    45dc:	000010ce 	andeq	r1, r0, lr, asr #1
    45e0:	91072001 	tstls	r7, r1
    45e4:	01000006 	tsteq	r0, r6
    45e8:	00000305 	andeq	r0, r0, r5, lsl #6
    45ec:	8d0f0000 	stchi	0, cr0, [pc, #-0]	; 45f4 <UART_InterruptFIFOLevelSelect+0x31b4>
    45f0:	01000011 	tsteq	r0, r1, lsl r0
    45f4:	06910721 	ldreq	r0, [r1], r1, lsr #14
    45f8:	05010000 	streq	r0, [r1, #-0]
    45fc:	00000003 	andeq	r0, r0, r3
    4600:	004f1000 	subeq	r1, pc, r0
    4604:	06ea0000 	strbteq	r0, [sl], r0
    4608:	53120000 	tstpl	r2, #0
    460c:	05000001 	streq	r0, [r0, #-1]
    4610:	102f0f00 	eorne	r0, pc, r0, lsl #30
    4614:	23010000 	movwcs	r0, #4096	; 0x1000
    4618:	0006da07 	andeq	sp, r6, r7, lsl #20
    461c:	03050100 	movweq	r0, #20736	; 0x5100
    4620:	20001524 	andcs	r1, r0, r4, lsr #10
    4624:	0027790f 	eoreq	r7, r7, pc, lsl #18
    4628:	07240100 	streq	r0, [r4, -r0, lsl #2]!
    462c:	0000004f 	andeq	r0, r0, pc, asr #32
    4630:	3c030501 	cfstr32cc	mvfx0, [r3], {1}
    4634:	10200015 	eorne	r0, r0, r5, lsl r0
    4638:	00000027 	andeq	r0, r0, r7, lsr #32
    463c:	00000720 	andeq	r0, r0, r0, lsr #14
    4640:	00015312 	andeq	r5, r1, r2, lsl r3
    4644:	0f000700 	svceq	0x00000700
    4648:	000027ce 	andeq	r2, r0, lr, asr #15
    464c:	10062601 	andne	r2, r6, r1, lsl #12
    4650:	01000007 	tsteq	r0, r7
    4654:	00000305 	andeq	r0, r0, r5, lsl #6
    4658:	6c0f0000 	stcvs	0, cr0, [pc], {-0}
    465c:	01000027 	tsteq	r0, r7, lsr #32
    4660:	004f0727 	subeq	r0, pc, r7, lsr #14
    4664:	05010000 	streq	r0, [r1, #-0]
    4668:	00154003 	andseq	r4, r5, r3
    466c:	28290f20 	stmdacs	r9!, {r5, r8, r9, sl, fp}
    4670:	28010000 	stmdacs	r1, {}	; <UNPREDICTABLE>
    4674:	00006707 	andeq	r6, r0, r7, lsl #14
    4678:	03050100 	movweq	r0, #20736	; 0x5100
    467c:	00000000 	andeq	r0, r0, r0
    4680:	00287a0f 	eoreq	r7, r8, pc, lsl #20
    4684:	07290100 	streq	r0, [r9, -r0, lsl #2]!
    4688:	00000067 	andeq	r0, r0, r7, rrx
    468c:	00030501 	andeq	r0, r3, r1, lsl #10
    4690:	0f000000 	svceq	0x00000000
    4694:	00002796 	muleq	r0, r6, r7
    4698:	4f072a01 	svcmi	0x00072a01
    469c:	01000000 	mrseq	r0, (UNDEF: 0)
    46a0:	15440305 	strbne	r0, [r4, #-773]	; 0xfffffcfb
    46a4:	3f132000 	svccc	0x00132000
    46a8:	01000028 	tsteq	r0, r8, lsr #32
    46ac:	005b172b 	subseq	r1, fp, fp, lsr #14
    46b0:	03050000 	movweq	r0, #20480	; 0x5000
    46b4:	00000000 	andeq	r0, r0, r0
    46b8:	0027c213 	eoreq	ip, r7, r3, lsl r2
    46bc:	172c0100 	strne	r0, [ip, -r0, lsl #2]!
    46c0:	0000005b 	andeq	r0, r0, fp, asr r0
    46c4:	00000305 	andeq	r0, r0, r5, lsl #6
    46c8:	4b130000 	blmi	4c46d0 <UART_InterruptFIFOLevelSelect+0x4c3290>
    46cc:	01000028 	tsteq	r0, r8, lsr #32
    46d0:	004f0e2d 	subeq	r0, pc, sp, lsr #28
    46d4:	03050000 	movweq	r0, #20480	; 0x5000
    46d8:	00000000 	andeq	r0, r0, r0
    46dc:	00285713 	eoreq	r5, r8, r3, lsl r7
    46e0:	0e2e0100 	sufeqe	f0, f6, f0
    46e4:	0000004f 	andeq	r0, r0, pc, asr #32
    46e8:	00000305 	andeq	r0, r0, r5, lsl #6
    46ec:	27100000 	ldrcs	r0, [r0, -r0]
    46f0:	d8000000 	stmdale	r0, {}	; <UNPREDICTABLE>
    46f4:	11000007 	tstne	r0, r7
    46f8:	00000153 	andeq	r0, r0, r3, asr r1
    46fc:	0f0001ff 	svceq	0x000001ff
    4700:	00002893 	muleq	r0, r3, r8
    4704:	c7063101 	strgt	r3, [r6, -r1, lsl #2]
    4708:	01000007 	tsteq	r0, r7
    470c:	15480305 	strbne	r0, [r8, #-773]	; 0xfffffcfb
    4710:	f70f2000 			; <UNDEFINED> instruction: 0xf70f2000
    4714:	01000027 	tsteq	r0, r7, lsr #32
    4718:	07c70632 			; <UNDEFINED> instruction: 0x07c70632
    471c:	05010000 	streq	r0, [r1, #-0]
    4720:	00174803 	andseq	r4, r7, r3, lsl #16
    4724:	27860f20 	strcs	r0, [r6, r0, lsr #30]
    4728:	34010000 	strcc	r0, [r1], #-0
    472c:	00005b10 	andeq	r5, r0, r0, lsl fp
    4730:	03050100 	movweq	r0, #20736	; 0x5100
    4734:	20001948 	andcs	r1, r0, r8, asr #18
    4738:	28750114 	ldmdacs	r5!, {r2, r4, r8}^
    473c:	3f010000 	svccc	0x00010000
    4740:	059a0105 	ldreq	r0, [sl, #261]	; 0x105
    4744:	08240000 	stmdaeq	r4!, {}	; <UNPREDICTABLE>
    4748:	08c00000 	stmiaeq	r0, {}^	; <UNPREDICTABLE>
    474c:	13900000 	orrsne	r0, r0, #0
    4750:	4f010000 	svcmi	0x00010000
    4754:	15000008 	strne	r0, [r0, #-8]
    4758:	00002863 	andeq	r2, r0, r3, ror #16
    475c:	10012f01 	andne	r2, r1, r1, lsl #30
    4760:	0000059a 	muleq	r0, sl, r5
    4764:	281f1605 	ldmdacs	pc, {r0, r2, r9, sl, ip}	; <UNPREDICTABLE>
    4768:	30010000 	andcc	r0, r1, r0
    476c:	059a0901 	ldreq	r0, [sl, #2305]	; 0x901
    4770:	91020000 	mrsls	r0, (UNDEF: 2)
    4774:	01170074 	tsteq	r7, r4, ror r0
    4778:	00002804 	andeq	r2, r0, r4, lsl #16
    477c:	01063601 	tsteq	r6, r1, lsl #12
	...
    4788:	000013c8 	andeq	r1, r0, r8, asr #7
    478c:	27af1301 	strcs	r1, [pc, r1, lsl #6]!
    4790:	37010000 	strcc	r0, [r1, -r0]
    4794:	00004f0b 	andeq	r4, r0, fp, lsl #30
    4798:	74910200 	ldrvc	r0, [r1], #512	; 0x200
    479c:	0027b413 	eoreq	fp, r7, r3, lsl r4
    47a0:	0b380100 	bleq	e04ba8 <UART_InterruptFIFOLevelSelect+0xe03768>
    47a4:	0000004f 	andeq	r0, r0, pc, asr #32
    47a8:	00709102 	rsbseq	r9, r0, r2, lsl #2
    47ac:	00046b00 	andeq	r6, r4, r0, lsl #22
    47b0:	dd000200 	sfmle	f0, 4, [r0, #-0]
    47b4:	04000009 	streq	r0, [r0], #-9
    47b8:	0001ac01 	andeq	sl, r1, r1, lsl #24
    47bc:	2a430c00 	bcs	10c77c4 <UART_InterruptFIFOLevelSelect+0x10c6384>
    47c0:	002e0000 	eoreq	r0, lr, r0
    47c4:	00000228 	andeq	r0, r0, r8, lsr #4
	...
    47d0:	00000fae 	andeq	r0, r0, lr, lsr #31
    47d4:	00085302 	andeq	r5, r8, r2, lsl #6
    47d8:	1d060200 	sfmne	f0, 4, [r6, #-0]
    47dc:	00000033 	andeq	r0, r0, r3, lsr r0
    47e0:	14080103 	strne	r0, [r8], #-259	; 0xfffffefd
    47e4:	0300000d 	movweq	r0, #13
    47e8:	0d160601 	ldceq	6, cr0, [r6, #-4]
    47ec:	02030000 	andeq	r0, r3, #0
    47f0:	000ee407 	andeq	lr, lr, r7, lsl #8
    47f4:	05020300 	streq	r0, [r2, #-768]	; 0xfffffd00
    47f8:	00000a63 	andeq	r0, r0, r3, ror #20
    47fc:	000a5d02 	andeq	r5, sl, r2, lsl #26
    4800:	1c0e0200 	sfmne	f0, 4, [lr], {-0}
    4804:	00000060 	andeq	r0, r0, r0, rrx
    4808:	00004f04 	andeq	r4, r0, r4, lsl #30
    480c:	07040300 	streq	r0, [r4, -r0, lsl #6]
    4810:	00000527 	andeq	r0, r0, r7, lsr #10
    4814:	08050403 	stmdaeq	r5, {r0, r1, sl}
    4818:	03000008 	movweq	r0, #8
    481c:	050a0404 	streq	r0, [sl, #-1028]	; 0xfffffbfc
    4820:	08030000 	stmdaeq	r3, {}	; <UNPREDICTABLE>
    4824:	0009b104 	andeq	fp, r9, r4, lsl #2
    4828:	07080300 	streq	r0, [r8, -r0, lsl #6]
    482c:	00000522 	andeq	r0, r0, r2, lsr #10
    4830:	0b030405 	bleq	c584c <UART_InterruptFIFOLevelSelect+0xc440c>
    4834:	0000c309 	andeq	ip, r0, r9, lsl #6
    4838:	29d90600 	ldmibcs	r9, {r9, sl}^
    483c:	0e030000 	cdpeq	0, 0, cr0, cr3, cr0, {0}
    4840:	00004f0b 	andeq	r4, r0, fp, lsl #30
    4844:	15030400 	strne	r0, [r3, #-1024]	; 0xfffffc00
    4848:	06002302 	streq	r2, [r0], -r2, lsl #6
    484c:	000028c8 	andeq	r2, r0, r8, asr #17
    4850:	4f0b1003 	svcmi	0x000b1003
    4854:	04000000 	streq	r0, [r0], #-0
    4858:	23021001 	movwcs	r1, #8193	; 0x2001
    485c:	29190600 	ldmdbcs	r9, {r9, sl}
    4860:	11030000 	mrsne	r0, (UNDEF: 3)
    4864:	00004f0b 	andeq	r4, r0, fp, lsl #30
    4868:	00100400 	andseq	r0, r0, r0, lsl #8
    486c:	00002302 	andeq	r2, r0, r2, lsl #6
    4870:	002a5802 	eoreq	r5, sl, r2, lsl #16
    4874:	02140300 	andseq	r0, r4, #0, 6
    4878:	00000083 	andeq	r0, r0, r3, lsl #1
    487c:	16030405 	strne	r0, [r3], -r5, lsl #8
    4880:	00014509 	andeq	r4, r1, r9, lsl #10
    4884:	65520700 	ldrbvs	r0, [r2, #-1792]	; 0xfffff900
    4888:	18030073 	stmdane	r3, {r0, r1, r4, r5, r6}
    488c:	00004f0b 	andeq	r4, r0, fp, lsl #30
    4890:	1b050400 	blne	145898 <UART_InterruptFIFOLevelSelect+0x144458>
    4894:	06002302 	streq	r2, [r0], -r2, lsl #6
    4898:	00002abf 			; <UNDEFINED> instruction: 0x00002abf
    489c:	4f0b1903 	svcmi	0x000b1903
    48a0:	04000000 	streq	r0, [r0], #-0
    48a4:	23021803 	movwcs	r1, #10243	; 0x2803
    48a8:	65720700 	ldrbvs	r0, [r2, #-1792]!	; 0xfffff900
    48ac:	1a030073 	bne	c4a80 <UART_InterruptFIFOLevelSelect+0xc3640>
    48b0:	00004f0c 	andeq	r4, r0, ip, lsl #30
    48b4:	13050400 	movwne	r0, #21504	; 0x5400
    48b8:	06002302 	streq	r2, [r0], -r2, lsl #6
    48bc:	00002ac4 	andeq	r2, r0, r4, asr #21
    48c0:	4f0b1b03 	svcmi	0x000b1b03
    48c4:	04000000 	streq	r0, [r0], #-0
    48c8:	23021003 	movwcs	r1, #8195	; 0x2003
    48cc:	2ac90600 	bcs	ff2460d4 <_E_BSS+0xdf2442e0>
    48d0:	1d030000 	stcne	0, cr0, [r3, #-0]
    48d4:	00004f0b 	andeq	r4, r0, fp, lsl #30
    48d8:	08030400 	stmdaeq	r3, {sl}
    48dc:	06002302 	streq	r2, [r0], -r2, lsl #6
    48e0:	00002ace 	andeq	r2, r0, lr, asr #21
    48e4:	4f0b1f03 	svcmi	0x000b1f03
    48e8:	04000000 	streq	r0, [r0], #-0
    48ec:	23020003 	movwcs	r0, #8195	; 0x2003
    48f0:	10020000 	andne	r0, r2, r0
    48f4:	03000029 	movweq	r0, #41	; 0x29
    48f8:	00cf0220 	sbceq	r0, pc, r0, lsr #4
    48fc:	45040000 	strmi	r0, [r4, #-0]
    4900:	08000001 	stmdaeq	r0, {r0}
    4904:	00330107 	eorseq	r0, r3, r7, lsl #2
    4908:	10040000 	andne	r0, r4, r0
    490c:	00017d0d 	andeq	r7, r1, sp, lsl #26
    4910:	29fd0900 	ldmibcs	sp!, {r8, fp}^
    4914:	09040000 	stmdbeq	r4, {}	; <UNPREDICTABLE>
    4918:	00002b53 	andeq	r2, r0, r3, asr fp
    491c:	2a630905 	bcs	18c6d38 <UART_InterruptFIFOLevelSelect+0x18c58f8>
    4920:	09060000 	stmdbeq	r6, {}	; <UNPREDICTABLE>
    4924:	00002957 	andeq	r2, r0, r7, asr r9
    4928:	01020007 	tsteq	r2, r7
    492c:	0400002b 	streq	r0, [r0], #-43	; 0xffffffd5
    4930:	01560318 	cmpeq	r6, r8, lsl r3
    4934:	07080000 	streq	r0, [r8, -r0]
    4938:	00003301 	andeq	r3, r0, r1, lsl #6
    493c:	0d1a0400 	cfldrseq	mvf0, [sl, #-0]
    4940:	000001ce 	andeq	r0, r0, lr, asr #3
    4944:	002a8c09 	eoreq	r8, sl, r9, lsl #24
    4948:	9e090000 	cdpls	0, 0, cr0, cr9, cr0, {0}
    494c:	0100002a 	tsteq	r0, sl, lsr #32
    4950:	002ab009 	eoreq	fp, sl, r9
    4954:	36090200 	strcc	r0, [r9], -r0, lsl #4
    4958:	03000029 	movweq	r0, #41	; 0x29
    495c:	002af209 	eoreq	pc, sl, r9, lsl #4
    4960:	24090400 	strcs	r0, [r9], #-1024	; 0xfffffc00
    4964:	05000029 	streq	r0, [r0, #-41]	; 0xffffffd7
    4968:	00298709 	eoreq	r8, r9, r9, lsl #14
    496c:	48090600 	stmdami	r9, {r9, sl}
    4970:	07000029 	streq	r0, [r0, -r9, lsr #32]
    4974:	002b1209 	eoreq	r1, fp, r9, lsl #4
    4978:	02000800 	andeq	r0, r0, #0, 16
    497c:	000028b0 			; <UNDEFINED> instruction: 0x000028b0
    4980:	89022604 	stmdbhi	r2, {r2, r9, sl, sp}
    4984:	08000001 	stmdaeq	r0, {r0}
    4988:	00330107 	eorseq	r0, r3, r7, lsl #2
    498c:	28040000 	stmdacs	r4, {}	; <UNPREDICTABLE>
    4990:	00021f0d 	andeq	r1, r2, sp, lsl #30
    4994:	2a890900 	bcs	fe246d9c <_E_BSS+0xde244fa8>
    4998:	09000000 	stmdbeq	r0, {}	; <UNPREDICTABLE>
    499c:	00002a9b 	muleq	r0, fp, sl
    49a0:	2aad0901 	bcs	feb46dac <_E_BSS+0xdeb44fb8>
    49a4:	09020000 	stmdbeq	r2, {}	; <UNPREDICTABLE>
    49a8:	00002933 	andeq	r2, r0, r3, lsr r9
    49ac:	2aef0903 	bcs	ffbc6dc0 <_E_BSS+0xdfbc4fcc>
    49b0:	09040000 	stmdbeq	r4, {}	; <UNPREDICTABLE>
    49b4:	00002921 	andeq	r2, r0, r1, lsr #18
    49b8:	29840905 	stmibcs	r4, {r0, r2, r8, fp}
    49bc:	09060000 	stmdbeq	r6, {}	; <UNPREDICTABLE>
    49c0:	00002945 	andeq	r2, r0, r5, asr #18
    49c4:	2b0f0907 	blcs	3c6de8 <UART_InterruptFIFOLevelSelect+0x3c59a8>
    49c8:	00080000 	andeq	r0, r8, r0
    49cc:	002b3802 	eoreq	r3, fp, r2, lsl #16
    49d0:	02350400 	eorseq	r0, r5, #0, 8
    49d4:	000001da 	ldrdeq	r0, [r0], -sl
    49d8:	00024d0a 	andeq	r4, r2, sl, lsl #26
    49dc:	00023b00 	andeq	r3, r2, r0, lsl #22
    49e0:	02400b00 	subeq	r0, r0, #0, 22
    49e4:	00030000 	andeq	r0, r3, r0
    49e8:	00022b0c 	andeq	r2, r2, ip, lsl #22
    49ec:	07040300 	streq	r0, [r4, -r0, lsl #6]
    49f0:	0000052c 	andeq	r0, r0, ip, lsr #10
    49f4:	005b040d 	subseq	r0, fp, sp, lsl #8
    49f8:	470c0000 	strmi	r0, [ip, -r0]
    49fc:	0e000002 	cdpeq	0, 0, cr0, cr0, cr2, {0}
    4a00:	000029e2 	andeq	r2, r0, r2, ror #19
    4a04:	3b1f1701 	blcc	7ca610 <UART_InterruptFIFOLevelSelect+0x7c91d0>
    4a08:	05000002 	streq	r0, [r0, #-2]
    4a0c:	00126803 	andseq	r6, r2, r3, lsl #16
    4a10:	29960e00 	ldmibcs	r6, {r9, sl, fp}
    4a14:	26010000 	strcs	r0, [r1], -r0
    4a18:	00023b1f 	andeq	r3, r2, pc, lsl fp
    4a1c:	78030500 	stmdavc	r3, {r8, sl}
    4a20:	0e000012 	mcreq	0, 0, r0, cr0, cr2, {0}
    4a24:	000029c4 	andeq	r2, r0, r4, asr #19
    4a28:	3b1f3601 	blcc	7d2234 <UART_InterruptFIFOLevelSelect+0x7d0df4>
    4a2c:	05000002 	streq	r0, [r0, #-2]
    4a30:	00128803 	andseq	r8, r2, r3, lsl #16
    4a34:	2b210e00 	blcs	84823c <UART_InterruptFIFOLevelSelect+0x846dfc>
    4a38:	45010000 	strmi	r0, [r1, #-0]
    4a3c:	00023b1f 	andeq	r3, r2, pc, lsl fp
    4a40:	98030500 	stmdals	r3, {r8, sl}
    4a44:	0a000012 	beq	4a94 <UART_InterruptFIFOLevelSelect+0x3654>
    4a48:	000002b5 			; <UNDEFINED> instruction: 0x000002b5
    4a4c:	000002aa 	andeq	r0, r0, sl, lsr #5
    4a50:	0002400b 	andeq	r4, r2, fp
    4a54:	0c000700 	stceq	7, cr0, [r0], {-0}
    4a58:	0000029a 	muleq	r0, sl, r2
    4a5c:	0151040d 	cmpeq	r1, sp, lsl #8
    4a60:	af0c0000 	svcge	0x000c0000
    4a64:	0e000002 	cdpeq	0, 0, cr0, cr0, cr2, {0}
    4a68:	00002a11 	andeq	r2, r0, r1, lsl sl
    4a6c:	aa245401 	bge	919a78 <UART_InterruptFIFOLevelSelect+0x918638>
    4a70:	05000002 	streq	r0, [r0, #-2]
    4a74:	0012a803 	andseq	sl, r2, r3, lsl #16
    4a78:	b0010f00 	andlt	r0, r1, r0, lsl #30
    4a7c:	01000029 	tsteq	r0, r9, lsr #32
    4a80:	000106a5 	andeq	r0, r1, r5, lsr #13
    4a84:	00000000 	andeq	r0, r0, r0
    4a88:	24000000 	strcs	r0, [r0], #-0
    4a8c:	01000014 	tsteq	r0, r4, lsl r0
    4a90:	00000323 	andeq	r0, r0, r3, lsr #6
    4a94:	0028a210 	eoreq	sl, r8, r0, lsl r2
    4a98:	32a50100 	adccc	r0, r5, #0, 2
    4a9c:	000001ce 	andeq	r0, r0, lr, asr #3
    4aa0:	106f9102 	rsbne	r9, pc, r2, lsl #2
    4aa4:	000028f9 	strdeq	r2, [r0], -r9
    4aa8:	1f5ca501 	svcne	0x005ca501
    4aac:	02000002 	andeq	r0, r0, #2
    4ab0:	49116e91 	ldmdbmi	r1, {r0, r4, r7, r9, sl, fp, sp, lr}
    4ab4:	a5010044 	strge	r0, [r1, #-68]	; 0xffffffbc
    4ab8:	0000276f 	andeq	r2, r0, pc, ror #14
    4abc:	6d910200 	lfmvs	f0, 4, [r1]
    4ac0:	0029090e 	eoreq	r0, r9, lr, lsl #18
    4ac4:	0aa70100 	beq	fe9c4ecc <_E_BSS+0xde9c30d8>
    4ac8:	00000027 	andeq	r0, r0, r7, lsr #32
    4acc:	00779102 	rsbseq	r9, r7, r2, lsl #2
    4ad0:	296b010f 	stmdbcs	fp!, {r0, r1, r2, r3, r8}^
    4ad4:	9c010000 	stcls	0, cr0, [r1], {-0}
    4ad8:	00000106 	andeq	r0, r0, r6, lsl #2
    4adc:	00000000 	andeq	r0, r0, r0
    4ae0:	14800000 	strne	r0, [r0], #0
    4ae4:	4e010000 	cdpmi	0, 0, cr0, cr1, cr0, {0}
    4ae8:	10000003 	andne	r0, r0, r3
    4aec:	00002a4a 	andeq	r2, r0, sl, asr #20
    4af0:	7d2d9c01 	stcvc	12, cr9, [sp, #-4]!
    4af4:	02000001 	andeq	r0, r0, #1
    4af8:	0f007791 	svceq	0x00007791
    4afc:	0028d101 	eoreq	sp, r8, r1, lsl #2
    4b00:	068d0100 	streq	r0, [sp], r0, lsl #2
    4b04:	00000001 	andeq	r0, r0, r1
    4b08:	00000000 	andeq	r0, r0, r0
    4b0c:	0014dc00 	andseq	sp, r4, r0, lsl #24
    4b10:	03970100 	orrseq	r0, r7, #0, 2
    4b14:	77100000 	ldrvc	r0, [r0, -r0]
    4b18:	0100002a 	tsteq	r0, sl, lsr #32
    4b1c:	004f1f8d 	subeq	r1, pc, sp, lsl #31
    4b20:	91020000 	mrsls	r0, (UNDEF: 2)
    4b24:	29050e6c 	stmdbcs	r5, {r2, r3, r5, r6, r9, sl, fp}
    4b28:	8f010000 	svchi	0x00010000
    4b2c:	0000270a 	andeq	r2, r0, sl, lsl #14
    4b30:	77910200 	ldrvc	r0, [r1, r0, lsl #4]
    4b34:	002ae40e 	eoreq	lr, sl, lr, lsl #8
    4b38:	0a930100 	beq	fe4c4f40 <_E_BSS+0xde4c314c>
    4b3c:	00000027 	andeq	r0, r0, r7, lsr #32
    4b40:	00769102 	rsbseq	r9, r6, r2, lsl #2
    4b44:	2ad3010f 	bcs	ff4c4f88 <_E_BSS+0xdf4c3194>
    4b48:	7e010000 	cdpvc	0, 0, cr0, cr1, cr0, {0}
    4b4c:	00000106 	andeq	r0, r0, r6, lsl #2
    4b50:	00000000 	andeq	r0, r0, r0
    4b54:	15380000 	ldrne	r0, [r8, #-0]!
    4b58:	e0010000 	and	r0, r1, r0
    4b5c:	10000003 	andne	r0, r0, r3
    4b60:	00002a77 	andeq	r2, r0, r7, ror sl
    4b64:	4f1d7e01 	svcmi	0x001d7e01
    4b68:	02000000 	andeq	r0, r0, #0
    4b6c:	050e6c91 	streq	r6, [lr, #-3217]	; 0xfffff36f
    4b70:	01000029 	tsteq	r0, r9, lsr #32
    4b74:	00270a80 	eoreq	r0, r7, r0, lsl #21
    4b78:	91020000 	mrsls	r0, (UNDEF: 2)
    4b7c:	2ae40e77 	bcs	ff908560 <_E_BSS+0xdf90676c>
    4b80:	84010000 	strhi	r0, [r1], #-0
    4b84:	0000270a 	andeq	r2, r0, sl, lsl #14
    4b88:	76910200 	ldrvc	r0, [r1], r0, lsl #4
    4b8c:	e4010f00 	str	r0, [r1], #-3840	; 0xfffff100
    4b90:	01000028 	tsteq	r0, r8, lsr #32
    4b94:	0c01066f 	stceq	6, cr0, [r1], {111}	; 0x6f
    4b98:	58000009 	stmdapl	r0, {r0, r3}
    4b9c:	94000009 	strls	r0, [r0], #-9
    4ba0:	01000015 	tsteq	r0, r5, lsl r0
    4ba4:	00000429 	andeq	r0, r0, r9, lsr #8
    4ba8:	002a7710 	eoreq	r7, sl, r0, lsl r7
    4bac:	216f0100 	cmncs	pc, r0, lsl #2
    4bb0:	0000004f 	andeq	r0, r0, pc, asr #32
    4bb4:	0e6c9102 	lgneqe	f1, f2
    4bb8:	00002905 	andeq	r2, r0, r5, lsl #18
    4bbc:	270a7101 	strcs	r7, [sl, -r1, lsl #2]
    4bc0:	02000000 	andeq	r0, r0, #0
    4bc4:	e40e7791 	str	r7, [lr], #-1937	; 0xfffff86f
    4bc8:	0100002a 	tsteq	r0, sl, lsr #32
    4bcc:	00270a75 	eoreq	r0, r7, r5, ror sl
    4bd0:	91020000 	mrsls	r0, (UNDEF: 2)
    4bd4:	01120076 	tsteq	r2, r6, ror r0
    4bd8:	00002a2d 	andeq	r2, r0, sp, lsr #20
    4bdc:	01066201 	tsteq	r6, r1, lsl #4
    4be0:	000008c0 	andeq	r0, r0, r0, asr #17
    4be4:	0000090c 	andeq	r0, r0, ip, lsl #18
    4be8:	000015f0 	strdeq	r1, [r0], -r0
    4bec:	2a771001 	bcs	1dc8bf8 <UART_InterruptFIFOLevelSelect+0x1dc77b8>
    4bf0:	62010000 	andvs	r0, r1, #0
    4bf4:	00004f22 	andeq	r4, r0, r2, lsr #30
    4bf8:	6c910200 	lfmvs	f0, 4, [r1], {0}
    4bfc:	0029050e 	eoreq	r0, r9, lr, lsl #10
    4c00:	0a640100 	beq	1905008 <UART_InterruptFIFOLevelSelect+0x1903bc8>
    4c04:	00000027 	andeq	r0, r0, r7, lsr #32
    4c08:	0e779102 	expeqs	f1, f2
    4c0c:	00002ae4 	andeq	r2, r0, r4, ror #21
    4c10:	270a6801 	strcs	r6, [sl, -r1, lsl #16]
    4c14:	02000000 	andeq	r0, r0, #0
    4c18:	00007691 	muleq	r0, r1, r6
    4c1c:	000001b1 			; <UNDEFINED> instruction: 0x000001b1
    4c20:	0af80002 	beq	ffe04c30 <_E_BSS+0xdfe02e3c>
    4c24:	01040000 	mrseq	r0, (UNDEF: 4)
    4c28:	000001ac 	andeq	r0, r0, ip, lsr #3
    4c2c:	002b670c 	eoreq	r6, fp, ip, lsl #14
    4c30:	60002e00 	andvs	r2, r0, r0, lsl #28
    4c34:	00000002 	andeq	r0, r0, r2
    4c38:	00000000 	andeq	r0, r0, r0
    4c3c:	6f000000 	svcvs	0x00000000
    4c40:	02000011 	andeq	r0, r0, #17
    4c44:	0d160601 	ldceq	6, cr0, [r6, #-4]
    4c48:	01020000 	mrseq	r0, (UNDEF: 2)
    4c4c:	000d1408 	andeq	r1, sp, r8, lsl #8
    4c50:	05020200 	streq	r0, [r2, #-512]	; 0xfffffe00
    4c54:	00000a63 	andeq	r0, r0, r3, ror #20
    4c58:	e4070202 	str	r0, [r7], #-514	; 0xfffffdfe
    4c5c:	0200000e 	andeq	r0, r0, #14
    4c60:	08080504 	stmdaeq	r8, {r2, r8, sl}
    4c64:	04020000 	streq	r0, [r2], #-0
    4c68:	00052707 	andeq	r2, r5, r7, lsl #14
    4c6c:	05080200 	streq	r0, [r8, #-512]	; 0xfffffe00
    4c70:	00000803 	andeq	r0, r0, r3, lsl #16
    4c74:	22070802 	andcs	r0, r7, #131072	; 0x20000
    4c78:	03000005 	movweq	r0, #5
    4c7c:	6e690504 	cdpvs	5, 6, cr0, cr9, cr4, {0}
    4c80:	04020074 	streq	r0, [r2], #-116	; 0xffffff8c
    4c84:	00052c07 	andeq	r2, r5, r7, lsl #24
    4c88:	004a0400 	subeq	r0, sl, r0, lsl #8
    4c8c:	007d0000 	rsbseq	r0, sp, r0
    4c90:	66050000 	strvs	r0, [r5], -r0
    4c94:	ff000000 			; <UNDEFINED> instruction: 0xff000000
    4c98:	2b7b0600 	blcs	1ec64a0 <UART_InterruptFIFOLevelSelect+0x1ec5060>
    4c9c:	1b010000 	blne	44ca4 <UART_InterruptFIFOLevelSelect+0x43864>
    4ca0:	00006d16 	andeq	r6, r0, r6, lsl sp
    4ca4:	4c030500 	cfstr32mi	mvfx0, [r3], {-0}
    4ca8:	04200019 	strteq	r0, [r0], #-25	; 0xffffffe7
    4cac:	000000aa 	andeq	r0, r0, sl, lsr #1
    4cb0:	0000009f 	muleq	r0, pc, r0	; <UNPREDICTABLE>
    4cb4:	00006605 	andeq	r6, r0, r5, lsl #12
    4cb8:	07000600 	streq	r0, [r0, -r0, lsl #12]
    4cbc:	0000008f 	andeq	r0, r0, pc, lsl #1
    4cc0:	00af0408 	adceq	r0, pc, r8, lsl #8
    4cc4:	a4070000 	strge	r0, [r7], #-0
    4cc8:	09000000 	stmdbeq	r0, {}	; <UNPREDICTABLE>
    4ccc:	000000b6 	strheq	r0, [r0], -r6
    4cd0:	d70b000a 	strle	r0, [fp, -sl]
    4cd4:	0100002b 	tsteq	r0, fp, lsr #32
    4cd8:	009f0e1e 	addseq	r0, pc, lr, lsl lr	; <UNPREDICTABLE>
    4cdc:	05010000 	streq	r0, [r1, #-0]
    4ce0:	00000003 	andeq	r0, r0, r3
    4ce4:	2ba80c00 	blcs	fea07cec <_E_BSS+0xdea05ef8>
    4ce8:	2c010000 	stccs	0, cr0, [r1], {-0}
    4cec:	00006615 	andeq	r6, r0, r5, lsl r6
    4cf0:	0c010100 	stfeqs	f0, [r1], {-0}
    4cf4:	00002bcf 	andeq	r2, r0, pc, asr #23
    4cf8:	66152d01 	ldrvs	r2, [r5], -r1, lsl #26
    4cfc:	01000000 	mrseq	r0, (UNDEF: 0)
    4d00:	2b990c01 	blcs	fe647d0c <_E_BSS+0xde645f18>
    4d04:	2e010000 	cdpcs	0, 0, cr0, cr1, cr0, {0}
    4d08:	00006615 	andeq	r6, r0, r5, lsl r6
    4d0c:	0c010100 	stfeqs	f0, [r1], {-0}
    4d10:	00002be5 	andeq	r2, r0, r5, ror #23
    4d14:	66152f01 	ldrvs	r2, [r5], -r1, lsl #30
    4d18:	01000000 	mrseq	r0, (UNDEF: 0)
    4d1c:	2ba10c01 	blcs	fe847d28 <_E_BSS+0xde845f34>
    4d20:	30010000 	andcc	r0, r1, r0
    4d24:	00006615 	andeq	r6, r0, r5, lsl r6
    4d28:	0d010100 	stfeqs	f0, [r1, #-0]
    4d2c:	002b8501 	eoreq	r8, fp, r1, lsl #10
    4d30:	06330100 	ldrteq	r0, [r3], -r0, lsl #2
    4d34:	00000964 	andeq	r0, r0, r4, ror #18
    4d38:	000009e4 	andeq	r0, r0, r4, ror #19
    4d3c:	0000164c 	andeq	r1, r0, ip, asr #12
    4d40:	00019801 	andeq	r9, r1, r1, lsl #16
    4d44:	2b710600 	blcs	1c4654c <UART_InterruptFIFOLevelSelect+0x1c4510c>
    4d48:	35010000 	strcc	r0, [r1, #-0]
    4d4c:	0000660e 	andeq	r6, r0, lr, lsl #12
    4d50:	68910200 	ldmvs	r1, {r9}
    4d54:	002bb606 	eoreq	fp, fp, r6, lsl #12
    4d58:	0e360100 	rsfeqs	f0, f6, f0
    4d5c:	00000066 	andeq	r0, r0, r6, rrx
    4d60:	06649102 	strbteq	r9, [r4], -r2, lsl #2
    4d64:	00002b93 	muleq	r0, r3, fp
    4d68:	98103901 	ldmdals	r0, {r0, r8, fp, ip, sp}
    4d6c:	02000001 	andeq	r0, r0, #1
    4d70:	b0066091 	mullt	r6, r1, r0
    4d74:	0100002b 	tsteq	r0, fp, lsr #32
    4d78:	0198103a 	orrseq	r1, r8, sl, lsr r0
    4d7c:	91020000 	mrsls	r0, (UNDEF: 2)
    4d80:	09820e74 	stmibeq	r2, {r2, r4, r5, r6, r9, sl, fp}
    4d84:	09a60000 	stmibeq	r6!, {}	; <UNPREDICTABLE>
    4d88:	01800000 	orreq	r0, r0, r0
    4d8c:	690f0000 	stmdbvs	pc, {}	; <UNPREDICTABLE>
    4d90:	0a3c0100 	beq	f05198 <UART_InterruptFIFOLevelSelect+0xf03d58>
    4d94:	0000005f 	andeq	r0, r0, pc, asr r0
    4d98:	00709102 	rsbseq	r9, r0, r2, lsl #2
    4d9c:	0009a610 	andeq	sl, r9, r0, lsl r6
    4da0:	0009c400 	andeq	ip, r9, r0, lsl #8
    4da4:	00690f00 	rsbeq	r0, r9, r0, lsl #30
    4da8:	5f0a4101 	svcpl	0x000a4101
    4dac:	02000000 	andeq	r0, r0, #0
    4db0:	00006c91 	muleq	r0, r1, ip
    4db4:	002e0408 	eoreq	r0, lr, r8, lsl #8
    4db8:	01110000 	tsteq	r1, r0
    4dbc:	00002bbf 			; <UNDEFINED> instruction: 0x00002bbf
    4dc0:	58060c01 	stmdapl	r6, {r0, sl, fp}
    4dc4:	64000009 	strvs	r0, [r0], #-9
    4dc8:	9c000009 	stcls	0, cr0, [r0], {9}
    4dcc:	01000016 	tsteq	r0, r6, lsl r0
    4dd0:	00077500 	andeq	r7, r7, r0, lsl #10
    4dd4:	e0000200 	and	r0, r0, r0, lsl #4
    4dd8:	0400000b 	streq	r0, [r0], #-11
    4ddc:	0001ac01 	andeq	sl, r1, r1, lsl #24
    4de0:	31190c00 	tstcc	r9, r0, lsl #24
    4de4:	002e0000 	eoreq	r0, lr, r0
    4de8:	00000278 	andeq	r0, r0, r8, ror r2
	...
    4df4:	00001233 	andeq	r1, r0, r3, lsr r2
    4df8:	00085302 	andeq	r5, r8, r2, lsl #6
    4dfc:	1d060200 	sfmne	f0, 4, [r6, #-0]
    4e00:	00000038 	andeq	r0, r0, r8, lsr r0
    4e04:	00002703 	andeq	r2, r0, r3, lsl #14
    4e08:	08010400 	stmdaeq	r1, {sl}
    4e0c:	00000d14 	andeq	r0, r0, r4, lsl sp
    4e10:	16060104 	strne	r0, [r6], -r4, lsl #2
    4e14:	0400000d 	streq	r0, [r0], #-13
    4e18:	0ee40702 	cdpeq	7, 14, cr0, cr4, cr2, {0}
    4e1c:	02040000 	andeq	r0, r4, #0
    4e20:	000a6305 	andeq	r6, sl, r5, lsl #6
    4e24:	0a5d0200 	beq	174562c <UART_InterruptFIFOLevelSelect+0x17441ec>
    4e28:	0e020000 	cdpeq	0, 0, cr0, cr2, cr0, {0}
    4e2c:	0000601c 	andeq	r6, r0, ip, lsl r0
    4e30:	07040400 	streq	r0, [r4, -r0, lsl #8]
    4e34:	00000527 	andeq	r0, r0, r7, lsr #10
    4e38:	08050404 	stmdaeq	r5, {r2, sl}
    4e3c:	04000008 	streq	r0, [r0], #-8
    4e40:	050a0404 	streq	r0, [sl, #-1028]	; 0xfffffbfc
    4e44:	08040000 	stmdaeq	r4, {}	; <UNPREDICTABLE>
    4e48:	0009b104 	andeq	fp, r9, r4, lsl #2
    4e4c:	07080400 	streq	r0, [r8, -r0, lsl #8]
    4e50:	00000522 	andeq	r0, r0, r2, lsr #10
    4e54:	0e030405 	cdpeq	4, 0, cr0, cr3, cr5, {0}
    4e58:	00014107 	andeq	r4, r1, r7, lsl #2
    4e5c:	313b0600 	teqcc	fp, r0, lsl #12
    4e60:	10030000 	andne	r0, r3, r0
    4e64:	00005410 	andeq	r5, r0, r0, lsl r4
    4e68:	1f010400 	svcne	0x00010400
    4e6c:	06002302 	streq	r2, [r0], -r2, lsl #6
    4e70:	00002d66 	andeq	r2, r0, r6, ror #26
    4e74:	54101203 	ldrpl	r1, [r0], #-515	; 0xfffffdfd
    4e78:	04000000 	streq	r0, [r0], #-0
    4e7c:	23021a02 	movwcs	r1, #10754	; 0x2a02
    4e80:	2cf80600 	ldclcs	6, cr0, [r8]
    4e84:	13030000 	movwne	r0, #12288	; 0x3000
    4e88:	00005410 	andeq	r5, r0, r0, lsl r4
    4e8c:	15050400 	strne	r0, [r5, #-1024]	; 0xfffffc00
    4e90:	06002302 	streq	r2, [r0], -r2, lsl #6
    4e94:	000030d5 	ldrdeq	r3, [r0], -r5
    4e98:	54101403 	ldrpl	r1, [r0], #-1027	; 0xfffffbfd
    4e9c:	04000000 	streq	r0, [r0], #-0
    4ea0:	23021401 	movwcs	r1, #9217	; 0x2401
    4ea4:	2f1b0600 	svccs	0x001b0600
    4ea8:	16030000 	strne	r0, [r3], -r0
    4eac:	00005410 	andeq	r5, r0, r0, lsl r4
    4eb0:	12010400 	andne	r0, r1, #0, 8
    4eb4:	06002302 	streq	r2, [r0], -r2, lsl #6
    4eb8:	00002c22 	andeq	r2, r0, r2, lsr #24
    4ebc:	54101803 	ldrpl	r1, [r0], #-2051	; 0xfffff7fd
    4ec0:	04000000 	streq	r0, [r0], #-0
    4ec4:	23020c03 	movwcs	r0, #11267	; 0x2c03
    4ec8:	303a0600 	eorscc	r0, sl, r0, lsl #12
    4ecc:	19030000 	stmdbne	r3, {}	; <UNPREDICTABLE>
    4ed0:	00005410 	andeq	r5, r0, r0, lsl r4
    4ed4:	0b010400 	bleq	45edc <UART_InterruptFIFOLevelSelect+0x44a9c>
    4ed8:	06002302 	streq	r2, [r0], -r2, lsl #6
    4edc:	00002c5a 	andeq	r2, r0, sl, asr ip
    4ee0:	54101b03 	ldrpl	r1, [r0], #-2819	; 0xfffff4fd
    4ee4:	04000000 	streq	r0, [r0], #-0
    4ee8:	23020901 	movwcs	r0, #10497	; 0x2901
    4eec:	2f860600 	svccs	0x00860600
    4ef0:	1c030000 	stcne	0, cr0, [r3], {-0}
    4ef4:	00005410 	andeq	r5, r0, r0, lsl r4
    4ef8:	05040400 	streq	r0, [r4, #-1024]	; 0xfffffc00
    4efc:	06002302 	streq	r2, [r0], -r2, lsl #6
    4f00:	00002d28 	andeq	r2, r0, r8, lsr #26
    4f04:	54101d03 	ldrpl	r1, [r0], #-3331	; 0xfffff2fd
    4f08:	04000000 	streq	r0, [r0], #-0
    4f0c:	23020401 	movwcs	r0, #9217	; 0x2401
    4f10:	04070000 	streq	r0, [r7], #-0
    4f14:	63090d03 	movwvs	r0, #40195	; 0x9d03
    4f18:	08000001 	stmdaeq	r0, {r0}
    4f1c:	00002709 	andeq	r2, r0, r9, lsl #14
    4f20:	83062003 	movwhi	r2, #24579	; 0x6003
    4f24:	08000000 	stmdaeq	r0, {}	; <UNPREDICTABLE>
    4f28:	00002b2f 	andeq	r2, r0, pc, lsr #22
    4f2c:	54082203 	strpl	r2, [r8], #-515	; 0xfffffdfd
    4f30:	00000000 	andeq	r0, r0, r0
    4f34:	002eda02 	eoreq	sp, lr, r2, lsl #20
    4f38:	02240300 	eoreq	r0, r4, #0, 6
    4f3c:	00000141 	andeq	r0, r0, r1, asr #2
    4f40:	4f030405 	svcmi	0x00030405
    4f44:	00020905 	andeq	r0, r2, r5, lsl #18
    4f48:	15120600 	ldrne	r0, [r2, #-1536]	; 0xfffffa00
    4f4c:	50030000 	andpl	r0, r3, r0
    4f50:	0000540a 	andeq	r5, r0, sl, lsl #8
    4f54:	1f010400 	svcne	0x00010400
    4f58:	06002302 	streq	r2, [r0], -r2, lsl #6
    4f5c:	00002c8b 	andeq	r2, r0, fp, lsl #25
    4f60:	540a5103 	strpl	r5, [sl], #-259	; 0xfffffefd
    4f64:	04000000 	streq	r0, [r0], #-0
    4f68:	23021e01 	movwcs	r1, #11777	; 0x2e01
    4f6c:	31900600 	orrscc	r0, r0, r0, lsl #12
    4f70:	53030000 	movwpl	r0, #12288	; 0x3000
    4f74:	0000540a 	andeq	r5, r0, sl, lsl #8
    4f78:	1c010400 	cfstrsne	mvf0, [r1], {-0}
    4f7c:	06002302 	streq	r2, [r0], -r2, lsl #6
    4f80:	00002caf 	andeq	r2, r0, pc, lsr #25
    4f84:	540a5503 	strpl	r5, [sl], #-1283	; 0xfffffafd
    4f88:	04000000 	streq	r0, [r0], #-0
    4f8c:	23021901 	movwcs	r1, #10497	; 0x2901
    4f90:	2cac0600 	stccs	6, cr0, [ip]
    4f94:	56030000 	strpl	r0, [r3], -r0
    4f98:	0000540a 	andeq	r5, r0, sl, lsl #8
    4f9c:	18010400 	stmdane	r1, {sl}
    4fa0:	06002302 	streq	r2, [r0], -r2, lsl #6
    4fa4:	00002efd 	strdeq	r2, [r0], -sp
    4fa8:	540a5703 	strpl	r5, [sl], #-1795	; 0xfffff8fd
    4fac:	04000000 	streq	r0, [r0], #-0
    4fb0:	23021701 	movwcs	r1, #9985	; 0x2701
    4fb4:	31880600 	orrcc	r0, r8, r0, lsl #12
    4fb8:	59030000 	stmdbpl	r3, {}	; <UNPREDICTABLE>
    4fbc:	0000540a 	andeq	r5, r0, sl, lsl #8
    4fc0:	15010400 	strne	r0, [r1, #-1024]	; 0xfffffc00
    4fc4:	06002302 	streq	r2, [r0], -r2, lsl #6
    4fc8:	00003107 	andeq	r3, r0, r7, lsl #2
    4fcc:	540a5a03 	strpl	r5, [sl], #-2563	; 0xfffff5fd
    4fd0:	04000000 	streq	r0, [r0], #-0
    4fd4:	23021401 	movwcs	r1, #9217	; 0x2401
    4fd8:	04070000 	streq	r0, [r7], #-0
    4fdc:	2b094d03 	blcs	2583f0 <UART_InterruptFIFOLevelSelect+0x256fb0>
    4fe0:	08000002 	stmdaeq	r0, {r1}
    4fe4:	00002709 	andeq	r2, r0, r9, lsl #14
    4fe8:	6f065d03 	svcvs	0x00065d03
    4fec:	08000001 	stmdaeq	r0, {r0}
    4ff0:	00002b2f 	andeq	r2, r0, pc, lsr #22
    4ff4:	540b5f03 	strpl	r5, [fp], #-3843	; 0xfffff0fd
    4ff8:	00000000 	andeq	r0, r0, r0
    4ffc:	00232602 	eoreq	r2, r3, r2, lsl #12
    5000:	02600300 	rsbeq	r0, r0, #0, 6
    5004:	00000209 	andeq	r0, r0, r9, lsl #4
    5008:	65030405 	strvs	r0, [r3, #-1029]	; 0xfffffbfb
    500c:	0002d105 	andeq	sp, r2, r5, lsl #2
    5010:	31290600 			; <UNDEFINED> instruction: 0x31290600
    5014:	67030000 	strvs	r0, [r3, -r0]
    5018:	00005411 	andeq	r5, r0, r1, lsl r4
    501c:	19030400 	stmdbne	r3, {sl}
    5020:	06002302 	streq	r2, [r0], -r2, lsl #6
    5024:	00003066 	andeq	r3, r0, r6, rrx
    5028:	54116903 	ldrpl	r6, [r1], #-2307	; 0xfffff6fd
    502c:	04000000 	streq	r0, [r0], #-0
    5030:	23021401 	movwcs	r1, #9217	; 0x2401
    5034:	2f420600 	svccs	0x00420600
    5038:	6b030000 	blvs	c5040 <UART_InterruptFIFOLevelSelect+0xc3c00>
    503c:	00005411 	andeq	r5, r0, r1, lsl r4
    5040:	12010400 	andne	r0, r1, #0, 8
    5044:	06002302 	streq	r2, [r0], -r2, lsl #6
    5048:	00002e79 	andeq	r2, r0, r9, ror lr
    504c:	54116c03 	ldrpl	r6, [r1], #-3075	; 0xfffff3fd
    5050:	04000000 	streq	r0, [r0], #-0
    5054:	23021101 	movwcs	r1, #8449	; 0x2101
    5058:	2e890600 	cdpcs	6, 8, cr0, cr9, cr0, {0}
    505c:	6e030000 	cdpvs	0, 0, cr0, cr3, cr0, {0}
    5060:	00005411 	andeq	r5, r0, r1, lsl r4
    5064:	09010400 	stmdbeq	r1, {sl}
    5068:	06002302 	streq	r2, [r0], -r2, lsl #6
    506c:	00002ffc 	strdeq	r2, [r0], -ip
    5070:	54116f03 	ldrpl	r6, [r1], #-3843	; 0xfffff0fd
    5074:	04000000 	streq	r0, [r0], #-0
    5078:	23020306 	movwcs	r0, #8966	; 0x2306
    507c:	307b0600 	rsbscc	r0, fp, r0, lsl #12
    5080:	71030000 	mrsvc	r0, (UNDEF: 3)
    5084:	00005411 	andeq	r5, r0, r1, lsl r4
    5088:	01010400 	tsteq	r1, r0, lsl #8
    508c:	06002302 	streq	r2, [r0], -r2, lsl #6
    5090:	00002f31 	andeq	r2, r0, r1, lsr pc
    5094:	54117203 	ldrpl	r7, [r1], #-515	; 0xfffffdfd
    5098:	04000000 	streq	r0, [r0], #-0
    509c:	23020001 	movwcs	r0, #8193	; 0x2001
    50a0:	04070000 	streq	r0, [r7], #-0
    50a4:	f3096403 	vshl.u8	d6, d3, d9
    50a8:	08000002 	stmdaeq	r0, {r1}
    50ac:	00002709 	andeq	r2, r0, r9, lsl #14
    50b0:	37067403 	strcc	r7, [r6, -r3, lsl #8]
    50b4:	08000002 	stmdaeq	r0, {r1}
    50b8:	00002b2f 	andeq	r2, r0, pc, lsr #22
    50bc:	540b7603 	strpl	r7, [fp], #-1539	; 0xfffff9fd
    50c0:	00000000 	andeq	r0, r0, r0
    50c4:	002d9302 	eoreq	r9, sp, r2, lsl #6
    50c8:	02770300 	rsbseq	r0, r7, #0, 6
    50cc:	000002d1 	ldrdeq	r0, [r0], -r1
    50d0:	7a030405 	bvc	c60ec <UART_InterruptFIFOLevelSelect+0xc4cac>
    50d4:	00032d05 	andeq	r2, r3, r5, lsl #26
    50d8:	2c0c0600 	stccs	6, cr0, [ip], {-0}
    50dc:	7c030000 	stcvc	0, cr0, [r3], {-0}
    50e0:	0000540e 	andeq	r5, r0, lr, lsl #8
    50e4:	1f010400 	svcne	0x00010400
    50e8:	06002302 	streq	r2, [r0], -r2, lsl #6
    50ec:	00002c17 	andeq	r2, r0, r7, lsl ip
    50f0:	540e7d03 	strpl	r7, [lr], #-3331	; 0xfffff2fd
    50f4:	04000000 	streq	r0, [r0], #-0
    50f8:	23021e01 	movwcs	r1, #11777	; 0x2e01
    50fc:	04070000 	streq	r0, [r7], #-0
    5100:	4f097903 	svcmi	0x00097903
    5104:	08000003 	stmdaeq	r0, {r0, r1}
    5108:	00002709 	andeq	r2, r0, r9, lsl #14
    510c:	ff068003 			; <UNDEFINED> instruction: 0xff068003
    5110:	08000002 	stmdaeq	r0, {r1}
    5114:	00002b2f 	andeq	r2, r0, pc, lsr #22
    5118:	540b8203 	strpl	r8, [fp], #-515	; 0xfffffdfd
    511c:	00000000 	andeq	r0, r0, r0
    5120:	002eba02 	eoreq	fp, lr, r2, lsl #20
    5124:	02830300 	addeq	r0, r3, #0, 6
    5128:	0000032d 	andeq	r0, r0, sp, lsr #6
    512c:	38010709 	stmdacc	r1, {r0, r3, r8, r9, sl}
    5130:	04000000 	streq	r0, [r0], #-0
    5134:	03820d24 	orreq	r0, r2, #36, 26	; 0x900
    5138:	ab0a0000 	blge	285140 <UART_InterruptFIFOLevelSelect+0x283d00>
    513c:	0000002e 	andeq	r0, r0, lr, lsr #32
    5140:	002cc90a 	eoreq	ip, ip, sl, lsl #18
    5144:	ea0a0100 	b	28554c <UART_InterruptFIFOLevelSelect+0x28410c>
    5148:	02000030 	andeq	r0, r0, #48	; 0x30
    514c:	002e4e0a 	eoreq	r4, lr, sl, lsl #28
    5150:	02000300 	andeq	r0, r0, #0, 6
    5154:	00002c73 	andeq	r2, r0, r3, ror ip
    5158:	5b032a04 	blpl	cf970 <UART_InterruptFIFOLevelSelect+0xce530>
    515c:	09000003 	stmdbeq	r0, {r0, r1}
    5160:	00380107 	eorseq	r0, r8, r7, lsl #2
    5164:	2d040000 	stccs	0, cr0, [r4, #-0]
    5168:	0003bb0e 	andeq	fp, r3, lr, lsl #22
    516c:	2bec0a00 	blcs	ffb07974 <_E_BSS+0xdfb05b80>
    5170:	0a090000 	beq	245178 <UART_InterruptFIFOLevelSelect+0x243d38>
    5174:	00002de4 	andeq	r2, r0, r4, ror #27
    5178:	2d050a0b 	vstrcs	s0, [r5, #-44]	; 0xffffffd4
    517c:	0a0d0000 	beq	345184 <UART_InterruptFIFOLevelSelect+0x343d44>
    5180:	0000310f 	andeq	r3, r0, pc, lsl #2
    5184:	31660a0e 	cmncc	r6, lr, lsl #20
    5188:	00100000 	andseq	r0, r0, r0
    518c:	002dc902 	eoreq	ip, sp, r2, lsl #18
    5190:	03340400 	teqeq	r4, #0, 8
    5194:	0000038e 	andeq	r0, r0, lr, lsl #7
    5198:	38010709 	stmdacc	r1, {r0, r3, r8, r9, sl}
    519c:	04000000 	streq	r0, [r0], #-0
    51a0:	03e20e37 	mvneq	r0, #880	; 0x370
    51a4:	7a0a0000 	bvc	2851ac <UART_InterruptFIFOLevelSelect+0x283d6c>
    51a8:	00000031 	andeq	r0, r0, r1, lsr r0
    51ac:	002d1b0a 	eoreq	r1, sp, sl, lsl #22
    51b0:	02000100 	andeq	r0, r0, #0, 2
    51b4:	00002e22 	andeq	r2, r0, r2, lsr #28
    51b8:	c7023a04 	strgt	r3, [r2, -r4, lsl #20]
    51bc:	09000003 	stmdbeq	r0, {r0, r1}
    51c0:	00380107 	eorseq	r0, r8, r7, lsl #2
    51c4:	3d040000 	stccc	0, cr0, [r4, #-0]
    51c8:	0004090d 	andeq	r0, r4, sp, lsl #18
    51cc:	31bb0a00 			; <UNDEFINED> instruction: 0x31bb0a00
    51d0:	0a000000 	beq	51d8 <UART_InterruptFIFOLevelSelect+0x3d98>
    51d4:	00002c40 	andeq	r2, r0, r0, asr #24
    51d8:	58020001 	stmdapl	r2, {r0}
    51dc:	0400002f 	streq	r0, [r0], #-47	; 0xffffffd1
    51e0:	03ee0340 	mvneq	r0, #64, 6
    51e4:	07090000 	streq	r0, [r9, -r0]
    51e8:	00003801 	andeq	r3, r0, r1, lsl #16
    51ec:	0d430400 	cfstrdeq	mvd0, [r3, #-0]
    51f0:	00000430 	andeq	r0, r0, r0, lsr r4
    51f4:	002ecf0a 	eoreq	ip, lr, sl, lsl #30
    51f8:	df0a0000 	svcle	0x000a0000
    51fc:	01000030 	tsteq	r0, r0, lsr r0
    5200:	2d9c0200 	lfmcs	f0, 4, [ip]
    5204:	46040000 	strmi	r0, [r4], -r0
    5208:	00041502 	andeq	r1, r4, r2, lsl #10
    520c:	01070900 	tsteq	r7, r0, lsl #18
    5210:	00000038 	andeq	r0, r0, r8, lsr r0
    5214:	ab0d4904 	blge	35762c <UART_InterruptFIFOLevelSelect+0x3561ec>
    5218:	0a000004 	beq	5230 <UART_InterruptFIFOLevelSelect+0x3df0>
    521c:	00002eeb 	andeq	r2, r0, fp, ror #29
    5220:	2ef40a00 	vmovcs.f32	s1, #64	; 0x3e000000  0.125
    5224:	0a010000 	beq	4522c <UART_InterruptFIFOLevelSelect+0x43dec>
    5228:	00003082 	andeq	r3, r0, r2, lsl #1
    522c:	308b0a02 	addcc	r0, fp, r2, lsl #20
    5230:	0a030000 	beq	c5238 <UART_InterruptFIFOLevelSelect+0xc3df8>
    5234:	00002f28 	andeq	r2, r0, r8, lsr #30
    5238:	31710a04 	cmncc	r1, r4, lsl #20
    523c:	0a050000 	beq	145244 <UART_InterruptFIFOLevelSelect+0x143e04>
    5240:	00002f39 	andeq	r2, r0, r9, lsr pc
    5244:	30bf0a06 	adcscc	r0, pc, r6, lsl #20
    5248:	0a070000 	beq	1c5250 <UART_InterruptFIFOLevelSelect+0x1c3e10>
    524c:	00002f4f 	andeq	r2, r0, pc, asr #30
    5250:	2fb60a08 	svccs	0x00b60a08
    5254:	0a090000 	beq	24525c <UART_InterruptFIFOLevelSelect+0x243e1c>
    5258:	00002fc0 	andeq	r2, r0, r0, asr #31
    525c:	2fca0a0a 	svccs	0x00ca0a0a
    5260:	0a0b0000 	beq	2c5268 <UART_InterruptFIFOLevelSelect+0x2c3e28>
    5264:	00002fd4 	ldrdeq	r2, [r0], -r4
    5268:	2fde0a0c 	svccs	0x00de0a0c
    526c:	0a0d0000 	beq	345274 <UART_InterruptFIFOLevelSelect+0x343e34>
    5270:	00002fe8 	andeq	r2, r0, r8, ror #31
    5274:	2ff20a0e 	svccs	0x00f20a0e
    5278:	000f0000 	andeq	r0, pc, r0
    527c:	002f7102 	eoreq	r7, pc, r2, lsl #2
    5280:	025a0400 	subseq	r0, sl, #0, 8
    5284:	0000043c 	andeq	r0, r0, ip, lsr r4
    5288:	38010709 	stmdacc	r1, {r0, r3, r8, r9, sl}
    528c:	04000000 	streq	r0, [r0], #-0
    5290:	04ea0d5d 	strbteq	r0, [sl], #3421	; 0xd5d
    5294:	c60a0000 	strgt	r0, [sl], -r0
    5298:	0000002e 	andeq	r0, r0, lr, lsr #32
    529c:	002ee20a 	eoreq	lr, lr, sl, lsl #4
    52a0:	f60a0100 			; <UNDEFINED> instruction: 0xf60a0100
    52a4:	0200002d 	andeq	r0, r0, #45	; 0x2d
    52a8:	0030710a 	eorseq	r7, r0, sl, lsl #2
    52ac:	480a0300 	stmdami	sl, {r8, r9}
    52b0:	0400002d 	streq	r0, [r0], #-45	; 0xffffffd3
    52b4:	002c500a 	eoreq	r5, ip, sl
    52b8:	02000700 	andeq	r0, r0, #0, 14
    52bc:	00003151 	andeq	r3, r0, r1, asr r1
    52c0:	b7026404 	strlt	r6, [r2, -r4, lsl #8]
    52c4:	09000004 	stmdbeq	r0, {r2}
    52c8:	00380107 	eorseq	r0, r8, r7, lsl #2
    52cc:	67040000 	strvs	r0, [r4, -r0]
    52d0:	0005110d 	andeq	r1, r5, sp, lsl #2
    52d4:	2e170a00 	vnmlscs.f32	s0, s14, s0
    52d8:	0a000000 	beq	52e0 <UART_InterruptFIFOLevelSelect+0x3ea0>
    52dc:	00002fab 	andeq	r2, r0, fp, lsr #31
    52e0:	a7020001 	strge	r0, [r2, -r1]
    52e4:	04000030 	streq	r0, [r0], #-48	; 0xffffffd0
    52e8:	04f6026a 	ldrbteq	r0, [r6], #618	; 0x26a
    52ec:	05050000 	streq	r0, [r5, #-0]
    52f0:	72097904 	andvc	r7, r9, #4, 18	; 0x10000
    52f4:	0b000005 	bleq	5310 <UART_InterruptFIFOLevelSelect+0x3ed0>
    52f8:	00002ce2 	andeq	r2, r0, r2, ror #25
    52fc:	821d7a04 	andshi	r7, sp, #4, 20	; 0x4000
    5300:	02000003 	andeq	r0, r0, #3
    5304:	c80b0023 	stmdagt	fp, {r0, r1, r5}
    5308:	04000030 	streq	r0, [r0], #-48	; 0xffffffd0
    530c:	0430207b 	ldrteq	r2, [r0], #-123	; 0xffffff85
    5310:	23020000 	movwcs	r0, #8192	; 0x2000
    5314:	2d380b01 	fldmdbxcs	r8!, {d0-d-1}	;@ Deprecated
    5318:	7c040000 	stcvc	0, cr0, [r4], {-0}
    531c:	0004ab1a 	andeq	sl, r4, sl, lsl fp
    5320:	02230200 	eoreq	r0, r3, #0, 4
    5324:	0031a70b 	eorseq	sl, r1, fp, lsl #14
    5328:	1e7d0400 	cdpne	4, 7, cr0, cr13, cr0, {0}
    532c:	000003e2 	andeq	r0, r0, r2, ror #7
    5330:	0b032302 	bleq	cdf40 <UART_InterruptFIFOLevelSelect+0xccb00>
    5334:	00002cf2 	strdeq	r2, [r0], -r2	; <UNPREDICTABLE>
    5338:	bb207e04 	bllt	824b50 <UART_InterruptFIFOLevelSelect+0x823710>
    533c:	02000003 	andeq	r0, r0, #3
    5340:	02000423 	andeq	r0, r0, #587202560	; 0x23000000
    5344:	00003050 	andeq	r3, r0, r0, asr r0
    5348:	1d028004 	stcne	0, cr8, [r2, #-16]
    534c:	05000005 	streq	r0, [r0, #-5]
    5350:	09830403 	stmibeq	r3, {r0, r1, sl}
    5354:	000005b5 			; <UNDEFINED> instruction: 0x000005b5
    5358:	0031970b 	eorseq	r9, r1, fp, lsl #14
    535c:	1a850400 	bne	fe146364 <_E_BSS+0xde144570>
    5360:	000004ea 	andeq	r0, r0, sl, ror #9
    5364:	0b002302 	bleq	df74 <UART_InterruptFIFOLevelSelect+0xcb34>
    5368:	00002e65 	andeq	r2, r0, r5, ror #28
    536c:	091e8604 	ldmdbeq	lr, {r2, r9, sl, pc}
    5370:	02000004 	andeq	r0, r0, #4
    5374:	100b0123 	andne	r0, fp, r3, lsr #2
    5378:	04000030 	streq	r0, [r0], #-48	; 0xffffffd0
    537c:	05111d87 	ldreq	r1, [r1, #-3463]	; 0xfffff279
    5380:	23020000 	movwcs	r0, #8192	; 0x2000
    5384:	24020002 	strcs	r0, [r2], #-2
    5388:	04000030 	streq	r0, [r0], #-48	; 0xffffffd0
    538c:	057e0289 	ldrbeq	r0, [lr, #-649]!	; 0xfffffd77
    5390:	330c0000 	movwcc	r0, #49152	; 0xc000
    5394:	d1000000 	mrsle	r0, (UNDEF: 0)
    5398:	0d000005 	stceq	0, cr0, [r0, #-20]	; 0xffffffec
    539c:	000005d6 	ldrdeq	r0, [r0], -r6
    53a0:	c103000f 	tstgt	r3, pc
    53a4:	04000005 	streq	r0, [r0], #-5
    53a8:	052c0704 	streq	r0, [ip, #-1796]!	; 0xfffff8fc
    53ac:	890e0000 	stmdbhi	lr, {}	; <UNPREDICTABLE>
    53b0:	0100002d 	tsteq	r0, sp, lsr #32
    53b4:	05d10c29 	ldrbeq	r0, [r1, #3113]	; 0xc29
    53b8:	05010000 	streq	r0, [r1, #-0]
    53bc:	0012c803 	andseq	ip, r2, r3, lsl #16
    53c0:	00330c00 	eorseq	r0, r3, r0, lsl #24
    53c4:	06000000 	streq	r0, [r0], -r0
    53c8:	d60d0000 	strle	r0, [sp], -r0
    53cc:	07000005 	streq	r0, [r0, -r5]
    53d0:	05f00300 	ldrbeq	r0, [r0, #768]!	; 0x300
    53d4:	360e0000 	strcc	r0, [lr], -r0
    53d8:	0100002c 	tsteq	r0, ip, lsr #32
    53dc:	06000c2a 	streq	r0, [r0], -sl, lsr #24
    53e0:	05010000 	streq	r0, [r1, #-0]
    53e4:	0012d803 	andseq	sp, r2, r3, lsl #16
    53e8:	ff010f00 			; <UNDEFINED> instruction: 0xff010f00
    53ec:	0100002d 	tsteq	r0, sp, lsr #32
    53f0:	0106012c 	tsteq	r6, ip, lsr #2
	...
    53fc:	000016c8 	andeq	r1, r0, r8, asr #13
    5400:	00064501 	andeq	r4, r6, r1, lsl #10
    5404:	2e3b1000 	cdpcs	0, 3, cr1, cr11, cr0, {0}
    5408:	2c010000 	stccs	0, cr0, [r1], {-0}
    540c:	05113701 	ldreq	r3, [r1, #-1793]	; 0xfffff8ff
    5410:	91020000 	mrsls	r0, (UNDEF: 2)
    5414:	01110077 	tsteq	r1, r7, ror r0
    5418:	00003094 	muleq	r0, r4, r0
    541c:	07011801 	streq	r1, [r1, -r1, lsl #16]
    5420:	00005401 	andeq	r5, r0, r1, lsl #8
	...
    542c:	00172400 	andseq	r2, r7, r0, lsl #8
    5430:	06960100 	ldreq	r0, [r6], r0, lsl #2
    5434:	52100000 	andspl	r0, r0, #0
    5438:	0100002d 	tsteq	r0, sp, lsr #32
    543c:	96320118 			; <UNDEFINED> instruction: 0x96320118
    5440:	02000006 	andeq	r0, r0, #6
    5444:	ee126c91 	mrc	12, 0, r6, cr2, cr1, {4}
    5448:	0100002d 	tsteq	r0, sp, lsr #32
    544c:	540b011a 	strpl	r0, [fp], #-282	; 0xfffffee6
    5450:	02000000 	andeq	r0, r0, #0
    5454:	10127091 	mulsne	r2, r1, r0
    5458:	0100002d 	tsteq	r0, sp, lsr #32
    545c:	540b011b 	strpl	r0, [fp], #-283	; 0xfffffee5
    5460:	02000000 	andeq	r0, r0, #0
    5464:	13007491 	movwne	r7, #1169	; 0x491
    5468:	0005b504 	andeq	fp, r5, r4, lsl #10
    546c:	94011400 	strls	r1, [r1], #-1024	; 0xfffffc00
    5470:	0100002e 	tsteq	r0, lr, lsr #32
    5474:	01060109 	tsteq	r6, r9, lsl #2
	...
    5480:	00001774 	andeq	r1, r0, r4, ror r7
    5484:	0006c901 	andeq	ip, r6, r1, lsl #18
    5488:	2d551000 	ldclcs	0, cr1, [r5, #-0]
    548c:	09010000 	stmdbeq	r1, {}	; <UNPREDICTABLE>
    5490:	06963401 	ldreq	r3, [r6], r1, lsl #8
    5494:	91020000 	mrsls	r0, (UNDEF: 2)
    5498:	01150074 	tsteq	r5, r4, ror r0
    549c:	00002d77 	andeq	r2, r0, r7, ror sp
    54a0:	0107db01 	tsteq	r7, r1, lsl #22
    54a4:	00000054 	andeq	r0, r0, r4, asr r0
    54a8:	00000a2c 	andeq	r0, r0, ip, lsr #20
    54ac:	00000ac8 	andeq	r0, r0, r8, asr #21
    54b0:	000017c4 	andeq	r1, r0, r4, asr #15
    54b4:	0006f801 	andeq	pc, r6, r1, lsl #16
    54b8:	2db71600 	ldccs	6, cr1, [r7]
    54bc:	dd010000 	stcle	0, cr0, [r1, #-0]
    54c0:	0000540b 	andeq	r5, r0, fp, lsl #8
    54c4:	74910200 	ldrvc	r0, [r1], #512	; 0x200
    54c8:	2bf61700 	blcs	ffd8b0d0 <_E_BSS+0xdfd892dc>
    54cc:	af010000 	svcge	0x00010000
    54d0:	0054010e 	subseq	r0, r4, lr, lsl #2
    54d4:	09e40000 	stmibeq	r4!, {}^	; <UNPREDICTABLE>
    54d8:	0a2c0000 	beq	b054e0 <UART_InterruptFIFOLevelSelect+0xb040a0>
    54dc:	18140000 	ldmdane	r4, {}	; <UNPREDICTABLE>
    54e0:	18010000 	stmdane	r1, {}	; <UNPREDICTABLE>
    54e4:	002f9901 	eoreq	r9, pc, r1, lsl #18
    54e8:	06450100 	strbeq	r0, [r5], -r0, lsl #2
    54ec:	00000001 	andeq	r0, r0, r1
    54f0:	00000000 	andeq	r0, r0, r0
    54f4:	00185800 	andseq	r5, r8, r0, lsl #16
    54f8:	073d0100 	ldreq	r0, [sp, -r0, lsl #2]!
    54fc:	c0190000 	andsgt	r0, r9, r0
    5500:	0100002d 	tsteq	r0, sp, lsr #32
    5504:	073d2f45 	ldreq	r2, [sp, -r5, asr #30]!
    5508:	91020000 	mrsls	r0, (UNDEF: 2)
    550c:	04130074 	ldreq	r0, [r3], #-116	; 0xffffff8c
    5510:	00000572 	andeq	r0, r0, r2, ror r5
    5514:	002c931a 	eoreq	r9, ip, sl, lsl r3
    5518:	0f2c0100 	svceq	0x002c0100
    551c:	00077101 	andeq	r7, r7, r1, lsl #2
	...
    5528:	0018b400 	andseq	fp, r8, r0, lsl #8
    552c:	07710100 	ldrbeq	r0, [r1, -r0, lsl #2]!
    5530:	52190000 	andspl	r0, r9, #0
    5534:	0100002d 	tsteq	r0, sp, lsr #32
    5538:	06963f2c 	ldreq	r3, [r6], ip, lsr #30
    553c:	91020000 	mrsls	r0, (UNDEF: 2)
    5540:	041b0074 	ldreq	r0, [fp], #-116	; 0xffffff8c
    5544:	746e6905 	strbtvc	r6, [lr], #-2309	; 0xfffff6fb
    5548:	02f50000 	rscseq	r0, r5, #0
    554c:	00020000 	andeq	r0, r2, r0
    5550:	00000dcb 	andeq	r0, r0, fp, asr #27
    5554:	01ac0104 			; <UNDEFINED> instruction: 0x01ac0104
    5558:	cc0c0000 	stcgt	0, cr0, [ip], {-0}
    555c:	2e000031 	mcrcs	0, 0, r0, cr0, cr1, {1}
    5560:	0014a000 	andseq	sl, r4, r0
    5564:	01070200 	mrseq	r0, (UNDEF: 39)
    5568:	00000042 	andeq	r0, r0, r2, asr #32
    556c:	420d2401 	andmi	r2, sp, #16777216	; 0x1000000
    5570:	03000000 	movweq	r0, #0
    5574:	00002eab 	andeq	r2, r0, fp, lsr #29
    5578:	2cc90300 	stclcs	3, cr0, [r9], {0}
    557c:	03010000 	movweq	r0, #4096	; 0x1000
    5580:	000030ea 	andeq	r3, r0, sl, ror #1
    5584:	2e4e0302 	cdpcs	3, 4, cr0, cr14, cr2, {0}
    5588:	00030000 	andeq	r0, r3, r0
    558c:	14080104 	strne	r0, [r8], #-260	; 0xfffffefc
    5590:	0500000d 	streq	r0, [r0, #-13]
    5594:	00002c73 	andeq	r2, r0, r3, ror ip
    5598:	1b032a01 	blne	cfda4 <UART_InterruptFIFOLevelSelect+0xce964>
    559c:	02000000 	andeq	r0, r0, #0
    55a0:	00420107 	subeq	r0, r2, r7, lsl #2
    55a4:	2d010000 	stccs	0, cr0, [r1, #-0]
    55a8:	0000820e 	andeq	r8, r0, lr, lsl #4
    55ac:	2bec0300 	blcs	ffb061b4 <_E_BSS+0xdfb043c0>
    55b0:	03090000 	movweq	r0, #36864	; 0x9000
    55b4:	00002de4 	andeq	r2, r0, r4, ror #27
    55b8:	2d05030b 	stccs	3, cr0, [r5, #-44]	; 0xffffffd4
    55bc:	030d0000 	movweq	r0, #53248	; 0xd000
    55c0:	0000310f 	andeq	r3, r0, pc, lsl #2
    55c4:	3166030e 	cmncc	r6, lr, lsl #6
    55c8:	00100000 	andseq	r0, r0, r0
    55cc:	002dc905 	eoreq	ip, sp, r5, lsl #18
    55d0:	03340100 	teqeq	r4, #0, 2
    55d4:	00000055 	andeq	r0, r0, r5, asr r0
    55d8:	42010702 	andmi	r0, r1, #524288	; 0x80000
    55dc:	01000000 	mrseq	r0, (UNDEF: 0)
    55e0:	00a90e37 	adceq	r0, r9, r7, lsr lr
    55e4:	7a030000 	bvc	c55ec <UART_InterruptFIFOLevelSelect+0xc41ac>
    55e8:	00000031 	andeq	r0, r0, r1, lsr r0
    55ec:	002d1b03 	eoreq	r1, sp, r3, lsl #22
    55f0:	05000100 	streq	r0, [r0, #-256]	; 0xffffff00
    55f4:	00002e22 	andeq	r2, r0, r2, lsr #28
    55f8:	8e023a01 	vmlahi.f32	s6, s4, s2
    55fc:	02000000 	andeq	r0, r0, #0
    5600:	00420107 	subeq	r0, r2, r7, lsl #2
    5604:	3d010000 	stccc	0, cr0, [r1, #-0]
    5608:	0000d00d 	andeq	sp, r0, sp
    560c:	31bb0300 			; <UNDEFINED> instruction: 0x31bb0300
    5610:	03000000 	movweq	r0, #0
    5614:	00002c40 	andeq	r2, r0, r0, asr #24
    5618:	58050001 	stmdapl	r5, {r0}
    561c:	0100002f 	tsteq	r0, pc, lsr #32
    5620:	00b50340 	adcseq	r0, r5, r0, asr #6
    5624:	07020000 	streq	r0, [r2, -r0]
    5628:	00004201 	andeq	r4, r0, r1, lsl #4
    562c:	0d430100 	stfeqe	f0, [r3, #-0]
    5630:	000000f7 	strdeq	r0, [r0], -r7
    5634:	002ecf03 	eoreq	ip, lr, r3, lsl #30
    5638:	df030000 	svcle	0x00030000
    563c:	01000030 	tsteq	r0, r0, lsr r0
    5640:	2d9c0500 	cfldr32cs	mvfx0, [ip]
    5644:	46010000 	strmi	r0, [r1], -r0
    5648:	0000dc02 	andeq	sp, r0, r2, lsl #24
    564c:	01070200 	mrseq	r0, (UNDEF: 39)
    5650:	00000042 	andeq	r0, r0, r2, asr #32
    5654:	720d4901 	andvc	r4, sp, #16384	; 0x4000
    5658:	03000001 	movweq	r0, #1
    565c:	00002eeb 	andeq	r2, r0, fp, ror #29
    5660:	2ef40300 	cdpcs	3, 15, cr0, cr4, cr0, {0}
    5664:	03010000 	movweq	r0, #4096	; 0x1000
    5668:	00003082 	andeq	r3, r0, r2, lsl #1
    566c:	308b0302 	addcc	r0, fp, r2, lsl #6
    5670:	03030000 	movweq	r0, #12288	; 0x3000
    5674:	00002f28 	andeq	r2, r0, r8, lsr #30
    5678:	31710304 	cmncc	r1, r4, lsl #6
    567c:	03050000 	movweq	r0, #20480	; 0x5000
    5680:	00002f39 	andeq	r2, r0, r9, lsr pc
    5684:	30bf0306 	adcscc	r0, pc, r6, lsl #6
    5688:	03070000 	movweq	r0, #28672	; 0x7000
    568c:	00002f4f 	andeq	r2, r0, pc, asr #30
    5690:	2fb60308 	svccs	0x00b60308
    5694:	03090000 	movweq	r0, #36864	; 0x9000
    5698:	00002fc0 	andeq	r2, r0, r0, asr #31
    569c:	2fca030a 	svccs	0x00ca030a
    56a0:	030b0000 	movweq	r0, #45056	; 0xb000
    56a4:	00002fd4 	ldrdeq	r2, [r0], -r4
    56a8:	2fde030c 	svccs	0x00de030c
    56ac:	030d0000 	movweq	r0, #53248	; 0xd000
    56b0:	00002fe8 	andeq	r2, r0, r8, ror #31
    56b4:	2ff2030e 	svccs	0x00f2030e
    56b8:	000f0000 	andeq	r0, pc, r0
    56bc:	002f7105 	eoreq	r7, pc, r5, lsl #2
    56c0:	025a0100 	subseq	r0, sl, #0, 2
    56c4:	00000103 	andeq	r0, r0, r3, lsl #2
    56c8:	42010702 	andmi	r0, r1, #524288	; 0x80000
    56cc:	01000000 	mrseq	r0, (UNDEF: 0)
    56d0:	01b10d5d 			; <UNDEFINED> instruction: 0x01b10d5d
    56d4:	c6030000 	strgt	r0, [r3], -r0
    56d8:	0000002e 	andeq	r0, r0, lr, lsr #32
    56dc:	002ee203 	eoreq	lr, lr, r3, lsl #4
    56e0:	f6030100 			; <UNDEFINED> instruction: 0xf6030100
    56e4:	0200002d 	andeq	r0, r0, #45	; 0x2d
    56e8:	00307103 	eorseq	r7, r0, r3, lsl #2
    56ec:	48030300 	stmdami	r3, {r8, r9}
    56f0:	0400002d 	streq	r0, [r0], #-45	; 0xffffffd3
    56f4:	002c5003 	eoreq	r5, ip, r3
    56f8:	05000700 	streq	r0, [r0, #-1792]	; 0xfffff900
    56fc:	00003151 	andeq	r3, r0, r1, asr r1
    5700:	7e026401 	cdpvc	4, 0, cr6, cr2, cr1, {0}
    5704:	02000001 	andeq	r0, r0, #1
    5708:	00420107 	subeq	r0, r2, r7, lsl #2
    570c:	67010000 	strvs	r0, [r1, -r0]
    5710:	0001d80d 	andeq	sp, r1, sp, lsl #16
    5714:	2e170300 	cdpcs	3, 1, cr0, cr7, cr0, {0}
    5718:	03000000 	movweq	r0, #0
    571c:	00002fab 	andeq	r2, r0, fp, lsr #31
    5720:	a7050001 	strge	r0, [r5, -r1]
    5724:	01000030 	tsteq	r0, r0, lsr r0
    5728:	01bd026a 			; <UNDEFINED> instruction: 0x01bd026a
    572c:	05060000 	streq	r0, [r6, #-0]
    5730:	39097901 	stmdbcc	r9, {r0, r8, fp, ip, sp, lr}
    5734:	07000002 	streq	r0, [r0, -r2]
    5738:	00002ce2 	andeq	r2, r0, r2, ror #25
    573c:	491d7a01 	ldmdbmi	sp, {r0, r9, fp, ip, sp, lr}
    5740:	02000000 	andeq	r0, r0, #0
    5744:	c8070023 	stmdagt	r7, {r0, r1, r5}
    5748:	01000030 	tsteq	r0, r0, lsr r0
    574c:	00f7207b 	rscseq	r2, r7, fp, ror r0
    5750:	23020000 	movwcs	r0, #8192	; 0x2000
    5754:	2d380701 	ldccs	7, cr0, [r8, #-4]!
    5758:	7c010000 	stcvc	0, cr0, [r1], {-0}
    575c:	0001721a 	andeq	r7, r1, sl, lsl r2
    5760:	02230200 	eoreq	r0, r3, #0, 4
    5764:	0031a707 	eorseq	sl, r1, r7, lsl #14
    5768:	1e7d0100 	rpwnee	f0, f5, f0
    576c:	000000a9 	andeq	r0, r0, r9, lsr #1
    5770:	07032302 	streq	r2, [r3, -r2, lsl #6]
    5774:	00002cf2 	strdeq	r2, [r0], -r2	; <UNPREDICTABLE>
    5778:	82207e01 	eorhi	r7, r0, #1, 28
    577c:	02000000 	andeq	r0, r0, #0
    5780:	05000423 	streq	r0, [r0, #-1059]	; 0xfffffbdd
    5784:	00003050 	andeq	r3, r0, r0, asr r0
    5788:	e4028001 	str	r8, [r2], #-1
    578c:	06000001 	streq	r0, [r0], -r1
    5790:	09830103 	stmibeq	r3, {r0, r1, r8}
    5794:	0000027c 	andeq	r0, r0, ip, ror r2
    5798:	00319707 	eorseq	r9, r1, r7, lsl #14
    579c:	1a850100 	bne	fe145ba4 <_E_BSS+0xde143db0>
    57a0:	000001b1 			; <UNDEFINED> instruction: 0x000001b1
    57a4:	07002302 	streq	r2, [r0, -r2, lsl #6]
    57a8:	00002e65 	andeq	r2, r0, r5, ror #28
    57ac:	d01e8601 	andsle	r8, lr, r1, lsl #12
    57b0:	02000000 	andeq	r0, r0, #0
    57b4:	10070123 	andne	r0, r7, r3, lsr #2
    57b8:	01000030 	tsteq	r0, r0, lsr r0
    57bc:	01d81d87 	bicseq	r1, r8, r7, lsl #27
    57c0:	23020000 	movwcs	r0, #8192	; 0x2000
    57c4:	24050002 	strcs	r0, [r5], #-2
    57c8:	01000030 	tsteq	r0, r0, lsr r0
    57cc:	02450289 	subeq	r0, r5, #-1879048184	; 0x90000008
    57d0:	3e080000 	cdpcc	0, 0, cr0, cr8, cr0, {0}
    57d4:	01000032 	tsteq	r0, r2, lsr r0
    57d8:	02391e8d 	eorseq	r1, r9, #2256	; 0x8d0
    57dc:	01010000 	mrseq	r0, (UNDEF: 1)
    57e0:	00320d08 	eorseq	r0, r2, r8, lsl #26
    57e4:	1e8e0100 	rmfnee	f0, f6, f0
    57e8:	00000239 	andeq	r0, r0, r9, lsr r2
    57ec:	32080101 	andcc	r0, r8, #1073741824	; 0x40000000
    57f0:	01000032 	tsteq	r0, r2, lsr r0
    57f4:	027c1e8f 	rsbseq	r1, ip, #2288	; 0x8f0
    57f8:	01010000 	mrseq	r0, (UNDEF: 1)
    57fc:	0031e308 	eorseq	lr, r1, r8, lsl #6
    5800:	1e900100 	fmlnes	f0, f0, f0
    5804:	00000239 	andeq	r0, r0, r9, lsr r2
    5808:	88090101 	stmdahi	r9, {r0, r8}
    580c:	02000002 	andeq	r0, r0, #2
    5810:	03051704 	movweq	r1, #22276	; 0x5704
    5814:	00000000 	andeq	r0, r0, r0
    5818:	00029609 	andeq	r9, r2, r9, lsl #12
    581c:	170c0200 	strne	r0, [ip, -r0, lsl #4]
    5820:	00000305 	andeq	r0, r0, r5, lsl #6
    5824:	b2090000 	andlt	r0, r9, #0
    5828:	02000002 	andeq	r0, r0, #2
    582c:	03051714 	movweq	r1, #22292	; 0x5714
    5830:	00000000 	andeq	r0, r0, r0
    5834:	0002a409 	andeq	sl, r2, r9, lsl #8
    5838:	171f0200 	ldrne	r0, [pc, -r0, lsl #4]
    583c:	00000305 	andeq	r0, r0, r5, lsl #6
    5840:	8a000000 	bhi	5848 <UART_InterruptFIFOLevelSelect+0x4408>
    5844:	02000003 	andeq	r0, r0, #3
    5848:	000e5300 	andeq	r5, lr, r0, lsl #6
    584c:	ac010400 	cfstrsge	mvf0, [r1], {-0}
    5850:	0c000001 	stceq	0, cr0, [r0], {1}
    5854:	00003302 	andeq	r3, r0, r2, lsl #6
    5858:	02b8002e 	adcseq	r0, r8, #46	; 0x2e
	...
    5864:	14f10000 	ldrbtne	r0, [r1], #0
    5868:	01020000 	mrseq	r0, (UNDEF: 2)
    586c:	000d1408 	andeq	r1, sp, r8, lsl #8
    5870:	06010200 	streq	r0, [r1], -r0, lsl #4
    5874:	00000d16 	andeq	r0, r0, r6, lsl sp
    5878:	e4070202 	str	r0, [r7], #-514	; 0xfffffdfe
    587c:	0200000e 	andeq	r0, r0, #14
    5880:	0a630502 	beq	18c6c90 <UART_InterruptFIFOLevelSelect+0x18c5850>
    5884:	5d030000 	stcpl	0, cr0, [r3, #-0]
    5888:	0200000a 	andeq	r0, r0, #10
    588c:	004f1c0e 	subeq	r1, pc, lr, lsl #24
    5890:	04020000 	streq	r0, [r2], #-0
    5894:	00052707 	andeq	r2, r5, r7, lsl #14
    5898:	05040200 	streq	r0, [r4, #-512]	; 0xfffffe00
    589c:	00000808 	andeq	r0, r0, r8, lsl #16
    58a0:	0a040402 	beq	1068b0 <UART_InterruptFIFOLevelSelect+0x105470>
    58a4:	02000005 	andeq	r0, r0, #5
    58a8:	09b10408 	ldmibeq	r1!, {r3, sl}
    58ac:	b7030000 	strlt	r0, [r3, -r0]
    58b0:	02000021 	andeq	r0, r0, #33	; 0x21
    58b4:	00771d17 	rsbseq	r1, r7, r7, lsl sp
    58b8:	08020000 	stmdaeq	r2, {}	; <UNPREDICTABLE>
    58bc:	00052207 	andeq	r2, r5, r7, lsl #4
    58c0:	09850300 	stmibeq	r5, {r8, r9}
    58c4:	19020000 	stmdbne	r2, {}	; <UNPREDICTABLE>
    58c8:	00008f10 	andeq	r8, r0, r0, lsl pc
    58cc:	007e0400 	rsbseq	r0, lr, r0, lsl #8
    58d0:	04050000 	streq	r0, [r5], #-0
    58d4:	00000095 	muleq	r0, r5, r0
    58d8:	04070106 	streq	r0, [r7], #-262	; 0xfffffefa
    58dc:	e9050b03 	stmdb	r5, {r0, r1, r8, r9, fp}
    58e0:	08000000 	stmdaeq	r0, {}	; <UNPREDICTABLE>
    58e4:	000032fb 	strdeq	r3, [r0], -fp
    58e8:	430f0d03 	movwmi	r0, #64771	; 0xfd03
    58ec:	04000000 	streq	r0, [r0], #-0
    58f0:	23021f01 	movwcs	r1, #12033	; 0x2f01
    58f4:	32870800 	addcc	r0, r7, #0, 16
    58f8:	0e030000 	cdpeq	0, 0, cr0, cr3, cr0, {0}
    58fc:	0000430f 	andeq	r4, r0, pc, lsl #6
    5900:	1e010400 	cfcpysne	mvf0, mvf1
    5904:	08002302 	stmdaeq	r0, {r1, r8, r9, sp}
    5908:	000032d1 	ldrdeq	r3, [r0], -r1
    590c:	430f0f03 	movwmi	r0, #65283	; 0xff03
    5910:	04000000 	streq	r0, [r0], #-0
    5914:	23021d01 	movwcs	r1, #11521	; 0x2d01
    5918:	325f0800 	subscc	r0, pc, #0, 16
    591c:	11030000 	mrsne	r0, (UNDEF: 3)
    5920:	0000430f 	andeq	r4, r0, pc, lsl #6
    5924:	0f010400 	svceq	0x00010400
    5928:	00002302 	andeq	r2, r0, r2, lsl #6
    592c:	09030409 	stmdbeq	r3, {r0, r3, sl}
    5930:	00010b09 	andeq	r0, r1, r9, lsl #22
    5934:	27090a00 	strcs	r0, [r9, -r0, lsl #20]
    5938:	13030000 	movwne	r0, #12288	; 0x3000
    593c:	00009706 	andeq	r9, r0, r6, lsl #14
    5940:	2b2f0a00 	blcs	bc8148 <UART_InterruptFIFOLevelSelect+0xbc6d08>
    5944:	15030000 	strne	r0, [r3, #-0]
    5948:	0000430b 	andeq	r4, r0, fp, lsl #6
    594c:	6f030000 	svcvs	0x00030000
    5950:	03000033 	movweq	r0, #51	; 0x33
    5954:	00e90217 	rsceq	r0, r9, r7, lsl r2
    5958:	04070000 	streq	r0, [r7], #-0
    595c:	33051c03 	movwcc	r1, #23555	; 0x5c03
    5960:	08000001 	stmdaeq	r0, {r0}
    5964:	000032ca 	andeq	r3, r0, sl, asr #5
    5968:	430f1d03 	movwmi	r1, #64771	; 0xfd03
    596c:	04000000 	streq	r0, [r0], #-0
    5970:	23020818 	movwcs	r0, #10264	; 0x2818
    5974:	04090000 	streq	r0, [r9], #-0
    5978:	55091a03 	strpl	r1, [r9, #-2563]	; 0xfffff5fd
    597c:	0a000001 	beq	5988 <UART_InterruptFIFOLevelSelect+0x4548>
    5980:	00002709 	andeq	r2, r0, r9, lsl #14
    5984:	17061f03 	strne	r1, [r6, -r3, lsl #30]
    5988:	0a000001 	beq	5994 <UART_InterruptFIFOLevelSelect+0x4554>
    598c:	00002b2f 	andeq	r2, r0, pc, lsr #22
    5990:	430b2103 	movwmi	r2, #45315	; 0xb103
    5994:	00000000 	andeq	r0, r0, r0
    5998:	00325203 	eorseq	r5, r2, r3, lsl #4
    599c:	02220300 	eoreq	r0, r2, #0, 6
    59a0:	00000133 	andeq	r0, r0, r3, lsr r1
    59a4:	2c070402 	cfstrscs	mvf0, [r7], {2}
    59a8:	0b000005 	bleq	59c4 <UART_InterruptFIFOLevelSelect+0x4584>
    59ac:	01610407 	cmneq	r1, r7, lsl #8
    59b0:	71040000 	mrsvc	r0, (UNDEF: 4)
    59b4:	00018d0f 	andeq	r8, r1, pc, lsl #26
    59b8:	23180c00 	tstcs	r8, #0, 24
    59bc:	03e80000 	mvneq	r0, #0
    59c0:	0021bd0d 	eoreq	fp, r1, sp, lsl #26
    59c4:	0f424000 	svceq	0x00424000
    59c8:	65530e00 	ldrbvs	r0, [r3, #-3584]	; 0xfffff200
    59cc:	00010063 	andeq	r0, r1, r3, rrx
    59d0:	00216703 	eoreq	r6, r1, r3, lsl #14
    59d4:	03750400 	cmneq	r5, #0, 8
    59d8:	00000168 	andeq	r0, r0, r8, ror #2
    59dc:	2701070b 	strcs	r0, [r1, -fp, lsl #14]
    59e0:	05000000 	streq	r0, [r0, #-0]
    59e4:	01b40d10 			; <UNDEFINED> instruction: 0x01b40d10
    59e8:	a40f0000 	strge	r0, [pc], #-0	; 59f0 <UART_InterruptFIFOLevelSelect+0x45b0>
    59ec:	00000027 	andeq	r0, r0, r7, lsr #32
    59f0:	00286e0f 	eoreq	r6, r8, pc, lsl #28
    59f4:	03000100 	movweq	r0, #256	; 0x100
    59f8:	0000337a 	andeq	r3, r0, sl, ror r3
    59fc:	99021405 	stmdbls	r2, {r0, r2, sl, ip}
    5a00:	10000001 	andne	r0, r0, r1
    5a04:	000032b9 			; <UNDEFINED> instruction: 0x000032b9
    5a08:	8a210a01 	bhi	848214 <UART_InterruptFIFOLevelSelect+0x846dd4>
    5a0c:	05000000 	streq	r0, [r0, #-0]
    5a10:	001d4c03 	andseq	r4, sp, r3, lsl #24
    5a14:	3c011120 	stfccs	f1, [r1], {32}
    5a18:	01000033 	tsteq	r0, r3, lsr r0
    5a1c:	0001066e 	andeq	r0, r1, lr, ror #12
    5a20:	00000000 	andeq	r0, r0, r0
    5a24:	10000000 	andne	r0, r0, r0
    5a28:	01000019 	tsteq	r0, r9, lsl r0
    5a2c:	000001fd 	strdeq	r0, [r0], -sp
    5a30:	00327e10 	eorseq	r7, r2, r0, lsl lr
    5a34:	0b700100 	bleq	1c05e3c <UART_InterruptFIFOLevelSelect+0x1c049fc>
    5a38:	00000043 	andeq	r0, r0, r3, asr #32
    5a3c:	00749102 	rsbseq	r9, r4, r2, lsl #2
    5a40:	338c0112 	orrcc	r0, ip, #-2147483644	; 0x80000004
    5a44:	5b010000 	blpl	45a4c <UART_InterruptFIFOLevelSelect+0x4460c>
    5a48:	0b700106 	bleq	1c05e68 <UART_InterruptFIFOLevelSelect+0x1c04a28>
    5a4c:	0bc80000 	bleq	ff205a54 <_E_BSS+0xdf203c60>
    5a50:	196c0000 	stmdbne	ip!, {}^	; <UNPREDICTABLE>
    5a54:	55010000 	strpl	r0, [r1, #-0]
    5a58:	13000002 	movwne	r0, #2
    5a5c:	000020e0 	andeq	r2, r0, r0, ror #1
    5a60:	432b5b01 			; <UNDEFINED> instruction: 0x432b5b01
    5a64:	02000000 	andeq	r0, r0, #0
    5a68:	e3136491 	tst	r3, #-1862270976	; 0x91000000
    5a6c:	01000020 	tsteq	r0, r0, lsr #32
    5a70:	018d4a5b 	orreq	r4, sp, fp, asr sl
    5a74:	91020000 	mrsls	r0, (UNDEF: 2)
    5a78:	32651060 	rsbcc	r1, r5, #96	; 0x60
    5a7c:	5f010000 	svcpl	0x00010000
    5a80:	00006b0b 	andeq	r6, r0, fp, lsl #22
    5a84:	70910200 	addsvc	r0, r1, r0, lsl #4
    5a88:	00227410 	eoreq	r7, r2, r0, lsl r4
    5a8c:	0b600100 	bleq	1805e94 <UART_InterruptFIFOLevelSelect+0x1804a54>
    5a90:	0000006b 	andeq	r0, r0, fp, rrx
    5a94:	00689102 	rsbeq	r9, r8, r2, lsl #2
    5a98:	334e0111 	movtcc	r0, #57617	; 0xe111
    5a9c:	55010000 	strpl	r0, [r1, #-0]
    5aa0:	00000106 	andeq	r0, r0, r6, lsl #2
    5aa4:	00000000 	andeq	r0, r0, r0
    5aa8:	19bc0000 	ldmibne	ip!, {}	; <UNPREDICTABLE>
    5aac:	80010000 	andhi	r0, r1, r0
    5ab0:	13000002 	movwne	r0, #2
    5ab4:	00000881 	andeq	r0, r0, r1, lsl #17
    5ab8:	7e365501 	cdpvc	5, 3, cr5, cr6, cr1, {0}
    5abc:	02000000 	andeq	r0, r0, #0
    5ac0:	12007491 	andne	r7, r0, #-1862270976	; 0x91000000
    5ac4:	00329c01 	eorseq	r9, r2, r1, lsl #24
    5ac8:	063b0100 	ldrteq	r0, [fp], -r0, lsl #2
    5acc:	00000001 	andeq	r0, r0, r1
    5ad0:	00000000 	andeq	r0, r0, r0
    5ad4:	001a1800 	andseq	r1, sl, r0, lsl #16
    5ad8:	02e70100 	rsceq	r0, r7, #0, 2
    5adc:	e0130000 	ands	r0, r3, r0
    5ae0:	01000020 	tsteq	r0, r0, lsr #32
    5ae4:	0043293b 	subeq	r2, r3, fp, lsr r9
    5ae8:	91020000 	mrsls	r0, (UNDEF: 2)
    5aec:	20e3135c 	rsccs	r1, r3, ip, asr r3
    5af0:	3b010000 	blcc	45af8 <UART_InterruptFIFOLevelSelect+0x446b8>
    5af4:	00018d48 	andeq	r8, r1, r8, asr #26
    5af8:	58910200 	ldmpl	r1, {r9}
    5afc:	00326510 	eorseq	r6, r2, r0, lsl r5
    5b00:	0b3f0100 	bleq	fc5f08 <UART_InterruptFIFOLevelSelect+0xfc4ac8>
    5b04:	0000006b 	andeq	r0, r0, fp, rrx
    5b08:	10689102 	rsbne	r9, r8, r2, lsl #2
    5b0c:	00002274 	andeq	r2, r0, r4, ror r2
    5b10:	6b0b4001 	blvs	2d5b1c <UART_InterruptFIFOLevelSelect+0x2d46dc>
    5b14:	02000000 	andeq	r0, r0, #0
    5b18:	12106091 	andsne	r6, r0, #145	; 0x91
    5b1c:	01000022 	tsteq	r0, r2, lsr #32
    5b20:	00430b4b 	subeq	r0, r3, fp, asr #22
    5b24:	91020000 	mrsls	r0, (UNDEF: 2)
    5b28:	01110074 	tsteq	r1, r4, ror r0
    5b2c:	00003311 	andeq	r3, r0, r1, lsl r3
    5b30:	01063601 	tsteq	r6, r1, lsl #12
    5b34:	00000b44 	andeq	r0, r0, r4, asr #22
    5b38:	00000b70 	andeq	r0, r0, r0, ror fp
    5b3c:	00001a68 	andeq	r1, r0, r8, ror #20
    5b40:	00031201 	andeq	r1, r3, r1, lsl #4
    5b44:	33821300 	orrcc	r1, r2, #0, 6
    5b48:	36010000 	strcc	r0, [r1], -r0
    5b4c:	0001b434 	andeq	fp, r1, r4, lsr r4
    5b50:	77910200 	ldrvc	r0, [r1, r0, lsl #4]
    5b54:	32d91400 	sbcscc	r1, r9, #0, 8
    5b58:	23010000 	movwcs	r0, #4096	; 0x1000
    5b5c:	006b0115 	rsbeq	r0, fp, r5, lsl r1
    5b60:	0b000000 	bleq	5b68 <UART_InterruptFIFOLevelSelect+0x4728>
    5b64:	0b440000 	bleq	1105b6c <UART_InterruptFIFOLevelSelect+0x110472c>
    5b68:	1ac40000 	bne	ff105b70 <_E_BSS+0xdf103d7c>
    5b6c:	40010000 	andmi	r0, r1, r0
    5b70:	10000003 	andne	r0, r0, r3
    5b74:	00002359 	andeq	r2, r0, r9, asr r3
    5b78:	6b092b01 	blvs	250784 <UART_InterruptFIFOLevelSelect+0x24f344>
    5b7c:	02000000 	andeq	r0, r0, #0
    5b80:	15006891 	strne	r6, [r0, #-2193]	; 0xfffff76f
    5b84:	0000332d 	andeq	r3, r0, sp, lsr #6
    5b88:	01141d01 	tsteq	r4, r1, lsl #26
    5b8c:	00000ae4 	andeq	r0, r0, r4, ror #21
    5b90:	00000b00 	andeq	r0, r0, r0, lsl #22
    5b94:	00001b14 	andeq	r1, r0, r4, lsl fp
    5b98:	32ed1501 	rsccc	r1, sp, #4194304	; 0x400000
    5b9c:	18010000 	stmdane	r1, {}	; <UNPREDICTABLE>
    5ba0:	0ac80114 	beq	ff205ff8 <_E_BSS+0xdf204204>
    5ba4:	0ae40000 	beq	ff905bac <_E_BSS+0xdf903db8>
    5ba8:	1b580000 	blne	1605bb0 <UART_InterruptFIFOLevelSelect+0x1604770>
    5bac:	16010000 	strne	r0, [r1], -r0
    5bb0:	00328d01 	eorseq	r8, r2, r1, lsl #26
    5bb4:	020c0100 	andeq	r0, ip, #0, 2
    5bb8:	00000386 	andeq	r0, r0, r6, lsl #7
	...
    5bc4:	00001b9c 	muleq	r0, ip, fp
    5bc8:	05041701 	streq	r1, [r4, #-1793]	; 0xfffff8ff
    5bcc:	00746e69 	rsbseq	r6, r4, r9, ror #28
    5bd0:	0019ef00 	andseq	lr, r9, r0, lsl #30
    5bd4:	c8000200 	stmdagt	r0, {r9}
    5bd8:	0400000f 	streq	r0, [r0], #-15
    5bdc:	0001ac01 	andeq	sl, r1, r1, lsl #24
    5be0:	34ed0c00 	strbtcc	r0, [sp], #3072	; 0xc00
    5be4:	002e0000 	eoreq	r0, lr, r0
    5be8:	00000308 	andeq	r0, r0, r8, lsl #6
	...
    5bf4:	000016ad 	andeq	r1, r0, sp, lsr #13
    5bf8:	00085302 	andeq	r5, r8, r2, lsl #6
    5bfc:	1d060200 	sfmne	f0, 4, [r6, #-0]
    5c00:	00000033 	andeq	r0, r0, r3, lsr r0
    5c04:	14080103 	strne	r0, [r8], #-259	; 0xfffffefd
    5c08:	0400000d 	streq	r0, [r0], #-13
    5c0c:	00000033 	andeq	r0, r0, r3, lsr r0
    5c10:	16060103 	strne	r0, [r6], -r3, lsl #2
    5c14:	0300000d 	movweq	r0, #13
    5c18:	0ee40702 	cdpeq	7, 14, cr0, cr4, cr2, {0}
    5c1c:	02030000 	andeq	r0, r3, #0
    5c20:	000a6305 	andeq	r6, sl, r5, lsl #6
    5c24:	0a5d0200 	beq	174642c <UART_InterruptFIFOLevelSelect+0x1744fec>
    5c28:	0e020000 	cdpeq	0, 0, cr0, cr2, cr0, {0}
    5c2c:	0000601c 	andeq	r6, r0, ip, lsl r0
    5c30:	07040300 	streq	r0, [r4, -r0, lsl #6]
    5c34:	00000527 	andeq	r0, r0, r7, lsr #10
    5c38:	08050403 	stmdaeq	r5, {r0, r1, sl}
    5c3c:	03000008 	movweq	r0, #8
    5c40:	050a0404 	streq	r0, [sl, #-1028]	; 0xfffffbfc
    5c44:	08030000 	stmdaeq	r3, {}	; <UNPREDICTABLE>
    5c48:	0009b104 	andeq	fp, r9, r4, lsl #2
    5c4c:	07080300 	streq	r0, [r8, -r0, lsl #6]
    5c50:	00000522 	andeq	r0, r0, r2, lsr #10
    5c54:	00098502 	andeq	r8, r9, r2, lsl #10
    5c58:	10190200 	andsne	r0, r9, r0, lsl #4
    5c5c:	00000094 	muleq	r0, r4, r0
    5c60:	00008304 	andeq	r8, r0, r4, lsl #6
    5c64:	9a040500 	bls	10706c <UART_InterruptFIFOLevelSelect+0x105c2c>
    5c68:	06000000 	streq	r0, [r0], -r0
    5c6c:	01070701 	tsteq	r7, r1, lsl #14
    5c70:	00000033 	andeq	r0, r0, r3, lsr r0
    5c74:	db0d0703 	blle	347888 <UART_InterruptFIFOLevelSelect+0x346448>
    5c78:	08000000 	stmdaeq	r0, {}	; <UNPREDICTABLE>
    5c7c:	000025fb 	strdeq	r2, [r0], -fp
    5c80:	26090800 	strcs	r0, [r9], -r0, lsl #16
    5c84:	08010000 	stmdaeq	r1, {}	; <UNPREDICTABLE>
    5c88:	00002617 	andeq	r2, r0, r7, lsl r6
    5c8c:	26250802 	strtcs	r0, [r5], -r2, lsl #16
    5c90:	08030000 	stmdaeq	r3, {}	; <UNPREDICTABLE>
    5c94:	00002633 	andeq	r2, r0, r3, lsr r6
    5c98:	26410804 	strbcs	r0, [r1], -r4, lsl #16
    5c9c:	08050000 	stmdaeq	r5, {}	; <UNPREDICTABLE>
    5ca0:	0000264f 	andeq	r2, r0, pc, asr #12
    5ca4:	265d0806 	ldrbcs	r0, [sp], -r6, lsl #16
    5ca8:	00070000 	andeq	r0, r7, r0
    5cac:	00267202 	eoreq	r7, r6, r2, lsl #4
    5cb0:	02110300 	andseq	r0, r1, #0, 6
    5cb4:	0000009c 	muleq	r0, ip, r0
    5cb8:	33010707 	movwcc	r0, #5895	; 0x1707
    5cbc:	03000000 	movweq	r0, #0
    5cc0:	01020d13 	tsteq	r2, r3, lsl sp
    5cc4:	7d080000 	stcvc	0, cr0, [r8, #-0]
    5cc8:	0000002d 	andeq	r0, r0, sp, lsr #32
    5ccc:	00274108 	eoreq	r4, r7, r8, lsl #2
    5cd0:	02000500 	andeq	r0, r0, #0, 10
    5cd4:	000025e0 	andeq	r2, r0, r0, ror #11
    5cd8:	e7011903 	str	r1, [r1, -r3, lsl #18]
    5cdc:	07000000 	streq	r0, [r0, -r0]
    5ce0:	00330107 	eorseq	r0, r3, r7, lsl #2
    5ce4:	1c030000 	stcne	0, cr0, [r3], {-0}
    5ce8:	0001350d 	andeq	r3, r1, sp, lsl #10
    5cec:	27070800 	strcs	r0, [r7, -r0, lsl #16]
    5cf0:	08000000 	stmdaeq	r0, {}	; <UNPREDICTABLE>
    5cf4:	0000266b 	andeq	r2, r0, fp, ror #12
    5cf8:	25a60801 	strcs	r0, [r6, #2049]!	; 0x801
    5cfc:	08020000 	stmdaeq	r2, {}	; <UNPREDICTABLE>
    5d00:	000026d0 	ldrdeq	r2, [r0], -r0
    5d04:	f0020003 			; <UNDEFINED> instruction: 0xf0020003
    5d08:	03000026 	movweq	r0, #38	; 0x26
    5d0c:	010e0222 	tsteq	lr, r2, lsr #4
    5d10:	6c090000 	stcvs	0, cr0, [r9], {-0}
    5d14:	0700003b 	smladxeq	r0, fp, r0, r0
    5d18:	00003301 	andeq	r3, r0, r1, lsl #6
    5d1c:	07240300 	streq	r0, [r4, -r0, lsl #6]!
    5d20:	00000172 	andeq	r0, r0, r2, ror r1
    5d24:	003eb808 	eorseq	fp, lr, r8, lsl #16
    5d28:	4b080000 	blmi	205d30 <UART_InterruptFIFOLevelSelect+0x2048f0>
    5d2c:	0100003d 	tsteq	r0, sp, lsr r0
    5d30:	003b5008 	eorseq	r5, fp, r8
    5d34:	b5080200 	strlt	r0, [r8, #-512]	; 0xfffffe00
    5d38:	0300003d 	movweq	r0, #61	; 0x3d
    5d3c:	00369008 	eorseq	r9, r6, r8
    5d40:	07000400 	streq	r0, [r0, -r0, lsl #8]
    5d44:	00330107 	eorseq	r0, r3, r7, lsl #2
    5d48:	2d030000 	stccs	0, cr0, [r3, #-0]
    5d4c:	00018d0d 	andeq	r8, r1, sp, lsl #26
    5d50:	3dc10800 	stclcc	8, cr0, [r1]
    5d54:	08000000 	stmdaeq	r0, {}	; <UNPREDICTABLE>
    5d58:	00003e62 	andeq	r3, r0, r2, ror #28
    5d5c:	05020001 	streq	r0, [r2, #-1]
    5d60:	03000035 	movweq	r0, #53	; 0x35
    5d64:	01720230 	cmneq	r2, r0, lsr r2
    5d68:	0c0a0000 	stceq	0, cr0, [sl], {-0}
    5d6c:	ee093203 	cdp	2, 0, cr3, cr9, cr3, {0}
    5d70:	0b000001 	bleq	5d7c <UART_InterruptFIFOLevelSelect+0x493c>
    5d74:	00000915 	andeq	r0, r0, r5, lsl r9
    5d78:	db143403 	blle	512d8c <UART_InterruptFIFOLevelSelect+0x51194c>
    5d7c:	02000000 	andeq	r0, r0, #0
    5d80:	d50b0023 	strle	r0, [fp, #-35]	; 0xffffffdd
    5d84:	03000025 	movweq	r0, #37	; 0x25
    5d88:	01351835 	teqeq	r5, r5, lsr r8
    5d8c:	23020000 	movwcs	r0, #8192	; 0x2000
    5d90:	27350b01 	ldrcs	r0, [r5, -r1, lsl #22]!
    5d94:	36030000 	strcc	r0, [r3], -r0
    5d98:	00010218 	andeq	r0, r1, r8, lsl r2
    5d9c:	02230200 	eoreq	r0, r3, #0, 4
    5da0:	0027020b 	eoreq	r0, r7, fp, lsl #4
    5da4:	0b370300 	bleq	dc69ac <UART_InterruptFIFOLevelSelect+0xdc556c>
    5da8:	00000054 	andeq	r0, r0, r4, asr r0
    5dac:	0b042302 	bleq	10e9bc <UART_InterruptFIFOLevelSelect+0x10d57c>
    5db0:	000026eb 	andeq	r2, r0, fp, ror #13
    5db4:	540b3803 	strpl	r3, [fp], #-2051	; 0xfffff7fd
    5db8:	02000000 	andeq	r0, r0, #0
    5dbc:	02000823 	andeq	r0, r0, #2293760	; 0x230000
    5dc0:	00002692 	muleq	r0, r2, r6
    5dc4:	99023a03 	stmdbls	r2, {r0, r1, r9, fp, ip, sp}
    5dc8:	07000001 	streq	r0, [r0, -r1]
    5dcc:	00330107 	eorseq	r0, r3, r7, lsl #2
    5dd0:	45030000 	strmi	r0, [r3, #-0]
    5dd4:	0002270d 	andeq	r2, r2, sp, lsl #14
    5dd8:	3cac0800 	stccc	8, cr0, [ip]
    5ddc:	08000000 	stmdaeq	r0, {}	; <UNPREDICTABLE>
    5de0:	00003aa1 	andeq	r3, r0, r1, lsr #21
    5de4:	38230801 	stmdacc	r3!, {r0, fp}
    5de8:	08020000 	stmdaeq	r2, {}	; <UNPREDICTABLE>
    5dec:	000039c0 	andeq	r3, r0, r0, asr #19
    5df0:	33f50803 	mvnscc	r0, #196608	; 0x30000
    5df4:	00040000 	andeq	r0, r4, r0
    5df8:	33010707 	movwcc	r0, #5895	; 0x1707
    5dfc:	04000000 	streq	r0, [r0], #-0
    5e00:	02660e2a 	rsbeq	r0, r6, #672	; 0x2a0
    5e04:	79080000 	stmdbvc	r8, {}	; <UNPREDICTABLE>
    5e08:	0000000d 	andeq	r0, r0, sp
    5e0c:	000d8608 	andeq	r8, sp, r8, lsl #12
    5e10:	93080100 	movwls	r0, #33024	; 0x8100
    5e14:	0200000d 	andeq	r0, r0, #13
    5e18:	000da008 	andeq	sl, sp, r8
    5e1c:	ad080300 	stcge	3, cr0, [r8, #-0]
    5e20:	0400000d 	streq	r0, [r0], #-13
    5e24:	000dba08 	andeq	fp, sp, r8, lsl #20
    5e28:	c7080500 	strgt	r0, [r8, -r0, lsl #10]
    5e2c:	0600000d 	streq	r0, [r0], -sp
    5e30:	000dd408 	andeq	sp, sp, r8, lsl #8
    5e34:	02000700 	andeq	r0, r0, #0, 14
    5e38:	000014c0 	andeq	r1, r0, r0, asr #9
    5e3c:	27023504 	strcs	r3, [r2, -r4, lsl #10]
    5e40:	07000002 	streq	r0, [r0, -r2]
    5e44:	00330107 	eorseq	r0, r3, r7, lsl #2
    5e48:	38040000 	stmdacc	r4, {}	; <UNPREDICTABLE>
    5e4c:	0002ab0d 	andeq	sl, r2, sp, lsl #22
    5e50:	0ce60800 	stcleq	8, cr0, [r6]
    5e54:	08000000 	stmdaeq	r0, {}	; <UNPREDICTABLE>
    5e58:	00000ef7 	strdeq	r0, [r0], -r7
    5e5c:	0efd0801 	cdpeq	8, 15, cr0, cr13, cr1, {0}
    5e60:	08020000 	stmdaeq	r2, {}	; <UNPREDICTABLE>
    5e64:	000000c8 	andeq	r0, r0, r8, asr #1
    5e68:	00ce0803 	sbceq	r0, lr, r3, lsl #16
    5e6c:	08040000 	stmdaeq	r4, {}	; <UNPREDICTABLE>
    5e70:	000000d4 	ldrdeq	r0, [r0], -r4
    5e74:	0df80805 	ldcleq	8, cr0, [r8, #20]!
    5e78:	00060000 	andeq	r0, r6, r0
    5e7c:	00175f02 	andseq	r5, r7, r2, lsl #30
    5e80:	02410400 	subeq	r0, r1, #0, 8
    5e84:	00000272 	andeq	r0, r0, r2, ror r2
    5e88:	b004030a 	andlt	r0, r4, sl, lsl #6
    5e8c:	0002ee09 	andeq	lr, r2, r9, lsl #28
    5e90:	141e0b00 	ldrne	r0, [lr], #-2816	; 0xfffff500
    5e94:	b1040000 	mrslt	r0, (UNDEF: 4)
    5e98:	0002ab1c 	andeq	sl, r2, ip, lsl fp
    5e9c:	00230200 	eoreq	r0, r3, r0, lsl #4
    5ea0:	0016810b 	andseq	r8, r6, fp, lsl #2
    5ea4:	20b20400 	adcscs	r0, r2, r0, lsl #8
    5ea8:	00000266 	andeq	r0, r0, r6, ror #4
    5eac:	0b012302 	bleq	4eabc <UART_InterruptFIFOLevelSelect+0x4d67c>
    5eb0:	000018f9 	strdeq	r1, [r0], -r9
    5eb4:	6620b304 	strtvs	fp, [r0], -r4, lsl #6
    5eb8:	02000002 	andeq	r0, r0, #2
    5ebc:	0c000223 	sfmeq	f0, 4, [r0], {35}	; 0x23
    5ec0:	000002b7 			; <UNDEFINED> instruction: 0x000002b7
    5ec4:	00190602 	andseq	r0, r9, r2, lsl #12
    5ec8:	08b40400 	ldmeq	r4!, {sl}
    5ecc:	000002ee 	andeq	r0, r0, lr, ror #5
    5ed0:	2c070403 	cfstrscs	mvf0, [r7], {3}
    5ed4:	05000005 	streq	r0, [r0, #-5]
    5ed8:	0002f304 	andeq	pc, r2, r4, lsl #6
    5edc:	01070700 	tsteq	r7, r0, lsl #14
    5ee0:	00000033 	andeq	r0, r0, r3, lsr r0
    5ee4:	db0d2e05 	blle	351700 <UART_InterruptFIFOLevelSelect+0x3502c0>
    5ee8:	08000003 	stmdaeq	r0, {r0, r1}
    5eec:	00000d76 	andeq	r0, r0, r6, ror sp
    5ef0:	0d830800 	stceq	8, cr0, [r3]
    5ef4:	08010000 	stmdaeq	r1, {}	; <UNPREDICTABLE>
    5ef8:	00000d90 	muleq	r0, r0, sp
    5efc:	0d9d0802 	ldceq	8, cr0, [sp, #8]
    5f00:	08030000 	stmdaeq	r3, {}	; <UNPREDICTABLE>
    5f04:	00000daa 	andeq	r0, r0, sl, lsr #27
    5f08:	0db70804 	ldceq	8, cr0, [r7, #16]!
    5f0c:	08050000 	stmdaeq	r5, {}	; <UNPREDICTABLE>
    5f10:	00000dc4 	andeq	r0, r0, r4, asr #27
    5f14:	0dd10806 	ldcleq	8, cr0, [r1, #24]
    5f18:	08070000 	stmdaeq	r7, {}	; <UNPREDICTABLE>
    5f1c:	00000dde 	ldrdeq	r0, [r0], -lr
    5f20:	0deb0808 	stcleq	8, cr0, [fp, #32]!
    5f24:	08090000 	stmdaeq	r9, {}	; <UNPREDICTABLE>
    5f28:	00000bd3 	ldrdeq	r0, [r0], -r3
    5f2c:	0be1080a 	bleq	ff847f5c <_E_BSS+0xdf846168>
    5f30:	080b0000 	stmdaeq	fp, {}	; <UNPREDICTABLE>
    5f34:	00000bef 	andeq	r0, r0, pc, ror #23
    5f38:	0bfd080c 	bleq	fff47f70 <_E_BSS+0xdff4617c>
    5f3c:	080d0000 	stmdaeq	sp, {}	; <UNPREDICTABLE>
    5f40:	00000c0b 	andeq	r0, r0, fp, lsl #24
    5f44:	0c19080e 	ldceq	8, cr0, [r9], {14}
    5f48:	080f0000 	stmdaeq	pc, {}	; <UNPREDICTABLE>
    5f4c:	00000c27 	andeq	r0, r0, r7, lsr #24
    5f50:	0c350810 	ldceq	8, cr0, [r5], #-64	; 0xffffffc0
    5f54:	08110000 	ldmdaeq	r1, {}	; <UNPREDICTABLE>
    5f58:	00000c43 	andeq	r0, r0, r3, asr #24
    5f5c:	0c510812 	mrrceq	8, 1, r0, r1, cr2
    5f60:	08130000 	ldmdaeq	r3, {}	; <UNPREDICTABLE>
    5f64:	00000cec 	andeq	r0, r0, ip, ror #25
    5f68:	0cfa0814 	ldcleq	8, cr0, [sl], #80	; 0x50
    5f6c:	08150000 	ldmdaeq	r5, {}	; <UNPREDICTABLE>
    5f70:	00000b29 	andeq	r0, r0, r9, lsr #22
    5f74:	0b370816 	bleq	dc7fd4 <UART_InterruptFIFOLevelSelect+0xdc6b94>
    5f78:	08170000 	ldmdaeq	r7, {}	; <UNPREDICTABLE>
    5f7c:	00000d22 	andeq	r0, r0, r2, lsr #26
    5f80:	0d300818 	ldceq	8, cr0, [r0, #-96]!	; 0xffffffa0
    5f84:	08190000 	ldmdaeq	r9, {}	; <UNPREDICTABLE>
    5f88:	00000d3e 	andeq	r0, r0, lr, lsr sp
    5f8c:	0d4c081a 	stcleq	8, cr0, [ip, #-104]	; 0xffffff98
    5f90:	081b0000 	ldmdaeq	fp, {}	; <UNPREDICTABLE>
    5f94:	00000d5a 	andeq	r0, r0, sl, asr sp
    5f98:	0d68081c 	stcleq	8, cr0, [r8, #-112]!	; 0xffffff90
    5f9c:	081d0000 	ldmdaeq	sp, {}	; <UNPREDICTABLE>
    5fa0:	00000e90 	muleq	r0, r0, lr
    5fa4:	0e9e081e 	mrceq	8, 4, r0, cr14, cr14, {0}
    5fa8:	001f0000 	andseq	r0, pc, r0
    5fac:	000e3b02 	andeq	r3, lr, r2, lsl #22
    5fb0:	02500500 	subseq	r0, r0, #0, 10
    5fb4:	0000030c 	andeq	r0, r0, ip, lsl #6
    5fb8:	33010707 	movwcc	r0, #5895	; 0x1707
    5fbc:	05000000 	streq	r0, [r0, #-0]
    5fc0:	040e0d52 	streq	r0, [lr], #-3410	; 0xfffff2ae
    5fc4:	b7080000 	strlt	r0, [r8, -r0]
    5fc8:	00000007 	andeq	r0, r0, r7
    5fcc:	00081108 	andeq	r1, r8, r8, lsl #2
    5fd0:	15080100 	strne	r0, [r8, #-256]	; 0xffffff00
    5fd4:	02000008 	andeq	r0, r0, #8
    5fd8:	00086d08 	andeq	r6, r8, r8, lsl #26
    5fdc:	02000300 	andeq	r0, r0, #0, 6
    5fe0:	00000f87 	andeq	r0, r0, r7, lsl #31
    5fe4:	e7025705 	str	r5, [r2, -r5, lsl #14]
    5fe8:	07000003 	streq	r0, [r0, -r3]
    5fec:	00330107 	eorseq	r0, r3, r7, lsl #2
    5ff0:	5a050000 	bpl	145ff8 <UART_InterruptFIFOLevelSelect+0x144bb8>
    5ff4:	0004410d 	andeq	r4, r4, sp, lsl #2
    5ff8:	06220800 	strteq	r0, [r2], -r0, lsl #16
    5ffc:	08000000 	stmdaeq	r0, {}	; <UNPREDICTABLE>
    6000:	000009e2 	andeq	r0, r0, r2, ror #19
    6004:	09e60801 	stmibeq	r6!, {r0, fp}^
    6008:	08020000 	stmdaeq	r2, {}	; <UNPREDICTABLE>
    600c:	0000023c 	andeq	r0, r0, ip, lsr r2
    6010:	00020003 	andeq	r0, r2, r3
    6014:	0500000a 	streq	r0, [r0, #-10]
    6018:	041a025f 	ldreq	r0, [sl], #-607	; 0xfffffda1
    601c:	07070000 	streq	r0, [r7, -r0]
    6020:	00003301 	andeq	r3, r0, r1, lsl #6
    6024:	0d620500 	cfstr64eq	mvdx0, [r2, #-0]
    6028:	0000046e 	andeq	r0, r0, lr, ror #8
    602c:	000c6d08 	andeq	r6, ip, r8, lsl #26
    6030:	a5080000 	strge	r0, [r8, #-0]
    6034:	01000007 	tsteq	r0, r7
    6038:	0007a908 	andeq	sl, r7, r8, lsl #18
    603c:	02000200 	andeq	r0, r0, #0, 4
    6040:	00000f67 	andeq	r0, r0, r7, ror #30
    6044:	4d026605 	stcmi	6, cr6, [r2, #-20]	; 0xffffffec
    6048:	07000004 	streq	r0, [r0, -r4]
    604c:	00330107 	eorseq	r0, r3, r7, lsl #2
    6050:	69050000 	stmdbvs	r5, {}	; <UNPREDICTABLE>
    6054:	00049b0d 	andeq	r9, r4, sp, lsl #22
    6058:	08460800 	stmdaeq	r6, {fp}^
    605c:	08000000 	stmdaeq	r0, {}	; <UNPREDICTABLE>
    6060:	000008a1 	andeq	r0, r0, r1, lsr #17
    6064:	08a50801 	stmiaeq	r5!, {r0, fp}
    6068:	00020000 	andeq	r0, r2, r0
    606c:	000ca202 	andeq	sl, ip, r2, lsl #4
    6070:	026d0500 	rsbeq	r0, sp, #0, 10
    6074:	0000047a 	andeq	r0, r0, sl, ror r4
    6078:	33010707 	movwcc	r0, #5895	; 0x1707
    607c:	05000000 	streq	r0, [r0, #-0]
    6080:	04d40d7a 	ldrbeq	r0, [r4], #3450	; 0xd7a
    6084:	b8080000 	stmdalt	r8, {}	; <UNPREDICTABLE>
    6088:	00000009 	andeq	r0, r0, r9
    608c:	0009c608 	andeq	ip, r9, r8, lsl #12
    6090:	d4080100 	strle	r0, [r8], #-256	; 0xffffff00
    6094:	02000009 	andeq	r0, r0, #9
    6098:	00076d08 	andeq	r6, r7, r8, lsl #26
    609c:	f2080300 	vcgt.s8	d0, d8, d0
    60a0:	04000009 	streq	r0, [r0], #-9
    60a4:	09670200 	stmdbeq	r7!, {r9}^
    60a8:	81050000 	mrshi	r0, (UNDEF: 5)
    60ac:	0004a702 	andeq	sl, r4, r2, lsl #14
    60b0:	01070700 	tsteq	r7, r0, lsl #14
    60b4:	00000033 	andeq	r0, r0, r3, lsr r0
    60b8:	fb0d8305 	blx	366cd6 <UART_InterruptFIFOLevelSelect+0x365896>
    60bc:	08000004 	stmdaeq	r0, {r2}
    60c0:	00000f3a 	andeq	r0, r0, sl, lsr pc
    60c4:	010f0800 	tsteq	pc, r0, lsl #16
    60c8:	00010000 	andeq	r0, r1, r0
    60cc:	00035302 	andeq	r5, r3, r2, lsl #6
    60d0:	02860500 	addeq	r0, r6, #0, 10
    60d4:	000004e0 	andeq	r0, r0, r0, ror #9
    60d8:	33010707 	movwcc	r0, #5895	; 0x1707
    60dc:	05000000 	streq	r0, [r0, #-0]
    60e0:	05460d88 	strbeq	r0, [r6, #-3464]	; 0xfffff278
    60e4:	94080000 	strls	r0, [r8], #-0
    60e8:	00000009 	andeq	r0, r0, r9
    60ec:	000c7b08 	andeq	r7, ip, r8, lsl #22
    60f0:	1a080100 	bne	2064f8 <UART_InterruptFIFOLevelSelect+0x2050b8>
    60f4:	0200000a 	andeq	r0, r0, #10
    60f8:	00059f08 	andeq	r9, r5, r8, lsl #30
    60fc:	2f080300 	svccs	0x00080300
    6100:	04000001 	streq	r0, [r0], #-1
    6104:	00012608 	andeq	r2, r1, r8, lsl #12
    6108:	84080500 	strhi	r0, [r8], #-1280	; 0xfffffb00
    610c:	06000007 	streq	r0, [r0], -r7
    6110:	00077b08 	andeq	r7, r7, r8, lsl #22
    6114:	02000700 	andeq	r0, r0, #0, 14
    6118:	00000e4b 	andeq	r0, r0, fp, asr #28
    611c:	07029105 	streq	r9, [r2, -r5, lsl #2]
    6120:	07000005 	streq	r0, [r0, -r5]
    6124:	00330107 	eorseq	r0, r3, r7, lsl #2
    6128:	93050000 	movwls	r0, #20480	; 0x5000
    612c:	0005a30d 	andeq	sl, r5, sp, lsl #6
    6130:	0ed80800 	cdpeq	8, 13, cr0, cr8, cr0, {0}
    6134:	08000000 	stmdaeq	r0, {}	; <UNPREDICTABLE>
    6138:	000000e2 	andeq	r0, r0, r2, ror #1
    613c:	0a380801 	beq	e08148 <UART_InterruptFIFOLevelSelect+0xe06d08>
    6140:	08020000 	stmdaeq	r2, {}	; <UNPREDICTABLE>
    6144:	00000f7a 	andeq	r0, r0, sl, ror pc
    6148:	0c5f0803 	mrrceq	8, 0, r0, pc, cr3	; <UNPREDICTABLE>
    614c:	08040000 	stmdaeq	r4, {}	; <UNPREDICTABLE>
    6150:	00000b00 	andeq	r0, r0, r0, lsl #22
    6154:	073c0805 	ldreq	r0, [ip, -r5, lsl #16]!
    6158:	08060000 	stmdaeq	r6, {}	; <UNPREDICTABLE>
    615c:	00000faf 	andeq	r0, r0, pc, lsr #31
    6160:	0ebd0807 	cdpeq	8, 11, cr0, cr13, cr7, {0}
    6164:	08080000 	stmdaeq	r8, {}	; <UNPREDICTABLE>
    6168:	00000cd7 	ldrdeq	r0, [r0], -r7
    616c:	0e2b0809 	cdpeq	8, 2, cr0, cr11, cr9, {0}
    6170:	000a0000 	andeq	r0, sl, r0
    6174:	00063802 	andeq	r3, r6, r2, lsl #16
    6178:	029f0500 	addseq	r0, pc, #0, 10
    617c:	00000552 	andeq	r0, r0, r2, asr r5
    6180:	33010707 	movwcc	r0, #5895	; 0x1707
    6184:	05000000 	streq	r0, [r0, #-0]
    6188:	05ca0da1 	strbeq	r0, [sl, #3489]	; 0xda1
    618c:	1f080000 	svcne	0x00080000
    6190:	0000000f 	andeq	r0, r0, pc
    6194:	000eac08 	andeq	sl, lr, r8, lsl #24
    6198:	02000100 	andeq	r0, r0, #0, 2
    619c:	00000a45 	andeq	r0, r0, r5, asr #20
    61a0:	af02a405 	svcge	0x0002a405
    61a4:	0a000005 	beq	61c0 <UART_InterruptFIFOLevelSelect+0x4d80>
    61a8:	09a70510 	stmibeq	r7!, {r4, r8, sl}
    61ac:	00000685 	andeq	r0, r0, r5, lsl #13
    61b0:	0039aa0b 	eorseq	sl, r9, fp, lsl #20
    61b4:	15a80500 	strne	r0, [r8, #1280]!	; 0x500
    61b8:	000003db 	ldrdeq	r0, [r0], -fp
    61bc:	0b002302 	bleq	edcc <UART_InterruptFIFOLevelSelect+0xd98c>
    61c0:	000003cc 	andeq	r0, r0, ip, asr #7
    61c4:	0e20a905 	vmuleq.f16	s20, s0, s10	; <UNPREDICTABLE>
    61c8:	02000004 	andeq	r0, r0, #4
    61cc:	f70b0123 			; <UNDEFINED> instruction: 0xf70b0123
    61d0:	05000008 	streq	r0, [r0, #-8]
    61d4:	04411faa 	strbeq	r1, [r1], #-4010	; 0xfffff056
    61d8:	23020000 	movwcs	r0, #8192	; 0x2000
    61dc:	0fa20b02 	svceq	0x00a20b02
    61e0:	ab050000 	blge	1461e8 <UART_InterruptFIFOLevelSelect+0x144da8>
    61e4:	00046e18 	andeq	r6, r4, r8, lsl lr
    61e8:	03230200 			; <UNDEFINED> instruction: 0x03230200
    61ec:	000b1d0b 	andeq	r1, fp, fp, lsl #26
    61f0:	17ac0500 	strne	r0, [ip, r0, lsl #10]!
    61f4:	0000049b 	muleq	r0, fp, r4
    61f8:	0b042302 	bleq	10ee08 <UART_InterruptFIFOLevelSelect+0x10d9c8>
    61fc:	00000978 	andeq	r0, r0, r8, ror r9
    6200:	461ead05 	ldrmi	sl, [lr], -r5, lsl #26
    6204:	02000005 	andeq	r0, r0, #5
    6208:	610b0523 	tstvs	fp, r3, lsr #10
    620c:	05000008 	streq	r0, [r0, #-8]
    6210:	04fb1fae 	ldrbteq	r1, [fp], #4014	; 0xfae
    6214:	23020000 	movwcs	r0, #8192	; 0x2000
    6218:	0f5b0b06 	svceq	0x005b0b06
    621c:	af050000 	svcge	0x00050000
    6220:	0004d416 	andeq	sp, r4, r6, lsl r4
    6224:	07230200 	streq	r0, [r3, -r0, lsl #4]!
    6228:	00083c0b 	andeq	r3, r8, fp, lsl #24
    622c:	1bb00500 	blne	fec07634 <_E_BSS+0xdec05840>
    6230:	000005a3 	andeq	r0, r0, r3, lsr #11
    6234:	0b082302 	bleq	20ee44 <UART_InterruptFIFOLevelSelect+0x20da04>
    6238:	00000f03 	andeq	r0, r0, r3, lsl #30
    623c:	ca1db105 	bgt	772658 <UART_InterruptFIFOLevelSelect+0x771218>
    6240:	02000005 	andeq	r0, r0, #5
    6244:	ed0b0923 	vstr.16	s0, [fp, #-70]	; 0xffffffba
    6248:	05000003 	streq	r0, [r0, #-3]
    624c:	00540bb2 	ldrheq	r0, [r4], #-178	; 0xffffff4e
    6250:	23020000 	movwcs	r0, #8192	; 0x2000
    6254:	6c02000c 	stcvs	0, cr0, [r2], {12}
    6258:	05000006 	streq	r0, [r0, #-6]
    625c:	05d602b4 	ldrbeq	r0, [r6, #692]	; 0x2b4
    6260:	a10d0000 	mrsge	r0, (UNDEF: 13)
    6264:	a1000006 	tstge	r0, r6
    6268:	0e000006 	cdpeq	0, 0, cr0, cr0, cr6, {0}
    626c:	000002ff 	strdeq	r0, [r0], -pc	; <UNPREDICTABLE>
    6270:	04050007 	streq	r0, [r5], #-7
    6274:	00000685 	andeq	r0, r0, r5, lsl #13
    6278:	0010f00f 	andseq	pc, r0, pc
    627c:	24bf0500 	ldrtcs	r0, [pc], #1280	; 6284 <UART_InterruptFIFOLevelSelect+0x4e44>
    6280:	00000691 	muleq	r0, r1, r6
    6284:	530f0101 	movwpl	r0, #61697	; 0xf101
    6288:	05000010 	streq	r0, [r0, #-16]
    628c:	069124c0 	ldreq	r2, [r1], r0, asr #9
    6290:	01010000 	mrseq	r0, (UNDEF: 1)
    6294:	3f06040a 	svccc	0x0006040a
    6298:	0006f106 	andeq	pc, r6, r6, lsl #2
    629c:	36691000 	strbtcc	r1, [r9], -r0
    62a0:	40060000 	andmi	r0, r6, r0
    62a4:	00005410 	andeq	r5, r0, r0, lsl r4
    62a8:	10100400 	andsne	r0, r0, r0, lsl #8
    62ac:	10002302 	andne	r2, r0, r2, lsl #6
    62b0:	00001512 	andeq	r1, r0, r2, lsl r5
    62b4:	54104106 	ldrpl	r4, [r0], #-262	; 0xfffffefa
    62b8:	04000000 	streq	r0, [r0], #-0
    62bc:	23020010 	movwcs	r0, #8208	; 0x2010
    62c0:	04110000 	ldreq	r0, [r1], #-0
    62c4:	13093d06 	movwne	r3, #40198	; 0x9d06
    62c8:	12000007 	andne	r0, r0, #7
    62cc:	00002709 	andeq	r2, r0, r9, lsl #14
    62d0:	c3064306 	movwgt	r4, #25350	; 0x6306
    62d4:	12000006 	andne	r0, r0, #6
    62d8:	00002b2f 	andeq	r2, r0, pc, lsr #22
    62dc:	540b4506 	strpl	r4, [fp], #-1286	; 0xfffffafa
    62e0:	00000000 	andeq	r0, r0, r0
    62e4:	003c2f02 	eorseq	r2, ip, r2, lsl #30
    62e8:	02460600 	subeq	r0, r6, #0, 12
    62ec:	000006f1 	strdeq	r0, [r0], -r1
    62f0:	00071304 	andeq	r1, r7, r4, lsl #6
    62f4:	06040a00 	streq	r0, [r4], -r0, lsl #20
    62f8:	0752054a 	ldrbeq	r0, [r2, -sl, asr #10]
    62fc:	44100000 	ldrmi	r0, [r0], #-0
    6300:	06000037 			; <UNDEFINED> instruction: 0x06000037
    6304:	00540e4c 	subseq	r0, r4, ip, asr #28
    6308:	06040000 	streq	r0, [r4], -r0
    630c:	0023021a 	eoreq	r0, r3, sl, lsl r2
    6310:	00151210 	andseq	r1, r5, r0, lsl r2
    6314:	0d4d0600 	stcleq	6, cr0, [sp, #-0]
    6318:	00000054 	andeq	r0, r0, r4, asr r0
    631c:	02001a04 	andeq	r1, r0, #4, 20	; 0x4000
    6320:	11000023 	tstne	r0, r3, lsr #32
    6324:	09480604 	stmdbeq	r8, {r2, r9, sl}^
    6328:	00000774 	andeq	r0, r0, r4, ror r7
    632c:	00270912 	eoreq	r0, r7, r2, lsl r9
    6330:	064f0600 	strbeq	r0, [pc], -r0, lsl #12
    6334:	00000724 	andeq	r0, r0, r4, lsr #14
    6338:	002b2f12 	eoreq	r2, fp, r2, lsl pc
    633c:	0b510600 	bleq	1447b44 <UART_InterruptFIFOLevelSelect+0x1446704>
    6340:	00000054 	andeq	r0, r0, r4, asr r0
    6344:	3d1c0200 	lfmcc	f0, 4, [ip, #-0]
    6348:	52060000 	andpl	r0, r6, #0
    634c:	00075202 	andeq	r5, r7, r2, lsl #4
    6350:	07740400 	ldrbeq	r0, [r4, -r0, lsl #8]!
    6354:	040a0000 	streq	r0, [sl], #-0
    6358:	b3055706 	movwlt	r5, #22278	; 0x5706
    635c:	10000007 	andne	r0, r0, r7
    6360:	00003967 	andeq	r3, r0, r7, ror #18
    6364:	540f5906 	strpl	r5, [pc], #-2310	; 636c <UART_InterruptFIFOLevelSelect+0x4f2c>
    6368:	04000000 	streq	r0, [r0], #-0
    636c:	23021c04 	movwcs	r1, #11268	; 0x2c04
    6370:	15121000 	ldrne	r1, [r2, #-0]
    6374:	5a060000 	bpl	18637c <UART_InterruptFIFOLevelSelect+0x184f3c>
    6378:	0000540f 	andeq	r5, r0, pc, lsl #8
    637c:	001c0400 	andseq	r0, ip, r0, lsl #8
    6380:	00002302 	andeq	r2, r0, r2, lsl #6
    6384:	55060411 	strpl	r0, [r6, #-1041]	; 0xfffffbef
    6388:	0007d509 	andeq	sp, r7, r9, lsl #10
    638c:	27091200 	strcs	r1, [r9, -r0, lsl #4]
    6390:	5c060000 	stcpl	0, cr0, [r6], {-0}
    6394:	00078506 	andeq	r8, r7, r6, lsl #10
    6398:	2b2f1200 	blcs	bcaba0 <UART_InterruptFIFOLevelSelect+0xbc9760>
    639c:	5e060000 	cdppl	0, 0, cr0, cr6, cr0, {0}
    63a0:	0000540b 	andeq	r5, r0, fp, lsl #8
    63a4:	6f020000 	svcvs	0x00020000
    63a8:	06000038 			; <UNDEFINED> instruction: 0x06000038
    63ac:	07b30260 	ldreq	r0, [r3, r0, ror #4]!
    63b0:	d5040000 	strle	r0, [r4, #-0]
    63b4:	0a000007 	beq	63d8 <UART_InterruptFIFOLevelSelect+0x4f98>
    63b8:	05650604 	strbeq	r0, [r5, #-1540]!	; 0xfffff9fc
    63bc:	00000814 	andeq	r0, r0, r4, lsl r8
    63c0:	00397710 	eorseq	r7, r9, r0, lsl r7
    63c4:	0f660600 	svceq	0x00660600
    63c8:	00000054 	andeq	r0, r0, r4, asr r0
    63cc:	02180804 	andseq	r0, r8, #4, 16	; 0x40000
    63d0:	12100023 	andsne	r0, r0, #35	; 0x23
    63d4:	06000015 			; <UNDEFINED> instruction: 0x06000015
    63d8:	00540f67 	subseq	r0, r4, r7, ror #30
    63dc:	18040000 	stmdane	r4, {}	; <UNPREDICTABLE>
    63e0:	00230200 	eoreq	r0, r3, r0, lsl #4
    63e4:	06041100 	streq	r1, [r4], -r0, lsl #2
    63e8:	08360963 	ldmdaeq	r6!, {r0, r1, r5, r6, r8, fp}
    63ec:	09120000 	ldmdbeq	r2, {}	; <UNPREDICTABLE>
    63f0:	06000027 	streq	r0, [r0], -r7, lsr #32
    63f4:	07e60669 	strbeq	r0, [r6, r9, ror #12]!
    63f8:	2f120000 	svccs	0x00120000
    63fc:	0600002b 	streq	r0, [r0], -fp, lsr #32
    6400:	00540b6b 	subseq	r0, r4, fp, ror #22
    6404:	02000000 	andeq	r0, r0, #0
    6408:	000033e8 	andeq	r3, r0, r8, ror #7
    640c:	14026d06 	strne	r6, [r2], #-3334	; 0xfffff2fa
    6410:	0a000008 	beq	6438 <UART_InterruptFIFOLevelSelect+0x4ff8>
    6414:	05710604 	ldrbeq	r0, [r1, #-1540]!	; 0xfffff9fc
    6418:	000008a6 	andeq	r0, r0, r6, lsr #17
    641c:	0008ad10 	andeq	sl, r8, r0, lsl sp
    6420:	0f720600 	svceq	0x00720600
    6424:	00000054 	andeq	r0, r0, r4, asr r0
    6428:	02180804 	andseq	r0, r8, #4, 16	; 0x40000
    642c:	de100023 	cdple	0, 1, cr0, cr0, cr3, {1}
    6430:	0600003b 			; <UNDEFINED> instruction: 0x0600003b
    6434:	00540f73 	subseq	r0, r4, r3, ror pc
    6438:	01040000 	mrseq	r0, (UNDEF: 4)
    643c:	00230217 	eoreq	r0, r3, r7, lsl r2
    6440:	00355f10 	eorseq	r5, r5, r0, lsl pc
    6444:	0f740600 	svceq	0x00740600
    6448:	00000054 	andeq	r0, r0, r4, asr r0
    644c:	02160104 	andseq	r0, r6, #4, 2
    6450:	9c100023 	ldcls	0, cr0, [r0], {35}	; 0x23
    6454:	06000039 			; <UNDEFINED> instruction: 0x06000039
    6458:	00540f75 	subseq	r0, r4, r5, ror pc
    645c:	01040000 	mrseq	r0, (UNDEF: 4)
    6460:	00230215 	eoreq	r0, r3, r5, lsl r2
    6464:	003bfb10 	eorseq	pc, fp, r0, lsl fp	; <UNPREDICTABLE>
    6468:	0f760600 	svceq	0x00760600
    646c:	00000054 	andeq	r0, r0, r4, asr r0
    6470:	02140104 	andseq	r0, r4, #4, 2
    6474:	11000023 	tstne	r0, r3, lsr #32
    6478:	096f0604 	stmdbeq	pc!, {r2, r9, sl}^	; <UNPREDICTABLE>
    647c:	000008c8 	andeq	r0, r0, r8, asr #17
    6480:	00270912 	eoreq	r0, r7, r2, lsl r9
    6484:	06780600 	ldrbteq	r0, [r8], -r0, lsl #12
    6488:	00000842 	andeq	r0, r0, r2, asr #16
    648c:	002b2f12 	eoreq	r2, fp, r2, lsl pc
    6490:	0b7a0600 	bleq	1e87c98 <UART_InterruptFIFOLevelSelect+0x1e86858>
    6494:	00000054 	andeq	r0, r0, r4, asr r0
    6498:	34040200 	strcc	r0, [r4], #-512	; 0xfffffe00
    649c:	7c060000 	stcvc	0, cr0, [r6], {-0}
    64a0:	0008a602 	andeq	sl, r8, r2, lsl #12
    64a4:	08c80400 	stmiaeq	r8, {sl}^
    64a8:	040a0000 	streq	r0, [sl], #-0
    64ac:	4f058106 	svcmi	0x00058106
    64b0:	13000009 	movwne	r0, #9
    64b4:	00535443 	subseq	r5, r3, r3, asr #8
    64b8:	540f8206 	strpl	r8, [pc], #-518	; 64c0 <UART_InterruptFIFOLevelSelect+0x5080>
    64bc:	04000000 	streq	r0, [r0], #-0
    64c0:	23021f01 	movwcs	r1, #12033	; 0x2f01
    64c4:	3bf61000 	blcc	ffd8a4cc <_E_BSS+0xdfd886d8>
    64c8:	84060000 	strhi	r0, [r6], #-0
    64cc:	0000540f 	andeq	r5, r0, pc, lsl #8
    64d0:	1c010400 	cfstrsne	mvf0, [r1], {-0}
    64d4:	10002302 	andne	r2, r0, r2, lsl #6
    64d8:	000038c5 	andeq	r3, r0, r5, asr #17
    64dc:	540f8506 	strpl	r8, [pc], #-1286	; 64e4 <UART_InterruptFIFOLevelSelect+0x50a4>
    64e0:	04000000 	streq	r0, [r0], #-0
    64e4:	23021b01 	movwcs	r1, #11009	; 0x2b01
    64e8:	38b41000 	ldmcc	r4!, {ip}
    64ec:	86060000 	strhi	r0, [r6], -r0
    64f0:	0000540f 	andeq	r5, r0, pc, lsl #8
    64f4:	1a010400 	bne	474fc <UART_InterruptFIFOLevelSelect+0x460bc>
    64f8:	10002302 	andne	r2, r0, r2, lsl #6
    64fc:	00003680 	andeq	r3, r0, r0, lsl #13
    6500:	540f8706 	strpl	r8, [pc], #-1798	; 6508 <UART_InterruptFIFOLevelSelect+0x50c8>
    6504:	04000000 	streq	r0, [r0], #-0
    6508:	23021901 	movwcs	r1, #10497	; 0x2901
    650c:	34371000 	ldrtcc	r1, [r7], #-0
    6510:	88060000 	stmdahi	r6, {}	; <UNPREDICTABLE>
    6514:	0000540f 	andeq	r5, r0, pc, lsl #8
    6518:	18010400 	stmdane	r1, {sl}
    651c:	00002302 	andeq	r2, r0, r2, lsl #6
    6520:	7f060411 	svcvc	0x00060411
    6524:	00097109 	andeq	r7, r9, r9, lsl #2
    6528:	27091200 	strcs	r1, [r9, -r0, lsl #4]
    652c:	8a060000 	bhi	186534 <UART_InterruptFIFOLevelSelect+0x1850f4>
    6530:	0008d906 	andeq	sp, r8, r6, lsl #18
    6534:	2b2f1200 	blcs	bcad3c <UART_InterruptFIFOLevelSelect+0xbc98fc>
    6538:	8c060000 	stchi	0, cr0, [r6], {-0}
    653c:	0000540b 	andeq	r5, r0, fp, lsl #8
    6540:	b5020000 	strlt	r0, [r2, #-0]
    6544:	06000039 			; <UNDEFINED> instruction: 0x06000039
    6548:	094f028e 	stmdbeq	pc, {r1, r2, r3, r7, r9}^	; <UNPREDICTABLE>
    654c:	71040000 	mrsvc	r0, (UNDEF: 4)
    6550:	0a000009 	beq	657c <UART_InterruptFIFOLevelSelect+0x513c>
    6554:	05930604 	ldreq	r0, [r3, #1540]	; 0x604
    6558:	00000a2e 	andeq	r0, r0, lr, lsr #20
    655c:	00344910 	eorseq	r4, r4, r0, lsl r9
    6560:	0f950600 	svceq	0x00950600
    6564:	00000054 	andeq	r0, r0, r4, asr r0
    6568:	021e0104 	andseq	r0, lr, #4, 2
    656c:	9e100023 	cdpls	0, 1, cr0, cr0, cr3, {1}
    6570:	06000038 			; <UNDEFINED> instruction: 0x06000038
    6574:	00540f97 			; <UNDEFINED> instruction: 0x00540f97
    6578:	01040000 	mrseq	r0, (UNDEF: 4)
    657c:	0023021b 	eoreq	r0, r3, fp, lsl r2
    6580:	003b3910 	eorseq	r3, fp, r0, lsl r9
    6584:	0f980600 	svceq	0x00980600
    6588:	00000054 	andeq	r0, r0, r4, asr r0
    658c:	021a0104 	andseq	r0, sl, #4, 2
    6590:	eb100023 	bl	406624 <UART_InterruptFIFOLevelSelect+0x4051e4>
    6594:	06000036 			; <UNDEFINED> instruction: 0x06000036
    6598:	00540f99 			; <UNDEFINED> instruction: 0x00540f99
    659c:	01040000 	mrseq	r0, (UNDEF: 4)
    65a0:	00230219 	eoreq	r0, r3, r9, lsl r2
    65a4:	003a5310 	eorseq	r5, sl, r0, lsl r3
    65a8:	0f9a0600 	svceq	0x009a0600
    65ac:	00000054 	andeq	r0, r0, r4, asr r0
    65b0:	02180104 	andseq	r0, r8, #4, 2
    65b4:	ab100023 	blge	406648 <UART_InterruptFIFOLevelSelect+0x405208>
    65b8:	06000033 			; <UNDEFINED> instruction: 0x06000033
    65bc:	00540f9b 			; <UNDEFINED> instruction: 0x00540f9b
    65c0:	01040000 	mrseq	r0, (UNDEF: 4)
    65c4:	00230217 	eoreq	r0, r3, r7, lsl r2
    65c8:	003acc10 	eorseq	ip, sl, r0, lsl ip
    65cc:	0f9c0600 	svceq	0x009c0600
    65d0:	00000054 	andeq	r0, r0, r4, asr r0
    65d4:	02160104 	andseq	r0, r6, #4, 2
    65d8:	48100023 	ldmdami	r0, {r0, r1, r5}
    65dc:	0600003e 			; <UNDEFINED> instruction: 0x0600003e
    65e0:	00540f9d 			; <UNDEFINED> instruction: 0x00540f9d
    65e4:	01040000 	mrseq	r0, (UNDEF: 4)
    65e8:	00230215 	eoreq	r0, r3, r5, lsl r2
    65ec:	0037e610 	eorseq	lr, r7, r0, lsl r6
    65f0:	0f9f0600 	svceq	0x009f0600
    65f4:	00000054 	andeq	r0, r0, r4, asr r0
    65f8:	02130104 	andseq	r0, r3, #4, 2
    65fc:	11000023 	tstne	r0, r3, lsr #32
    6600:	09910604 	ldmibeq	r1, {r2, r9, sl}
    6604:	00000a50 	andeq	r0, r0, r0, asr sl
    6608:	00270912 	eoreq	r0, r7, r2, lsl r9
    660c:	06a20600 	strteq	r0, [r2], r0, lsl #12
    6610:	00000982 	andeq	r0, r0, r2, lsl #19
    6614:	002b2f12 	eoreq	r2, fp, r2, lsl pc
    6618:	0ba40600 	bleq	fe907e20 <_E_BSS+0xde90602c>
    661c:	00000054 	andeq	r0, r0, r4, asr r0
    6620:	38120200 	ldmdacc	r2, {r9}
    6624:	a6060000 	strge	r0, [r6], -r0
    6628:	000a2e02 	andeq	r2, sl, r2, lsl #28
    662c:	0a500400 	beq	1407634 <UART_InterruptFIFOLevelSelect+0x14061f4>
    6630:	040a0000 	streq	r0, [sl], #-0
    6634:	4305b906 	movwmi	fp, #22790	; 0x5906
    6638:	1000000b 	andne	r0, r0, fp
    663c:	0000349f 	muleq	r0, pc, r4	; <UNPREDICTABLE>
    6640:	540bba06 	strpl	fp, [fp], #-2566	; 0xfffff5fa
    6644:	04000000 	streq	r0, [r0], #-0
    6648:	23021f01 	movwcs	r1, #12033	; 0x2f01
    664c:	3a981000 	bcc	fe60a654 <_E_BSS+0xde608860>
    6650:	bb060000 	bllt	186658 <UART_InterruptFIFOLevelSelect+0x185218>
    6654:	0000540b 	andeq	r5, r0, fp, lsl #8
    6658:	1e010400 	cfcpysne	mvf0, mvf1
    665c:	10002302 	andne	r2, r0, r2, lsl #6
    6660:	00003c3c 	andeq	r3, r0, ip, lsr ip
    6664:	540bbc06 	strpl	fp, [fp], #-3078	; 0xfffff3fa
    6668:	04000000 	streq	r0, [r0], #-0
    666c:	23021d01 	movwcs	r1, #11521	; 0x2d01
    6670:	35711000 	ldrbcc	r1, [r1, #-0]!
    6674:	bd060000 	stclt	0, cr0, [r6, #-0]
    6678:	0000540b 	andeq	r5, r0, fp, lsl #8
    667c:	1c010400 	cfstrsne	mvf0, [r1], {-0}
    6680:	10002302 	andne	r2, r0, r2, lsl #6
    6684:	000039e5 	andeq	r3, r0, r5, ror #19
    6688:	540bbe06 	strpl	fp, [fp], #-3590	; 0xfffff1fa
    668c:	04000000 	streq	r0, [r0], #-0
    6690:	23021b01 	movwcs	r1, #11009	; 0x2b01
    6694:	36ad1000 	strtcc	r1, [sp], r0
    6698:	bf060000 	svclt	0x00060000
    669c:	0000540b 	andeq	r5, r0, fp, lsl #8
    66a0:	1a010400 	bne	476a8 <UART_InterruptFIFOLevelSelect+0x46268>
    66a4:	10002302 	andne	r2, r0, r2, lsl #6
    66a8:	0000362d 	andeq	r3, r0, sp, lsr #12
    66ac:	540bc106 	strpl	ip, [fp], #-262	; 0xfffffefa
    66b0:	04000000 	streq	r0, [r0], #-0
    66b4:	23021801 	movwcs	r1, #10241	; 0x2801
    66b8:	3b5d1000 	blcc	174a6c0 <UART_InterruptFIFOLevelSelect+0x1749280>
    66bc:	c2060000 	andgt	r0, r6, #0
    66c0:	0000540b 	andeq	r5, r0, fp, lsl #8
    66c4:	17010400 	strne	r0, [r1, -r0, lsl #8]
    66c8:	10002302 	andne	r2, r0, r2, lsl #6
    66cc:	00003d92 	muleq	r0, r2, sp
    66d0:	540bc306 	strpl	ip, [fp], #-774	; 0xfffffcfa
    66d4:	04000000 	streq	r0, [r0], #-0
    66d8:	23021601 	movwcs	r1, #9729	; 0x2601
    66dc:	34cd1000 	strbcc	r1, [sp], #0
    66e0:	c5060000 	strgt	r0, [r6, #-0]
    66e4:	0000540b 	andeq	r5, r0, fp, lsl #8
    66e8:	14010400 	strne	r0, [r1], #-1024	; 0xfffffc00
    66ec:	10002302 	andne	r2, r0, r2, lsl #6
    66f0:	000034c7 	andeq	r3, r0, r7, asr #9
    66f4:	540bc706 	strpl	ip, [fp], #-1798	; 0xfffff8fa
    66f8:	04000000 	streq	r0, [r0], #-0
    66fc:	23021101 	movwcs	r1, #8449	; 0x2101
    6700:	3cbb1000 	ldccc	0, cr1, [fp]
    6704:	c8060000 	stmdagt	r6, {}	; <UNPREDICTABLE>
    6708:	0000540b 	andeq	r5, r0, fp, lsl #8
    670c:	10010400 	andne	r0, r1, r0, lsl #8
    6710:	00002302 	andeq	r2, r0, r2, lsl #6
    6714:	b7060411 	smladlt	r6, r1, r4, r0
    6718:	000b6509 	andeq	r6, fp, r9, lsl #10
    671c:	27091200 	strcs	r1, [r9, -r0, lsl #4]
    6720:	cb060000 	blgt	186728 <UART_InterruptFIFOLevelSelect+0x1852e8>
    6724:	000a6106 	andeq	r6, sl, r6, lsl #2
    6728:	2b2f1200 	blcs	bcaf30 <UART_InterruptFIFOLevelSelect+0xbc9af0>
    672c:	cd060000 	stcgt	0, cr0, [r6, #-0]
    6730:	0000540b 	andeq	r5, r0, fp, lsl #8
    6734:	2d020000 	stccs	0, cr0, [r2, #-0]
    6738:	0600003e 			; <UNDEFINED> instruction: 0x0600003e
    673c:	0b4302cf 	bleq	10c7280 <UART_InterruptFIFOLevelSelect+0x10c5e40>
    6740:	65040000 	strvs	r0, [r4, #-0]
    6744:	0a00000b 	beq	6778 <UART_InterruptFIFOLevelSelect+0x5338>
    6748:	05d40604 	ldrbeq	r0, [r4, #1540]	; 0x604
    674c:	00000bfe 	strdeq	r0, [r0], -lr
    6750:	003b9b10 	eorseq	r9, fp, r0, lsl fp
    6754:	0dd50600 	ldcleq	6, cr0, [r5]
    6758:	00000054 	andeq	r0, r0, r4, asr r0
    675c:	021f0104 	andseq	r0, pc, #4, 2
    6760:	5a100023 	bpl	4067f4 <UART_InterruptFIFOLevelSelect+0x4053b4>
    6764:	06000039 			; <UNDEFINED> instruction: 0x06000039
    6768:	00540dd6 	ldrsbeq	r0, [r4], #-214	; 0xffffff2a
    676c:	01040000 	mrseq	r0, (UNDEF: 4)
    6770:	0023021e 	eoreq	r0, r3, lr, lsl r2
    6774:	003e8c10 	eorseq	r8, lr, r0, lsl ip
    6778:	0dd70600 	ldcleq	6, cr0, [r7]
    677c:	00000054 	andeq	r0, r0, r4, asr r0
    6780:	021d0104 	andseq	r0, sp, #4, 2
    6784:	c5100023 	ldrgt	r0, [r0, #-35]	; 0xffffffdd
    6788:	06000033 			; <UNDEFINED> instruction: 0x06000033
    678c:	00540dd8 	ldrsbeq	r0, [r4], #-216	; 0xffffff28
    6790:	01040000 	mrseq	r0, (UNDEF: 4)
    6794:	0023021c 	eoreq	r0, r3, ip, lsl r2
    6798:	003a0c10 	eorseq	r0, sl, r0, lsl ip
    679c:	0dd90600 	ldcleq	6, cr0, [r9]
    67a0:	00000054 	andeq	r0, r0, r4, asr r0
    67a4:	021b0104 	andseq	r0, fp, #4, 2
    67a8:	aa100023 	bge	40683c <UART_InterruptFIFOLevelSelect+0x4053fc>
    67ac:	06000034 			; <UNDEFINED> instruction: 0x06000034
    67b0:	00540dda 	ldrsbeq	r0, [r4], #-218	; 0xffffff26
    67b4:	02040000 	andeq	r0, r4, #0
    67b8:	00230219 	eoreq	r0, r3, r9, lsl r2
    67bc:	0034db10 	eorseq	sp, r4, r0, lsl fp
    67c0:	0ddb0600 	ldcleq	6, cr0, [fp]
    67c4:	00000054 	andeq	r0, r0, r4, asr r0
    67c8:	02180104 	andseq	r0, r8, #4, 2
    67cc:	11000023 	tstne	r0, r3, lsr #32
    67d0:	09d20604 	ldmibeq	r2, {r2, r9, sl}^
    67d4:	00000c20 	andeq	r0, r0, r0, lsr #24
    67d8:	00270912 	eoreq	r0, r7, r2, lsl r9
    67dc:	06de0600 	ldrbeq	r0, [lr], r0, lsl #12
    67e0:	00000b76 	andeq	r0, r0, r6, ror fp
    67e4:	002b2f12 	eoreq	r2, fp, r2, lsl pc
    67e8:	0be00600 	bleq	ff807ff0 <_E_BSS+0xdf8061fc>
    67ec:	00000054 	andeq	r0, r0, r4, asr r0
    67f0:	3dd60200 	lfmcc	f0, 2, [r6]
    67f4:	e2060000 	and	r0, r6, #0
    67f8:	000bfe02 	andeq	pc, fp, r2, lsl #28
    67fc:	0c200400 	cfstrseq	mvf0, [r0], #-0
    6800:	040a0000 	streq	r0, [sl], #-0
    6804:	dd05e706 	stcle	7, cr14, [r5, #-24]	; 0xffffffe8
    6808:	1000000c 	andne	r0, r0, ip
    680c:	0000356b 	andeq	r3, r0, fp, ror #10
    6810:	540fe906 	strpl	lr, [pc], #-2310	; 6818 <UART_InterruptFIFOLevelSelect+0x53d8>
    6814:	04000000 	streq	r0, [r0], #-0
    6818:	23021e01 	movwcs	r1, #11777	; 0x2e01
    681c:	3aff1000 	bcc	fffca824 <_E_BSS+0xdffc8a30>
    6820:	eb060000 	bl	186828 <UART_InterruptFIFOLevelSelect+0x1853e8>
    6824:	0000540f 	andeq	r5, r0, pc, lsl #8
    6828:	1b010400 	blne	47830 <UART_InterruptFIFOLevelSelect+0x463f0>
    682c:	10002302 	andne	r2, r0, r2, lsl #6
    6830:	000039cf 	andeq	r3, r0, pc, asr #19
    6834:	540fec06 	strpl	lr, [pc], #-3078	; 683c <UART_InterruptFIFOLevelSelect+0x53fc>
    6838:	04000000 	streq	r0, [r0], #-0
    683c:	23021a01 	movwcs	r1, #10753	; 0x2a01
    6840:	3de31000 	stclcc	0, cr1, [r3]
    6844:	ed060000 	stc	0, cr0, [r6, #-0]
    6848:	0000540f 	andeq	r5, r0, pc, lsl #8
    684c:	19010400 	stmdbne	r1, {sl}
    6850:	10002302 	andne	r2, r0, r2, lsl #6
    6854:	00003613 	andeq	r3, r0, r3, lsl r6
    6858:	540fee06 	strpl	lr, [pc], #-3590	; 6860 <UART_InterruptFIFOLevelSelect+0x5420>
    685c:	04000000 	streq	r0, [r0], #-0
    6860:	23021801 	movwcs	r1, #10241	; 0x2801
    6864:	39301000 	ldmdbcc	r0!, {ip}
    6868:	ef060000 	svc	0x00060000
    686c:	0000540f 	andeq	r5, r0, pc, lsl #8
    6870:	17010400 	strne	r0, [r1, -r0, lsl #8]
    6874:	10002302 	andne	r2, r0, r2, lsl #6
    6878:	00003a29 	andeq	r3, r0, r9, lsr #20
    687c:	540ff006 	strpl	pc, [pc], #-6	; 6884 <UART_InterruptFIFOLevelSelect+0x5444>
    6880:	04000000 	streq	r0, [r0], #-0
    6884:	23021601 	movwcs	r1, #9729	; 0x2601
    6888:	37b61000 	ldrcc	r1, [r6, r0]!
    688c:	f1060000 	cps	#0
    6890:	0000540f 	andeq	r5, r0, pc, lsl #8
    6894:	15010400 	strne	r0, [r1, #-1024]	; 0xfffffc00
    6898:	10002302 	andne	r2, r0, r2, lsl #6
    689c:	00003c1c 	andeq	r3, r0, ip, lsl ip
    68a0:	540ff306 	strpl	pc, [pc], #-774	; 68a8 <UART_InterruptFIFOLevelSelect+0x5468>
    68a4:	04000000 	streq	r0, [r0], #-0
    68a8:	23021301 	movwcs	r1, #8961	; 0x2301
    68ac:	04110000 	ldreq	r0, [r1], #-0
    68b0:	ff09e506 			; <UNDEFINED> instruction: 0xff09e506
    68b4:	1200000c 	andne	r0, r0, #12
    68b8:	00002709 	andeq	r2, r0, r9, lsl #14
    68bc:	3106f606 	tstcc	r6, r6, lsl #12	; <UNPREDICTABLE>
    68c0:	1200000c 	andne	r0, r0, #12
    68c4:	00002b2f 	andeq	r2, r0, pc, lsr #22
    68c8:	540bf806 	strpl	pc, [fp], #-2054	; 0xfffff7fa
    68cc:	00000000 	andeq	r0, r0, r0
    68d0:	00349402 	eorseq	r9, r4, r2, lsl #8
    68d4:	02fa0600 	rscseq	r0, sl, #0, 12
    68d8:	00000cdd 	ldrdeq	r0, [r0], -sp
    68dc:	000cff04 	andeq	pc, ip, r4, lsl #30
    68e0:	06040a00 	streq	r0, [r4], -r0, lsl #20
    68e4:	0dc505ff 	cfstr64eq	mvdx0, [r5, #1020]	; 0x3fc
    68e8:	7e140000 	cdpvc	0, 1, cr0, cr4, cr0, {0}
    68ec:	06000034 			; <UNDEFINED> instruction: 0x06000034
    68f0:	540b0102 	strpl	r0, [fp], #-258	; 0xfffffefe
    68f4:	04000000 	streq	r0, [r0], #-0
    68f8:	23021e01 	movwcs	r1, #11777	; 0x2e01
    68fc:	3b1c1400 	blcc	70b904 <UART_InterruptFIFOLevelSelect+0x70a4c4>
    6900:	04060000 	streq	r0, [r6], #-0
    6904:	00540c01 	subseq	r0, r4, r1, lsl #24
    6908:	01040000 	mrseq	r0, (UNDEF: 4)
    690c:	0023021b 	eoreq	r0, r3, fp, lsl r2
    6910:	003ccd14 	eorseq	ip, ip, r4, lsl sp
    6914:	01050600 	tsteq	r5, r0, lsl #12
    6918:	0000540b 	andeq	r5, r0, fp, lsl #8
    691c:	1a010400 	bne	47924 <UART_InterruptFIFOLevelSelect+0x464e4>
    6920:	14002302 	strne	r2, [r0], #-770	; 0xfffffcfe
    6924:	0000345a 	andeq	r3, r0, sl, asr r4
    6928:	0b010606 	bleq	48148 <UART_InterruptFIFOLevelSelect+0x46d08>
    692c:	00000054 	andeq	r0, r0, r4, asr r0
    6930:	02190104 	andseq	r0, r9, #4, 2
    6934:	f0140023 			; <UNDEFINED> instruction: 0xf0140023
    6938:	06000037 			; <UNDEFINED> instruction: 0x06000037
    693c:	540b0107 	strpl	r0, [fp], #-263	; 0xfffffef9
    6940:	04000000 	streq	r0, [r0], #-0
    6944:	23021801 	movwcs	r1, #10241	; 0x2801
    6948:	35951400 	ldrcc	r1, [r5, #1024]	; 0x400
    694c:	08060000 	stmdaeq	r6, {}	; <UNPREDICTABLE>
    6950:	00540b01 	subseq	r0, r4, r1, lsl #22
    6954:	01040000 	mrseq	r0, (UNDEF: 4)
    6958:	00230217 	eoreq	r0, r3, r7, lsl r2
    695c:	00352014 	eorseq	r2, r5, r4, lsl r0
    6960:	01090600 	tsteq	r9, r0, lsl #12
    6964:	0000540b 	andeq	r5, r0, fp, lsl #8
    6968:	16010400 	strne	r0, [r1], -r0, lsl #8
    696c:	14002302 	strne	r2, [r0], #-770	; 0xfffffcfe
    6970:	00003778 	andeq	r3, r0, r8, ror r7
    6974:	0c010a06 			; <UNDEFINED> instruction: 0x0c010a06
    6978:	00000054 	andeq	r0, r0, r4, asr r0
    697c:	02150104 	andseq	r0, r5, #4, 2
    6980:	08140023 	ldmdaeq	r4, {r0, r1, r5}
    6984:	06000037 			; <UNDEFINED> instruction: 0x06000037
    6988:	540b010b 	strpl	r0, [fp], #-267	; 0xfffffef5
    698c:	04000000 	streq	r0, [r0], #-0
    6990:	23021401 	movwcs	r1, #9217	; 0x2401
    6994:	04110000 	ldreq	r0, [r1], #-0
    6998:	e909fd06 	stmdb	r9, {r1, r2, r8, sl, fp, ip, sp, lr, pc}
    699c:	1500000d 	strne	r0, [r0, #-13]
    69a0:	00002709 	andeq	r2, r0, r9, lsl #14
    69a4:	06010d06 	streq	r0, [r1], -r6, lsl #26
    69a8:	00000d10 	andeq	r0, r0, r0, lsl sp
    69ac:	002b2f15 	eoreq	r2, fp, r5, lsl pc
    69b0:	010f0600 	tsteq	pc, r0, lsl #12
    69b4:	0000540b 	andeq	r5, r0, fp, lsl #8
    69b8:	00160000 	andseq	r0, r6, r0
    69bc:	0600003a 			; <UNDEFINED> instruction: 0x0600003a
    69c0:	c5020111 	strgt	r0, [r2, #-273]	; 0xfffffeef
    69c4:	0400000d 	streq	r0, [r0], #-13
    69c8:	00000de9 	andeq	r0, r0, r9, ror #27
    69cc:	16060417 			; <UNDEFINED> instruction: 0x16060417
    69d0:	0e3f0501 	cdpeq	5, 3, cr0, cr15, cr1, {0}
    69d4:	b6140000 	ldrlt	r0, [r4], -r0
    69d8:	06000035 			; <UNDEFINED> instruction: 0x06000035
    69dc:	540f0118 	strpl	r0, [pc], #-280	; 69e4 <UART_InterruptFIFOLevelSelect+0x55a4>
    69e0:	04000000 	streq	r0, [r0], #-0
    69e4:	23021f01 	movwcs	r1, #12033	; 0x2f01
    69e8:	3ceb1400 	cfstrdcc	mvd1, [fp]
    69ec:	19060000 	stmdbne	r6, {}	; <UNPREDICTABLE>
    69f0:	00540e01 	subseq	r0, r4, r1, lsl #28
    69f4:	01040000 	mrseq	r0, (UNDEF: 4)
    69f8:	0023021e 	eoreq	r0, r3, lr, lsl r2
    69fc:	0035d014 	eorseq	sp, r5, r4, lsl r0
    6a00:	011a0600 	tsteq	sl, r0, lsl #12
    6a04:	0000540e 	andeq	r5, r0, lr, lsl #8
    6a08:	1d010400 	cfstrsne	mvf0, [r1, #-0]
    6a0c:	00002302 	andeq	r2, r0, r2, lsl #6
    6a10:	14060418 	strne	r0, [r6], #-1048	; 0xfffffbe8
    6a14:	0e640901 	vmuleq.f16	s1, s8, s2	; <UNPREDICTABLE>
    6a18:	09150000 	ldmdbeq	r5, {}	; <UNPREDICTABLE>
    6a1c:	06000027 	streq	r0, [r0], -r7, lsr #32
    6a20:	fb06011c 	blx	186e9a <UART_InterruptFIFOLevelSelect+0x185a5a>
    6a24:	1500000d 	strne	r0, [r0, #-13]
    6a28:	00002b2f 	andeq	r2, r0, pc, lsr #22
    6a2c:	0b011e06 	bleq	4e24c <UART_InterruptFIFOLevelSelect+0x4ce0c>
    6a30:	00000054 	andeq	r0, r0, r4, asr r0
    6a34:	3beb1600 	blcc	ffacc23c <_E_BSS+0xdfaca448>
    6a38:	20060000 	andcs	r0, r6, r0
    6a3c:	0e3f0201 	cdpeq	2, 3, cr0, cr15, cr1, {0}
    6a40:	64040000 	strvs	r0, [r4], #-0
    6a44:	1700000e 	strne	r0, [r0, -lr]
    6a48:	01240604 			; <UNDEFINED> instruction: 0x01240604
    6a4c:	000ea705 	andeq	sl, lr, r5, lsl #14
    6a50:	363c1400 	ldrtcc	r1, [ip], -r0, lsl #8
    6a54:	25060000 	strcs	r0, [r6, #-0]
    6a58:	00540f01 	subseq	r0, r4, r1, lsl #30
    6a5c:	03040000 	movweq	r0, #16384	; 0x4000
    6a60:	0023021d 	eoreq	r0, r3, sp, lsl r2
    6a64:	0039f714 	eorseq	pc, r9, r4, lsl r7	; <UNPREDICTABLE>
    6a68:	01260600 			; <UNDEFINED> instruction: 0x01260600
    6a6c:	0000540f 	andeq	r5, r0, pc, lsl #8
    6a70:	1a030400 	bne	c7a78 <UART_InterruptFIFOLevelSelect+0xc6638>
    6a74:	00002302 	andeq	r2, r0, r2, lsl #6
    6a78:	22060418 	andcs	r0, r6, #24, 8	; 0x18000000
    6a7c:	0ecc0901 	vdiveq.f16	s1, s24, s2	; <UNPREDICTABLE>
    6a80:	09150000 	ldmdbeq	r5, {}	; <UNPREDICTABLE>
    6a84:	06000027 	streq	r0, [r0], -r7, lsr #32
    6a88:	76060128 	strvc	r0, [r6], -r8, lsr #2
    6a8c:	1500000e 	strne	r0, [r0, #-14]
    6a90:	00002b2f 	andeq	r2, r0, pc, lsr #22
    6a94:	0b012a06 	bleq	512b4 <UART_InterruptFIFOLevelSelect+0x4fe74>
    6a98:	00000054 	andeq	r0, r0, r4, asr r0
    6a9c:	36de1600 	ldrbcc	r1, [lr], r0, lsl #12
    6aa0:	2c060000 	stccs	0, cr0, [r6], {-0}
    6aa4:	0ea70201 	cdpeq	2, 10, cr0, cr7, cr1, {0}
    6aa8:	cc040000 	stcgt	0, cr0, [r4], {-0}
    6aac:	0700000e 	streq	r0, [r0, -lr]
    6ab0:	00330107 	eorseq	r0, r3, r7, lsl #2
    6ab4:	2a070000 	bcs	1c6abc <UART_InterruptFIFOLevelSelect+0x1c567c>
    6ab8:	000f170d 	andeq	r1, pc, sp, lsl #14
    6abc:	1d130800 	ldcne	8, cr0, [r3, #-0]
    6ac0:	08000000 	stmdaeq	r0, {}	; <UNPREDICTABLE>
    6ac4:	00001d1a 	andeq	r1, r0, sl, lsl sp
    6ac8:	1d210801 	stcne	8, cr0, [r1, #-4]!
    6acc:	08020000 	stmdaeq	r2, {}	; <UNPREDICTABLE>
    6ad0:	00001d28 	andeq	r1, r0, r8, lsr #26
    6ad4:	1d2f0803 	stcne	8, cr0, [pc, #-12]!	; 6ad0 <UART_InterruptFIFOLevelSelect+0x5690>
    6ad8:	08040000 	stmdaeq	r4, {}	; <UNPREDICTABLE>
    6adc:	00001d36 	andeq	r1, r0, r6, lsr sp
    6ae0:	1d590805 	ldclne	8, cr0, [r9, #-20]	; 0xffffffec
    6ae4:	00060000 	andeq	r0, r6, r0
    6ae8:	001ec802 	andseq	ip, lr, r2, lsl #16
    6aec:	02320700 	eorseq	r0, r2, #0, 14
    6af0:	00000ede 	ldrdeq	r0, [r0], -lr
    6af4:	33010707 	movwcc	r0, #5895	; 0x1707
    6af8:	07000000 	streq	r0, [r0, -r0]
    6afc:	0f440d35 	svceq	0x00440d35
    6b00:	3d080000 	stccc	0, cr0, [r8, #-0]
    6b04:	0000001d 	andeq	r0, r0, sp, lsl r0
    6b08:	001de108 	andseq	lr, sp, r8, lsl #2
    6b0c:	74080100 	strvc	r0, [r8], #-256	; 0xffffff00
    6b10:	02000020 	andeq	r0, r0, #32
    6b14:	21780200 	cmncs	r8, r0, lsl #4
    6b18:	39070000 	stmdbcc	r7, {}	; <UNPREDICTABLE>
    6b1c:	000f2302 	andeq	r2, pc, r2, lsl #6
    6b20:	01070700 	tsteq	r7, r0, lsl #14
    6b24:	00000033 	andeq	r0, r0, r3, lsr r0
    6b28:	6b0d3c07 	blvs	355b4c <UART_InterruptFIFOLevelSelect+0x35470c>
    6b2c:	0800000f 	stmdaeq	r0, {r0, r1, r2, r3}
    6b30:	000022b4 			; <UNDEFINED> instruction: 0x000022b4
    6b34:	22c40800 	sbccs	r0, r4, #0, 16
    6b38:	00080000 	andeq	r0, r8, r0
    6b3c:	001f8c02 	andseq	r8, pc, r2, lsl #24
    6b40:	023f0700 	eorseq	r0, pc, #0, 14
    6b44:	00000f50 	andeq	r0, r0, r0, asr pc
    6b48:	33010707 	movwcc	r0, #5895	; 0x1707
    6b4c:	07000000 	streq	r0, [r0, -r0]
    6b50:	0fa40d42 	svceq	0x00a40d42
    6b54:	ab080000 	blge	206b5c <UART_InterruptFIFOLevelSelect+0x20571c>
    6b58:	00000022 	andeq	r0, r0, r2, lsr #32
    6b5c:	00225308 	eoreq	r5, r2, r8, lsl #6
    6b60:	bb080100 	bllt	206f68 <UART_InterruptFIFOLevelSelect+0x205b28>
    6b64:	02000022 	andeq	r0, r0, #34	; 0x22
    6b68:	00209708 	eoreq	r9, r0, r8, lsl #14
    6b6c:	bd080300 	stclt	3, cr0, [r8, #-0]
    6b70:	0400001f 	streq	r0, [r0], #-31	; 0xffffffe1
    6b74:	233c0200 	teqcs	ip, #0, 4
    6b78:	48070000 	stmdami	r7, {}	; <UNPREDICTABLE>
    6b7c:	000f7702 	andeq	r7, pc, r2, lsl #14
    6b80:	04070700 	streq	r0, [r7], #-1792	; 0xfffff900
    6b84:	000002ff 	strdeq	r0, [r0], -pc	; <UNPREDICTABLE>
    6b88:	d50f7107 	strle	r7, [pc, #-263]	; 6a89 <UART_InterruptFIFOLevelSelect+0x5649>
    6b8c:	1900000f 	stmdbne	r0, {r0, r1, r2, r3}
    6b90:	00002318 	andeq	r2, r0, r8, lsl r3
    6b94:	bd1a03e8 	ldclt	3, cr0, [sl, #-928]	; 0xfffffc60
    6b98:	40000021 	andmi	r0, r0, r1, lsr #32
    6b9c:	1b000f42 	blne	a8ac <UART_InterruptFIFOLevelSelect+0x946c>
    6ba0:	00636553 	rsbeq	r6, r3, r3, asr r5
    6ba4:	040a0001 	streq	r0, [sl], #-1
    6ba8:	1b0a7a07 	blne	2a53cc <UART_InterruptFIFOLevelSelect+0x2a3f8c>
    6bac:	0b000010 	bleq	6bf4 <UART_InterruptFIFOLevelSelect+0x57b4>
    6bb0:	000023f9 	strdeq	r2, [r0], -r9
    6bb4:	441e7b07 	ldrmi	r7, [lr], #-2823	; 0xfffff4f9
    6bb8:	0200000f 	andeq	r0, r0, #15
    6bbc:	0b0b0023 	bleq	2c6c50 <UART_InterruptFIFOLevelSelect+0x2c5810>
    6bc0:	07000024 	streq	r0, [r0, -r4, lsr #32]
    6bc4:	0f6b1f7c 	svceq	0x006b1f7c
    6bc8:	23020000 	movwcs	r0, #8192	; 0x2000
    6bcc:	203c0b01 	eorscs	r0, ip, r1, lsl #22
    6bd0:	7d070000 	stcvc	0, cr0, [r7, #-0]
    6bd4:	000fa422 	andeq	sl, pc, r2, lsr #8
    6bd8:	02230200 	eoreq	r0, r3, #0, 4
    6bdc:	001eac0b 	andseq	sl, lr, fp, lsl #24
    6be0:	1c7e0700 	ldclne	7, cr0, [lr], #-0
    6be4:	00000f17 	andeq	r0, r0, r7, lsl pc
    6be8:	00032302 	andeq	r2, r3, r2, lsl #6
    6bec:	000fd50c 	andeq	sp, pc, ip, lsl #10
    6bf0:	20f50200 	rscscs	r0, r5, r0, lsl #4
    6bf4:	80070000 	andhi	r0, r7, r0
    6bf8:	00101b09 	andseq	r1, r0, r9, lsl #22
    6bfc:	103c0d00 	eorsne	r0, ip, r0, lsl #26
    6c00:	103c0000 	eorsne	r0, ip, r0
    6c04:	ff0e0000 			; <UNDEFINED> instruction: 0xff0e0000
    6c08:	0b000002 	bleq	6c18 <UART_InterruptFIFOLevelSelect+0x57d8>
    6c0c:	20040500 	andcs	r0, r4, r0, lsl #10
    6c10:	0f000010 	svceq	0x00000010
    6c14:	000024d2 	ldrdeq	r2, [r0], -r2	; <UNPREDICTABLE>
    6c18:	2c278207 	sfmcs	f0, 1, [r7], #-28	; 0xffffffe4
    6c1c:	01000010 	tsteq	r0, r0, lsl r0
    6c20:	00330d01 	eorseq	r0, r3, r1, lsl #26
    6c24:	10610000 	rsbne	r0, r1, r0
    6c28:	ff1c0000 			; <UNDEFINED> instruction: 0xff1c0000
    6c2c:	ff000002 			; <UNDEFINED> instruction: 0xff000002
    6c30:	ff0f0003 			; <UNDEFINED> instruction: 0xff0f0003
    6c34:	08000000 	stmdaeq	r0, {}	; <UNPREDICTABLE>
    6c38:	1050160a 	subsne	r1, r0, sl, lsl #12
    6c3c:	01010000 	mrseq	r0, (UNDEF: 1)
    6c40:	0005391d 	andeq	r3, r5, sp, lsl r9
    6c44:	1b200100 	blne	80704c <UART_InterruptFIFOLevelSelect+0x805c0c>
    6c48:	0000003a 	andeq	r0, r0, sl, lsr r0
    6c4c:	50030501 	andpl	r0, r3, r1, lsl #10
    6c50:	1d20001d 	stcne	0, cr0, [r0, #-116]!	; 0xffffff8c
    6c54:	000008e8 	andeq	r0, r0, r8, ror #17
    6c58:	3a1a2101 	bcc	68f064 <UART_InterruptFIFOLevelSelect+0x68dc24>
    6c5c:	01000000 	mrseq	r0, (UNDEF: 0)
    6c60:	1d510305 	ldclne	3, cr0, [r1, #-20]	; 0xffffffec
    6c64:	270d2000 	strcs	r2, [sp, -r0]
    6c68:	a5000000 	strge	r0, [r0, #-0]
    6c6c:	0e000010 	mcreq	0, 0, r0, cr0, cr0, {0}
    6c70:	000002ff 	strdeq	r0, [r0], -pc	; <UNPREDICTABLE>
    6c74:	761d0007 	ldrvc	r0, [sp], -r7
    6c78:	0100003e 	tsteq	r0, lr, lsr r0
    6c7c:	10950954 	addsne	r0, r5, r4, asr r9
    6c80:	05010000 	streq	r0, [r1, #-0]
    6c84:	00000003 	andeq	r0, r0, r3
    6c88:	008f0d00 	addeq	r0, pc, r0, lsl #26
    6c8c:	10c80000 	sbcne	r0, r8, r0
    6c90:	ff0e0000 			; <UNDEFINED> instruction: 0xff0e0000
    6c94:	04000002 	streq	r0, [r0], #-2
    6c98:	10b80400 	adcsne	r0, r8, r0, lsl #8
    6c9c:	cf1e0000 	svcgt	0x001e0000
    6ca0:	0100003b 	tsteq	r0, fp, lsr r0
    6ca4:	10c82675 	sbcne	r2, r8, r5, ror r6
    6ca8:	03050000 	movweq	r0, #20480	; 0x5000
    6cac:	20001d54 	andcs	r1, r0, r4, asr sp
    6cb0:	003dff1e 	eorseq	pc, sp, lr, lsl pc	; <UNPREDICTABLE>
    6cb4:	26760100 	ldrbtcs	r0, [r6], -r0, lsl #2
    6cb8:	000010c8 	andeq	r1, r0, r8, asr #1
    6cbc:	1d680305 	stclne	3, cr0, [r8, #-20]!	; 0xffffffec
    6cc0:	861e2000 	ldrhi	r2, [lr], -r0
    6cc4:	01000035 	tsteq	r0, r5, lsr r0
    6cc8:	10c82677 	sbcne	r2, r8, r7, ror r6
    6ccc:	03050000 	movweq	r0, #20480	; 0x5000
    6cd0:	20001d7c 	andcs	r1, r0, ip, ror sp
    6cd4:	0035771e 	eorseq	r7, r5, lr, lsl r7
    6cd8:	26780100 	ldrbtcs	r0, [r8], -r0, lsl #2
    6cdc:	000010c8 	andeq	r1, r0, r8, asr #1
    6ce0:	1d900305 	ldcne	3, cr0, [r0, #20]
    6ce4:	851e2000 	ldrhi	r2, [lr, #-0]
    6ce8:	01000034 	tsteq	r0, r4, lsr r0
    6cec:	10c82679 	sbcne	r2, r8, r9, ror r6
    6cf0:	03050000 	movweq	r0, #20480	; 0x5000
    6cf4:	20001da4 	andcs	r1, r0, r4, lsr #27
    6cf8:	003e391e 	eorseq	r3, lr, lr, lsl r9
    6cfc:	267a0100 	ldrbtcs	r0, [sl], -r0, lsl #2
    6d00:	000010c8 	andeq	r1, r0, r8, asr #1
    6d04:	1db80305 	ldcne	3, cr0, [r8, #20]!
    6d08:	c11e2000 	tstgt	lr, r0
    6d0c:	01000035 	tsteq	r0, r5, lsr r0
    6d10:	10c8267b 	sbcne	r2, r8, fp, ror r6
    6d14:	03050000 	movweq	r0, #20480	; 0x5000
    6d18:	20001dcc 	andcs	r1, r0, ip, asr #27
    6d1c:	003b7b1e 	eorseq	r7, fp, lr, lsl fp
    6d20:	267c0100 	ldrbtcs	r0, [ip], -r0, lsl #2
    6d24:	000010c8 	andeq	r1, r0, r8, asr #1
    6d28:	1de00305 	stclne	3, cr0, [r0, #20]!
    6d2c:	780d2000 	stmdavc	sp, {sp}
    6d30:	6d000011 	stcvs	0, cr0, [r0, #-68]	; 0xffffffbc
    6d34:	0e000011 	mcreq	0, 0, r0, cr0, cr1, {0}
    6d38:	000002ff 	strdeq	r0, [r0], -pc	; <UNPREDICTABLE>
    6d3c:	5d0c0007 	stcpl	0, cr0, [ip, #-28]	; 0xffffffe4
    6d40:	05000011 	streq	r0, [r0, #-17]	; 0xffffffef
    6d44:	0008d404 	andeq	sp, r8, r4, lsl #8
    6d48:	11720c00 	cmnne	r2, r0, lsl #24
    6d4c:	1d1e0000 	ldcne	0, cr0, [lr, #-0]
    6d50:	01000039 	tsteq	r0, r9, lsr r0
    6d54:	116d2994 			; <UNDEFINED> instruction: 0x116d2994
    6d58:	03050000 	movweq	r0, #20480	; 0x5000
    6d5c:	000012e0 	andeq	r1, r0, r0, ror #5
    6d60:	0011aa0d 	andseq	sl, r1, sp, lsl #20
    6d64:	00119f00 	andseq	r9, r1, r0, lsl #30
    6d68:	02ff0e00 	rscseq	r0, pc, #0, 28
    6d6c:	00070000 	andeq	r0, r7, r0
    6d70:	00118f0c 	andseq	r8, r1, ip, lsl #30
    6d74:	7d040500 	cfstr32vc	mvfx0, [r4, #-0]
    6d78:	0c000009 	stceq	0, cr0, [r0], {9}
    6d7c:	000011a4 	andeq	r1, r0, r4, lsr #3
    6d80:	0036001d 	eorseq	r0, r6, sp, lsl r0
    6d84:	21b70100 			; <UNDEFINED> instruction: 0x21b70100
    6d88:	0000119f 	muleq	r0, pc, r1	; <UNPREDICTABLE>
    6d8c:	00030501 	andeq	r0, r3, r1, lsl #10
    6d90:	0d000013 	stceq	0, cr0, [r0, #-76]	; 0xffffffb4
    6d94:	000011dd 	ldrdeq	r1, [r0], -sp
    6d98:	000011d2 	ldrdeq	r1, [r0], -r2
    6d9c:	0002ff0e 	andeq	pc, r2, lr, lsl #30
    6da0:	0c000700 	stceq	7, cr0, [r0], {-0}
    6da4:	000011c2 	andeq	r1, r0, r2, asr #3
    6da8:	0a5c0405 	beq	1707dc4 <UART_InterruptFIFOLevelSelect+0x1706984>
    6dac:	d70c0000 	strle	r0, [ip, -r0]
    6db0:	1d000011 	stcne	0, cr0, [r0, #-68]	; 0xffffffbc
    6db4:	00003727 	andeq	r3, r0, r7, lsr #14
    6db8:	d222db01 	eorle	sp, r2, #1024	; 0x400
    6dbc:	01000011 	tsteq	r0, r1, lsl r0
    6dc0:	13200305 			; <UNDEFINED> instruction: 0x13200305
    6dc4:	100d0000 	andne	r0, sp, r0
    6dc8:	05000012 	streq	r0, [r0, #-18]	; 0xffffffee
    6dcc:	0e000012 	mcreq	0, 0, r0, cr0, cr2, {0}
    6dd0:	000002ff 	strdeq	r0, [r0], -pc	; <UNPREDICTABLE>
    6dd4:	f50c0007 			; <UNDEFINED> instruction: 0xf50c0007
    6dd8:	05000011 	streq	r0, [r0, #-17]	; 0xffffffef
    6ddc:	00071f04 	andeq	r1, r7, r4, lsl #30
    6de0:	120a0c00 	andne	r0, sl, #0, 24
    6de4:	591e0000 	ldmdbpl	lr, {}	; <UNPREDICTABLE>
    6de8:	0100003d 	tsteq	r0, sp, lsr r0
    6dec:	120529fe 	andne	r2, r5, #4161536	; 0x3f8000
    6df0:	03050000 	movweq	r0, #20480	; 0x5000
    6df4:	00001340 	andeq	r1, r0, r0, asr #6
    6df8:	0012420d 	andseq	r4, r2, sp, lsl #4
    6dfc:	00123700 	andseq	r3, r2, r0, lsl #14
    6e00:	02ff0e00 	rscseq	r0, pc, #0, 28
    6e04:	00070000 	andeq	r0, r7, r0
    6e08:	0012270c 	andseq	r2, r2, ip, lsl #14
    6e0c:	80040500 	andhi	r0, r4, r0, lsl #10
    6e10:	0c000007 	stceq	0, cr0, [r0], {7}
    6e14:	0000123c 	andeq	r1, r0, ip, lsr r2
    6e18:	0038f51f 	eorseq	pc, r8, pc, lsl r5	; <UNPREDICTABLE>
    6e1c:	01210100 			; <UNDEFINED> instruction: 0x01210100
    6e20:	00123729 	andseq	r3, r2, r9, lsr #14
    6e24:	60030500 	andvs	r0, r3, r0, lsl #10
    6e28:	0d000013 	stceq	0, cr0, [r0, #-76]	; 0xffffffb4
    6e2c:	00001275 	andeq	r1, r0, r5, ror r2
    6e30:	0000126a 	andeq	r1, r0, sl, ror #4
    6e34:	0002ff0e 	andeq	pc, r2, lr, lsl #30
    6e38:	0c000700 	stceq	7, cr0, [r0], {-0}
    6e3c:	0000125a 	andeq	r1, r0, sl, asr r2
    6e40:	07e10405 	strbeq	r0, [r1, r5, lsl #8]!
    6e44:	6f0c0000 	svcvs	0x000c0000
    6e48:	1f000012 	svcne	0x00000012
    6e4c:	000036bd 			; <UNDEFINED> instruction: 0x000036bd
    6e50:	27014401 	strcs	r4, [r1, -r1, lsl #8]
    6e54:	0000126a 	andeq	r1, r0, sl, ror #4
    6e58:	13800305 	orrne	r0, r0, #335544320	; 0x14000000
    6e5c:	a80d0000 	stmdage	sp, {}	; <UNPREDICTABLE>
    6e60:	9d000012 	stcls	0, cr0, [r0, #-72]	; 0xffffffb8
    6e64:	0e000012 	mcreq	0, 0, r0, cr0, cr2, {0}
    6e68:	000002ff 	strdeq	r0, [r0], -pc	; <UNPREDICTABLE>
    6e6c:	8d0c0007 	stchi	0, cr0, [ip, #-28]	; 0xffffffe4
    6e70:	05000012 	streq	r0, [r0, #-18]	; 0xffffffee
    6e74:	000b7104 	andeq	r7, fp, r4, lsl #2
    6e78:	12a20c00 	adcne	r0, r2, #0, 24
    6e7c:	d01f0000 	andsle	r0, pc, r0
    6e80:	01000037 	tsteq	r0, r7, lsr r0
    6e84:	9d280164 	stflss	f0, [r8, #-400]!	; 0xfffffe70
    6e88:	05000012 	streq	r0, [r0, #-18]	; 0xffffffee
    6e8c:	0013a003 	andseq	sl, r3, r3
    6e90:	12db0d00 	sbcsne	r0, fp, #0, 26
    6e94:	12d00000 	sbcsne	r0, r0, #0
    6e98:	ff0e0000 			; <UNDEFINED> instruction: 0xff0e0000
    6e9c:	07000002 	streq	r0, [r0, -r2]
    6ea0:	12c00c00 	sbcne	r0, r0, #0, 24
    6ea4:	04050000 	streq	r0, [r5], #-0
    6ea8:	00000c2c 	andeq	r0, r0, ip, lsr #24
    6eac:	0012d50c 	andseq	sp, r2, ip, lsl #10
    6eb0:	3ae51f00 	bcc	ff94eab8 <_E_BSS+0xdf94ccc4>
    6eb4:	85010000 	strhi	r0, [r1, #-0]
    6eb8:	12d02801 	sbcsne	r2, r0, #65536	; 0x10000
    6ebc:	03050000 	movweq	r0, #20480	; 0x5000
    6ec0:	000013c0 	andeq	r1, r0, r0, asr #7
    6ec4:	00130e0d 	andseq	r0, r3, sp, lsl #28
    6ec8:	00130300 	andseq	r0, r3, r0, lsl #6
    6ecc:	02ff0e00 	rscseq	r0, pc, #0, 28
    6ed0:	00070000 	andeq	r0, r7, r0
    6ed4:	0012f30c 	andseq	pc, r2, ip, lsl #6
    6ed8:	0b040500 	bleq	1082e0 <UART_InterruptFIFOLevelSelect+0x106ea0>
    6edc:	0c00000d 	stceq	0, cr0, [r0], {13}
    6ee0:	00001308 	andeq	r1, r0, r8, lsl #6
    6ee4:	003ab01f 	eorseq	fp, sl, pc, lsl r0
    6ee8:	01a70100 			; <UNDEFINED> instruction: 0x01a70100
    6eec:	00130327 	andseq	r0, r3, r7, lsr #6
    6ef0:	e0030500 	and	r0, r3, r0, lsl #10
    6ef4:	0d000013 	stceq	0, cr0, [r0, #-76]	; 0xffffffb4
    6ef8:	00001341 	andeq	r1, r0, r1, asr #6
    6efc:	00001336 	andeq	r1, r0, r6, lsr r3
    6f00:	0002ff0e 	andeq	pc, r2, lr, lsl #30
    6f04:	0c000700 	stceq	7, cr0, [r0], {-0}
    6f08:	00001326 	andeq	r1, r0, r6, lsr #6
    6f0c:	0df60405 	cfldrdeq	mvd0, [r6, #20]!
    6f10:	3b0c0000 	blcc	306f18 <UART_InterruptFIFOLevelSelect+0x305ad8>
    6f14:	1f000013 	svcne	0x00000013
    6f18:	00003645 	andeq	r3, r0, r5, asr #12
    6f1c:	2701c801 	strcs	ip, [r1, -r1, lsl #16]
    6f20:	00001336 	andeq	r1, r0, r6, lsr r3
    6f24:	14000305 	strne	r0, [r0], #-773	; 0xfffffcfb
    6f28:	740d0000 	strvc	r0, [sp], #-0
    6f2c:	69000013 	stmdbvs	r0, {r0, r1, r4}
    6f30:	0e000013 	mcreq	0, 0, r0, cr0, cr3, {0}
    6f34:	000002ff 	strdeq	r0, [r0], -pc	; <UNPREDICTABLE>
    6f38:	590c0007 	stmdbpl	ip, {r0, r1, r2}
    6f3c:	05000013 	streq	r0, [r0, #-19]	; 0xffffffed
    6f40:	000e7104 	andeq	r7, lr, r4, lsl #2
    6f44:	136e0c00 	cmnne	lr, #0, 24
    6f48:	7f1f0000 	svcvc	0x001f0000
    6f4c:	0100003a 	tsteq	r0, sl, lsr r0
    6f50:	692501d3 	stmdbvs	r5!, {r0, r1, r4, r6, r7, r8}
    6f54:	05000013 	streq	r0, [r0, #-19]	; 0xffffffed
    6f58:	00142003 	andseq	r2, r4, r3
    6f5c:	13a70d00 			; <UNDEFINED> instruction: 0x13a70d00
    6f60:	139c0000 	orrsne	r0, ip, #0
    6f64:	ff0e0000 			; <UNDEFINED> instruction: 0xff0e0000
    6f68:	07000002 	streq	r0, [r0, -r2]
    6f6c:	138c0c00 	orrne	r0, ip, #0, 24
    6f70:	04050000 	streq	r0, [r5], #-0
    6f74:	00000ed9 	ldrdeq	r0, [r0], -r9
    6f78:	0013a10c 	andseq	sl, r3, ip, lsl #2
    6f7c:	38511f00 	ldmdacc	r1, {r8, r9, sl, fp, ip}^
    6f80:	df010000 	svcle	0x00010000
    6f84:	139c2501 	orrsne	r2, ip, #4194304	; 0x400000
    6f88:	03050000 	movweq	r0, #20480	; 0x5000
    6f8c:	00001440 	andeq	r1, r0, r0, asr #8
    6f90:	3c8d0120 	stfccs	f0, [sp], {32}
    6f94:	07010000 	streq	r0, [r1, -r0]
    6f98:	00010a05 	andeq	r0, r1, r5, lsl #20
    6f9c:	00000000 	andeq	r0, r0, r0
    6fa0:	c8000000 	stmdagt	r0, {}	; <UNPREDICTABLE>
    6fa4:	0100001b 	tsteq	r0, fp, lsl r0
    6fa8:	000013fc 	strdeq	r1, [r0], -ip
    6fac:	00328221 	eorseq	r8, r2, r1, lsr #4
    6fb0:	05070100 	streq	r0, [r7, #-256]	; 0xffffff00
    6fb4:	0001413d 	andeq	r4, r1, sp, lsr r1
    6fb8:	77910200 	ldrvc	r0, [r1, r0, lsl #4]
    6fbc:	00088121 	andeq	r8, r8, r1, lsr #2
    6fc0:	05070100 	streq	r0, [r7, #-256]	; 0xffffff00
    6fc4:	00008352 	andeq	r8, r0, r2, asr r3
    6fc8:	70910200 	addsvc	r0, r1, r0, lsl #4
    6fcc:	fd012000 	stc2	0, cr2, [r1, #-0]
    6fd0:	0100003c 	tsteq	r0, ip, lsr r0
    6fd4:	010a0502 	tsteq	sl, r2, lsl #10
	...
    6fe0:	00001c24 	andeq	r1, r0, r4, lsr #24
    6fe4:	00143901 	andseq	r3, r4, r1, lsl #18
    6fe8:	32822100 	addcc	r2, r2, #0, 2
    6fec:	02010000 	andeq	r0, r1, #0
    6ff0:	01413d05 	cmpeq	r1, r5, lsl #26
    6ff4:	91020000 	mrsls	r0, (UNDEF: 2)
    6ff8:	08812177 	stmeq	r1, {r0, r1, r2, r4, r5, r6, r8, sp}
    6ffc:	02010000 	andeq	r0, r1, #0
    7000:	00835205 	addeq	r5, r3, r5, lsl #4
    7004:	91020000 	mrsls	r0, (UNDEF: 2)
    7008:	01200070 			; <UNDEFINED> instruction: 0x01200070
    700c:	00003e0e 	andeq	r3, r0, lr, lsl #28
    7010:	0a04fd01 	beq	14641c <UART_InterruptFIFOLevelSelect+0x144fdc>
    7014:	00000001 	andeq	r0, r0, r1
    7018:	00000000 	andeq	r0, r0, r0
    701c:	001c8000 	andseq	r8, ip, r0
    7020:	14760100 	ldrbtne	r0, [r6], #-256	; 0xffffff00
    7024:	82210000 	eorhi	r0, r1, #0
    7028:	01000032 	tsteq	r0, r2, lsr r0
    702c:	413d04fd 	teqmi	sp, sp	; <illegal shifter operand>
    7030:	02000001 	andeq	r0, r0, #1
    7034:	81217791 			; <UNDEFINED> instruction: 0x81217791
    7038:	01000008 	tsteq	r0, r8
    703c:	835204fd 	cmphi	r2, #-50331648	; 0xfd000000
    7040:	02000000 	andeq	r0, r0, #0
    7044:	20007091 	mulcs	r0, r1, r0
    7048:	00387f01 	eorseq	r7, r8, r1, lsl #30
    704c:	04f80100 	ldrbteq	r0, [r8], #256	; 0x100
    7050:	0000010a 	andeq	r0, r0, sl, lsl #2
    7054:	00000000 	andeq	r0, r0, r0
    7058:	1cdc0000 	ldclne	0, cr0, [ip], {0}
    705c:	b3010000 	movwlt	r0, #4096	; 0x1000
    7060:	21000014 	tstcs	r0, r4, lsl r0
    7064:	00003282 	andeq	r3, r0, r2, lsl #5
    7068:	3d04f801 	stccc	8, cr15, [r4, #-4]
    706c:	00000141 	andeq	r0, r0, r1, asr #2
    7070:	21779102 	cmncs	r7, r2, lsl #2
    7074:	00000881 	andeq	r0, r0, r1, lsl #17
    7078:	5204f801 	andpl	pc, r4, #65536	; 0x10000
    707c:	00000083 	andeq	r0, r0, r3, lsl #1
    7080:	00709102 	rsbseq	r9, r0, r2, lsl #2
    7084:	35400120 	strbcc	r0, [r0, #-288]	; 0xfffffee0
    7088:	f3010000 	vhadd.u8	d0, d1, d0
    708c:	00010a04 	andeq	r0, r1, r4, lsl #20
    7090:	00000000 	andeq	r0, r0, r0
    7094:	38000000 	stmdacc	r0, {}	; <UNPREDICTABLE>
    7098:	0100001d 	tsteq	r0, sp, lsl r0
    709c:	000014f0 	strdeq	r1, [r0], -r0
    70a0:	00328221 	eorseq	r8, r2, r1, lsr #4
    70a4:	04f30100 	ldrbteq	r0, [r3], #256	; 0x100
    70a8:	0001413d 	andeq	r4, r1, sp, lsr r1
    70ac:	77910200 	ldrvc	r0, [r1, r0, lsl #4]
    70b0:	00088121 	andeq	r8, r8, r1, lsr #2
    70b4:	04f30100 	ldrbteq	r0, [r3], #256	; 0x100
    70b8:	00008352 	andeq	r8, r0, r2, asr r3
    70bc:	70910200 	addsvc	r0, r1, r0, lsl #4
    70c0:	e1012000 	mrs	r2, (UNDEF: 1)
    70c4:	01000035 	tsteq	r0, r5, lsr r0
    70c8:	010a04ee 	smlatteq	sl, lr, r4, r0
	...
    70d4:	00001d94 	muleq	r0, r4, sp
    70d8:	00152d01 	andseq	r2, r5, r1, lsl #26
    70dc:	32822100 	addcc	r2, r2, #0, 2
    70e0:	ee010000 	cdp	0, 0, cr0, cr1, cr0, {0}
    70e4:	01413d04 	cmpeq	r1, r4, lsl #26
    70e8:	91020000 	mrsls	r0, (UNDEF: 2)
    70ec:	08812177 	stmeq	r1, {r0, r1, r2, r4, r5, r6, r8, sp}
    70f0:	ee010000 	cdp	0, 0, cr0, cr1, cr0, {0}
    70f4:	00835204 	addeq	r5, r3, r4, lsl #4
    70f8:	91020000 	mrsls	r0, (UNDEF: 2)
    70fc:	01200070 			; <UNDEFINED> instruction: 0x01200070
    7100:	00003832 	andeq	r3, r0, r2, lsr r8
    7104:	0a04e901 	beq	141510 <UART_InterruptFIFOLevelSelect+0x1400d0>
    7108:	00000001 	andeq	r0, r0, r1
    710c:	00000000 	andeq	r0, r0, r0
    7110:	001df000 	andseq	pc, sp, r0
    7114:	156a0100 	strbne	r0, [sl, #-256]!	; 0xffffff00
    7118:	82210000 	eorhi	r0, r1, #0
    711c:	01000032 	tsteq	r0, r2, lsr r0
    7120:	413d04e9 	teqmi	sp, r9, ror #9
    7124:	02000001 	andeq	r0, r0, #1
    7128:	81217791 			; <UNDEFINED> instruction: 0x81217791
    712c:	01000008 	tsteq	r0, r8
    7130:	835204e9 	cmphi	r2, #-385875968	; 0xe9000000
    7134:	02000000 	andeq	r0, r0, #0
    7138:	20007091 	mulcs	r0, r1, r0
    713c:	0038d601 	eorseq	sp, r8, r1, lsl #12
    7140:	04e30100 	strbteq	r0, [r3], #256	; 0x100
    7144:	0000010a 	andeq	r0, r0, sl, lsl #2
    7148:	00000000 	andeq	r0, r0, r0
    714c:	1e4c0000 	cdpne	0, 4, cr0, cr12, cr0, {0}
    7150:	a7010000 	strge	r0, [r1, -r0]
    7154:	21000015 	tstcs	r0, r5, lsl r0
    7158:	00003282 	andeq	r3, r0, r2, lsl #5
    715c:	3d04e301 	stccc	3, cr14, [r4, #-4]
    7160:	00000141 	andeq	r0, r0, r1, asr #2
    7164:	21779102 	cmncs	r7, r2, lsl #2
    7168:	00000881 	andeq	r0, r0, r1, lsl #17
    716c:	5204e301 	andpl	lr, r4, #67108864	; 0x4000000
    7170:	00000083 	andeq	r0, r0, r3, lsl #1
    7174:	00709102 	rsbseq	r9, r0, r2, lsl #2
    7178:	3da00122 	stfccs	f0, [r0, #136]!	; 0x88
    717c:	bd010000 	stclt	0, cr0, [r1, #-0]
    7180:	00010a04 	andeq	r0, r1, r4, lsl #20
    7184:	00000000 	andeq	r0, r0, r0
    7188:	a8000000 	stmdage	r0, {}	; <UNPREDICTABLE>
    718c:	0100001e 	tsteq	r0, lr, lsl r0
    7190:	000015e4 	andeq	r1, r0, r4, ror #11
    7194:	00387a21 	eorseq	r7, r8, r1, lsr #20
    7198:	04bd0100 	ldrteq	r0, [sp], #256	; 0x100
    719c:	0015e426 	andseq	lr, r5, r6, lsr #8
    71a0:	74910200 	ldrvc	r0, [r1], #512	; 0x200
    71a4:	003b1421 	eorseq	r1, fp, r1, lsr #8
    71a8:	04bd0100 	ldrteq	r0, [sp], #256	; 0x100
    71ac:	0000db3a 	andeq	sp, r0, sl, lsr fp
    71b0:	73910200 	orrsvc	r0, r1, #0, 4
    71b4:	ea040500 	b	1085bc <UART_InterruptFIFOLevelSelect+0x10717c>
    71b8:	03000015 	movweq	r0, #21
    71bc:	0d1d0801 	ldceq	8, cr0, [sp, #-4]
    71c0:	01220000 			; <UNDEFINED> instruction: 0x01220000
    71c4:	00003ba5 	andeq	r3, r0, r5, lsr #23
    71c8:	0b04b201 	bleq	1339d4 <UART_InterruptFIFOLevelSelect+0x132594>
    71cc:	00000001 	andeq	r0, r0, r1
    71d0:	00000000 	andeq	r0, r0, r0
    71d4:	001ef800 	andseq	pc, lr, r0, lsl #16
    71d8:	162e0100 	strtne	r0, [lr], -r0, lsl #2
    71dc:	15210000 	strne	r0, [r1, #-0]!
    71e0:	01000009 	tsteq	r0, r9
    71e4:	db4404b2 	blle	11084b4 <UART_InterruptFIFOLevelSelect+0x1107074>
    71e8:	02000000 	andeq	r0, r0, #0
    71ec:	b5217791 	strlt	r7, [r1, #-1937]!	; 0xfffff86f
    71f0:	01000034 	tsteq	r0, r4, lsr r0
    71f4:	2e5304b2 	mrccs	4, 2, r0, cr3, cr2, {5}
    71f8:	02000016 	andeq	r0, r0, #22
    71fc:	05007091 	streq	r7, [r0, #-145]	; 0xffffff6f
    7200:	00002704 	andeq	r2, r0, r4, lsl #14
    7204:	0f012200 	svceq	0x00012200
    7208:	01000034 	tsteq	r0, r4, lsr r0
    720c:	010b04a9 	smlatbeq	fp, r9, r4, r0
	...
    7218:	00001f48 	andeq	r1, r0, r8, asr #30
    721c:	00167101 	andseq	r7, r6, r1, lsl #2
    7220:	09152100 	ldmdbeq	r5, {r8, sp}
    7224:	a9010000 	stmdbge	r1, {}	; <UNPREDICTABLE>
    7228:	00db4204 	sbcseq	r4, fp, r4, lsl #4
    722c:	91020000 	mrsls	r0, (UNDEF: 2)
    7230:	34b52177 	ldrtcc	r2, [r5], #375	; 0x177
    7234:	a9010000 	stmdbge	r1, {}	; <UNPREDICTABLE>
    7238:	162e5104 	strtne	r5, [lr], -r4, lsl #2
    723c:	91020000 	mrsls	r0, (UNDEF: 2)
    7240:	01200070 			; <UNDEFINED> instruction: 0x01200070
    7244:	000034f4 	strdeq	r3, [r0], -r4
    7248:	0b049a01 	bleq	12da54 <UART_InterruptFIFOLevelSelect+0x12c614>
    724c:	00000001 	andeq	r0, r0, r1
    7250:	00000000 	andeq	r0, r0, r0
    7254:	001f9800 	andseq	r9, pc, r0, lsl #16
    7258:	169e0100 	ldrne	r0, [lr], r0, lsl #2
    725c:	15210000 	strne	r0, [r1, #-0]!
    7260:	01000009 	tsteq	r0, r9
    7264:	db2b049a 	blle	ac84d4 <UART_InterruptFIFOLevelSelect+0xac7094>
    7268:	02000000 	andeq	r0, r0, #0
    726c:	22007791 	andcs	r7, r0, #38010880	; 0x2440000
    7270:	003a4101 	eorseq	r4, sl, r1, lsl #2
    7274:	048c0100 	streq	r0, [ip], #256	; 0x100
    7278:	0000010a 	andeq	r0, r0, sl, lsl #2
    727c:	00000000 	andeq	r0, r0, r0
    7280:	1ff40000 	svcne	0x00f40000
    7284:	eb010000 	bl	4728c <UART_InterruptFIFOLevelSelect+0x45e4c>
    7288:	21000016 	tstcs	r0, r6, lsl r0
    728c:	00000915 	andeq	r0, r0, r5, lsl r9
    7290:	2b048c01 	blcs	12a29c <UART_InterruptFIFOLevelSelect+0x128e5c>
    7294:	000000db 	ldrdeq	r0, [r0], -fp
    7298:	21779102 	cmncs	r7, r2, lsl #2
    729c:	00003c42 	andeq	r3, r0, r2, asr #24
    72a0:	3a048c01 	bcc	12a2ac <UART_InterruptFIFOLevelSelect+0x128e6c>
    72a4:	0000162e 	andeq	r1, r0, lr, lsr #12
    72a8:	21709102 	cmncs	r0, r2, lsl #2
    72ac:	000039a7 	andeq	r3, r0, r7, lsr #19
    72b0:	5f048c01 	svcpl	0x00048c01
    72b4:	000003db 	ldrdeq	r0, [r0], -fp
    72b8:	00769102 	rsbseq	r9, r6, r2, lsl #2
    72bc:	3e9d0122 	fmlccep	f0, f5, f2
    72c0:	82010000 	andhi	r0, r1, #0
    72c4:	00010a04 	andeq	r0, r1, r4, lsl #20
    72c8:	00000000 	andeq	r0, r0, r0
    72cc:	44000000 	strmi	r0, [r0], #-0
    72d0:	01000020 	tsteq	r0, r0, lsr #32
    72d4:	00001728 	andeq	r1, r0, r8, lsr #14
    72d8:	003b1421 	eorseq	r1, fp, r1, lsr #8
    72dc:	04820100 	streq	r0, [r2], #256	; 0x100
    72e0:	0000db34 	andeq	sp, r0, r4, lsr fp
    72e4:	77910200 	ldrvc	r0, [r1, r0, lsl #4]
    72e8:	0025c121 	eoreq	ip, r5, r1, lsr #2
    72ec:	04820100 	streq	r0, [r2], #256	; 0x100
    72f0:	00162e43 	andseq	r2, r6, r3, asr #28
    72f4:	70910200 	addsvc	r0, r1, r0, lsl #4
    72f8:	9a012200 	bls	4fb00 <UART_InterruptFIFOLevelSelect+0x4e6c0>
    72fc:	01000037 	tsteq	r0, r7, lsr r0
    7300:	01090473 	tsteq	r9, r3, ror r4
	...
    730c:	00002094 	muleq	r0, r4, r0
    7310:	00176501 	andseq	r6, r7, r1, lsl #10
    7314:	3b142100 	blcc	50f71c <UART_InterruptFIFOLevelSelect+0x50e2dc>
    7318:	73010000 	movwvc	r0, #4096	; 0x1000
    731c:	00db3404 	sbcseq	r3, fp, r4, lsl #8
    7320:	91020000 	mrsls	r0, (UNDEF: 2)
    7324:	25c12177 	strbcs	r2, [r1, #375]	; 0x177
    7328:	73010000 	movwvc	r0, #4096	; 0x1000
    732c:	162e4304 	strtne	r4, [lr], -r4, lsl #6
    7330:	91020000 	mrsls	r0, (UNDEF: 2)
    7334:	01200070 			; <UNDEFINED> instruction: 0x01200070
    7338:	00003c74 	andeq	r3, r0, r4, ror ip
    733c:	0a046701 	beq	120f48 <UART_InterruptFIFOLevelSelect+0x11fb08>
    7340:	00000001 	andeq	r0, r0, r1
    7344:	00000000 	andeq	r0, r0, r0
    7348:	0020e400 	eoreq	lr, r0, r0, lsl #8
    734c:	17a20100 	strne	r0, [r2, r0, lsl #2]!
    7350:	14210000 	strtne	r0, [r1], #-0
    7354:	0100003b 	tsteq	r0, fp, lsr r0
    7358:	db320467 	blle	c884fc <UART_InterruptFIFOLevelSelect+0xc870bc>
    735c:	02000000 	andeq	r0, r0, #0
    7360:	c1217791 			; <UNDEFINED> instruction: 0xc1217791
    7364:	01000025 	tsteq	r0, r5, lsr #32
    7368:	2e410467 	cdpcs	4, 4, cr0, cr1, cr7, {3}
    736c:	02000016 	andeq	r0, r0, #22
    7370:	20007091 	mulcs	r0, r1, r0
    7374:	00375e01 	eorseq	r5, r7, r1, lsl #28
    7378:	045a0100 	ldrbeq	r0, [sl], #-256	; 0xffffff00
    737c:	00000109 	andeq	r0, r0, r9, lsl #2
    7380:	00000000 	andeq	r0, r0, r0
    7384:	21400000 	mrscs	r0, (UNDEF: 64)
    7388:	df010000 	svcle	0x00010000
    738c:	21000017 	tstcs	r0, r7, lsl r0
    7390:	00003b14 	andeq	r3, r0, r4, lsl fp
    7394:	32045a01 	andcc	r5, r4, #4096	; 0x1000
    7398:	000000db 	ldrdeq	r0, [r0], -fp
    739c:	21779102 	cmncs	r7, r2, lsl #2
    73a0:	000025cb 	andeq	r2, r0, fp, asr #11
    73a4:	41045a01 	tstmi	r4, r1, lsl #20
    73a8:	0000162e 	andeq	r1, r0, lr, lsr #12
    73ac:	00709102 	rsbseq	r9, r0, r2, lsl #2
    73b0:	3c560120 	ldfcce	f0, [r6], {32}
    73b4:	3e010000 	cdpcc	0, 0, cr0, cr1, cr0, {0}
    73b8:	00010804 	andeq	r0, r1, r4, lsl #16
    73bc:	00000000 	andeq	r0, r0, r0
    73c0:	9c000000 	stcls	0, cr0, [r0], {-0}
    73c4:	01000021 	tsteq	r0, r1, lsr #32
    73c8:	0000182c 	andeq	r1, r0, ip, lsr #16
    73cc:	00051421 	andeq	r1, r5, r1, lsr #8
    73d0:	043e0100 	ldrteq	r0, [lr], #-256	; 0xffffff00
    73d4:	0001413a 	andeq	r4, r1, sl, lsr r1
    73d8:	77910200 	ldrvc	r0, [r1, r0, lsl #4]
    73dc:	003c0821 	eorseq	r0, ip, r1, lsr #16
    73e0:	043e0100 	ldrteq	r0, [lr], #-256	; 0xffffff00
    73e4:	00018d64 	andeq	r8, r1, r4, ror #26
    73e8:	76910200 	ldrvc	r0, [r1], r0, lsl #4
    73ec:	00091521 	andeq	r1, r9, r1, lsr #10
    73f0:	043e0100 	ldrteq	r0, [lr], #-256	; 0xffffff00
    73f4:	0000db88 	andeq	sp, r0, r8, lsl #23
    73f8:	75910200 	ldrvc	r0, [r1, #512]	; 0x200
    73fc:	7e012200 	cdpvc	2, 0, cr2, cr1, cr0, {0}
    7400:	0100003d 	tsteq	r0, sp, lsr r0
    7404:	010803e3 	smlatteq	r8, r3, r3, r0
	...
    7410:	000021f8 	strdeq	r2, [r0], -r8
    7414:	00186901 	andseq	r6, r8, r1, lsl #18
    7418:	34502100 	ldrbcc	r2, [r0], #-256	; 0xffffff00
    741c:	e3010000 	movw	r0, #4096	; 0x1000
    7420:	18692b03 	stmdane	r9!, {r0, r1, r8, r9, fp, sp}^
    7424:	91020000 	mrsls	r0, (UNDEF: 2)
    7428:	13b52174 			; <UNDEFINED> instruction: 0x13b52174
    742c:	e3010000 	movw	r0, #4096	; 0x1000
    7430:	03065003 	movweq	r5, #24579	; 0x6003
    7434:	91020000 	mrsls	r0, (UNDEF: 2)
    7438:	04050070 	streq	r0, [r5], #-112	; 0xffffff90
    743c:	000001ee 	andeq	r0, r0, lr, ror #3
    7440:	33d70123 	bicscc	r0, r7, #-1073741816	; 0xc0000008
    7444:	a6010000 	strge	r0, [r1], -r0
    7448:	189f0703 	ldmne	pc, {r0, r1, r8, r9, sl}	; <UNPREDICTABLE>
	...
    7454:	22480000 	subcs	r0, r8, #0
    7458:	9f010000 	svcls	0x00010000
    745c:	1f000018 	svcne	0x00000018
    7460:	0000381e 	andeq	r3, r0, lr, lsl r8
    7464:	1f03a701 	svcne	0x0003a701
    7468:	00000141 	andeq	r0, r0, r1, asr #2
    746c:	00779102 	rsbseq	r9, r7, r2, lsl #2
    7470:	69050424 	stmdbvs	r5, {r2, r5, sl}
    7474:	2300746e 	movwcs	r7, #1134	; 0x46e
    7478:	003a1801 	eorseq	r1, sl, r1, lsl #16
    747c:	036a0100 	cmneq	sl, #0, 2
    7480:	00189f05 	andseq	r9, r8, r5, lsl #30
	...
    748c:	00229800 	eoreq	r9, r2, r0, lsl #16
    7490:	18d60100 	ldmne	r6, {r8}^
    7494:	1e1f0000 	cdpne	0, 1, cr0, cr15, cr0, {0}
    7498:	01000038 	tsteq	r0, r8, lsr r0
    749c:	411d036b 	tstmi	sp, fp, ror #6
    74a0:	02000001 	andeq	r0, r0, #1
    74a4:	23007791 	movwcs	r7, #1937	; 0x791
    74a8:	00369c01 	eorseq	r9, r6, r1, lsl #24
    74ac:	032e0100 			; <UNDEFINED> instruction: 0x032e0100
    74b0:	00189f05 	andseq	r9, r8, r5, lsl #30
	...
    74bc:	0022e800 	eoreq	lr, r2, r0, lsl #16
    74c0:	19060100 	stmdbne	r6, {r8}
    74c4:	1e1f0000 	cdpne	0, 1, cr0, cr15, cr0, {0}
    74c8:	01000038 	tsteq	r0, r8, lsr r0
    74cc:	411d0330 	tstmi	sp, r0, lsr r3
    74d0:	02000001 	andeq	r0, r0, #1
    74d4:	23007791 	movwcs	r7, #1937	; 0x791
    74d8:	003d2901 	eorseq	r2, sp, r1, lsl #18
    74dc:	02f10100 	rscseq	r0, r1, #0, 2
    74e0:	00189f05 	andseq	r9, r8, r5, lsl #30
	...
    74ec:	00233800 	eoreq	r3, r3, r0, lsl #16
    74f0:	19360100 	ldmdbne	r6!, {r8}
    74f4:	1e1f0000 	cdpne	0, 1, cr0, cr15, cr0, {0}
    74f8:	01000038 	tsteq	r0, r8, lsr r0
    74fc:	411d02f3 			; <UNDEFINED> instruction: 0x411d02f3
    7500:	02000001 	andeq	r0, r0, #1
    7504:	23007791 	movwcs	r7, #1937	; 0x791
    7508:	003a6e01 	eorseq	r6, sl, r1, lsl #28
    750c:	02b50100 	adcseq	r0, r5, #0, 2
    7510:	00189f05 	andseq	r9, r8, r5, lsl #30
	...
    751c:	00238800 	eoreq	r8, r3, r0, lsl #16
    7520:	19660100 	stmdbne	r6!, {r8}^
    7524:	1e1f0000 	cdpne	0, 1, cr0, cr15, cr0, {0}
    7528:	01000038 	tsteq	r0, r8, lsr r0
    752c:	411d02b7 			; <UNDEFINED> instruction: 0x411d02b7
    7530:	02000001 	andeq	r0, r0, #1
    7534:	23007791 	movwcs	r7, #1937	; 0x791
    7538:	003b8a01 	eorseq	r8, fp, r1, lsl #20
    753c:	02780100 	rsbseq	r0, r8, #0, 2
    7540:	00189f05 	andseq	r9, r8, r5, lsl #30
	...
    754c:	0023d800 	eoreq	sp, r3, r0, lsl #16
    7550:	19960100 	ldmibne	r6, {r8}
    7554:	1e1f0000 	cdpne	0, 1, cr0, cr15, cr0, {0}
    7558:	01000038 	tsteq	r0, r8, lsr r0
    755c:	411d027a 	tstmi	sp, sl, ror r2
    7560:	02000001 	andeq	r0, r0, #1
    7564:	23007791 	movwcs	r7, #1937	; 0x791
    7568:	003d3a01 	eorseq	r3, sp, r1, lsl #20
    756c:	023c0100 	eorseq	r0, ip, #0, 2
    7570:	00189f05 	andseq	r9, r8, r5, lsl #30
	...
    757c:	00242800 	eoreq	r2, r4, r0, lsl #16
    7580:	19c60100 	stmibne	r6, {r8}^
    7584:	1e1f0000 	cdpne	0, 1, cr0, cr15, cr0, {0}
    7588:	01000038 	tsteq	r0, r8, lsr r0
    758c:	411d023e 	tstmi	sp, lr, lsr r2
    7590:	02000001 	andeq	r0, r0, #1
    7594:	25007791 	strcs	r7, [r0, #-1937]	; 0xfffff86f
    7598:	00394901 	eorseq	r4, r9, r1, lsl #18
    759c:	02010100 	andeq	r0, r1, #0, 2
    75a0:	00189f05 	andseq	r9, r8, r5, lsl #30
	...
    75ac:	00247800 	eoreq	r7, r4, r0, lsl #16
    75b0:	1e1f0100 	mufnee	f0, f7, f0
    75b4:	01000038 	tsteq	r0, r8, lsr r0
    75b8:	411d0203 	tstmi	sp, r3, lsl #4
    75bc:	02000001 	andeq	r0, r0, #1
    75c0:	00007791 	muleq	r0, r1, r7
    75c4:	00000185 	andeq	r0, r0, r5, lsl #3
    75c8:	120e0002 	andne	r0, lr, #2
    75cc:	01040000 	mrseq	r0, (UNDEF: 4)
    75d0:	000001ac 	andeq	r0, r0, ip, lsr #3
    75d4:	003ec60c 	eorseq	ip, lr, ip, lsl #12
    75d8:	85002e00 	strhi	r2, [r0, #-3584]	; 0xfffff200
    75dc:	0200001d 	andeq	r0, r0, #29
    75e0:	0d140801 	ldceq	8, cr0, [r4, #-4]
    75e4:	01020000 	mrseq	r0, (UNDEF: 2)
    75e8:	000d1606 	andeq	r1, sp, r6, lsl #12
    75ec:	07020200 	streq	r0, [r2, -r0, lsl #4]
    75f0:	00000ee4 	andeq	r0, r0, r4, ror #29
    75f4:	63050202 	movwvs	r0, #20994	; 0x5202
    75f8:	0300000a 	movweq	r0, #10
    75fc:	00000a5d 	andeq	r0, r0, sp, asr sl
    7600:	431c0e01 	tstmi	ip, #1, 28
    7604:	02000000 	andeq	r0, r0, #0
    7608:	05270704 	streq	r0, [r7, #-1796]!	; 0xfffff8fc
    760c:	04020000 	streq	r0, [r2], #-0
    7610:	00080805 	andeq	r0, r8, r5, lsl #16
    7614:	04040200 	streq	r0, [r4], #-512	; 0xfffffe00
    7618:	0000050a 	andeq	r0, r0, sl, lsl #10
    761c:	b1040802 	tstlt	r4, r2, lsl #16
    7620:	02000009 	andeq	r0, r0, #9
    7624:	05220708 	streq	r0, [r2, #-1800]!	; 0xfffff8f8
    7628:	07040000 	streq	r0, [r4, -r0]
    762c:	00001b01 	andeq	r1, r0, r1, lsl #22
    7630:	0d070200 	sfmeq	f0, 4, [r7, #-0]
    7634:	000000a5 	andeq	r0, r0, r5, lsr #1
    7638:	0025fb05 	eoreq	pc, r5, r5, lsl #22
    763c:	09050000 	stmdbeq	r5, {}	; <UNPREDICTABLE>
    7640:	01000026 	tsteq	r0, r6, lsr #32
    7644:	00261705 	eoreq	r1, r6, r5, lsl #14
    7648:	25050200 	strcs	r0, [r5, #-512]	; 0xfffffe00
    764c:	03000026 	movweq	r0, #38	; 0x26
    7650:	00263305 	eoreq	r3, r6, r5, lsl #6
    7654:	41050400 	tstmi	r5, r0, lsl #8
    7658:	05000026 	streq	r0, [r0, #-38]	; 0xffffffda
    765c:	00264f05 	eoreq	r4, r6, r5, lsl #30
    7660:	5d050600 	stcpl	6, cr0, [r5, #-0]
    7664:	07000026 	streq	r0, [r0, -r6, lsr #32]
    7668:	26720300 	ldrbtcs	r0, [r2], -r0, lsl #6
    766c:	11020000 	mrsne	r0, (UNDEF: 2)
    7670:	00006602 	andeq	r6, r0, r2, lsl #12
    7674:	01070400 	tsteq	r7, r0, lsl #8
    7678:	0000001b 	andeq	r0, r0, fp, lsl r0
    767c:	cc0d1302 	stcgt	3, cr1, [sp], {2}
    7680:	05000000 	streq	r0, [r0, #-0]
    7684:	00002d7d 	andeq	r2, r0, sp, ror sp
    7688:	27410500 	strbcs	r0, [r1, -r0, lsl #10]
    768c:	00050000 	andeq	r0, r5, r0
    7690:	0025e003 	eoreq	lr, r5, r3
    7694:	01190200 	tsteq	r9, r0, lsl #4
    7698:	000000b1 	strheq	r0, [r0], -r1
    769c:	1b010704 	blne	492b4 <UART_InterruptFIFOLevelSelect+0x47e74>
    76a0:	02000000 	andeq	r0, r0, #0
    76a4:	00ff0d1c 	rscseq	r0, pc, ip, lsl sp	; <UNPREDICTABLE>
    76a8:	07050000 	streq	r0, [r5, -r0]
    76ac:	00000027 	andeq	r0, r0, r7, lsr #32
    76b0:	00266b05 	eoreq	r6, r6, r5, lsl #22
    76b4:	a6050100 	strge	r0, [r5], -r0, lsl #2
    76b8:	02000025 	andeq	r0, r0, #37	; 0x25
    76bc:	0026d005 	eoreq	sp, r6, r5
    76c0:	03000300 	movweq	r0, #768	; 0x300
    76c4:	000026f0 	strdeq	r2, [r0], -r0
    76c8:	d8022202 	stmdale	r2, {r1, r9, sp}
    76cc:	06000000 	streq	r0, [r0], -r0
    76d0:	0932020c 	ldmdbeq	r2!, {r2, r3, r9}
    76d4:	00000160 	andeq	r0, r0, r0, ror #2
    76d8:	00091507 	andeq	r1, r9, r7, lsl #10
    76dc:	14340200 	ldrtne	r0, [r4], #-512	; 0xfffffe00
    76e0:	000000a5 	andeq	r0, r0, r5, lsr #1
    76e4:	07002302 	streq	r2, [r0, -r2, lsl #6]
    76e8:	000025d5 	ldrdeq	r2, [r0], -r5
    76ec:	ff183502 			; <UNDEFINED> instruction: 0xff183502
    76f0:	02000000 	andeq	r0, r0, #0
    76f4:	35070123 	strcc	r0, [r7, #-291]	; 0xfffffedd
    76f8:	02000027 	andeq	r0, r0, #39	; 0x27
    76fc:	00cc1836 	sbceq	r1, ip, r6, lsr r8
    7700:	23020000 	movwcs	r0, #8192	; 0x2000
    7704:	27020702 	strcs	r0, [r2, -r2, lsl #14]
    7708:	37020000 	strcc	r0, [r2, -r0]
    770c:	0000370b 	andeq	r3, r0, fp, lsl #14
    7710:	04230200 	strteq	r0, [r3], #-512	; 0xfffffe00
    7714:	0026eb07 	eoreq	lr, r6, r7, lsl #22
    7718:	0b380200 	bleq	e07f20 <UART_InterruptFIFOLevelSelect+0xe06ae0>
    771c:	00000037 	andeq	r0, r0, r7, lsr r0
    7720:	00082302 	andeq	r2, r8, r2, lsl #6
    7724:	00269203 	eoreq	r9, r6, r3, lsl #4
    7728:	023a0200 	eorseq	r0, sl, #0, 4
    772c:	0000010b 	andeq	r0, r0, fp, lsl #2
    7730:	0025ad08 	eoreq	sl, r5, r8, lsl #26
    7734:	16510200 	ldrbne	r0, [r1], -r0, lsl #4
    7738:	00000160 	andeq	r0, r0, r0, ror #2
    773c:	6c090101 	stfvss	f0, [r9], {1}
    7740:	03000001 	movweq	r0, #1
    7744:	03050f07 	movweq	r0, #24327	; 0x5f07
    7748:	00000000 	andeq	r0, r0, r0
	...

Disassembly of section .debug_abbrev:

00000000 <.debug_abbrev>:
       0:	25011101 	strcs	r1, [r1, #-257]	; 0xfffffeff
       4:	030b130e 	movweq	r1, #45838	; 0xb30e
       8:	55081b0e 	strpl	r1, [r8, #-2830]	; 0xfffff4f2
       c:	52011106 	andpl	r1, r1, #-2147483647	; 0x80000001
      10:	00061001 	andeq	r1, r6, r1
      14:	00160200 	andseq	r0, r6, r0, lsl #4
      18:	0b3a0e03 	bleq	e8382c <UART_InterruptFIFOLevelSelect+0xe823ec>
      1c:	0b390b3b 	bleq	e42d10 <UART_InterruptFIFOLevelSelect+0xe418d0>
      20:	00001349 	andeq	r1, r0, r9, asr #6
      24:	49003503 	stmdbmi	r0, {r0, r1, r8, sl, ip, sp}
      28:	04000013 	streq	r0, [r0], #-19	; 0xffffffed
      2c:	0b0b0024 	bleq	2c00c4 <UART_InterruptFIFOLevelSelect+0x2bec84>
      30:	0e030b3e 	vmoveq.16	d3[0], r0
      34:	0f050000 	svceq	0x00050000
      38:	490b0b00 	stmdbmi	fp, {r8, r9, fp}
      3c:	06000013 			; <UNDEFINED> instruction: 0x06000013
      40:	0c270015 	stceq	0, cr0, [r7], #-84	; 0xffffffac
      44:	01070000 	mrseq	r0, (UNDEF: 7)
      48:	01134901 	tsteq	r3, r1, lsl #18
      4c:	08000013 	stmdaeq	r0, {r0, r1, r4}
      50:	13490021 	movtne	r0, #36897	; 0x9021
      54:	0000052f 	andeq	r0, r0, pc, lsr #10
      58:	03003409 	movweq	r3, #1033	; 0x409
      5c:	3b0b3a0e 	blcc	2ce89c <UART_InterruptFIFOLevelSelect+0x2cd45c>
      60:	490b390b 	stmdbmi	fp, {r0, r1, r3, r8, fp, ip, sp}
      64:	3c0c3f13 	stccc	15, cr3, [ip], {19}
      68:	0a00000c 	beq	a0 <DMA_EnableChannelAttributes+0x4c>
      6c:	0b0b0113 	bleq	2c04c0 <UART_InterruptFIFOLevelSelect+0x2bf080>
      70:	0b3b0b3a 	bleq	ec2d60 <UART_InterruptFIFOLevelSelect+0xec1920>
      74:	13010b39 	movwne	r0, #6969	; 0x1b39
      78:	0d0b0000 	stceq	0, cr0, [fp, #-0]
      7c:	3a0e0300 	bcc	380c84 <UART_InterruptFIFOLevelSelect+0x37f844>
      80:	390b3b0b 	stmdbcc	fp, {r0, r1, r3, r8, r9, fp, ip, sp}
      84:	0b13490b 	bleq	4d24b8 <UART_InterruptFIFOLevelSelect+0x4d1078>
      88:	0c0b0d0b 	stceq	13, cr0, [fp], {11}
      8c:	000a380b 	andeq	r3, sl, fp, lsl #16
      90:	01170c00 	tsteq	r7, r0, lsl #24
      94:	0b3a0b0b 	bleq	e82cc8 <UART_InterruptFIFOLevelSelect+0xe81888>
      98:	0b390b3b 	bleq	e42d8c <UART_InterruptFIFOLevelSelect+0xe4194c>
      9c:	00001301 	andeq	r1, r0, r1, lsl #6
      a0:	03000d0d 	movweq	r0, #3341	; 0xd0d
      a4:	3b0b3a0e 	blcc	2ce8e4 <UART_InterruptFIFOLevelSelect+0x2cd4a4>
      a8:	490b390b 	stmdbmi	fp, {r0, r1, r3, r8, fp, ip, sp}
      ac:	0e000013 	mcreq	0, 0, r0, cr0, cr3, {0}
      b0:	0e03000d 	cdpeq	0, 0, cr0, cr3, cr13, {0}
      b4:	053b0b3a 	ldreq	r0, [fp, #-2874]!	; 0xfffff4c6
      b8:	13490b39 	movtne	r0, #39737	; 0x9b39
      bc:	0b0d0b0b 	bleq	342cf0 <UART_InterruptFIFOLevelSelect+0x3418b0>
      c0:	0a380b0c 	beq	e02cf8 <UART_InterruptFIFOLevelSelect+0xe018b8>
      c4:	0d0f0000 	stceq	0, cr0, [pc, #-0]	; cc <DMA_EnableChannelAttributes+0x78>
      c8:	3a0e0300 	bcc	380cd0 <UART_InterruptFIFOLevelSelect+0x37f890>
      cc:	39053b0b 	stmdbcc	r5, {r0, r1, r3, r8, r9, fp, ip, sp}
      d0:	0013490b 	andseq	r4, r3, fp, lsl #18
      d4:	00161000 	andseq	r1, r6, r0
      d8:	0b3a0e03 	bleq	e838ec <UART_InterruptFIFOLevelSelect+0xe824ac>
      dc:	0b39053b 	bleq	e415d0 <UART_InterruptFIFOLevelSelect+0xe40190>
      e0:	00001349 	andeq	r1, r0, r9, asr #6
      e4:	3e010411 	cfmvdlrcc	mvd1, r0
      e8:	490b0b0b 	stmdbmi	fp, {r0, r1, r3, r8, r9, fp}
      ec:	3b0b3a13 	blcc	2ce940 <UART_InterruptFIFOLevelSelect+0x2cd500>
      f0:	010b390b 	tsteq	fp, fp, lsl #18
      f4:	12000013 	andne	r0, r0, #19
      f8:	0e030028 	cdpeq	0, 0, cr0, cr3, cr8, {1}
      fc:	00000b1c 	andeq	r0, r0, ip, lsl fp
     100:	03000d13 	movweq	r0, #3347	; 0xd13
     104:	3b0b3a0e 	blcc	2ce944 <UART_InterruptFIFOLevelSelect+0x2cd504>
     108:	490b390b 	stmdbmi	fp, {r0, r1, r3, r8, fp, ip, sp}
     10c:	000a3813 	andeq	r3, sl, r3, lsl r8
     110:	00211400 	eoreq	r1, r1, r0, lsl #8
     114:	0b2f1349 	bleq	bc4e40 <UART_InterruptFIFOLevelSelect+0xbc3a00>
     118:	24150000 	ldrcs	r0, [r5], #-0
     11c:	3e0b0b00 	vmlacc.f64	d0, d11, d0
     120:	0008030b 	andeq	r0, r8, fp, lsl #6
     124:	000f1600 	andeq	r1, pc, r0, lsl #12
     128:	00000b0b 	andeq	r0, r0, fp, lsl #22
     12c:	03003417 	movweq	r3, #1047	; 0x417
     130:	3b0b3a0e 	blcc	2ce970 <UART_InterruptFIFOLevelSelect+0x2cd530>
     134:	490b390b 	stmdbmi	fp, {r0, r1, r3, r8, fp, ip, sp}
     138:	000a0213 	andeq	r0, sl, r3, lsl r2
     13c:	00341800 	eorseq	r1, r4, r0, lsl #16
     140:	0b3a0e03 	bleq	e83954 <UART_InterruptFIFOLevelSelect+0xe82514>
     144:	0b390b3b 	bleq	e42e38 <UART_InterruptFIFOLevelSelect+0xe419f8>
     148:	0c3f1349 	ldceq	3, cr1, [pc], #-292	; 2c <DMA_PeripheralInitialization+0x10>
     14c:	00000a02 	andeq	r0, r0, r2, lsl #20
     150:	47003419 	smladmi	r0, r9, r4, r3
     154:	3b0b3a13 	blcc	2ce9a8 <UART_InterruptFIFOLevelSelect+0x2cd568>
     158:	020b390b 	andeq	r3, fp, #180224	; 0x2c000
     15c:	1a00000a 	bne	18c <DMA_ChannelControlStructureSet+0x80>
     160:	13490026 	movtne	r0, #36902	; 0x9026
     164:	341b0000 	ldrcc	r0, [fp], #-0
     168:	3a0e0300 	bcc	380d70 <UART_InterruptFIFOLevelSelect+0x37f930>
     16c:	39053b0b 	stmdbcc	r5, {r0, r1, r3, r8, r9, fp, ip, sp}
     170:	3f13490b 	svccc	0x0013490b
     174:	000a020c 	andeq	r0, sl, ip, lsl #4
     178:	00341c00 	eorseq	r1, r4, r0, lsl #24
     17c:	0b3a0e03 	bleq	e83990 <UART_InterruptFIFOLevelSelect+0xe82550>
     180:	0b39053b 	bleq	e41674 <UART_InterruptFIFOLevelSelect+0xe40234>
     184:	0a021349 	beq	84eb0 <UART_InterruptFIFOLevelSelect+0x83a70>
     188:	2e1d0000 	cdpcs	0, 1, cr0, cr13, cr0, {0}
     18c:	030c3f01 	movweq	r3, #52993	; 0xcf01
     190:	3b0b3a0e 	blcc	2ce9d0 <UART_InterruptFIFOLevelSelect+0x2cd590>
     194:	270b3905 	strcs	r3, [fp, -r5, lsl #18]
     198:	1201110c 	andne	r1, r1, #12, 2
     19c:	97064001 	strls	r4, [r6, -r1]
     1a0:	13010c42 	movwne	r0, #7234	; 0x1c42
     1a4:	051e0000 	ldreq	r0, [lr, #-0]
     1a8:	3a0e0300 	bcc	380db0 <UART_InterruptFIFOLevelSelect+0x37f970>
     1ac:	39053b0b 	stmdbcc	r5, {r0, r1, r3, r8, r9, fp, ip, sp}
     1b0:	0213490b 	andseq	r4, r3, #180224	; 0x2c000
     1b4:	1f00000a 	svcne	0x0000000a
     1b8:	0c3f012e 	ldfeqs	f0, [pc], #-184	; 108 <DMA_EnableChannel+0x28>
     1bc:	0b3a0e03 	bleq	e839d0 <UART_InterruptFIFOLevelSelect+0xe82590>
     1c0:	0b39053b 	bleq	e416b4 <UART_InterruptFIFOLevelSelect+0xe40274>
     1c4:	01110c27 	tsteq	r1, r7, lsr #24
     1c8:	06400112 			; <UNDEFINED> instruction: 0x06400112
     1cc:	010c4296 			; <UNDEFINED> instruction: 0x010c4296
     1d0:	20000013 	andcs	r0, r0, r3, lsl r0
     1d4:	0c3f002e 	ldceq	0, cr0, [pc], #-184	; 124 <DMA_ChannelControlStructureSet+0x18>
     1d8:	0b3a0e03 	bleq	e839ec <UART_InterruptFIFOLevelSelect+0xe825ac>
     1dc:	0b39053b 	bleq	e416d0 <UART_InterruptFIFOLevelSelect+0xe40290>
     1e0:	01120111 	tsteq	r2, r1, lsl r1
     1e4:	42970640 	addsmi	r0, r7, #64, 12	; 0x4000000
     1e8:	2100000c 	tstcs	r0, ip
     1ec:	0c3f002e 	ldceq	0, cr0, [pc], #-184	; 13c <DMA_ChannelControlStructureSet+0x30>
     1f0:	0b3a0e03 	bleq	e83a04 <UART_InterruptFIFOLevelSelect+0xe825c4>
     1f4:	0b39053b 	bleq	e416e8 <UART_InterruptFIFOLevelSelect+0xe402a8>
     1f8:	01111349 	tsteq	r1, r9, asr #6
     1fc:	06400112 			; <UNDEFINED> instruction: 0x06400112
     200:	000c4296 	muleq	ip, r6, r2
     204:	002e2200 	eoreq	r2, lr, r0, lsl #4
     208:	0e030c3f 	mcreq	12, 0, r0, cr3, cr15, {1}
     20c:	0b3b0b3a 	bleq	ec2efc <UART_InterruptFIFOLevelSelect+0xec1abc>
     210:	13490b39 	movtne	r0, #39737	; 0x9b39
     214:	01120111 	tsteq	r2, r1, lsl r1
     218:	42970640 	addsmi	r0, r7, #64, 12	; 0x4000000
     21c:	0000000c 	andeq	r0, r0, ip
     220:	25011101 	strcs	r1, [r1, #-257]	; 0xfffffeff
     224:	030b130e 	movweq	r1, #45838	; 0xb30e
     228:	10081b0e 	andne	r1, r8, lr, lsl #22
     22c:	02000006 	andeq	r0, r0, #6
     230:	0b0b0024 	bleq	2c02c8 <UART_InterruptFIFOLevelSelect+0x2bee88>
     234:	0e030b3e 	vmoveq.16	d3[0], r0
     238:	16030000 	strne	r0, [r3], -r0
     23c:	3a0e0300 	bcc	380e44 <UART_InterruptFIFOLevelSelect+0x37fa04>
     240:	390b3b0b 	stmdbcc	fp, {r0, r1, r3, r8, r9, fp, ip, sp}
     244:	0013490b 	andseq	r4, r3, fp, lsl #18
     248:	01040400 	tsteq	r4, r0, lsl #8
     24c:	0b0b0b3e 	bleq	2c2f4c <UART_InterruptFIFOLevelSelect+0x2c1b0c>
     250:	0b3a1349 	bleq	e84f7c <UART_InterruptFIFOLevelSelect+0xe83b3c>
     254:	0b390b3b 	bleq	e42f48 <UART_InterruptFIFOLevelSelect+0xe41b08>
     258:	00001301 	andeq	r1, r0, r1, lsl #6
     25c:	03002805 	movweq	r2, #2053	; 0x805
     260:	000b1c0e 	andeq	r1, fp, lr, lsl #24
     264:	01130600 	tsteq	r3, r0, lsl #12
     268:	0b3a0b0b 	bleq	e82e9c <UART_InterruptFIFOLevelSelect+0xe81a5c>
     26c:	0b390b3b 	bleq	e42f60 <UART_InterruptFIFOLevelSelect+0xe41b20>
     270:	00001301 	andeq	r1, r0, r1, lsl #6
     274:	03000d07 	movweq	r0, #3335	; 0xd07
     278:	3b0b3a0e 	blcc	2ceab8 <UART_InterruptFIFOLevelSelect+0x2cd678>
     27c:	490b390b 	stmdbmi	fp, {r0, r1, r3, r8, fp, ip, sp}
     280:	000a3813 	andeq	r3, sl, r3, lsl r8
     284:	000f0800 	andeq	r0, pc, r0, lsl #16
     288:	13490b0b 	movtne	r0, #39691	; 0x9b0b
     28c:	01090000 	mrseq	r0, (UNDEF: 9)
     290:	01134901 	tsteq	r3, r1, lsl #18
     294:	0a000013 	beq	2e8 <DMA_ConfigurePeripheralInterrupt+0x2c>
     298:	13490021 	movtne	r0, #36897	; 0x9021
     29c:	00000b2f 	andeq	r0, r0, pc, lsr #22
     2a0:	0300340b 	movweq	r3, #1035	; 0x40b
     2a4:	3b0b3a0e 	blcc	2ceae4 <UART_InterruptFIFOLevelSelect+0x2cd6a4>
     2a8:	490b390b 	stmdbmi	fp, {r0, r1, r3, r8, fp, ip, sp}
     2ac:	3c0c3f13 	stccc	15, cr3, [ip], {19}
     2b0:	0c00000c 	stceq	0, cr0, [r0], {12}
     2b4:	0e030034 	mcreq	0, 0, r0, cr3, cr4, {1}
     2b8:	0b3b0b3a 	bleq	ec2fa8 <UART_InterruptFIFOLevelSelect+0xec1b68>
     2bc:	13490b39 	movtne	r0, #39737	; 0x9b39
     2c0:	0a020c3f 	beq	833c4 <UART_InterruptFIFOLevelSelect+0x81f84>
     2c4:	340d0000 	strcc	r0, [sp], #-0
     2c8:	3a134700 	bcc	4d1ed0 <UART_InterruptFIFOLevelSelect+0x4d0a90>
     2cc:	390b3b0b 	stmdbcc	fp, {r0, r1, r3, r8, r9, fp, ip, sp}
     2d0:	000a020b 	andeq	r0, sl, fp, lsl #4
     2d4:	00340e00 	eorseq	r0, r4, r0, lsl #28
     2d8:	0b3a0e03 	bleq	e83aec <UART_InterruptFIFOLevelSelect+0xe826ac>
     2dc:	0b39053b 	bleq	e417d0 <UART_InterruptFIFOLevelSelect+0xe40390>
     2e0:	0c3f1349 	ldceq	3, cr1, [pc], #-292	; 1c4 <DMA_ChannelControlStructureSet+0xb8>
     2e4:	00000a02 	andeq	r0, r0, r2, lsl #20
     2e8:	4700340f 	strmi	r3, [r0, -pc, lsl #8]
     2ec:	3b0b3a13 	blcc	2ceb40 <UART_InterruptFIFOLevelSelect+0x2cd700>
     2f0:	020b3905 	andeq	r3, fp, #81920	; 0x14000
     2f4:	0000000a 	andeq	r0, r0, sl
     2f8:	25011101 	strcs	r1, [r1, #-257]	; 0xfffffeff
     2fc:	030b130e 	movweq	r1, #45838	; 0xb30e
     300:	55081b0e 	strpl	r1, [r8, #-2830]	; 0xfffff4f2
     304:	52011106 	andpl	r1, r1, #-2147483647	; 0x80000001
     308:	00061001 	andeq	r1, r6, r1
     30c:	00160200 	andseq	r0, r6, r0, lsl #4
     310:	0b3a0e03 	bleq	e83b24 <UART_InterruptFIFOLevelSelect+0xe826e4>
     314:	0b390b3b 	bleq	e43008 <UART_InterruptFIFOLevelSelect+0xe41bc8>
     318:	00001349 	andeq	r1, r0, r9, asr #6
     31c:	0b002403 	bleq	9330 <UART_InterruptFIFOLevelSelect+0x7ef0>
     320:	030b3e0b 	movweq	r3, #48651	; 0xbe0b
     324:	0400000e 	streq	r0, [r0], #-14
     328:	13490035 	movtne	r0, #36917	; 0x9035
     32c:	0f050000 	svceq	0x00050000
     330:	490b0b00 	stmdbmi	fp, {r8, r9, fp}
     334:	06000013 			; <UNDEFINED> instruction: 0x06000013
     338:	0c270015 	stceq	0, cr0, [r7], #-84	; 0xffffffac
     33c:	13070000 	movwne	r0, #28672	; 0x7000
     340:	3a0b0b01 	bcc	2c2f4c <UART_InterruptFIFOLevelSelect+0x2c1b0c>
     344:	390b3b0b 	stmdbcc	fp, {r0, r1, r3, r8, r9, fp, ip, sp}
     348:	0013010b 	andseq	r0, r3, fp, lsl #2
     34c:	000d0800 	andeq	r0, sp, r0, lsl #16
     350:	0b3a0e03 	bleq	e83b64 <UART_InterruptFIFOLevelSelect+0xe82724>
     354:	0b390b3b 	bleq	e43048 <UART_InterruptFIFOLevelSelect+0xe41c08>
     358:	0b0b1349 	bleq	2c5084 <UART_InterruptFIFOLevelSelect+0x2c3c44>
     35c:	0b0c0b0d 	bleq	302f98 <UART_InterruptFIFOLevelSelect+0x301b58>
     360:	00000a38 	andeq	r0, r0, r8, lsr sl
     364:	0b011709 	bleq	45f90 <UART_InterruptFIFOLevelSelect+0x44b50>
     368:	3b0b3a0b 	blcc	2ceb9c <UART_InterruptFIFOLevelSelect+0x2cd75c>
     36c:	010b390b 	tsteq	fp, fp, lsl #18
     370:	0a000013 	beq	3c4 <DMA_AssignChannel+0x24>
     374:	0e03000d 	cdpeq	0, 0, cr0, cr3, cr13, {0}
     378:	0b3b0b3a 	bleq	ec3068 <UART_InterruptFIFOLevelSelect+0xec1c28>
     37c:	13490b39 	movtne	r0, #39737	; 0x9b39
     380:	040b0000 	streq	r0, [fp], #-0
     384:	0b0b3e01 	bleq	2cfb90 <UART_InterruptFIFOLevelSelect+0x2ce750>
     388:	3a13490b 	bcc	4d27bc <UART_InterruptFIFOLevelSelect+0x4d137c>
     38c:	390b3b0b 	stmdbcc	fp, {r0, r1, r3, r8, r9, fp, ip, sp}
     390:	0013010b 	andseq	r0, r3, fp, lsl #2
     394:	00280c00 	eoreq	r0, r8, r0, lsl #24
     398:	0b1c0e03 	bleq	703bac <UART_InterruptFIFOLevelSelect+0x70276c>
     39c:	0d0d0000 	stceq	0, cr0, [sp, #-0]
     3a0:	3a0e0300 	bcc	380fa8 <UART_InterruptFIFOLevelSelect+0x37fb68>
     3a4:	390b3b0b 	stmdbcc	fp, {r0, r1, r3, r8, r9, fp, ip, sp}
     3a8:	3813490b 	ldmdacc	r3, {r0, r1, r3, r8, fp, lr}
     3ac:	0e00000a 	cdpeq	0, 0, cr0, cr0, cr10, {0}
     3b0:	13490026 	movtne	r0, #36902	; 0x9026
     3b4:	240f0000 	strcs	r0, [pc], #-0	; 3bc <DMA_AssignChannel+0x1c>
     3b8:	3e0b0b00 	vmlacc.f64	d0, d11, d0
     3bc:	0008030b 	andeq	r0, r8, fp, lsl #6
     3c0:	01011000 	mrseq	r1, (UNDEF: 1)
     3c4:	13011349 	movwne	r1, #4937	; 0x1349
     3c8:	21110000 	tstcs	r1, r0
     3cc:	2f134900 	svccs	0x00134900
     3d0:	1200000b 	andne	r0, r0, #11
     3d4:	0e030034 	mcreq	0, 0, r0, cr3, cr4, {1}
     3d8:	0b3b0b3a 	bleq	ec30c8 <UART_InterruptFIFOLevelSelect+0xec1c88>
     3dc:	13490b39 	movtne	r0, #39737	; 0x9b39
     3e0:	00000a02 	andeq	r0, r0, r2, lsl #20
     3e4:	03003413 	movweq	r3, #1043	; 0x413
     3e8:	3b0b3a0e 	blcc	2cec28 <UART_InterruptFIFOLevelSelect+0x2cd7e8>
     3ec:	490b3905 	stmdbmi	fp, {r0, r2, r8, fp, ip, sp}
     3f0:	000a0213 	andeq	r0, sl, r3, lsl r2
     3f4:	00341400 	eorseq	r1, r4, r0, lsl #8
     3f8:	0b3a0e03 	bleq	e83c0c <UART_InterruptFIFOLevelSelect+0xe827cc>
     3fc:	0b39053b 	bleq	e418f0 <UART_InterruptFIFOLevelSelect+0xe404b0>
     400:	0c3f1349 	ldceq	3, cr1, [pc], #-292	; 2e4 <DMA_ConfigurePeripheralInterrupt+0x28>
     404:	00000a02 	andeq	r0, r0, r2, lsl #20
     408:	3f012e15 	svccc	0x00012e15
     40c:	3a0e030c 	bcc	381044 <UART_InterruptFIFOLevelSelect+0x37fc04>
     410:	39053b0b 	stmdbcc	r5, {r0, r1, r3, r8, r9, fp, ip, sp}
     414:	110c270b 	tstne	ip, fp, lsl #14
     418:	40011201 	andmi	r1, r1, r1, lsl #4
     41c:	0c429706 	mcrreq	7, 0, r9, r2, cr6
     420:	00001301 	andeq	r1, r0, r1, lsl #6
     424:	03000516 	movweq	r0, #1302	; 0x516
     428:	3b0b3a0e 	blcc	2cec68 <UART_InterruptFIFOLevelSelect+0x2cd828>
     42c:	490b3905 	stmdbmi	fp, {r0, r2, r8, fp, ip, sp}
     430:	000a0213 	andeq	r0, sl, r3, lsl r2
     434:	012e1700 			; <UNDEFINED> instruction: 0x012e1700
     438:	0e030c3f 	mcreq	12, 0, r0, cr3, cr15, {1}
     43c:	053b0b3a 	ldreq	r0, [fp, #-2874]!	; 0xfffff4c6
     440:	0c270b39 			; <UNDEFINED> instruction: 0x0c270b39
     444:	01120111 	tsteq	r2, r1, lsl r1
     448:	42960640 	addsmi	r0, r6, #64, 12	; 0x4000000
     44c:	0013010c 	andseq	r0, r3, ip, lsl #2
     450:	012e1800 			; <UNDEFINED> instruction: 0x012e1800
     454:	0e030c3f 	mcreq	12, 0, r0, cr3, cr15, {1}
     458:	053b0b3a 	ldreq	r0, [fp, #-2874]!	; 0xfffff4c6
     45c:	0c270b39 			; <UNDEFINED> instruction: 0x0c270b39
     460:	01111349 	tsteq	r1, r9, asr #6
     464:	06400112 			; <UNDEFINED> instruction: 0x06400112
     468:	010c4297 			; <UNDEFINED> instruction: 0x010c4297
     46c:	19000013 	stmdbne	r0, {r0, r1, r4}
     470:	0e03012e 	adfeqsp	f0, f3, #0.5
     474:	053b0b3a 	ldreq	r0, [fp, #-2874]!	; 0xfffff4c6
     478:	0c270b39 			; <UNDEFINED> instruction: 0x0c270b39
     47c:	01120111 	tsteq	r2, r1, lsl r1
     480:	42970640 	addsmi	r0, r7, #64, 12	; 0x4000000
     484:	0013010c 	andseq	r0, r3, ip, lsl #2
     488:	002e1a00 	eoreq	r1, lr, r0, lsl #20
     48c:	0e030c3f 	mcreq	12, 0, r0, cr3, cr15, {1}
     490:	0b3b0b3a 	bleq	ec3180 <UART_InterruptFIFOLevelSelect+0xec1d40>
     494:	13490b39 	movtne	r0, #39737	; 0x9b39
     498:	01120111 	tsteq	r2, r1, lsl r1
     49c:	42960640 	addsmi	r0, r6, #64, 12	; 0x4000000
     4a0:	0000000c 	andeq	r0, r0, ip
     4a4:	25011101 	strcs	r1, [r1, #-257]	; 0xfffffeff
     4a8:	030b130e 	movweq	r1, #45838	; 0xb30e
     4ac:	10081b0e 	andne	r1, r8, lr, lsl #22
     4b0:	02000006 	andeq	r0, r0, #6
     4b4:	0e030016 	mcreq	0, 0, r0, cr3, cr6, {0}
     4b8:	0b3b0b3a 	bleq	ec31a8 <UART_InterruptFIFOLevelSelect+0xec1d68>
     4bc:	13490b39 	movtne	r0, #39737	; 0x9b39
     4c0:	24030000 	strcs	r0, [r3], #-0
     4c4:	3e0b0b00 	vmlacc.f64	d0, d11, d0
     4c8:	000e030b 	andeq	r0, lr, fp, lsl #6
     4cc:	01040400 	tsteq	r4, r0, lsl #8
     4d0:	0b0b0b3e 	bleq	2c31d0 <UART_InterruptFIFOLevelSelect+0x2c1d90>
     4d4:	0b3a1349 	bleq	e85200 <UART_InterruptFIFOLevelSelect+0xe83dc0>
     4d8:	0b390b3b 	bleq	e431cc <UART_InterruptFIFOLevelSelect+0xe41d8c>
     4dc:	00001301 	andeq	r1, r0, r1, lsl #6
     4e0:	03002805 	movweq	r2, #2053	; 0x805
     4e4:	000b1c0e 	andeq	r1, fp, lr, lsl #24
     4e8:	01130600 	tsteq	r3, r0, lsl #12
     4ec:	0b3a0b0b 	bleq	e83120 <UART_InterruptFIFOLevelSelect+0xe81ce0>
     4f0:	0b390b3b 	bleq	e431e4 <UART_InterruptFIFOLevelSelect+0xe41da4>
     4f4:	00001301 	andeq	r1, r0, r1, lsl #6
     4f8:	03000d07 	movweq	r0, #3335	; 0xd07
     4fc:	3b0b3a0e 	blcc	2ced3c <UART_InterruptFIFOLevelSelect+0x2cd8fc>
     500:	490b390b 	stmdbmi	fp, {r0, r1, r3, r8, fp, ip, sp}
     504:	000a3813 	andeq	r3, sl, r3, lsl r8
     508:	00260800 	eoreq	r0, r6, r0, lsl #16
     50c:	00001349 	andeq	r1, r0, r9, asr #6
     510:	49010109 	stmdbmi	r1, {r0, r3, r8}
     514:	00130113 	andseq	r0, r3, r3, lsl r1
     518:	00210a00 	eoreq	r0, r1, r0, lsl #20
     51c:	0b2f1349 	bleq	bc5248 <UART_InterruptFIFOLevelSelect+0xbc3e08>
     520:	0f0b0000 	svceq	0x000b0000
     524:	490b0b00 	stmdbmi	fp, {r8, r9, fp}
     528:	0c000013 	stceq	0, cr0, [r0], {19}
     52c:	0e030034 	mcreq	0, 0, r0, cr3, cr4, {1}
     530:	0b3b0b3a 	bleq	ec3220 <UART_InterruptFIFOLevelSelect+0xec1de0>
     534:	13490b39 	movtne	r0, #39737	; 0x9b39
     538:	0c3c0c3f 	ldceq	12, cr0, [ip], #-252	; 0xffffff04
     53c:	340d0000 	strcc	r0, [sp], #-0
     540:	3a0e0300 	bcc	381148 <UART_InterruptFIFOLevelSelect+0x37fd08>
     544:	390b3b0b 	stmdbcc	fp, {r0, r1, r3, r8, r9, fp, ip, sp}
     548:	3f13490b 	svccc	0x0013490b
     54c:	000a020c 	andeq	r0, sl, ip, lsl #4
     550:	00340e00 	eorseq	r0, r4, r0, lsl #28
     554:	0b3a1347 	bleq	e85278 <UART_InterruptFIFOLevelSelect+0xe83e38>
     558:	0b390b3b 	bleq	e4324c <UART_InterruptFIFOLevelSelect+0xe41e0c>
     55c:	00000a02 	andeq	r0, r0, r2, lsl #20
     560:	4700340f 	strmi	r3, [r0, -pc, lsl #8]
     564:	390b3a13 	stmdbcc	fp, {r0, r1, r4, r9, fp, ip, sp}
     568:	000a020b 	andeq	r0, sl, fp, lsl #4
     56c:	11010000 	mrsne	r0, (UNDEF: 1)
     570:	130e2501 	movwne	r2, #58625	; 0xe501
     574:	1b0e030b 	blne	3811a8 <UART_InterruptFIFOLevelSelect+0x37fd68>
     578:	11065508 	tstne	r6, r8, lsl #10
     57c:	10015201 	andne	r5, r1, r1, lsl #4
     580:	02000006 	andeq	r0, r0, #6
     584:	0e030016 	mcreq	0, 0, r0, cr3, cr6, {0}
     588:	0b3b0b3a 	bleq	ec3278 <UART_InterruptFIFOLevelSelect+0xec1e38>
     58c:	13490b39 	movtne	r0, #39737	; 0x9b39
     590:	24030000 	strcs	r0, [r3], #-0
     594:	3e0b0b00 	vmlacc.f64	d0, d11, d0
     598:	000e030b 	andeq	r0, lr, fp, lsl #6
     59c:	00350400 	eorseq	r0, r5, r0, lsl #8
     5a0:	00001349 	andeq	r1, r0, r9, asr #6
     5a4:	0b011305 	bleq	451c0 <UART_InterruptFIFOLevelSelect+0x43d80>
     5a8:	3b0b3a0b 	blcc	2ceddc <UART_InterruptFIFOLevelSelect+0x2cd99c>
     5ac:	010b390b 	tsteq	fp, fp, lsl #18
     5b0:	06000013 			; <UNDEFINED> instruction: 0x06000013
     5b4:	0e03000d 	cdpeq	0, 0, cr0, cr3, cr13, {0}
     5b8:	0b3b0b3a 	bleq	ec32a8 <UART_InterruptFIFOLevelSelect+0xec1e68>
     5bc:	13490b39 	movtne	r0, #39737	; 0x9b39
     5c0:	0b0d0b0b 	bleq	3431f4 <UART_InterruptFIFOLevelSelect+0x341db4>
     5c4:	0a380b0c 	beq	e031fc <UART_InterruptFIFOLevelSelect+0xe01dbc>
     5c8:	17070000 	strne	r0, [r7, -r0]
     5cc:	3a0b0b01 	bcc	2c31d8 <UART_InterruptFIFOLevelSelect+0x2c1d98>
     5d0:	390b3b0b 	stmdbcc	fp, {r0, r1, r3, r8, r9, fp, ip, sp}
     5d4:	0013010b 	andseq	r0, r3, fp, lsl #2
     5d8:	000d0800 	andeq	r0, sp, r0, lsl #16
     5dc:	0b3a0e03 	bleq	e83df0 <UART_InterruptFIFOLevelSelect+0xe829b0>
     5e0:	0b390b3b 	bleq	e432d4 <UART_InterruptFIFOLevelSelect+0xe41e94>
     5e4:	00001349 	andeq	r1, r0, r9, asr #6
     5e8:	3e010409 	cdpcc	4, 0, cr0, cr1, cr9, {0}
     5ec:	490b0b0b 	stmdbmi	fp, {r0, r1, r3, r8, r9, fp}
     5f0:	3b0b3a13 	blcc	2cee44 <UART_InterruptFIFOLevelSelect+0x2cda04>
     5f4:	010b390b 	tsteq	fp, fp, lsl #18
     5f8:	0a000013 	beq	64c <GPIO_ConfigureCommit+0x44>
     5fc:	0e030028 	cdpeq	0, 0, cr0, cr3, cr8, {1}
     600:	00000b1c 	andeq	r0, r0, ip, lsl fp
     604:	03000d0b 	movweq	r0, #3339	; 0xd0b
     608:	3b0b3a0e 	blcc	2cee48 <UART_InterruptFIFOLevelSelect+0x2cda08>
     60c:	490b390b 	stmdbmi	fp, {r0, r1, r3, r8, fp, ip, sp}
     610:	000a3813 	andeq	r3, sl, r3, lsl r8
     614:	00260c00 	eoreq	r0, r6, r0, lsl #24
     618:	00001349 	andeq	r1, r0, r9, asr #6
     61c:	0b000f0d 	bleq	4258 <UART_InterruptFIFOLevelSelect+0x2e18>
     620:	0013490b 	andseq	r4, r3, fp, lsl #18
     624:	00280e00 	eoreq	r0, r8, r0, lsl #28
     628:	051c0e03 	ldreq	r0, [ip, #-3587]	; 0xfffff1fd
     62c:	280f0000 	stmdacs	pc, {}	; <UNPREDICTABLE>
     630:	1c0e0300 	stcne	3, cr0, [lr], {-0}
     634:	10000006 	andne	r0, r0, r6
     638:	08030028 	stmdaeq	r3, {r3, r5}
     63c:	00000b1c 	andeq	r0, r0, ip, lsl fp
     640:	49010111 	stmdbmi	r1, {r0, r4, r8}
     644:	00130113 	andseq	r0, r3, r3, lsl r1
     648:	00211200 	eoreq	r1, r1, r0, lsl #4
     64c:	0b2f1349 	bleq	bc5378 <UART_InterruptFIFOLevelSelect+0xbc3f38>
     650:	35130000 	ldrcc	r0, [r3, #-0]
     654:	14000000 	strne	r0, [r0], #-0
     658:	0e030034 	mcreq	0, 0, r0, cr3, cr4, {1}
     65c:	0b3b0b3a 	bleq	ec334c <UART_InterruptFIFOLevelSelect+0xec1f0c>
     660:	13490b39 	movtne	r0, #39737	; 0x9b39
     664:	00000a02 	andeq	r0, r0, r2, lsl #20
     668:	3f012e15 	svccc	0x00012e15
     66c:	3a0e030c 	bcc	3812a4 <UART_InterruptFIFOLevelSelect+0x37fe64>
     670:	39053b0b 	stmdbcc	r5, {r0, r1, r3, r8, r9, fp, ip, sp}
     674:	110c270b 	tstne	ip, fp, lsl #14
     678:	40011201 	andmi	r1, r1, r1, lsl #4
     67c:	0c429606 	mcrreq	6, 0, r9, r2, cr6
     680:	00001301 	andeq	r1, r0, r1, lsl #6
     684:	03000516 	movweq	r0, #1302	; 0x516
     688:	3b0b3a0e 	blcc	2ceec8 <UART_InterruptFIFOLevelSelect+0x2cda88>
     68c:	490b3905 	stmdbmi	fp, {r0, r2, r8, fp, ip, sp}
     690:	000a0213 	andeq	r0, sl, r3, lsl r2
     694:	00341700 	eorseq	r1, r4, r0, lsl #14
     698:	0b3a0e03 	bleq	e83eac <UART_InterruptFIFOLevelSelect+0xe82a6c>
     69c:	0b39053b 	bleq	e41b90 <UART_InterruptFIFOLevelSelect+0xe40750>
     6a0:	0a021349 	beq	853cc <UART_InterruptFIFOLevelSelect+0x83f8c>
     6a4:	2e180000 	cdpcs	0, 1, cr0, cr8, cr0, {0}
     6a8:	3a0e0301 	bcc	3812b4 <UART_InterruptFIFOLevelSelect+0x37fe74>
     6ac:	39053b0b 	stmdbcc	r5, {r0, r1, r3, r8, r9, fp, ip, sp}
     6b0:	110c270b 	tstne	ip, fp, lsl #14
     6b4:	40011201 	andmi	r1, r1, r1, lsl #4
     6b8:	0c429706 	mcrreq	7, 0, r9, r2, cr6
     6bc:	00001301 	andeq	r1, r0, r1, lsl #6
     6c0:	03012e19 	movweq	r2, #7705	; 0x1e19
     6c4:	3b0b3a0e 	blcc	2cef04 <UART_InterruptFIFOLevelSelect+0x2cdac4>
     6c8:	270b390b 	strcs	r3, [fp, -fp, lsl #18]
     6cc:	1201110c 	andne	r1, r1, #12, 2
     6d0:	97064001 	strls	r4, [r6, -r1]
     6d4:	00000c42 	andeq	r0, r0, r2, asr #24
     6d8:	0300051a 	movweq	r0, #1306	; 0x51a
     6dc:	3b0b3a0e 	blcc	2cef1c <UART_InterruptFIFOLevelSelect+0x2cdadc>
     6e0:	490b390b 	stmdbmi	fp, {r0, r1, r3, r8, fp, ip, sp}
     6e4:	000a0213 	andeq	r0, sl, r3, lsl r2
     6e8:	11010000 	mrsne	r0, (UNDEF: 1)
     6ec:	130e2501 	movwne	r2, #58625	; 0xe501
     6f0:	1b0e030b 	blne	381324 <UART_InterruptFIFOLevelSelect+0x37fee4>
     6f4:	00061008 	andeq	r1, r6, r8
     6f8:	00240200 	eoreq	r0, r4, r0, lsl #4
     6fc:	0b3e0b0b 	bleq	f83330 <UART_InterruptFIFOLevelSelect+0xf81ef0>
     700:	00000e03 	andeq	r0, r0, r3, lsl #28
     704:	3e010403 	cdpcc	4, 0, cr0, cr1, cr3, {0}
     708:	490b0b0b 	stmdbmi	fp, {r0, r1, r3, r8, r9, fp}
     70c:	3b0b3a13 	blcc	2cef60 <UART_InterruptFIFOLevelSelect+0x2cdb20>
     710:	010b390b 	tsteq	fp, fp, lsl #18
     714:	04000013 	streq	r0, [r0], #-19	; 0xffffffed
     718:	0e030028 	cdpeq	0, 0, cr0, cr3, cr8, {1}
     71c:	00000b1c 	andeq	r0, r0, ip, lsl fp
     720:	03001605 	movweq	r1, #1541	; 0x605
     724:	3b0b3a0e 	blcc	2cef64 <UART_InterruptFIFOLevelSelect+0x2cdb24>
     728:	490b390b 	stmdbmi	fp, {r0, r1, r3, r8, fp, ip, sp}
     72c:	06000013 			; <UNDEFINED> instruction: 0x06000013
     730:	0b0b0113 	bleq	2c0b84 <UART_InterruptFIFOLevelSelect+0x2bf744>
     734:	0b3b0b3a 	bleq	ec3424 <UART_InterruptFIFOLevelSelect+0xec1fe4>
     738:	13010b39 	movwne	r0, #6969	; 0x1b39
     73c:	0d070000 	stceq	0, cr0, [r7, #-0]
     740:	3a0e0300 	bcc	381348 <UART_InterruptFIFOLevelSelect+0x37ff08>
     744:	390b3b0b 	stmdbcc	fp, {r0, r1, r3, r8, r9, fp, ip, sp}
     748:	3813490b 	ldmdacc	r3, {r0, r1, r3, r8, fp, lr}
     74c:	0800000a 	stmdaeq	r0, {r1, r3}
     750:	13490026 	movtne	r0, #36902	; 0x9026
     754:	01090000 	mrseq	r0, (UNDEF: 9)
     758:	01134901 	tsteq	r3, r1, lsl #18
     75c:	0a000013 	beq	7b0 <GPIO_SetInputStatus+0x3c>
     760:	13490021 	movtne	r0, #36897	; 0x9021
     764:	00000b2f 	andeq	r0, r0, pc, lsr #22
     768:	0b000f0b 	bleq	439c <UART_InterruptFIFOLevelSelect+0x2f5c>
     76c:	0013490b 	andseq	r4, r3, fp, lsl #18
     770:	00340c00 	eorseq	r0, r4, r0, lsl #24
     774:	0b3a0e03 	bleq	e83f88 <UART_InterruptFIFOLevelSelect+0xe82b48>
     778:	0b390b3b 	bleq	e4346c <UART_InterruptFIFOLevelSelect+0xe4202c>
     77c:	0c3f1349 	ldceq	3, cr1, [pc], #-292	; 660 <GPIO_ConfigureCommit+0x58>
     780:	00000c3c 	andeq	r0, r0, ip, lsr ip
     784:	0300340d 	movweq	r3, #1037	; 0x40d
     788:	3b0b3a0e 	blcc	2cefc8 <UART_InterruptFIFOLevelSelect+0x2cdb88>
     78c:	490b390b 	stmdbmi	fp, {r0, r1, r3, r8, fp, ip, sp}
     790:	020c3f13 	andeq	r3, ip, #19, 30	; 0x4c
     794:	0e00000a 	cdpeq	0, 0, cr0, cr0, cr10, {0}
     798:	13470034 	movtne	r0, #28724	; 0x7034
     79c:	0b3b0b3a 	bleq	ec348c <UART_InterruptFIFOLevelSelect+0xec204c>
     7a0:	0a020b39 	beq	8348c <UART_InterruptFIFOLevelSelect+0x8204c>
     7a4:	01000000 	mrseq	r0, (UNDEF: 0)
     7a8:	0e250111 	mcreq	1, 1, r0, cr5, cr1, {0}
     7ac:	0e030b13 	vmoveq.32	d3[0], r0
     7b0:	0655081b 			; <UNDEFINED> instruction: 0x0655081b
     7b4:	01520111 	cmpeq	r2, r1, lsl r1
     7b8:	00000610 	andeq	r0, r0, r0, lsl r6
     7bc:	03001602 	movweq	r1, #1538	; 0x602
     7c0:	3b0b3a0e 	blcc	2cf000 <UART_InterruptFIFOLevelSelect+0x2cdbc0>
     7c4:	490b390b 	stmdbmi	fp, {r0, r1, r3, r8, fp, ip, sp}
     7c8:	03000013 	movweq	r0, #19
     7cc:	0b0b0024 	bleq	2c0864 <UART_InterruptFIFOLevelSelect+0x2bf424>
     7d0:	0e030b3e 	vmoveq.16	d3[0], r0
     7d4:	04040000 	streq	r0, [r4], #-0
     7d8:	0b0b3e01 	bleq	2cffe4 <UART_InterruptFIFOLevelSelect+0x2ceba4>
     7dc:	3a13490b 	bcc	4d2c10 <UART_InterruptFIFOLevelSelect+0x4d17d0>
     7e0:	390b3b0b 	stmdbcc	fp, {r0, r1, r3, r8, r9, fp, ip, sp}
     7e4:	0013010b 	andseq	r0, r3, fp, lsl #2
     7e8:	00280500 	eoreq	r0, r8, r0, lsl #10
     7ec:	0b1c0e03 	bleq	704000 <UART_InterruptFIFOLevelSelect+0x702bc0>
     7f0:	13060000 	movwne	r0, #24576	; 0x6000
     7f4:	3a0b0b01 	bcc	2c3400 <UART_InterruptFIFOLevelSelect+0x2c1fc0>
     7f8:	390b3b0b 	stmdbcc	fp, {r0, r1, r3, r8, r9, fp, ip, sp}
     7fc:	0013010b 	andseq	r0, r3, fp, lsl #2
     800:	000d0700 	andeq	r0, sp, r0, lsl #14
     804:	0b3a0e03 	bleq	e84018 <UART_InterruptFIFOLevelSelect+0xe82bd8>
     808:	0b390b3b 	bleq	e434fc <UART_InterruptFIFOLevelSelect+0xe420bc>
     80c:	0a381349 	beq	e05538 <UART_InterruptFIFOLevelSelect+0xe040f8>
     810:	34080000 	strcc	r0, [r8], #-0
     814:	3a0e0300 	bcc	38141c <UART_InterruptFIFOLevelSelect+0x37ffdc>
     818:	390b3b0b 	stmdbcc	fp, {r0, r1, r3, r8, r9, fp, ip, sp}
     81c:	3f13490b 	svccc	0x0013490b
     820:	000c3c0c 	andeq	r3, ip, ip, lsl #24
     824:	00260900 	eoreq	r0, r6, r0, lsl #18
     828:	00001349 	andeq	r1, r0, r9, asr #6
     82c:	4901010a 	stmdbmi	r1, {r1, r3, r8}
     830:	00130113 	andseq	r0, r3, r3, lsl r1
     834:	00210b00 	eoreq	r0, r1, r0, lsl #22
     838:	0b2f1349 	bleq	bc5564 <UART_InterruptFIFOLevelSelect+0xbc4124>
     83c:	0f0c0000 	svceq	0x000c0000
     840:	490b0b00 	stmdbmi	fp, {r8, r9, fp}
     844:	0d000013 	stceq	0, cr0, [r0, #-76]	; 0xffffffb4
     848:	0c3f012e 	ldfeqs	f0, [pc], #-184	; 798 <GPIO_SetInputStatus+0x24>
     84c:	0b3a0e03 	bleq	e84060 <UART_InterruptFIFOLevelSelect+0xe82c20>
     850:	0b390b3b 	bleq	e43544 <UART_InterruptFIFOLevelSelect+0xe42104>
     854:	01110c27 	tsteq	r1, r7, lsr #24
     858:	06400112 			; <UNDEFINED> instruction: 0x06400112
     85c:	010c4296 			; <UNDEFINED> instruction: 0x010c4296
     860:	0e000013 	mcreq	0, 0, r0, cr0, cr3, {0}
     864:	0e030005 	cdpeq	0, 0, cr0, cr3, cr5, {0}
     868:	0b3b0b3a 	bleq	ec3558 <UART_InterruptFIFOLevelSelect+0xec2118>
     86c:	13490b39 	movtne	r0, #39737	; 0x9b39
     870:	00000a02 	andeq	r0, r0, r2, lsl #20
     874:	3f002e0f 	svccc	0x00002e0f
     878:	3a0e030c 	bcc	3814b0 <UART_InterruptFIFOLevelSelect+0x380070>
     87c:	390b3b0b 	stmdbcc	fp, {r0, r1, r3, r8, r9, fp, ip, sp}
     880:	110c270b 	tstne	ip, fp, lsl #14
     884:	40011201 	andmi	r1, r1, r1, lsl #4
     888:	0c429606 	mcrreq	6, 0, r9, r2, cr6
     88c:	01000000 	mrseq	r0, (UNDEF: 0)
     890:	0e250111 	mcreq	1, 1, r0, cr5, cr1, {0}
     894:	0e030b13 	vmoveq.32	d3[0], r0
     898:	0655081b 			; <UNDEFINED> instruction: 0x0655081b
     89c:	01520111 	cmpeq	r2, r1, lsl r1
     8a0:	00000610 	andeq	r0, r0, r0, lsl r6
     8a4:	03001602 	movweq	r1, #1538	; 0x602
     8a8:	3b0b3a0e 	blcc	2cf0e8 <UART_InterruptFIFOLevelSelect+0x2cdca8>
     8ac:	490b390b 	stmdbmi	fp, {r0, r1, r3, r8, fp, ip, sp}
     8b0:	03000013 	movweq	r0, #19
     8b4:	0b0b0024 	bleq	2c094c <UART_InterruptFIFOLevelSelect+0x2bf50c>
     8b8:	0e030b3e 	vmoveq.16	d3[0], r0
     8bc:	35040000 	strcc	r0, [r4, #-0]
     8c0:	00134900 	andseq	r4, r3, r0, lsl #18
     8c4:	01040500 	tsteq	r4, r0, lsl #10
     8c8:	0b0b0b3e 	bleq	2c35c8 <UART_InterruptFIFOLevelSelect+0x2c2188>
     8cc:	0b3a1349 	bleq	e855f8 <UART_InterruptFIFOLevelSelect+0xe841b8>
     8d0:	0b390b3b 	bleq	e435c4 <UART_InterruptFIFOLevelSelect+0xe42184>
     8d4:	00001301 	andeq	r1, r0, r1, lsl #6
     8d8:	03002806 	movweq	r2, #2054	; 0x806
     8dc:	000b1c0e 	andeq	r1, fp, lr, lsl #24
     8e0:	01130700 	tsteq	r3, r0, lsl #14
     8e4:	0b3a0b0b 	bleq	e83518 <UART_InterruptFIFOLevelSelect+0xe820d8>
     8e8:	0b390b3b 	bleq	e435dc <UART_InterruptFIFOLevelSelect+0xe4219c>
     8ec:	00001301 	andeq	r1, r0, r1, lsl #6
     8f0:	03000d08 	movweq	r0, #3336	; 0xd08
     8f4:	3b0b3a0e 	blcc	2cf134 <UART_InterruptFIFOLevelSelect+0x2cdcf4>
     8f8:	490b390b 	stmdbmi	fp, {r0, r1, r3, r8, fp, ip, sp}
     8fc:	000a3813 	andeq	r3, sl, r3, lsl r8
     900:	00340900 	eorseq	r0, r4, r0, lsl #18
     904:	0b3a0e03 	bleq	e84118 <UART_InterruptFIFOLevelSelect+0xe82cd8>
     908:	0b390b3b 	bleq	e435fc <UART_InterruptFIFOLevelSelect+0xe421bc>
     90c:	0c3f1349 	ldceq	3, cr1, [pc], #-292	; 7f0 <GPIO_ConfigureInputPin+0x30>
     910:	00000c3c 	andeq	r0, r0, ip, lsr ip
     914:	0300280a 	movweq	r2, #2058	; 0x80a
     918:	00051c0e 	andeq	r1, r5, lr, lsl #24
     91c:	00280b00 	eoreq	r0, r8, r0, lsl #22
     920:	061c0e03 	ldreq	r0, [ip], -r3, lsl #28
     924:	280c0000 	stmdacs	ip, {}	; <UNPREDICTABLE>
     928:	1c080300 	stcne	3, cr0, [r8], {-0}
     92c:	0d00000b 	stceq	0, cr0, [r0, #-44]	; 0xffffffd4
     930:	0b0b000f 	bleq	2c0974 <UART_InterruptFIFOLevelSelect+0x2bf534>
     934:	00001349 	andeq	r1, r0, r9, asr #6
     938:	0b00240e 	bleq	9978 <UART_InterruptFIFOLevelSelect+0x8538>
     93c:	030b3e0b 	movweq	r3, #48651	; 0xbe0b
     940:	0f000008 	svceq	0x00000008
     944:	0e030034 	mcreq	0, 0, r0, cr3, cr4, {1}
     948:	0b3b0b3a 	bleq	ec3638 <UART_InterruptFIFOLevelSelect+0xec21f8>
     94c:	13490b39 	movtne	r0, #39737	; 0x9b39
     950:	0a020c3f 	beq	83a54 <UART_InterruptFIFOLevelSelect+0x82614>
     954:	01100000 	tsteq	r0, r0
     958:	01134901 	tsteq	r3, r1, lsl #18
     95c:	11000013 	tstne	r0, r3, lsl r0
     960:	13490021 	movtne	r0, #36897	; 0x9021
     964:	0000052f 	andeq	r0, r0, pc, lsr #10
     968:	49002112 	stmdbmi	r0, {r1, r4, r8, sp}
     96c:	000b2f13 	andeq	r2, fp, r3, lsl pc
     970:	00341300 	eorseq	r1, r4, r0, lsl #6
     974:	0b3a0e03 	bleq	e84188 <UART_InterruptFIFOLevelSelect+0xe82d48>
     978:	0b390b3b 	bleq	e4366c <UART_InterruptFIFOLevelSelect+0xe4222c>
     97c:	0a021349 	beq	856a8 <UART_InterruptFIFOLevelSelect+0x84268>
     980:	2e140000 	cdpcs	0, 1, cr0, cr4, cr0, {0}
     984:	030c3f01 	movweq	r3, #52993	; 0xcf01
     988:	3b0b3a0e 	blcc	2cf1c8 <UART_InterruptFIFOLevelSelect+0x2cdd88>
     98c:	270b390b 	strcs	r3, [fp, -fp, lsl #18]
     990:	1113490c 	tstne	r3, ip, lsl #18
     994:	40011201 	andmi	r1, r1, r1, lsl #4
     998:	0c429606 	mcrreq	6, 0, r9, r2, cr6
     99c:	00001301 	andeq	r1, r0, r1, lsl #6
     9a0:	03003415 	movweq	r3, #1045	; 0x415
     9a4:	3b0b3a0e 	blcc	2cf1e4 <UART_InterruptFIFOLevelSelect+0x2cdda4>
     9a8:	490b3905 	stmdbmi	fp, {r0, r2, r8, fp, ip, sp}
     9ac:	000b1c13 	andeq	r1, fp, r3, lsl ip
     9b0:	00341600 	eorseq	r1, r4, r0, lsl #12
     9b4:	0b3a0e03 	bleq	e841c8 <UART_InterruptFIFOLevelSelect+0xe82d88>
     9b8:	0b39053b 	bleq	e41eac <UART_InterruptFIFOLevelSelect+0xe40a6c>
     9bc:	0a021349 	beq	856e8 <UART_InterruptFIFOLevelSelect+0x842a8>
     9c0:	2e170000 	cdpcs	0, 1, cr0, cr7, cr0, {0}
     9c4:	030c3f01 	movweq	r3, #52993	; 0xcf01
     9c8:	3b0b3a0e 	blcc	2cf208 <UART_InterruptFIFOLevelSelect+0x2cddc8>
     9cc:	270b390b 	strcs	r3, [fp, -fp, lsl #18]
     9d0:	1201110c 	andne	r1, r1, #12, 2
     9d4:	97064001 	strls	r4, [r6, -r1]
     9d8:	00000c42 	andeq	r0, r0, r2, asr #24
     9dc:	01110100 	tsteq	r1, r0, lsl #2
     9e0:	0b130e25 	bleq	4c427c <UART_InterruptFIFOLevelSelect+0x4c2e3c>
     9e4:	081b0e03 	ldmdaeq	fp, {r0, r1, r9, sl, fp}
     9e8:	01110655 	tsteq	r1, r5, asr r6
     9ec:	06100152 			; <UNDEFINED> instruction: 0x06100152
     9f0:	16020000 	strne	r0, [r2], -r0
     9f4:	3a0e0300 	bcc	3815fc <UART_InterruptFIFOLevelSelect+0x3801bc>
     9f8:	390b3b0b 	stmdbcc	fp, {r0, r1, r3, r8, r9, fp, ip, sp}
     9fc:	0013490b 	andseq	r4, r3, fp, lsl #18
     a00:	00240300 	eoreq	r0, r4, r0, lsl #6
     a04:	0b3e0b0b 	bleq	f83638 <UART_InterruptFIFOLevelSelect+0xf821f8>
     a08:	00000e03 	andeq	r0, r0, r3, lsl #28
     a0c:	49003504 	stmdbmi	r0, {r2, r8, sl, ip, sp}
     a10:	05000013 	streq	r0, [r0, #-19]	; 0xffffffed
     a14:	0b0b0113 	bleq	2c0e68 <UART_InterruptFIFOLevelSelect+0x2bfa28>
     a18:	0b3b0b3a 	bleq	ec3708 <UART_InterruptFIFOLevelSelect+0xec22c8>
     a1c:	13010b39 	movwne	r0, #6969	; 0x1b39
     a20:	0d060000 	stceq	0, cr0, [r6, #-0]
     a24:	3a0e0300 	bcc	38162c <UART_InterruptFIFOLevelSelect+0x3801ec>
     a28:	390b3b0b 	stmdbcc	fp, {r0, r1, r3, r8, r9, fp, ip, sp}
     a2c:	0b13490b 	bleq	4d2e60 <UART_InterruptFIFOLevelSelect+0x4d1a20>
     a30:	0c0b0d0b 	stceq	13, cr0, [fp], {11}
     a34:	000a380b 	andeq	r3, sl, fp, lsl #16
     a38:	000d0700 	andeq	r0, sp, r0, lsl #14
     a3c:	0b3a0803 	bleq	e82a50 <UART_InterruptFIFOLevelSelect+0xe81610>
     a40:	0b390b3b 	bleq	e43734 <UART_InterruptFIFOLevelSelect+0xe422f4>
     a44:	0b0b1349 	bleq	2c5770 <UART_InterruptFIFOLevelSelect+0x2c4330>
     a48:	0b0c0b0d 	bleq	303684 <UART_InterruptFIFOLevelSelect+0x302244>
     a4c:	00000a38 	andeq	r0, r0, r8, lsr sl
     a50:	3e010408 	cdpcc	4, 0, cr0, cr1, cr8, {0}
     a54:	490b0b0b 	stmdbmi	fp, {r0, r1, r3, r8, r9, fp}
     a58:	3b0b3a13 	blcc	2cf2ac <UART_InterruptFIFOLevelSelect+0x2cde6c>
     a5c:	010b390b 	tsteq	fp, fp, lsl #18
     a60:	09000013 	stmdbeq	r0, {r0, r1, r4}
     a64:	0e030028 	cdpeq	0, 0, cr0, cr3, cr8, {1}
     a68:	00000b1c 	andeq	r0, r0, ip, lsl fp
     a6c:	4901010a 	stmdbmi	r1, {r1, r3, r8}
     a70:	00130113 	andseq	r0, r3, r3, lsl r1
     a74:	00210b00 	eoreq	r0, r1, r0, lsl #22
     a78:	0b2f1349 	bleq	bc57a4 <UART_InterruptFIFOLevelSelect+0xbc4364>
     a7c:	260c0000 	strcs	r0, [ip], -r0
     a80:	00134900 	andseq	r4, r3, r0, lsl #18
     a84:	000f0d00 	andeq	r0, pc, r0, lsl #26
     a88:	13490b0b 	movtne	r0, #39691	; 0x9b0b
     a8c:	340e0000 	strcc	r0, [lr], #-0
     a90:	3a0e0300 	bcc	381698 <UART_InterruptFIFOLevelSelect+0x380258>
     a94:	390b3b0b 	stmdbcc	fp, {r0, r1, r3, r8, r9, fp, ip, sp}
     a98:	0213490b 	andseq	r4, r3, #180224	; 0x2c000
     a9c:	0f00000a 	svceq	0x0000000a
     aa0:	0c3f012e 	ldfeqs	f0, [pc], #-184	; 9f0 <SC_GetOscillatorValue+0xc>
     aa4:	0b3a0e03 	bleq	e842b8 <UART_InterruptFIFOLevelSelect+0xe82e78>
     aa8:	0b390b3b 	bleq	e4379c <UART_InterruptFIFOLevelSelect+0xe4235c>
     aac:	01110c27 	tsteq	r1, r7, lsr #24
     ab0:	06400112 			; <UNDEFINED> instruction: 0x06400112
     ab4:	010c4297 			; <UNDEFINED> instruction: 0x010c4297
     ab8:	10000013 	andne	r0, r0, r3, lsl r0
     abc:	0e030005 	cdpeq	0, 0, cr0, cr3, cr5, {0}
     ac0:	0b3b0b3a 	bleq	ec37b0 <UART_InterruptFIFOLevelSelect+0xec2370>
     ac4:	13490b39 	movtne	r0, #39737	; 0x9b39
     ac8:	00000a02 	andeq	r0, r0, r2, lsl #20
     acc:	03000511 	movweq	r0, #1297	; 0x511
     ad0:	3b0b3a08 	blcc	2cf2f8 <UART_InterruptFIFOLevelSelect+0x2cdeb8>
     ad4:	490b390b 	stmdbmi	fp, {r0, r1, r3, r8, fp, ip, sp}
     ad8:	000a0213 	andeq	r0, sl, r3, lsl r2
     adc:	012e1200 			; <UNDEFINED> instruction: 0x012e1200
     ae0:	0e030c3f 	mcreq	12, 0, r0, cr3, cr15, {1}
     ae4:	0b3b0b3a 	bleq	ec37d4 <UART_InterruptFIFOLevelSelect+0xec2394>
     ae8:	0c270b39 			; <UNDEFINED> instruction: 0x0c270b39
     aec:	01120111 	tsteq	r2, r1, lsl r1
     af0:	42970640 	addsmi	r0, r7, #64, 12	; 0x4000000
     af4:	0000000c 	andeq	r0, r0, ip
     af8:	25011101 	strcs	r1, [r1, #-257]	; 0xfffffeff
     afc:	030b130e 	movweq	r1, #45838	; 0xb30e
     b00:	55081b0e 	strpl	r1, [r8, #-2830]	; 0xfffff4f2
     b04:	52011106 	andpl	r1, r1, #-2147483647	; 0x80000001
     b08:	00061001 	andeq	r1, r6, r1
     b0c:	00240200 	eoreq	r0, r4, r0, lsl #4
     b10:	0b3e0b0b 	bleq	f83744 <UART_InterruptFIFOLevelSelect+0xf82304>
     b14:	00000e03 	andeq	r0, r0, r3, lsl #28
     b18:	0b002403 	bleq	9b2c <UART_InterruptFIFOLevelSelect+0x86ec>
     b1c:	030b3e0b 	movweq	r3, #48651	; 0xbe0b
     b20:	04000008 	streq	r0, [r0], #-8
     b24:	13490101 	movtne	r0, #37121	; 0x9101
     b28:	00001301 	andeq	r1, r0, r1, lsl #6
     b2c:	49002105 	stmdbmi	r0, {r0, r2, r8, sp}
     b30:	000b2f13 	andeq	r2, fp, r3, lsl pc
     b34:	00340600 	eorseq	r0, r4, r0, lsl #12
     b38:	0b3a0e03 	bleq	e8434c <UART_InterruptFIFOLevelSelect+0xe82f0c>
     b3c:	0b390b3b 	bleq	e43830 <UART_InterruptFIFOLevelSelect+0xe423f0>
     b40:	0a021349 	beq	8586c <UART_InterruptFIFOLevelSelect+0x8442c>
     b44:	26070000 	strcs	r0, [r7], -r0
     b48:	00134900 	andseq	r4, r3, r0, lsl #18
     b4c:	000f0800 	andeq	r0, pc, r0, lsl #16
     b50:	13490b0b 	movtne	r0, #39691	; 0x9b0b
     b54:	15090000 	strne	r0, [r9, #-0]
     b58:	00130101 	andseq	r0, r3, r1, lsl #2
     b5c:	00180a00 	andseq	r0, r8, r0, lsl #20
     b60:	340b0000 	strcc	r0, [fp], #-0
     b64:	3a0e0300 	bcc	38176c <UART_InterruptFIFOLevelSelect+0x38032c>
     b68:	390b3b0b 	stmdbcc	fp, {r0, r1, r3, r8, r9, fp, ip, sp}
     b6c:	3f13490b 	svccc	0x0013490b
     b70:	000a020c 	andeq	r0, sl, ip, lsl #4
     b74:	00340c00 	eorseq	r0, r4, r0, lsl #24
     b78:	0b3a0e03 	bleq	e8438c <UART_InterruptFIFOLevelSelect+0xe82f4c>
     b7c:	0b390b3b 	bleq	e43870 <UART_InterruptFIFOLevelSelect+0xe42430>
     b80:	0c3f1349 	ldceq	3, cr1, [pc], #-292	; a64 <SC_GetSystemClock+0x38>
     b84:	00000c3c 	andeq	r0, r0, ip, lsr ip
     b88:	3f012e0d 	svccc	0x00012e0d
     b8c:	3a0e030c 	bcc	3817c4 <UART_InterruptFIFOLevelSelect+0x380384>
     b90:	390b3b0b 	stmdbcc	fp, {r0, r1, r3, r8, r9, fp, ip, sp}
     b94:	1201110b 	andne	r1, r1, #-1073741822	; 0xc0000002
     b98:	96064001 	strls	r4, [r6], -r1
     b9c:	13010c42 	movwne	r0, #7234	; 0x1c42
     ba0:	0b0e0000 	bleq	380ba8 <UART_InterruptFIFOLevelSelect+0x37f768>
     ba4:	12011101 	andne	r1, r1, #1073741824	; 0x40000000
     ba8:	00130101 	andseq	r0, r3, r1, lsl #2
     bac:	00340f00 	eorseq	r0, r4, r0, lsl #30
     bb0:	0b3a0803 	bleq	e82bc4 <UART_InterruptFIFOLevelSelect+0xe81784>
     bb4:	0b390b3b 	bleq	e438a8 <UART_InterruptFIFOLevelSelect+0xe42468>
     bb8:	0a021349 	beq	858e4 <UART_InterruptFIFOLevelSelect+0x844a4>
     bbc:	0b100000 	bleq	400bc4 <UART_InterruptFIFOLevelSelect+0x3ff784>
     bc0:	12011101 	andne	r1, r1, #1073741824	; 0x40000000
     bc4:	11000001 	tstne	r0, r1
     bc8:	0c3f002e 	ldceq	0, cr0, [pc], #-184	; b18 <SysTickFrequencyGet+0x18>
     bcc:	0b3a0e03 	bleq	e843e0 <UART_InterruptFIFOLevelSelect+0xe82fa0>
     bd0:	0b390b3b 	bleq	e438c4 <UART_InterruptFIFOLevelSelect+0xe42484>
     bd4:	01120111 	tsteq	r2, r1, lsl r1
     bd8:	42960640 	addsmi	r0, r6, #64, 12	; 0x4000000
     bdc:	0000000c 	andeq	r0, r0, ip
     be0:	25011101 	strcs	r1, [r1, #-257]	; 0xfffffeff
     be4:	030b130e 	movweq	r1, #45838	; 0xb30e
     be8:	55081b0e 	strpl	r1, [r8, #-2830]	; 0xfffff4f2
     bec:	52011106 	andpl	r1, r1, #-2147483647	; 0x80000001
     bf0:	00061001 	andeq	r1, r6, r1
     bf4:	00160200 	andseq	r0, r6, r0, lsl #4
     bf8:	0b3a0e03 	bleq	e8440c <UART_InterruptFIFOLevelSelect+0xe82fcc>
     bfc:	0b390b3b 	bleq	e438f0 <UART_InterruptFIFOLevelSelect+0xe424b0>
     c00:	00001349 	andeq	r1, r0, r9, asr #6
     c04:	49002603 	stmdbmi	r0, {r0, r1, r9, sl, sp}
     c08:	04000013 	streq	r0, [r0], #-19	; 0xffffffed
     c0c:	0b0b0024 	bleq	2c0ca4 <UART_InterruptFIFOLevelSelect+0x2bf864>
     c10:	0e030b3e 	vmoveq.16	d3[0], r0
     c14:	13050000 	movwne	r0, #20480	; 0x5000
     c18:	3a0b0b01 	bcc	2c3824 <UART_InterruptFIFOLevelSelect+0x2c23e4>
     c1c:	390b3b0b 	stmdbcc	fp, {r0, r1, r3, r8, r9, fp, ip, sp}
     c20:	0013010b 	andseq	r0, r3, fp, lsl #2
     c24:	000d0600 	andeq	r0, sp, r0, lsl #12
     c28:	0b3a0e03 	bleq	e8443c <UART_InterruptFIFOLevelSelect+0xe82ffc>
     c2c:	0b390b3b 	bleq	e43920 <UART_InterruptFIFOLevelSelect+0xe424e0>
     c30:	0b0b1349 	bleq	2c595c <UART_InterruptFIFOLevelSelect+0x2c451c>
     c34:	0b0c0b0d 	bleq	303870 <UART_InterruptFIFOLevelSelect+0x302430>
     c38:	00000a38 	andeq	r0, r0, r8, lsr sl
     c3c:	0b011707 	bleq	46860 <UART_InterruptFIFOLevelSelect+0x45420>
     c40:	3b0b3a0b 	blcc	2cf474 <UART_InterruptFIFOLevelSelect+0x2ce034>
     c44:	010b390b 	tsteq	fp, fp, lsl #18
     c48:	08000013 	stmdaeq	r0, {r0, r1, r4}
     c4c:	0e03000d 	cdpeq	0, 0, cr0, cr3, cr13, {0}
     c50:	0b3b0b3a 	bleq	ec3940 <UART_InterruptFIFOLevelSelect+0xec2500>
     c54:	13490b39 	movtne	r0, #39737	; 0x9b39
     c58:	04090000 	streq	r0, [r9], #-0
     c5c:	0b0b3e01 	bleq	2d0468 <UART_InterruptFIFOLevelSelect+0x2cf028>
     c60:	3a13490b 	bcc	4d3094 <UART_InterruptFIFOLevelSelect+0x4d1c54>
     c64:	390b3b0b 	stmdbcc	fp, {r0, r1, r3, r8, r9, fp, ip, sp}
     c68:	0013010b 	andseq	r0, r3, fp, lsl #2
     c6c:	00280a00 	eoreq	r0, r8, r0, lsl #20
     c70:	0b1c0e03 	bleq	704484 <UART_InterruptFIFOLevelSelect+0x703044>
     c74:	0d0b0000 	stceq	0, cr0, [fp, #-0]
     c78:	3a0e0300 	bcc	381880 <UART_InterruptFIFOLevelSelect+0x380440>
     c7c:	390b3b0b 	stmdbcc	fp, {r0, r1, r3, r8, r9, fp, ip, sp}
     c80:	3813490b 	ldmdacc	r3, {r0, r1, r3, r8, fp, lr}
     c84:	0c00000a 	stceq	0, cr0, [r0], {10}
     c88:	13490101 	movtne	r0, #37121	; 0x9101
     c8c:	00001301 	andeq	r1, r0, r1, lsl #6
     c90:	4900210d 	stmdbmi	r0, {r0, r2, r3, r8, sp}
     c94:	000b2f13 	andeq	r2, fp, r3, lsl pc
     c98:	00340e00 	eorseq	r0, r4, r0, lsl #28
     c9c:	0b3a0e03 	bleq	e844b0 <UART_InterruptFIFOLevelSelect+0xe83070>
     ca0:	0b390b3b 	bleq	e43994 <UART_InterruptFIFOLevelSelect+0xe42554>
     ca4:	0c3f1349 	ldceq	3, cr1, [pc], #-292	; b88 <SysTickGenerateDelay_Interrupt+0x18>
     ca8:	00000a02 	andeq	r0, r0, r2, lsl #20
     cac:	3f012e0f 	svccc	0x00012e0f
     cb0:	3a0e030c 	bcc	3818e8 <UART_InterruptFIFOLevelSelect+0x3804a8>
     cb4:	39053b0b 	stmdbcc	r5, {r0, r1, r3, r8, r9, fp, ip, sp}
     cb8:	110c270b 	tstne	ip, fp, lsl #14
     cbc:	40011201 	andmi	r1, r1, r1, lsl #4
     cc0:	0c429706 	mcrreq	7, 0, r9, r2, cr6
     cc4:	00001301 	andeq	r1, r0, r1, lsl #6
     cc8:	03000510 	movweq	r0, #1296	; 0x510
     ccc:	3b0b3a0e 	blcc	2cf50c <UART_InterruptFIFOLevelSelect+0x2ce0cc>
     cd0:	490b3905 	stmdbmi	fp, {r0, r2, r8, fp, ip, sp}
     cd4:	000a0213 	andeq	r0, sl, r3, lsl r2
     cd8:	012e1100 			; <UNDEFINED> instruction: 0x012e1100
     cdc:	0e030c3f 	mcreq	12, 0, r0, cr3, cr15, {1}
     ce0:	053b0b3a 	ldreq	r0, [fp, #-2874]!	; 0xfffff4c6
     ce4:	0c270b39 			; <UNDEFINED> instruction: 0x0c270b39
     ce8:	01111349 	tsteq	r1, r9, asr #6
     cec:	06400112 			; <UNDEFINED> instruction: 0x06400112
     cf0:	010c4296 			; <UNDEFINED> instruction: 0x010c4296
     cf4:	12000013 	andne	r0, r0, #19
     cf8:	0e030034 	mcreq	0, 0, r0, cr3, cr4, {1}
     cfc:	053b0b3a 	ldreq	r0, [fp, #-2874]!	; 0xfffff4c6
     d00:	13490b39 	movtne	r0, #39737	; 0x9b39
     d04:	00000a02 	andeq	r0, r0, r2, lsl #20
     d08:	0b000f13 	bleq	495c <UART_InterruptFIFOLevelSelect+0x351c>
     d0c:	0013490b 	andseq	r4, r3, fp, lsl #18
     d10:	012e1400 			; <UNDEFINED> instruction: 0x012e1400
     d14:	0e030c3f 	mcreq	12, 0, r0, cr3, cr15, {1}
     d18:	053b0b3a 	ldreq	r0, [fp, #-2874]!	; 0xfffff4c6
     d1c:	0c270b39 			; <UNDEFINED> instruction: 0x0c270b39
     d20:	01120111 	tsteq	r2, r1, lsl r1
     d24:	42960640 	addsmi	r0, r6, #64, 12	; 0x4000000
     d28:	0013010c 	andseq	r0, r3, ip, lsl #2
     d2c:	012e1500 			; <UNDEFINED> instruction: 0x012e1500
     d30:	0e030c3f 	mcreq	12, 0, r0, cr3, cr15, {1}
     d34:	0b3b0b3a 	bleq	ec3a24 <UART_InterruptFIFOLevelSelect+0xec25e4>
     d38:	0c270b39 			; <UNDEFINED> instruction: 0x0c270b39
     d3c:	01111349 	tsteq	r1, r9, asr #6
     d40:	06400112 			; <UNDEFINED> instruction: 0x06400112
     d44:	010c4296 			; <UNDEFINED> instruction: 0x010c4296
     d48:	16000013 			; <UNDEFINED> instruction: 0x16000013
     d4c:	0e030034 	mcreq	0, 0, r0, cr3, cr4, {1}
     d50:	0b3b0b3a 	bleq	ec3a40 <UART_InterruptFIFOLevelSelect+0xec2600>
     d54:	13490b39 	movtne	r0, #39737	; 0x9b39
     d58:	00000a02 	andeq	r0, r0, r2, lsl #20
     d5c:	03002e17 	movweq	r2, #3607	; 0xe17
     d60:	3b0b3a0e 	blcc	2cf5a0 <UART_InterruptFIFOLevelSelect+0x2ce160>
     d64:	270b390b 	strcs	r3, [fp, -fp, lsl #18]
     d68:	1113490c 	tstne	r3, ip, lsl #18
     d6c:	40011201 	andmi	r1, r1, r1, lsl #4
     d70:	0c429706 	mcrreq	7, 0, r9, r2, cr6
     d74:	2e180000 	cdpcs	0, 1, cr0, cr8, cr0, {0}
     d78:	030c3f01 	movweq	r3, #52993	; 0xcf01
     d7c:	3b0b3a0e 	blcc	2cf5bc <UART_InterruptFIFOLevelSelect+0x2ce17c>
     d80:	270b390b 	strcs	r3, [fp, -fp, lsl #18]
     d84:	1201110c 	andne	r1, r1, #12, 2
     d88:	97064001 	strls	r4, [r6, -r1]
     d8c:	13010c42 	movwne	r0, #7234	; 0x1c42
     d90:	05190000 	ldreq	r0, [r9, #-0]
     d94:	3a0e0300 	bcc	38199c <UART_InterruptFIFOLevelSelect+0x38055c>
     d98:	390b3b0b 	stmdbcc	fp, {r0, r1, r3, r8, r9, fp, ip, sp}
     d9c:	0213490b 	andseq	r4, r3, #180224	; 0x2c000
     da0:	1a00000a 	bne	dd0 <AlternateDMA_ChannelControlWordRegisters+0x8>
     da4:	0e03012e 	adfeqsp	f0, f3, #0.5
     da8:	0b3b0b3a 	bleq	ec3a98 <UART_InterruptFIFOLevelSelect+0xec2658>
     dac:	0c270b39 			; <UNDEFINED> instruction: 0x0c270b39
     db0:	01111349 	tsteq	r1, r9, asr #6
     db4:	06400112 			; <UNDEFINED> instruction: 0x06400112
     db8:	010c4297 			; <UNDEFINED> instruction: 0x010c4297
     dbc:	1b000013 	blne	e10 <AlternateDMA_ChannelControlWordRegisters+0x48>
     dc0:	0b0b0024 	bleq	2c0e58 <UART_InterruptFIFOLevelSelect+0x2bfa18>
     dc4:	08030b3e 	stmdaeq	r3, {r1, r2, r3, r4, r5, r8, r9, fp}
     dc8:	01000000 	mrseq	r0, (UNDEF: 0)
     dcc:	0e250111 	mcreq	1, 1, r0, cr5, cr1, {0}
     dd0:	0e030b13 	vmoveq.32	d3[0], r0
     dd4:	0610081b 			; <UNDEFINED> instruction: 0x0610081b
     dd8:	04020000 	streq	r0, [r2], #-0
     ddc:	0b0b3e01 	bleq	2d05e8 <UART_InterruptFIFOLevelSelect+0x2cf1a8>
     de0:	3a13490b 	bcc	4d3214 <UART_InterruptFIFOLevelSelect+0x4d1dd4>
     de4:	390b3b0b 	stmdbcc	fp, {r0, r1, r3, r8, r9, fp, ip, sp}
     de8:	0013010b 	andseq	r0, r3, fp, lsl #2
     dec:	00280300 	eoreq	r0, r8, r0, lsl #6
     df0:	0b1c0e03 	bleq	704604 <UART_InterruptFIFOLevelSelect+0x7031c4>
     df4:	24040000 	strcs	r0, [r4], #-0
     df8:	3e0b0b00 	vmlacc.f64	d0, d11, d0
     dfc:	000e030b 	andeq	r0, lr, fp, lsl #6
     e00:	00160500 	andseq	r0, r6, r0, lsl #10
     e04:	0b3a0e03 	bleq	e84618 <UART_InterruptFIFOLevelSelect+0xe831d8>
     e08:	0b390b3b 	bleq	e43afc <UART_InterruptFIFOLevelSelect+0xe426bc>
     e0c:	00001349 	andeq	r1, r0, r9, asr #6
     e10:	0b011306 	bleq	45a30 <UART_InterruptFIFOLevelSelect+0x445f0>
     e14:	3b0b3a0b 	blcc	2cf648 <UART_InterruptFIFOLevelSelect+0x2ce208>
     e18:	010b390b 	tsteq	fp, fp, lsl #18
     e1c:	07000013 	smladeq	r0, r3, r0, r0
     e20:	0e03000d 	cdpeq	0, 0, cr0, cr3, cr13, {0}
     e24:	0b3b0b3a 	bleq	ec3b14 <UART_InterruptFIFOLevelSelect+0xec26d4>
     e28:	13490b39 	movtne	r0, #39737	; 0x9b39
     e2c:	00000a38 	andeq	r0, r0, r8, lsr sl
     e30:	03003408 	movweq	r3, #1032	; 0x408
     e34:	3b0b3a0e 	blcc	2cf674 <UART_InterruptFIFOLevelSelect+0x2ce234>
     e38:	490b390b 	stmdbmi	fp, {r0, r1, r3, r8, fp, ip, sp}
     e3c:	3c0c3f13 	stccc	15, cr3, [ip], {19}
     e40:	0900000c 	stmdbeq	r0, {r2, r3}
     e44:	13470034 	movtne	r0, #28724	; 0x7034
     e48:	0b3b0b3a 	bleq	ec3b38 <UART_InterruptFIFOLevelSelect+0xec26f8>
     e4c:	0a020b39 	beq	83b38 <UART_InterruptFIFOLevelSelect+0x826f8>
     e50:	01000000 	mrseq	r0, (UNDEF: 0)
     e54:	0e250111 	mcreq	1, 1, r0, cr5, cr1, {0}
     e58:	0e030b13 	vmoveq.32	d3[0], r0
     e5c:	0655081b 			; <UNDEFINED> instruction: 0x0655081b
     e60:	01520111 	cmpeq	r2, r1, lsl r1
     e64:	00000610 	andeq	r0, r0, r0, lsl r6
     e68:	0b002402 	bleq	9e78 <UART_InterruptFIFOLevelSelect+0x8a38>
     e6c:	030b3e0b 	movweq	r3, #48651	; 0xbe0b
     e70:	0300000e 	movweq	r0, #14
     e74:	0e030016 	mcreq	0, 0, r0, cr3, cr6, {0}
     e78:	0b3b0b3a 	bleq	ec3b68 <UART_InterruptFIFOLevelSelect+0xec2728>
     e7c:	13490b39 	movtne	r0, #39737	; 0x9b39
     e80:	35040000 	strcc	r0, [r4, #-0]
     e84:	00134900 	andseq	r4, r3, r0, lsl #18
     e88:	000f0500 	andeq	r0, pc, r0, lsl #10
     e8c:	13490b0b 	movtne	r0, #39691	; 0x9b0b
     e90:	15060000 	strne	r0, [r6, #-0]
     e94:	000c2700 	andeq	r2, ip, r0, lsl #14
     e98:	01130700 	tsteq	r3, r0, lsl #14
     e9c:	0b3a0b0b 	bleq	e83ad0 <UART_InterruptFIFOLevelSelect+0xe82690>
     ea0:	0b390b3b 	bleq	e43b94 <UART_InterruptFIFOLevelSelect+0xe42754>
     ea4:	00001301 	andeq	r1, r0, r1, lsl #6
     ea8:	03000d08 	movweq	r0, #3336	; 0xd08
     eac:	3b0b3a0e 	blcc	2cf6ec <UART_InterruptFIFOLevelSelect+0x2ce2ac>
     eb0:	490b390b 	stmdbmi	fp, {r0, r1, r3, r8, fp, ip, sp}
     eb4:	0d0b0b13 	vstreq	d0, [fp, #-76]	; 0xffffffb4
     eb8:	380b0c0b 	stmdacc	fp, {r0, r1, r3, sl, fp}
     ebc:	0900000a 	stmdbeq	r0, {r1, r3}
     ec0:	0b0b0117 	bleq	2c1324 <UART_InterruptFIFOLevelSelect+0x2bfee4>
     ec4:	0b3b0b3a 	bleq	ec3bb4 <UART_InterruptFIFOLevelSelect+0xec2774>
     ec8:	13010b39 	movwne	r0, #6969	; 0x1b39
     ecc:	0d0a0000 	stceq	0, cr0, [sl, #-0]
     ed0:	3a0e0300 	bcc	381ad8 <UART_InterruptFIFOLevelSelect+0x380698>
     ed4:	390b3b0b 	stmdbcc	fp, {r0, r1, r3, r8, r9, fp, ip, sp}
     ed8:	0013490b 	andseq	r4, r3, fp, lsl #18
     edc:	01040b00 	tsteq	r4, r0, lsl #22
     ee0:	0b0b0b3e 	bleq	2c3be0 <UART_InterruptFIFOLevelSelect+0x2c27a0>
     ee4:	0b3a1349 	bleq	e85c10 <UART_InterruptFIFOLevelSelect+0xe847d0>
     ee8:	0b390b3b 	bleq	e43bdc <UART_InterruptFIFOLevelSelect+0xe4279c>
     eec:	00001301 	andeq	r1, r0, r1, lsl #6
     ef0:	0300280c 	movweq	r2, #2060	; 0x80c
     ef4:	00051c0e 	andeq	r1, r5, lr, lsl #24
     ef8:	00280d00 	eoreq	r0, r8, r0, lsl #26
     efc:	061c0e03 	ldreq	r0, [ip], -r3, lsl #28
     f00:	280e0000 	stmdacs	lr, {}	; <UNPREDICTABLE>
     f04:	1c080300 	stcne	3, cr0, [r8], {-0}
     f08:	0f00000b 	svceq	0x0000000b
     f0c:	0e030028 	cdpeq	0, 0, cr0, cr3, cr8, {1}
     f10:	00000b1c 	andeq	r0, r0, ip, lsl fp
     f14:	03003410 	movweq	r3, #1040	; 0x410
     f18:	3b0b3a0e 	blcc	2cf758 <UART_InterruptFIFOLevelSelect+0x2ce318>
     f1c:	490b390b 	stmdbmi	fp, {r0, r1, r3, r8, fp, ip, sp}
     f20:	000a0213 	andeq	r0, sl, r3, lsl r2
     f24:	012e1100 			; <UNDEFINED> instruction: 0x012e1100
     f28:	0e030c3f 	mcreq	12, 0, r0, cr3, cr15, {1}
     f2c:	0b3b0b3a 	bleq	ec3c1c <UART_InterruptFIFOLevelSelect+0xec27dc>
     f30:	0c270b39 			; <UNDEFINED> instruction: 0x0c270b39
     f34:	01120111 	tsteq	r2, r1, lsl r1
     f38:	42970640 	addsmi	r0, r7, #64, 12	; 0x4000000
     f3c:	0013010c 	andseq	r0, r3, ip, lsl #2
     f40:	012e1200 			; <UNDEFINED> instruction: 0x012e1200
     f44:	0e030c3f 	mcreq	12, 0, r0, cr3, cr15, {1}
     f48:	0b3b0b3a 	bleq	ec3c38 <UART_InterruptFIFOLevelSelect+0xec27f8>
     f4c:	0c270b39 			; <UNDEFINED> instruction: 0x0c270b39
     f50:	01120111 	tsteq	r2, r1, lsl r1
     f54:	42960640 	addsmi	r0, r6, #64, 12	; 0x4000000
     f58:	0013010c 	andseq	r0, r3, ip, lsl #2
     f5c:	00051300 	andeq	r1, r5, r0, lsl #6
     f60:	0b3a0e03 	bleq	e84774 <UART_InterruptFIFOLevelSelect+0xe83334>
     f64:	0b390b3b 	bleq	e43c58 <UART_InterruptFIFOLevelSelect+0xe42818>
     f68:	0a021349 	beq	85c94 <UART_InterruptFIFOLevelSelect+0x84854>
     f6c:	2e140000 	cdpcs	0, 1, cr0, cr4, cr0, {0}
     f70:	3a0e0301 	bcc	381b7c <UART_InterruptFIFOLevelSelect+0x38073c>
     f74:	390b3b0b 	stmdbcc	fp, {r0, r1, r3, r8, r9, fp, ip, sp}
     f78:	490c270b 	stmdbmi	ip, {r0, r1, r3, r8, r9, sl, sp}
     f7c:	12011113 	andne	r1, r1, #-1073741820	; 0xc0000004
     f80:	96064001 	strls	r4, [r6], -r1
     f84:	13010c42 	movwne	r0, #7234	; 0x1c42
     f88:	2e150000 	cdpcs	0, 1, cr0, cr5, cr0, {0}
     f8c:	3a0e0300 	bcc	381b94 <UART_InterruptFIFOLevelSelect+0x380754>
     f90:	390b3b0b 	stmdbcc	fp, {r0, r1, r3, r8, r9, fp, ip, sp}
     f94:	110c270b 	tstne	ip, fp, lsl #14
     f98:	40011201 	andmi	r1, r1, r1, lsl #4
     f9c:	0c429706 	mcrreq	7, 0, r9, r2, cr6
     fa0:	2e160000 	cdpcs	0, 1, cr0, cr6, cr0, {0}
     fa4:	030c3f00 	movweq	r3, #52992	; 0xcf00
     fa8:	3b0b3a0e 	blcc	2cf7e8 <UART_InterruptFIFOLevelSelect+0x2ce3a8>
     fac:	490b390b 	stmdbmi	fp, {r0, r1, r3, r8, fp, ip, sp}
     fb0:	12011113 	andne	r1, r1, #-1073741820	; 0xc0000004
     fb4:	96064001 	strls	r4, [r6], -r1
     fb8:	00000c42 	andeq	r0, r0, r2, asr #24
     fbc:	0b002417 	bleq	a020 <UART_InterruptFIFOLevelSelect+0x8be0>
     fc0:	030b3e0b 	movweq	r3, #48651	; 0xbe0b
     fc4:	00000008 	andeq	r0, r0, r8
     fc8:	25011101 	strcs	r1, [r1, #-257]	; 0xfffffeff
     fcc:	030b130e 	movweq	r1, #45838	; 0xb30e
     fd0:	55081b0e 	strpl	r1, [r8, #-2830]	; 0xfffff4f2
     fd4:	52011106 	andpl	r1, r1, #-2147483647	; 0x80000001
     fd8:	00061001 	andeq	r1, r6, r1
     fdc:	00160200 	andseq	r0, r6, r0, lsl #4
     fe0:	0b3a0e03 	bleq	e847f4 <UART_InterruptFIFOLevelSelect+0xe833b4>
     fe4:	0b390b3b 	bleq	e43cd8 <UART_InterruptFIFOLevelSelect+0xe42898>
     fe8:	00001349 	andeq	r1, r0, r9, asr #6
     fec:	0b002403 	bleq	a000 <UART_InterruptFIFOLevelSelect+0x8bc0>
     ff0:	030b3e0b 	movweq	r3, #48651	; 0xbe0b
     ff4:	0400000e 	streq	r0, [r0], #-14
     ff8:	13490035 	movtne	r0, #36917	; 0x9035
     ffc:	0f050000 	svceq	0x00050000
    1000:	490b0b00 	stmdbmi	fp, {r8, r9, fp}
    1004:	06000013 			; <UNDEFINED> instruction: 0x06000013
    1008:	0c270015 	stceq	0, cr0, [r7], #-84	; 0xffffffac
    100c:	04070000 	streq	r0, [r7], #-0
    1010:	0b0b3e01 	bleq	2d081c <UART_InterruptFIFOLevelSelect+0x2cf3dc>
    1014:	3a13490b 	bcc	4d3448 <UART_InterruptFIFOLevelSelect+0x4d2008>
    1018:	390b3b0b 	stmdbcc	fp, {r0, r1, r3, r8, r9, fp, ip, sp}
    101c:	0013010b 	andseq	r0, r3, fp, lsl #2
    1020:	00280800 	eoreq	r0, r8, r0, lsl #16
    1024:	0b1c0e03 	bleq	704838 <UART_InterruptFIFOLevelSelect+0x7033f8>
    1028:	04090000 	streq	r0, [r9], #-0
    102c:	3e0e0301 	cdpcc	3, 0, cr0, cr14, cr1, {0}
    1030:	490b0b0b 	stmdbmi	fp, {r0, r1, r3, r8, r9, fp}
    1034:	3b0b3a13 	blcc	2cf888 <UART_InterruptFIFOLevelSelect+0x2ce448>
    1038:	010b390b 	tsteq	fp, fp, lsl #18
    103c:	0a000013 	beq	1090 <GPTM_16_32_BitTimerA_IntervalLoad+0x8>
    1040:	0b0b0113 	bleq	2c1494 <UART_InterruptFIFOLevelSelect+0x2c0054>
    1044:	0b3b0b3a 	bleq	ec3d34 <UART_InterruptFIFOLevelSelect+0xec28f4>
    1048:	13010b39 	movwne	r0, #6969	; 0x1b39
    104c:	0d0b0000 	stceq	0, cr0, [fp, #-0]
    1050:	3a0e0300 	bcc	381c58 <UART_InterruptFIFOLevelSelect+0x380818>
    1054:	390b3b0b 	stmdbcc	fp, {r0, r1, r3, r8, r9, fp, ip, sp}
    1058:	3813490b 	ldmdacc	r3, {r0, r1, r3, r8, fp, lr}
    105c:	0c00000a 	stceq	0, cr0, [r0], {10}
    1060:	13490026 	movtne	r0, #36902	; 0x9026
    1064:	010d0000 	mrseq	r0, (UNDEF: 13)
    1068:	01134901 	tsteq	r3, r1, lsl #18
    106c:	0e000013 	mcreq	0, 0, r0, cr0, cr3, {0}
    1070:	13490021 	movtne	r0, #36897	; 0x9021
    1074:	00000b2f 	andeq	r0, r0, pc, lsr #22
    1078:	0300340f 	movweq	r3, #1039	; 0x40f
    107c:	3b0b3a0e 	blcc	2cf8bc <UART_InterruptFIFOLevelSelect+0x2ce47c>
    1080:	490b390b 	stmdbmi	fp, {r0, r1, r3, r8, fp, ip, sp}
    1084:	3c0c3f13 	stccc	15, cr3, [ip], {19}
    1088:	1000000c 	andne	r0, r0, ip
    108c:	0e03000d 	cdpeq	0, 0, cr0, cr3, cr13, {0}
    1090:	0b3b0b3a 	bleq	ec3d80 <UART_InterruptFIFOLevelSelect+0xec2940>
    1094:	13490b39 	movtne	r0, #39737	; 0x9b39
    1098:	0b0d0b0b 	bleq	343ccc <UART_InterruptFIFOLevelSelect+0x34288c>
    109c:	0a380b0c 	beq	e03cd4 <UART_InterruptFIFOLevelSelect+0xe02894>
    10a0:	17110000 	ldrne	r0, [r1, -r0]
    10a4:	3a0b0b01 	bcc	2c3cb0 <UART_InterruptFIFOLevelSelect+0x2c2870>
    10a8:	390b3b0b 	stmdbcc	fp, {r0, r1, r3, r8, r9, fp, ip, sp}
    10ac:	0013010b 	andseq	r0, r3, fp, lsl #2
    10b0:	000d1200 	andeq	r1, sp, r0, lsl #4
    10b4:	0b3a0e03 	bleq	e848c8 <UART_InterruptFIFOLevelSelect+0xe83488>
    10b8:	0b390b3b 	bleq	e43dac <UART_InterruptFIFOLevelSelect+0xe4296c>
    10bc:	00001349 	andeq	r1, r0, r9, asr #6
    10c0:	03000d13 	movweq	r0, #3347	; 0xd13
    10c4:	3b0b3a08 	blcc	2cf8ec <UART_InterruptFIFOLevelSelect+0x2ce4ac>
    10c8:	490b390b 	stmdbmi	fp, {r0, r1, r3, r8, fp, ip, sp}
    10cc:	0d0b0b13 	vstreq	d0, [fp, #-76]	; 0xffffffb4
    10d0:	380b0c0b 	stmdacc	fp, {r0, r1, r3, sl, fp}
    10d4:	1400000a 	strne	r0, [r0], #-10
    10d8:	0e03000d 	cdpeq	0, 0, cr0, cr3, cr13, {0}
    10dc:	053b0b3a 	ldreq	r0, [fp, #-2874]!	; 0xfffff4c6
    10e0:	13490b39 	movtne	r0, #39737	; 0x9b39
    10e4:	0b0d0b0b 	bleq	343d18 <UART_InterruptFIFOLevelSelect+0x3428d8>
    10e8:	0a380b0c 	beq	e03d20 <UART_InterruptFIFOLevelSelect+0xe028e0>
    10ec:	0d150000 	ldceq	0, cr0, [r5, #-0]
    10f0:	3a0e0300 	bcc	381cf8 <UART_InterruptFIFOLevelSelect+0x3808b8>
    10f4:	39053b0b 	stmdbcc	r5, {r0, r1, r3, r8, r9, fp, ip, sp}
    10f8:	0013490b 	andseq	r4, r3, fp, lsl #18
    10fc:	00161600 	andseq	r1, r6, r0, lsl #12
    1100:	0b3a0e03 	bleq	e84914 <UART_InterruptFIFOLevelSelect+0xe834d4>
    1104:	0b39053b 	bleq	e425f8 <UART_InterruptFIFOLevelSelect+0xe411b8>
    1108:	00001349 	andeq	r1, r0, r9, asr #6
    110c:	0b011317 	bleq	45d70 <UART_InterruptFIFOLevelSelect+0x44930>
    1110:	3b0b3a0b 	blcc	2cf944 <UART_InterruptFIFOLevelSelect+0x2ce504>
    1114:	010b3905 	tsteq	fp, r5, lsl #18
    1118:	18000013 	stmdane	r0, {r0, r1, r4}
    111c:	0b0b0117 	bleq	2c1580 <UART_InterruptFIFOLevelSelect+0x2c0140>
    1120:	053b0b3a 	ldreq	r0, [fp, #-2874]!	; 0xfffff4c6
    1124:	13010b39 	movwne	r0, #6969	; 0x1b39
    1128:	28190000 	ldmdacs	r9, {}	; <UNPREDICTABLE>
    112c:	1c0e0300 	stcne	3, cr0, [lr], {-0}
    1130:	1a000005 	bne	114c <GPTM_TimerMode+0x34>
    1134:	0e030028 	cdpeq	0, 0, cr0, cr3, cr8, {1}
    1138:	0000061c 	andeq	r0, r0, ip, lsl r6
    113c:	0300281b 	movweq	r2, #2075	; 0x81b
    1140:	000b1c08 	andeq	r1, fp, r8, lsl #24
    1144:	00211c00 	eoreq	r1, r1, r0, lsl #24
    1148:	052f1349 	streq	r1, [pc, #-841]!	; e07 <AlternateDMA_ChannelControlWordRegisters+0x3f>
    114c:	341d0000 	ldrcc	r0, [sp], #-0
    1150:	3a0e0300 	bcc	381d58 <UART_InterruptFIFOLevelSelect+0x380918>
    1154:	390b3b0b 	stmdbcc	fp, {r0, r1, r3, r8, r9, fp, ip, sp}
    1158:	3f13490b 	svccc	0x0013490b
    115c:	000a020c 	andeq	r0, sl, ip, lsl #4
    1160:	00341e00 	eorseq	r1, r4, r0, lsl #28
    1164:	0b3a0e03 	bleq	e84978 <UART_InterruptFIFOLevelSelect+0xe83538>
    1168:	0b390b3b 	bleq	e43e5c <UART_InterruptFIFOLevelSelect+0xe42a1c>
    116c:	0a021349 	beq	85e98 <UART_InterruptFIFOLevelSelect+0x84a58>
    1170:	341f0000 	ldrcc	r0, [pc], #-0	; 1178 <GPTM_Control>
    1174:	3a0e0300 	bcc	381d7c <UART_InterruptFIFOLevelSelect+0x38093c>
    1178:	39053b0b 	stmdbcc	r5, {r0, r1, r3, r8, r9, fp, ip, sp}
    117c:	0213490b 	andseq	r4, r3, #180224	; 0x2c000
    1180:	2000000a 	andcs	r0, r0, sl
    1184:	0c3f012e 	ldfeqs	f0, [pc], #-184	; 10d4 <GPTM_32BitTimerB_IntervalLoad+0x4>
    1188:	0b3a0e03 	bleq	e8499c <UART_InterruptFIFOLevelSelect+0xe8355c>
    118c:	0b39053b 	bleq	e42680 <UART_InterruptFIFOLevelSelect+0xe41240>
    1190:	01110c27 	tsteq	r1, r7, lsr #24
    1194:	06400112 			; <UNDEFINED> instruction: 0x06400112
    1198:	010c4297 			; <UNDEFINED> instruction: 0x010c4297
    119c:	21000013 	tstcs	r0, r3, lsl r0
    11a0:	0e030005 	cdpeq	0, 0, cr0, cr3, cr5, {0}
    11a4:	053b0b3a 	ldreq	r0, [fp, #-2874]!	; 0xfffff4c6
    11a8:	13490b39 	movtne	r0, #39737	; 0x9b39
    11ac:	00000a02 	andeq	r0, r0, r2, lsl #20
    11b0:	3f012e22 	svccc	0x00012e22
    11b4:	3a0e030c 	bcc	381dec <UART_InterruptFIFOLevelSelect+0x3809ac>
    11b8:	39053b0b 	stmdbcc	r5, {r0, r1, r3, r8, r9, fp, ip, sp}
    11bc:	110c270b 	tstne	ip, fp, lsl #14
    11c0:	40011201 	andmi	r1, r1, r1, lsl #4
    11c4:	0c429606 	mcrreq	6, 0, r9, r2, cr6
    11c8:	00001301 	andeq	r1, r0, r1, lsl #6
    11cc:	3f012e23 	svccc	0x00012e23
    11d0:	3a0e030c 	bcc	381e08 <UART_InterruptFIFOLevelSelect+0x3809c8>
    11d4:	39053b0b 	stmdbcc	r5, {r0, r1, r3, r8, r9, fp, ip, sp}
    11d8:	1113490b 	tstne	r3, fp, lsl #18
    11dc:	40011201 	andmi	r1, r1, r1, lsl #4
    11e0:	0c429606 	mcrreq	6, 0, r9, r2, cr6
    11e4:	00001301 	andeq	r1, r0, r1, lsl #6
    11e8:	0b002424 	bleq	a280 <UART_InterruptFIFOLevelSelect+0x8e40>
    11ec:	030b3e0b 	movweq	r3, #48651	; 0xbe0b
    11f0:	25000008 	strcs	r0, [r0, #-8]
    11f4:	0c3f012e 	ldfeqs	f0, [pc], #-184	; 1144 <GPTM_TimerMode+0x2c>
    11f8:	0b3a0e03 	bleq	e84a0c <UART_InterruptFIFOLevelSelect+0xe835cc>
    11fc:	0b39053b 	bleq	e426f0 <UART_InterruptFIFOLevelSelect+0xe412b0>
    1200:	01111349 	tsteq	r1, r9, asr #6
    1204:	06400112 			; <UNDEFINED> instruction: 0x06400112
    1208:	000c4296 	muleq	ip, r6, r2
    120c:	11010000 	mrsne	r0, (UNDEF: 1)
    1210:	130e2501 	movwne	r2, #58625	; 0xe501
    1214:	1b0e030b 	blne	381e48 <UART_InterruptFIFOLevelSelect+0x380a08>
    1218:	00061008 	andeq	r1, r6, r8
    121c:	00240200 	eoreq	r0, r4, r0, lsl #4
    1220:	0b3e0b0b 	bleq	f83e54 <UART_InterruptFIFOLevelSelect+0xf82a14>
    1224:	00000e03 	andeq	r0, r0, r3, lsl #28
    1228:	03001603 	movweq	r1, #1539	; 0x603
    122c:	3b0b3a0e 	blcc	2cfa6c <UART_InterruptFIFOLevelSelect+0x2ce62c>
    1230:	490b390b 	stmdbmi	fp, {r0, r1, r3, r8, fp, ip, sp}
    1234:	04000013 	streq	r0, [r0], #-19	; 0xffffffed
    1238:	0b3e0104 	bleq	f81650 <UART_InterruptFIFOLevelSelect+0xf80210>
    123c:	13490b0b 	movtne	r0, #39691	; 0x9b0b
    1240:	0b3b0b3a 	bleq	ec3f30 <UART_InterruptFIFOLevelSelect+0xec2af0>
    1244:	13010b39 	movwne	r0, #6969	; 0x1b39
    1248:	28050000 	stmdacs	r5, {}	; <UNPREDICTABLE>
    124c:	1c0e0300 	stcne	3, cr0, [lr], {-0}
    1250:	0600000b 	streq	r0, [r0], -fp
    1254:	0b0b0113 	bleq	2c16a8 <UART_InterruptFIFOLevelSelect+0x2c0268>
    1258:	0b3b0b3a 	bleq	ec3f48 <UART_InterruptFIFOLevelSelect+0xec2b08>
    125c:	13010b39 	movwne	r0, #6969	; 0x1b39
    1260:	0d070000 	stceq	0, cr0, [r7, #-0]
    1264:	3a0e0300 	bcc	381e6c <UART_InterruptFIFOLevelSelect+0x380a2c>
    1268:	390b3b0b 	stmdbcc	fp, {r0, r1, r3, r8, r9, fp, ip, sp}
    126c:	3813490b 	ldmdacc	r3, {r0, r1, r3, r8, fp, lr}
    1270:	0800000a 	stmdaeq	r0, {r1, r3}
    1274:	0e030034 	mcreq	0, 0, r0, cr3, cr4, {1}
    1278:	0b3b0b3a 	bleq	ec3f68 <UART_InterruptFIFOLevelSelect+0xec2b28>
    127c:	13490b39 	movtne	r0, #39737	; 0x9b39
    1280:	0c3c0c3f 	ldceq	12, cr0, [ip], #-252	; 0xffffff04
    1284:	34090000 	strcc	r0, [r9], #-0
    1288:	3a134700 	bcc	4d2e90 <UART_InterruptFIFOLevelSelect+0x4d1a50>
    128c:	390b3b0b 	stmdbcc	fp, {r0, r1, r3, r8, r9, fp, ip, sp}
    1290:	000a020b 	andeq	r0, sl, fp, lsl #4
	...

Disassembly of section .debug_loc:

00000000 <.debug_loc>:
	...
       8:	007d0002 	rsbseq	r0, sp, r2
	...
      14:	047d0002 	ldrbteq	r0, [sp], #-2
	...
      20:	107d0002 	rsbsne	r0, sp, r2
	...
      2c:	10770002 	rsbsne	r0, r7, r2
	...
      38:	04770002 	ldrbteq	r0, [r7], #-2
	...
      44:	047d0002 	ldrbteq	r0, [sp], #-2
	...
      50:	007d0002 	rsbseq	r0, sp, r2
	...
      64:	007d0002 	rsbseq	r0, sp, r2
	...
      70:	047d0002 	ldrbteq	r0, [sp], #-2
	...
      7c:	107d0002 	rsbsne	r0, sp, r2
	...
      88:	10770002 	rsbsne	r0, r7, r2
	...
      94:	04770002 	ldrbteq	r0, [r7], #-2
	...
      a0:	047d0002 	ldrbteq	r0, [sp], #-2
	...
      ac:	007d0002 	rsbseq	r0, sp, r2
	...
      c0:	007d0002 	rsbseq	r0, sp, r2
	...
      cc:	087d0002 	ldmdaeq	sp!, {r1}^
	...
      d8:	107d0002 	rsbsne	r0, sp, r2
	...
      e4:	10770002 	rsbsne	r0, r7, r2
	...
      f0:	08770002 	ldmdaeq	r7!, {r1}^
	...
      fc:	087d0002 	ldmdaeq	sp!, {r1}^
	...
     110:	007d0002 	rsbseq	r0, sp, r2
	...
     11c:	087d0002 	ldmdaeq	sp!, {r1}^
	...
     128:	107d0002 	rsbsne	r0, sp, r2
	...
     134:	10770002 	rsbsne	r0, r7, r2
	...
     140:	08770002 	ldmdaeq	r7!, {r1}^
	...
     14c:	087d0002 	ldmdaeq	sp!, {r1}^
	...
     160:	007d0002 	rsbseq	r0, sp, r2
	...
     16c:	087d0002 	ldmdaeq	sp!, {r1}^
	...
     178:	107d0002 	rsbsne	r0, sp, r2
	...
     184:	10770002 	rsbsne	r0, r7, r2
	...
     190:	08770002 	ldmdaeq	r7!, {r1}^
	...
     19c:	087d0002 	ldmdaeq	sp!, {r1}^
	...
     1b0:	007d0002 	rsbseq	r0, sp, r2
	...
     1bc:	047d0002 	ldrbteq	r0, [sp], #-2
	...
     1c8:	187d0002 	ldmdane	sp!, {r1}^
	...
     1d4:	18770002 	ldmdane	r7!, {r1}^
	...
     1e0:	04770002 	ldrbteq	r0, [r7], #-2
	...
     1ec:	047d0002 	ldrbteq	r0, [sp], #-2
	...
     1f8:	007d0002 	rsbseq	r0, sp, r2
	...
     204:	000003a0 	andeq	r0, r0, r0, lsr #7
     208:	000003a2 	andeq	r0, r0, r2, lsr #7
     20c:	007d0002 	rsbseq	r0, sp, r2
     210:	000003a2 	andeq	r0, r0, r2, lsr #7
     214:	000003a4 	andeq	r0, r0, r4, lsr #7
     218:	047d0002 	ldrbteq	r0, [sp], #-2
     21c:	000003a4 	andeq	r0, r0, r4, lsr #7
     220:	000003a6 	andeq	r0, r0, r6, lsr #7
     224:	187d0002 	ldmdane	sp!, {r1}^
     228:	000003a6 	andeq	r0, r0, r6, lsr #7
     22c:	000003ee 	andeq	r0, r0, lr, ror #7
     230:	18770002 	ldmdane	r7!, {r1}^
     234:	000003ee 	andeq	r0, r0, lr, ror #7
     238:	000003f0 	strdeq	r0, [r0], -r0	; <UNPREDICTABLE>
     23c:	04770002 	ldrbteq	r0, [r7], #-2
     240:	000003f0 	strdeq	r0, [r0], -r0	; <UNPREDICTABLE>
     244:	000003f2 	strdeq	r0, [r0], -r2
     248:	047d0002 	ldrbteq	r0, [sp], #-2
     24c:	000003f2 	strdeq	r0, [r0], -r2
     250:	000003f8 	strdeq	r0, [r0], -r8
     254:	007d0002 	rsbseq	r0, sp, r2
	...
     260:	00000348 	andeq	r0, r0, r8, asr #6
     264:	0000034a 	andeq	r0, r0, sl, asr #6
     268:	007d0002 	rsbseq	r0, sp, r2
     26c:	0000034a 	andeq	r0, r0, sl, asr #6
     270:	0000034c 	andeq	r0, r0, ip, asr #6
     274:	047d0002 	ldrbteq	r0, [sp], #-2
     278:	0000034c 	andeq	r0, r0, ip, asr #6
     27c:	0000034e 	andeq	r0, r0, lr, asr #6
     280:	107d0002 	rsbsne	r0, sp, r2
     284:	0000034e 	andeq	r0, r0, lr, asr #6
     288:	00000396 	muleq	r0, r6, r3
     28c:	10770002 	rsbsne	r0, r7, r2
     290:	00000396 	muleq	r0, r6, r3
     294:	00000398 	muleq	r0, r8, r3
     298:	04770002 	ldrbteq	r0, [r7], #-2
     29c:	00000398 	muleq	r0, r8, r3
     2a0:	0000039a 	muleq	r0, sl, r3
     2a4:	047d0002 	ldrbteq	r0, [sp], #-2
     2a8:	0000039a 	muleq	r0, sl, r3
     2ac:	000003a0 	andeq	r0, r0, r0, lsr #7
     2b0:	007d0002 	rsbseq	r0, sp, r2
	...
     2bc:	000002f4 	strdeq	r0, [r0], -r4
     2c0:	000002f6 	strdeq	r0, [r0], -r6
     2c4:	007d0002 	rsbseq	r0, sp, r2
     2c8:	000002f6 	strdeq	r0, [r0], -r6
     2cc:	000002f8 	strdeq	r0, [r0], -r8
     2d0:	047d0002 	ldrbteq	r0, [sp], #-2
     2d4:	000002f8 	strdeq	r0, [r0], -r8
     2d8:	000002fa 	strdeq	r0, [r0], -sl
     2dc:	107d0002 	rsbsne	r0, sp, r2
     2e0:	000002fa 	strdeq	r0, [r0], -sl
     2e4:	0000033e 	andeq	r0, r0, lr, lsr r3
     2e8:	10770002 	rsbsne	r0, r7, r2
     2ec:	0000033e 	andeq	r0, r0, lr, lsr r3
     2f0:	00000340 	andeq	r0, r0, r0, asr #6
     2f4:	04770002 	ldrbteq	r0, [r7], #-2
     2f8:	00000340 	andeq	r0, r0, r0, asr #6
     2fc:	00000342 	andeq	r0, r0, r2, asr #6
     300:	047d0002 	ldrbteq	r0, [sp], #-2
     304:	00000342 	andeq	r0, r0, r2, asr #6
     308:	00000348 	andeq	r0, r0, r8, asr #6
     30c:	007d0002 	rsbseq	r0, sp, r2
	...
     318:	000002bc 			; <UNDEFINED> instruction: 0x000002bc
     31c:	000002be 			; <UNDEFINED> instruction: 0x000002be
     320:	007d0002 	rsbseq	r0, sp, r2
     324:	000002be 			; <UNDEFINED> instruction: 0x000002be
     328:	000002c0 	andeq	r0, r0, r0, asr #5
     32c:	087d0002 	ldmdaeq	sp!, {r1}^
     330:	000002c0 	andeq	r0, r0, r0, asr #5
     334:	000002c2 	andeq	r0, r0, r2, asr #5
     338:	107d0002 	rsbsne	r0, sp, r2
     33c:	000002c2 	andeq	r0, r0, r2, asr #5
     340:	000002f0 	strdeq	r0, [r0], -r0	; <UNPREDICTABLE>
     344:	10770002 	rsbsne	r0, r7, r2
     348:	000002f0 	strdeq	r0, [r0], -r0	; <UNPREDICTABLE>
     34c:	000002f2 	strdeq	r0, [r0], -r2
     350:	08770002 	ldmdaeq	r7!, {r1}^
     354:	000002f2 	strdeq	r0, [r0], -r2
     358:	000002f4 	strdeq	r0, [r0], -r4
     35c:	087d0002 	ldmdaeq	sp!, {r1}^
	...
     370:	007d0002 	rsbseq	r0, sp, r2
	...
     37c:	047d0002 	ldrbteq	r0, [sp], #-2
	...
     388:	107d0002 	rsbsne	r0, sp, r2
	...
     394:	10770002 	rsbsne	r0, r7, r2
	...
     3a0:	04770002 	ldrbteq	r0, [r7], #-2
	...
     3ac:	047d0002 	ldrbteq	r0, [sp], #-2
	...
     3b8:	007d0002 	rsbseq	r0, sp, r2
	...
     3c4:	00000264 	andeq	r0, r0, r4, ror #4
     3c8:	00000266 	andeq	r0, r0, r6, ror #4
     3cc:	007d0002 	rsbseq	r0, sp, r2
     3d0:	00000266 	andeq	r0, r0, r6, ror #4
     3d4:	00000268 	andeq	r0, r0, r8, ror #4
     3d8:	047d0002 	ldrbteq	r0, [sp], #-2
     3dc:	00000268 	andeq	r0, r0, r8, ror #4
     3e0:	0000026a 	andeq	r0, r0, sl, ror #4
     3e4:	107d0002 	rsbsne	r0, sp, r2
     3e8:	0000026a 	andeq	r0, r0, sl, ror #4
     3ec:	000002b2 			; <UNDEFINED> instruction: 0x000002b2
     3f0:	10770002 	rsbsne	r0, r7, r2
     3f4:	000002b2 			; <UNDEFINED> instruction: 0x000002b2
     3f8:	000002b4 			; <UNDEFINED> instruction: 0x000002b4
     3fc:	04770002 	ldrbteq	r0, [r7], #-2
     400:	000002b4 			; <UNDEFINED> instruction: 0x000002b4
     404:	000002b6 			; <UNDEFINED> instruction: 0x000002b6
     408:	047d0002 	ldrbteq	r0, [sp], #-2
     40c:	000002b6 			; <UNDEFINED> instruction: 0x000002b6
     410:	000002bc 			; <UNDEFINED> instruction: 0x000002bc
     414:	007d0002 	rsbseq	r0, sp, r2
	...
     428:	007d0002 	rsbseq	r0, sp, r2
	...
     434:	047d0002 	ldrbteq	r0, [sp], #-2
	...
     440:	187d0002 	ldmdane	sp!, {r1}^
	...
     44c:	18770002 	ldmdane	r7!, {r1}^
	...
     458:	04770002 	ldrbteq	r0, [r7], #-2
	...
     464:	047d0002 	ldrbteq	r0, [sp], #-2
	...
     470:	007d0002 	rsbseq	r0, sp, r2
	...
     47c:	0000010c 	andeq	r0, r0, ip, lsl #2
     480:	0000010e 	andeq	r0, r0, lr, lsl #2
     484:	007d0002 	rsbseq	r0, sp, r2
     488:	0000010e 	andeq	r0, r0, lr, lsl #2
     48c:	00000110 	andeq	r0, r0, r0, lsl r1
     490:	047d0002 	ldrbteq	r0, [sp], #-2
     494:	00000110 	andeq	r0, r0, r0, lsl r1
     498:	00000112 	andeq	r0, r0, r2, lsl r1
     49c:	187d0002 	ldmdane	sp!, {r1}^
     4a0:	00000112 	andeq	r0, r0, r2, lsl r1
     4a4:	00000244 	andeq	r0, r0, r4, asr #4
     4a8:	18770002 	ldmdane	r7!, {r1}^
     4ac:	00000244 	andeq	r0, r0, r4, asr #4
     4b0:	00000246 	andeq	r0, r0, r6, asr #4
     4b4:	04770002 	ldrbteq	r0, [r7], #-2
     4b8:	00000246 	andeq	r0, r0, r6, asr #4
     4bc:	00000248 	andeq	r0, r0, r8, asr #4
     4c0:	047d0002 	ldrbteq	r0, [sp], #-2
     4c4:	00000248 	andeq	r0, r0, r8, asr #4
     4c8:	00000264 	andeq	r0, r0, r4, ror #4
     4cc:	007d0002 	rsbseq	r0, sp, r2
	...
     4d8:	000000e0 	andeq	r0, r0, r0, ror #1
     4dc:	000000e2 	andeq	r0, r0, r2, ror #1
     4e0:	007d0002 	rsbseq	r0, sp, r2
     4e4:	000000e2 	andeq	r0, r0, r2, ror #1
     4e8:	000000e4 	andeq	r0, r0, r4, ror #1
     4ec:	047d0002 	ldrbteq	r0, [sp], #-2
     4f0:	000000e4 	andeq	r0, r0, r4, ror #1
     4f4:	000000e6 	andeq	r0, r0, r6, ror #1
     4f8:	107d0002 	rsbsne	r0, sp, r2
     4fc:	000000e6 	andeq	r0, r0, r6, ror #1
     500:	00000102 	andeq	r0, r0, r2, lsl #2
     504:	10770002 	rsbsne	r0, r7, r2
     508:	00000102 	andeq	r0, r0, r2, lsl #2
     50c:	00000104 	andeq	r0, r0, r4, lsl #2
     510:	04770002 	ldrbteq	r0, [r7], #-2
     514:	00000104 	andeq	r0, r0, r4, lsl #2
     518:	00000106 	andeq	r0, r0, r6, lsl #2
     51c:	047d0002 	ldrbteq	r0, [sp], #-2
     520:	00000106 	andeq	r0, r0, r6, lsl #2
     524:	0000010c 	andeq	r0, r0, ip, lsl #2
     528:	007d0002 	rsbseq	r0, sp, r2
	...
     53c:	007d0002 	rsbseq	r0, sp, r2
	...
     548:	047d0002 	ldrbteq	r0, [sp], #-2
	...
     554:	107d0002 	rsbsne	r0, sp, r2
	...
     560:	10770002 	rsbsne	r0, r7, r2
	...
     56c:	04770002 	ldrbteq	r0, [r7], #-2
	...
     578:	047d0002 	ldrbteq	r0, [sp], #-2
	...
     584:	007d0002 	rsbseq	r0, sp, r2
	...
     598:	007d0002 	rsbseq	r0, sp, r2
	...
     5a4:	047d0002 	ldrbteq	r0, [sp], #-2
	...
     5b0:	107d0002 	rsbsne	r0, sp, r2
	...
     5bc:	10770002 	rsbsne	r0, r7, r2
	...
     5c8:	04770002 	ldrbteq	r0, [r7], #-2
	...
     5d4:	047d0002 	ldrbteq	r0, [sp], #-2
	...
     5e0:	007d0002 	rsbseq	r0, sp, r2
	...
     5ec:	00000054 	andeq	r0, r0, r4, asr r0
     5f0:	00000056 	andeq	r0, r0, r6, asr r0
     5f4:	007d0002 	rsbseq	r0, sp, r2
     5f8:	00000056 	andeq	r0, r0, r6, asr r0
     5fc:	00000058 	andeq	r0, r0, r8, asr r0
     600:	087d0002 	ldmdaeq	sp!, {r1}^
     604:	00000058 	andeq	r0, r0, r8, asr r0
     608:	0000005a 	andeq	r0, r0, sl, asr r0
     60c:	107d0002 	rsbsne	r0, sp, r2
     610:	0000005a 	andeq	r0, r0, sl, asr r0
     614:	000000ce 	andeq	r0, r0, lr, asr #1
     618:	10770002 	rsbsne	r0, r7, r2
     61c:	000000ce 	andeq	r0, r0, lr, asr #1
     620:	000000d0 	ldrdeq	r0, [r0], -r0	; <UNPREDICTABLE>
     624:	08770002 	ldmdaeq	r7!, {r1}^
     628:	000000d0 	ldrdeq	r0, [r0], -r0	; <UNPREDICTABLE>
     62c:	000000e0 	andeq	r0, r0, r0, ror #1
     630:	087d0002 	ldmdaeq	sp!, {r1}^
	...
     63c:	0000001c 	andeq	r0, r0, ip, lsl r0
     640:	0000001e 	andeq	r0, r0, lr, lsl r0
     644:	007d0002 	rsbseq	r0, sp, r2
     648:	0000001e 	andeq	r0, r0, lr, lsl r0
     64c:	00000020 	andeq	r0, r0, r0, lsr #32
     650:	047d0002 	ldrbteq	r0, [sp], #-2
     654:	00000020 	andeq	r0, r0, r0, lsr #32
     658:	00000040 	andeq	r0, r0, r0, asr #32
     65c:	04770002 	ldrbteq	r0, [r7], #-2
     660:	00000040 	andeq	r0, r0, r0, asr #32
     664:	00000042 	andeq	r0, r0, r2, asr #32
     668:	047d0002 	ldrbteq	r0, [sp], #-2
     66c:	00000042 	andeq	r0, r0, r2, asr #32
     670:	00000054 	andeq	r0, r0, r4, asr r0
     674:	007d0002 	rsbseq	r0, sp, r2
	...
     688:	007d0002 	rsbseq	r0, sp, r2
	...
     694:	087d0002 	ldmdaeq	sp!, {r1}^
	...
     6a0:	08770002 	ldmdaeq	r7!, {r1}^
	...
     6b4:	007d0002 	rsbseq	r0, sp, r2
	...
     6c0:	047d0002 	ldrbteq	r0, [sp], #-2
	...
     6cc:	04770002 	ldrbteq	r0, [r7], #-2
	...
     6d8:	047d0002 	ldrbteq	r0, [sp], #-2
	...
     6e4:	007d0002 	rsbseq	r0, sp, r2
	...
     6f8:	007d0002 	rsbseq	r0, sp, r2
	...
     704:	047d0002 	ldrbteq	r0, [sp], #-2
	...
     710:	107d0002 	rsbsne	r0, sp, r2
	...
     71c:	10770002 	rsbsne	r0, r7, r2
	...
     728:	04770002 	ldrbteq	r0, [r7], #-2
	...
     734:	047d0002 	ldrbteq	r0, [sp], #-2
	...
     740:	007d0002 	rsbseq	r0, sp, r2
	...
     754:	007d0002 	rsbseq	r0, sp, r2
	...
     760:	087d0002 	ldmdaeq	sp!, {r1}^
	...
     76c:	107d0002 	rsbsne	r0, sp, r2
	...
     778:	10770002 	rsbsne	r0, r7, r2
	...
     784:	08770002 	ldmdaeq	r7!, {r1}^
	...
     790:	087d0002 	ldmdaeq	sp!, {r1}^
	...
     7a4:	007d0002 	rsbseq	r0, sp, r2
	...
     7b0:	087d0002 	ldmdaeq	sp!, {r1}^
	...
     7bc:	107d0002 	rsbsne	r0, sp, r2
	...
     7c8:	10770002 	rsbsne	r0, r7, r2
	...
     7d4:	08770002 	ldmdaeq	r7!, {r1}^
	...
     7e0:	087d0002 	ldmdaeq	sp!, {r1}^
	...
     7f4:	007d0002 	rsbseq	r0, sp, r2
	...
     800:	087d0002 	ldmdaeq	sp!, {r1}^
	...
     80c:	107d0002 	rsbsne	r0, sp, r2
	...
     818:	10770002 	rsbsne	r0, r7, r2
	...
     824:	08770002 	ldmdaeq	r7!, {r1}^
	...
     830:	087d0002 	ldmdaeq	sp!, {r1}^
	...
     83c:	007d0002 	rsbseq	r0, sp, r2
	...
     850:	007d0002 	rsbseq	r0, sp, r2
	...
     85c:	047d0002 	ldrbteq	r0, [sp], #-2
	...
     868:	107d0002 	rsbsne	r0, sp, r2
	...
     874:	10770002 	rsbsne	r0, r7, r2
	...
     880:	04770002 	ldrbteq	r0, [r7], #-2
	...
     88c:	047d0002 	ldrbteq	r0, [sp], #-2
	...
     898:	007d0002 	rsbseq	r0, sp, r2
	...
     8ac:	007d0002 	rsbseq	r0, sp, r2
	...
     8b8:	087d0002 	ldmdaeq	sp!, {r1}^
	...
     8c4:	107d0002 	rsbsne	r0, sp, r2
	...
     8d0:	10770002 	rsbsne	r0, r7, r2
	...
     8dc:	08770002 	ldmdaeq	r7!, {r1}^
	...
     8e8:	087d0002 	ldmdaeq	sp!, {r1}^
	...
     8f4:	007d0002 	rsbseq	r0, sp, r2
	...
     900:	000007c0 	andeq	r0, r0, r0, asr #15
     904:	000007c2 	andeq	r0, r0, r2, asr #15
     908:	007d0002 	rsbseq	r0, sp, r2
     90c:	000007c2 	andeq	r0, r0, r2, asr #15
     910:	000007c4 	andeq	r0, r0, r4, asr #15
     914:	087d0002 	ldmdaeq	sp!, {r1}^
     918:	000007c4 	andeq	r0, r0, r4, asr #15
     91c:	000007c6 	andeq	r0, r0, r6, asr #15
     920:	107d0002 	rsbsne	r0, sp, r2
     924:	000007c6 	andeq	r0, r0, r6, asr #15
     928:	00000820 	andeq	r0, r0, r0, lsr #16
     92c:	10770002 	rsbsne	r0, r7, r2
     930:	00000820 	andeq	r0, r0, r0, lsr #16
     934:	00000822 	andeq	r0, r0, r2, lsr #16
     938:	08770002 	ldmdaeq	r7!, {r1}^
     93c:	00000822 	andeq	r0, r0, r2, lsr #16
     940:	00000824 	andeq	r0, r0, r4, lsr #16
     944:	087d0002 	ldmdaeq	sp!, {r1}^
	...
     950:	00000774 	andeq	r0, r0, r4, ror r7
     954:	00000776 	andeq	r0, r0, r6, ror r7
     958:	007d0002 	rsbseq	r0, sp, r2
     95c:	00000776 	andeq	r0, r0, r6, ror r7
     960:	00000778 	andeq	r0, r0, r8, ror r7
     964:	047d0002 	ldrbteq	r0, [sp], #-2
     968:	00000778 	andeq	r0, r0, r8, ror r7
     96c:	0000077a 	andeq	r0, r0, sl, ror r7
     970:	107d0002 	rsbsne	r0, sp, r2
     974:	0000077a 	andeq	r0, r0, sl, ror r7
     978:	000007b6 			; <UNDEFINED> instruction: 0x000007b6
     97c:	10770002 	rsbsne	r0, r7, r2
     980:	000007b6 			; <UNDEFINED> instruction: 0x000007b6
     984:	000007b8 			; <UNDEFINED> instruction: 0x000007b8
     988:	04770002 	ldrbteq	r0, [r7], #-2
     98c:	000007b8 			; <UNDEFINED> instruction: 0x000007b8
     990:	000007ba 			; <UNDEFINED> instruction: 0x000007ba
     994:	047d0002 	ldrbteq	r0, [sp], #-2
     998:	000007ba 			; <UNDEFINED> instruction: 0x000007ba
     99c:	000007c0 	andeq	r0, r0, r0, asr #15
     9a0:	007d0002 	rsbseq	r0, sp, r2
	...
     9ac:	000006e4 	andeq	r0, r0, r4, ror #13
     9b0:	000006e6 	andeq	r0, r0, r6, ror #13
     9b4:	007d0002 	rsbseq	r0, sp, r2
     9b8:	000006e6 	andeq	r0, r0, r6, ror #13
     9bc:	000006e8 	andeq	r0, r0, r8, ror #13
     9c0:	047d0002 	ldrbteq	r0, [sp], #-2
     9c4:	000006e8 	andeq	r0, r0, r8, ror #13
     9c8:	000006ea 	andeq	r0, r0, sl, ror #13
     9cc:	107d0002 	rsbsne	r0, sp, r2
     9d0:	000006ea 	andeq	r0, r0, sl, ror #13
     9d4:	0000076a 	andeq	r0, r0, sl, ror #14
     9d8:	10770002 	rsbsne	r0, r7, r2
     9dc:	0000076a 	andeq	r0, r0, sl, ror #14
     9e0:	0000076c 	andeq	r0, r0, ip, ror #14
     9e4:	04770002 	ldrbteq	r0, [r7], #-2
     9e8:	0000076c 	andeq	r0, r0, ip, ror #14
     9ec:	0000076e 	andeq	r0, r0, lr, ror #14
     9f0:	047d0002 	ldrbteq	r0, [sp], #-2
     9f4:	0000076e 	andeq	r0, r0, lr, ror #14
     9f8:	00000774 	andeq	r0, r0, r4, ror r7
     9fc:	007d0002 	rsbseq	r0, sp, r2
	...
     a08:	00000688 	andeq	r0, r0, r8, lsl #13
     a0c:	0000068a 	andeq	r0, r0, sl, lsl #13
     a10:	007d0002 	rsbseq	r0, sp, r2
     a14:	0000068a 	andeq	r0, r0, sl, lsl #13
     a18:	0000068c 	andeq	r0, r0, ip, lsl #13
     a1c:	087d0002 	ldmdaeq	sp!, {r1}^
     a20:	0000068c 	andeq	r0, r0, ip, lsl #13
     a24:	0000068e 	andeq	r0, r0, lr, lsl #13
     a28:	107d0002 	rsbsne	r0, sp, r2
     a2c:	0000068e 	andeq	r0, r0, lr, lsl #13
     a30:	000006de 	ldrdeq	r0, [r0], -lr
     a34:	10770002 	rsbsne	r0, r7, r2
     a38:	000006de 	ldrdeq	r0, [r0], -lr
     a3c:	000006e0 	andeq	r0, r0, r0, ror #13
     a40:	08770002 	ldmdaeq	r7!, {r1}^
     a44:	000006e0 	andeq	r0, r0, r0, ror #13
     a48:	000006e2 	andeq	r0, r0, r2, ror #13
     a4c:	087d0002 	ldmdaeq	sp!, {r1}^
	...
     a60:	007d0002 	rsbseq	r0, sp, r2
	...
     a6c:	047d0002 	ldrbteq	r0, [sp], #-2
	...
     a78:	107d0002 	rsbsne	r0, sp, r2
	...
     a84:	10770002 	rsbsne	r0, r7, r2
	...
     a90:	04770002 	ldrbteq	r0, [r7], #-2
	...
     a9c:	047d0002 	ldrbteq	r0, [sp], #-2
	...
     aa8:	007d0002 	rsbseq	r0, sp, r2
	...
     abc:	007d0002 	rsbseq	r0, sp, r2
	...
     ac8:	047d0002 	ldrbteq	r0, [sp], #-2
	...
     ad4:	107d0002 	rsbsne	r0, sp, r2
	...
     ae0:	10770002 	rsbsne	r0, r7, r2
	...
     aec:	04770002 	ldrbteq	r0, [r7], #-2
	...
     af8:	047d0002 	ldrbteq	r0, [sp], #-2
	...
     b04:	007d0002 	rsbseq	r0, sp, r2
	...
     b10:	00000608 	andeq	r0, r0, r8, lsl #12
     b14:	0000060a 	andeq	r0, r0, sl, lsl #12
     b18:	007d0002 	rsbseq	r0, sp, r2
     b1c:	0000060a 	andeq	r0, r0, sl, lsl #12
     b20:	0000060c 	andeq	r0, r0, ip, lsl #12
     b24:	047d0002 	ldrbteq	r0, [sp], #-2
     b28:	0000060c 	andeq	r0, r0, ip, lsl #12
     b2c:	0000060e 	andeq	r0, r0, lr, lsl #12
     b30:	107d0002 	rsbsne	r0, sp, r2
     b34:	0000060e 	andeq	r0, r0, lr, lsl #12
     b38:	00000674 	andeq	r0, r0, r4, ror r6
     b3c:	10770002 	rsbsne	r0, r7, r2
     b40:	00000674 	andeq	r0, r0, r4, ror r6
     b44:	00000676 	andeq	r0, r0, r6, ror r6
     b48:	04770002 	ldrbteq	r0, [r7], #-2
     b4c:	00000676 	andeq	r0, r0, r6, ror r6
     b50:	00000678 	andeq	r0, r0, r8, ror r6
     b54:	047d0002 	ldrbteq	r0, [sp], #-2
     b58:	00000678 	andeq	r0, r0, r8, ror r6
     b5c:	00000688 	andeq	r0, r0, r8, lsl #13
     b60:	007d0002 	rsbseq	r0, sp, r2
	...
     b6c:	00000578 	andeq	r0, r0, r8, ror r5
     b70:	0000057a 	andeq	r0, r0, sl, ror r5
     b74:	007d0002 	rsbseq	r0, sp, r2
     b78:	0000057a 	andeq	r0, r0, sl, ror r5
     b7c:	0000057c 	andeq	r0, r0, ip, ror r5
     b80:	047d0002 	ldrbteq	r0, [sp], #-2
     b84:	0000057c 	andeq	r0, r0, ip, ror r5
     b88:	0000057e 	andeq	r0, r0, lr, ror r5
     b8c:	107d0002 	rsbsne	r0, sp, r2
     b90:	0000057e 	andeq	r0, r0, lr, ror r5
     b94:	000005fe 	strdeq	r0, [r0], -lr
     b98:	10770002 	rsbsne	r0, r7, r2
     b9c:	000005fe 	strdeq	r0, [r0], -lr
     ba0:	00000600 	andeq	r0, r0, r0, lsl #12
     ba4:	04770002 	ldrbteq	r0, [r7], #-2
     ba8:	00000600 	andeq	r0, r0, r0, lsl #12
     bac:	00000602 	andeq	r0, r0, r2, lsl #12
     bb0:	047d0002 	ldrbteq	r0, [sp], #-2
     bb4:	00000602 	andeq	r0, r0, r2, lsl #12
     bb8:	00000608 	andeq	r0, r0, r8, lsl #12
     bbc:	007d0002 	rsbseq	r0, sp, r2
	...
     bd0:	007d0002 	rsbseq	r0, sp, r2
	...
     bdc:	047d0002 	ldrbteq	r0, [sp], #-2
	...
     be8:	107d0002 	rsbsne	r0, sp, r2
	...
     bf4:	10770002 	rsbsne	r0, r7, r2
	...
     c00:	04770002 	ldrbteq	r0, [r7], #-2
	...
     c0c:	047d0002 	ldrbteq	r0, [sp], #-2
	...
     c18:	007d0002 	rsbseq	r0, sp, r2
	...
     c2c:	007d0002 	rsbseq	r0, sp, r2
	...
     c38:	047d0002 	ldrbteq	r0, [sp], #-2
	...
     c44:	107d0002 	rsbsne	r0, sp, r2
	...
     c50:	10770002 	rsbsne	r0, r7, r2
	...
     c5c:	04770002 	ldrbteq	r0, [r7], #-2
	...
     c68:	047d0002 	ldrbteq	r0, [sp], #-2
	...
     c74:	007d0002 	rsbseq	r0, sp, r2
	...
     c88:	007d0002 	rsbseq	r0, sp, r2
	...
     c94:	047d0002 	ldrbteq	r0, [sp], #-2
	...
     ca0:	107d0002 	rsbsne	r0, sp, r2
	...
     cac:	10770002 	rsbsne	r0, r7, r2
	...
     cb8:	04770002 	ldrbteq	r0, [r7], #-2
	...
     cc4:	047d0002 	ldrbteq	r0, [sp], #-2
	...
     cd0:	007d0002 	rsbseq	r0, sp, r2
	...
     ce4:	007d0002 	rsbseq	r0, sp, r2
	...
     cf0:	047d0002 	ldrbteq	r0, [sp], #-2
	...
     cfc:	107d0002 	rsbsne	r0, sp, r2
	...
     d08:	10770002 	rsbsne	r0, r7, r2
	...
     d14:	04770002 	ldrbteq	r0, [r7], #-2
	...
     d20:	047d0002 	ldrbteq	r0, [sp], #-2
	...
     d2c:	007d0002 	rsbseq	r0, sp, r2
	...
     d38:	000004e8 	andeq	r0, r0, r8, ror #9
     d3c:	000004ea 	andeq	r0, r0, sl, ror #9
     d40:	007d0002 	rsbseq	r0, sp, r2
     d44:	000004ea 	andeq	r0, r0, sl, ror #9
     d48:	000004ec 	andeq	r0, r0, ip, ror #9
     d4c:	047d0002 	ldrbteq	r0, [sp], #-2
     d50:	000004ec 	andeq	r0, r0, ip, ror #9
     d54:	000004ee 	andeq	r0, r0, lr, ror #9
     d58:	107d0002 	rsbsne	r0, sp, r2
     d5c:	000004ee 	andeq	r0, r0, lr, ror #9
     d60:	0000056e 	andeq	r0, r0, lr, ror #10
     d64:	10770002 	rsbsne	r0, r7, r2
     d68:	0000056e 	andeq	r0, r0, lr, ror #10
     d6c:	00000570 	andeq	r0, r0, r0, ror r5
     d70:	04770002 	ldrbteq	r0, [r7], #-2
     d74:	00000570 	andeq	r0, r0, r0, ror r5
     d78:	00000572 	andeq	r0, r0, r2, ror r5
     d7c:	047d0002 	ldrbteq	r0, [sp], #-2
     d80:	00000572 	andeq	r0, r0, r2, ror r5
     d84:	00000578 	andeq	r0, r0, r8, ror r5
     d88:	007d0002 	rsbseq	r0, sp, r2
	...
     d94:	00000458 	andeq	r0, r0, r8, asr r4
     d98:	0000045a 	andeq	r0, r0, sl, asr r4
     d9c:	007d0002 	rsbseq	r0, sp, r2
     da0:	0000045a 	andeq	r0, r0, sl, asr r4
     da4:	0000045c 	andeq	r0, r0, ip, asr r4
     da8:	047d0002 	ldrbteq	r0, [sp], #-2
     dac:	0000045c 	andeq	r0, r0, ip, asr r4
     db0:	0000045e 	andeq	r0, r0, lr, asr r4
     db4:	107d0002 	rsbsne	r0, sp, r2
     db8:	0000045e 	andeq	r0, r0, lr, asr r4
     dbc:	000004de 	ldrdeq	r0, [r0], -lr
     dc0:	10770002 	rsbsne	r0, r7, r2
     dc4:	000004de 	ldrdeq	r0, [r0], -lr
     dc8:	000004e0 	andeq	r0, r0, r0, ror #9
     dcc:	04770002 	ldrbteq	r0, [r7], #-2
     dd0:	000004e0 	andeq	r0, r0, r0, ror #9
     dd4:	000004e2 	andeq	r0, r0, r2, ror #9
     dd8:	047d0002 	ldrbteq	r0, [sp], #-2
     ddc:	000004e2 	andeq	r0, r0, r2, ror #9
     de0:	000004e8 	andeq	r0, r0, r8, ror #9
     de4:	007d0002 	rsbseq	r0, sp, r2
	...
     df0:	000003f8 	strdeq	r0, [r0], -r8
     df4:	000003fa 	strdeq	r0, [r0], -sl
     df8:	007d0002 	rsbseq	r0, sp, r2
     dfc:	000003fa 	strdeq	r0, [r0], -sl
     e00:	000003fc 	strdeq	r0, [r0], -ip
     e04:	047d0002 	ldrbteq	r0, [sp], #-2
     e08:	000003fc 	strdeq	r0, [r0], -ip
     e0c:	000003fe 	strdeq	r0, [r0], -lr
     e10:	107d0002 	rsbsne	r0, sp, r2
     e14:	000003fe 	strdeq	r0, [r0], -lr
     e18:	0000044e 	andeq	r0, r0, lr, asr #8
     e1c:	10770002 	rsbsne	r0, r7, r2
     e20:	0000044e 	andeq	r0, r0, lr, asr #8
     e24:	00000450 	andeq	r0, r0, r0, asr r4
     e28:	04770002 	ldrbteq	r0, [r7], #-2
     e2c:	00000450 	andeq	r0, r0, r0, asr r4
     e30:	00000452 	andeq	r0, r0, r2, asr r4
     e34:	047d0002 	ldrbteq	r0, [sp], #-2
     e38:	00000452 	andeq	r0, r0, r2, asr r4
     e3c:	00000458 	andeq	r0, r0, r8, asr r4
     e40:	007d0002 	rsbseq	r0, sp, r2
	...
     e54:	007d0002 	rsbseq	r0, sp, r2
	...
     e60:	087d0002 	ldmdaeq	sp!, {r1}^
	...
     e6c:	08770002 	ldmdaeq	r7!, {r1}^
	...
     e80:	007d0002 	rsbseq	r0, sp, r2
	...
     e8c:	087d0002 	ldmdaeq	sp!, {r1}^
	...
     e98:	08770002 	ldmdaeq	r7!, {r1}^
	...
     eac:	007d0002 	rsbseq	r0, sp, r2
	...
     eb8:	087d0002 	ldmdaeq	sp!, {r1}^
	...
     ec4:	08770002 	ldmdaeq	r7!, {r1}^
	...
     ed8:	007d0002 	rsbseq	r0, sp, r2
	...
     ee4:	087d0002 	ldmdaeq	sp!, {r1}^
	...
     ef0:	08770002 	ldmdaeq	r7!, {r1}^
	...
     f04:	007d0002 	rsbseq	r0, sp, r2
	...
     f10:	087d0002 	ldmdaeq	sp!, {r1}^
	...
     f1c:	08770002 	ldmdaeq	r7!, {r1}^
	...
     f30:	007d0002 	rsbseq	r0, sp, r2
	...
     f3c:	087d0002 	ldmdaeq	sp!, {r1}^
	...
     f48:	08770002 	ldmdaeq	r7!, {r1}^
	...
     f5c:	007d0002 	rsbseq	r0, sp, r2
	...
     f68:	087d0002 	ldmdaeq	sp!, {r1}^
	...
     f74:	307d0002 	rsbscc	r0, sp, r2
	...
     f80:	30770002 	rsbscc	r0, r7, r2
	...
     f8c:	08770002 	ldmdaeq	r7!, {r1}^
	...
     f98:	087d0002 	ldmdaeq	sp!, {r1}^
	...
     fac:	007d0002 	rsbseq	r0, sp, r2
	...
     fb8:	087d0002 	ldmdaeq	sp!, {r1}^
	...
     fc4:	107d0002 	rsbsne	r0, sp, r2
	...
     fd0:	10770002 	rsbsne	r0, r7, r2
	...
     fdc:	08770002 	ldmdaeq	r7!, {r1}^
	...
     fe8:	087d0002 	ldmdaeq	sp!, {r1}^
	...
     ffc:	007d0002 	rsbseq	r0, sp, r2
	...
    1008:	087d0002 	ldmdaeq	sp!, {r1}^
	...
    1014:	287d0002 	ldmdacs	sp!, {r1}^
	...
    1020:	28770002 	ldmdacs	r7!, {r1}^
	...
    102c:	08770002 	ldmdaeq	r7!, {r1}^
	...
    1038:	087d0002 	ldmdaeq	sp!, {r1}^
	...
    104c:	007d0002 	rsbseq	r0, sp, r2
	...
    1058:	087d0002 	ldmdaeq	sp!, {r1}^
	...
    1064:	107d0002 	rsbsne	r0, sp, r2
	...
    1070:	10770002 	rsbsne	r0, r7, r2
	...
    107c:	08770002 	ldmdaeq	r7!, {r1}^
	...
    1088:	087d0002 	ldmdaeq	sp!, {r1}^
	...
    109c:	007d0002 	rsbseq	r0, sp, r2
	...
    10a8:	0c7d0002 	ldcleq	0, cr0, [sp], #-8
	...
    10b4:	187d0002 	ldmdane	sp!, {r1}^
	...
    10c0:	18770002 	ldmdane	r7!, {r1}^
	...
    10cc:	0c770002 	ldcleq	0, cr0, [r7], #-8
	...
    10d8:	0c7d0002 	ldcleq	0, cr0, [sp], #-8
	...
    10e4:	007d0002 	rsbseq	r0, sp, r2
	...
    10f8:	007d0002 	rsbseq	r0, sp, r2
	...
    1104:	0c7d0002 	ldcleq	0, cr0, [sp], #-8
	...
    1110:	187d0002 	ldmdane	sp!, {r1}^
	...
    111c:	18770002 	ldmdane	r7!, {r1}^
	...
    1128:	0c770002 	ldcleq	0, cr0, [r7], #-8
	...
    1134:	0c7d0002 	ldcleq	0, cr0, [sp], #-8
	...
    1140:	007d0002 	rsbseq	r0, sp, r2
	...
    1154:	007d0002 	rsbseq	r0, sp, r2
	...
    1160:	047d0002 	ldrbteq	r0, [sp], #-2
	...
    116c:	107d0002 	rsbsne	r0, sp, r2
	...
    1178:	10770002 	rsbsne	r0, r7, r2
	...
    1184:	04770002 	ldrbteq	r0, [r7], #-2
	...
    1190:	047d0002 	ldrbteq	r0, [sp], #-2
	...
    119c:	007d0002 	rsbseq	r0, sp, r2
	...
    11b0:	007d0002 	rsbseq	r0, sp, r2
	...
    11bc:	087d0002 	ldmdaeq	sp!, {r1}^
	...
    11c8:	107d0002 	rsbsne	r0, sp, r2
	...
    11d4:	10770002 	rsbsne	r0, r7, r2
	...
    11e0:	08770002 	ldmdaeq	r7!, {r1}^
	...
    11ec:	087d0002 	ldmdaeq	sp!, {r1}^
	...
    1200:	007d0002 	rsbseq	r0, sp, r2
	...
    120c:	087d0002 	ldmdaeq	sp!, {r1}^
	...
    1218:	107d0002 	rsbsne	r0, sp, r2
	...
    1224:	10770002 	rsbsne	r0, r7, r2
	...
    1230:	08770002 	ldmdaeq	r7!, {r1}^
	...
    123c:	087d0002 	ldmdaeq	sp!, {r1}^
	...
    1250:	007d0002 	rsbseq	r0, sp, r2
	...
    125c:	087d0002 	ldmdaeq	sp!, {r1}^
	...
    1268:	107d0002 	rsbsne	r0, sp, r2
	...
    1274:	10770002 	rsbsne	r0, r7, r2
	...
    1280:	08770002 	ldmdaeq	r7!, {r1}^
	...
    128c:	087d0002 	ldmdaeq	sp!, {r1}^
	...
    12a0:	007d0002 	rsbseq	r0, sp, r2
	...
    12ac:	087d0002 	ldmdaeq	sp!, {r1}^
	...
    12b8:	107d0002 	rsbsne	r0, sp, r2
	...
    12c4:	10770002 	rsbsne	r0, r7, r2
	...
    12d0:	08770002 	ldmdaeq	r7!, {r1}^
	...
    12dc:	087d0002 	ldmdaeq	sp!, {r1}^
	...
    12f0:	007d0002 	rsbseq	r0, sp, r2
	...
    12fc:	087d0002 	ldmdaeq	sp!, {r1}^
	...
    1308:	107d0002 	rsbsne	r0, sp, r2
	...
    1314:	10770002 	rsbsne	r0, r7, r2
	...
    1320:	08770002 	ldmdaeq	r7!, {r1}^
	...
    132c:	087d0002 	ldmdaeq	sp!, {r1}^
	...
    1340:	007d0002 	rsbseq	r0, sp, r2
	...
    134c:	087d0002 	ldmdaeq	sp!, {r1}^
	...
    1358:	08770002 	ldmdaeq	r7!, {r1}^
	...
    136c:	007d0002 	rsbseq	r0, sp, r2
	...
    1378:	087d0002 	ldmdaeq	sp!, {r1}^
	...
    1384:	08770002 	ldmdaeq	r7!, {r1}^
	...
    1390:	00000824 	andeq	r0, r0, r4, lsr #16
    1394:	00000826 	andeq	r0, r0, r6, lsr #16
    1398:	007d0002 	rsbseq	r0, sp, r2
    139c:	00000826 	andeq	r0, r0, r6, lsr #16
    13a0:	00000828 	andeq	r0, r0, r8, lsr #16
    13a4:	087d0002 	ldmdaeq	sp!, {r1}^
    13a8:	00000828 	andeq	r0, r0, r8, lsr #16
    13ac:	0000082a 	andeq	r0, r0, sl, lsr #16
    13b0:	107d0002 	rsbsne	r0, sp, r2
    13b4:	0000082a 	andeq	r0, r0, sl, lsr #16
    13b8:	000008c0 	andeq	r0, r0, r0, asr #17
    13bc:	10770002 	rsbsne	r0, r7, r2
	...
    13d0:	007d0002 	rsbseq	r0, sp, r2
	...
    13dc:	047d0002 	ldrbteq	r0, [sp], #-2
	...
    13e8:	107d0002 	rsbsne	r0, sp, r2
	...
    13f4:	10770002 	rsbsne	r0, r7, r2
	...
    1400:	04770002 	ldrbteq	r0, [r7], #-2
	...
    140c:	047d0002 	ldrbteq	r0, [sp], #-2
	...
    1418:	007d0002 	rsbseq	r0, sp, r2
	...
    142c:	007d0002 	rsbseq	r0, sp, r2
	...
    1438:	047d0002 	ldrbteq	r0, [sp], #-2
	...
    1444:	187d0002 	ldmdane	sp!, {r1}^
	...
    1450:	18770002 	ldmdane	r7!, {r1}^
	...
    145c:	04770002 	ldrbteq	r0, [r7], #-2
	...
    1468:	047d0002 	ldrbteq	r0, [sp], #-2
	...
    1474:	007d0002 	rsbseq	r0, sp, r2
	...
    1488:	007d0002 	rsbseq	r0, sp, r2
	...
    1494:	047d0002 	ldrbteq	r0, [sp], #-2
	...
    14a0:	107d0002 	rsbsne	r0, sp, r2
	...
    14ac:	10770002 	rsbsne	r0, r7, r2
	...
    14b8:	04770002 	ldrbteq	r0, [r7], #-2
	...
    14c4:	047d0002 	ldrbteq	r0, [sp], #-2
	...
    14d0:	007d0002 	rsbseq	r0, sp, r2
	...
    14e4:	007d0002 	rsbseq	r0, sp, r2
	...
    14f0:	047d0002 	ldrbteq	r0, [sp], #-2
	...
    14fc:	187d0002 	ldmdane	sp!, {r1}^
	...
    1508:	18770002 	ldmdane	r7!, {r1}^
	...
    1514:	04770002 	ldrbteq	r0, [r7], #-2
	...
    1520:	047d0002 	ldrbteq	r0, [sp], #-2
	...
    152c:	007d0002 	rsbseq	r0, sp, r2
	...
    1540:	007d0002 	rsbseq	r0, sp, r2
	...
    154c:	047d0002 	ldrbteq	r0, [sp], #-2
	...
    1558:	187d0002 	ldmdane	sp!, {r1}^
	...
    1564:	18770002 	ldmdane	r7!, {r1}^
	...
    1570:	04770002 	ldrbteq	r0, [r7], #-2
	...
    157c:	047d0002 	ldrbteq	r0, [sp], #-2
	...
    1588:	007d0002 	rsbseq	r0, sp, r2
	...
    1594:	0000090c 	andeq	r0, r0, ip, lsl #18
    1598:	0000090e 	andeq	r0, r0, lr, lsl #18
    159c:	007d0002 	rsbseq	r0, sp, r2
    15a0:	0000090e 	andeq	r0, r0, lr, lsl #18
    15a4:	00000910 	andeq	r0, r0, r0, lsl r9
    15a8:	047d0002 	ldrbteq	r0, [sp], #-2
    15ac:	00000910 	andeq	r0, r0, r0, lsl r9
    15b0:	00000912 	andeq	r0, r0, r2, lsl r9
    15b4:	187d0002 	ldmdane	sp!, {r1}^
    15b8:	00000912 	andeq	r0, r0, r2, lsl r9
    15bc:	0000094e 	andeq	r0, r0, lr, asr #18
    15c0:	18770002 	ldmdane	r7!, {r1}^
    15c4:	0000094e 	andeq	r0, r0, lr, asr #18
    15c8:	00000950 	andeq	r0, r0, r0, asr r9
    15cc:	04770002 	ldrbteq	r0, [r7], #-2
    15d0:	00000950 	andeq	r0, r0, r0, asr r9
    15d4:	00000952 	andeq	r0, r0, r2, asr r9
    15d8:	047d0002 	ldrbteq	r0, [sp], #-2
    15dc:	00000952 	andeq	r0, r0, r2, asr r9
    15e0:	00000958 	andeq	r0, r0, r8, asr r9
    15e4:	007d0002 	rsbseq	r0, sp, r2
	...
    15f0:	000008c0 	andeq	r0, r0, r0, asr #17
    15f4:	000008c2 	andeq	r0, r0, r2, asr #17
    15f8:	007d0002 	rsbseq	r0, sp, r2
    15fc:	000008c2 	andeq	r0, r0, r2, asr #17
    1600:	000008c4 	andeq	r0, r0, r4, asr #17
    1604:	047d0002 	ldrbteq	r0, [sp], #-2
    1608:	000008c4 	andeq	r0, r0, r4, asr #17
    160c:	000008c6 	andeq	r0, r0, r6, asr #17
    1610:	187d0002 	ldmdane	sp!, {r1}^
    1614:	000008c6 	andeq	r0, r0, r6, asr #17
    1618:	00000900 	andeq	r0, r0, r0, lsl #18
    161c:	18770002 	ldmdane	r7!, {r1}^
    1620:	00000900 	andeq	r0, r0, r0, lsl #18
    1624:	00000902 	andeq	r0, r0, r2, lsl #18
    1628:	04770002 	ldrbteq	r0, [r7], #-2
    162c:	00000902 	andeq	r0, r0, r2, lsl #18
    1630:	00000904 	andeq	r0, r0, r4, lsl #18
    1634:	047d0002 	ldrbteq	r0, [sp], #-2
    1638:	00000904 	andeq	r0, r0, r4, lsl #18
    163c:	0000090c 	andeq	r0, r0, ip, lsl #18
    1640:	007d0002 	rsbseq	r0, sp, r2
	...
    164c:	00000964 	andeq	r0, r0, r4, ror #18
    1650:	00000966 	andeq	r0, r0, r6, ror #18
    1654:	007d0002 	rsbseq	r0, sp, r2
    1658:	00000966 	andeq	r0, r0, r6, ror #18
    165c:	00000968 	andeq	r0, r0, r8, ror #18
    1660:	087d0002 	ldmdaeq	sp!, {r1}^
    1664:	00000968 	andeq	r0, r0, r8, ror #18
    1668:	0000096a 	andeq	r0, r0, sl, ror #18
    166c:	207d0002 	rsbscs	r0, sp, r2
    1670:	0000096a 	andeq	r0, r0, sl, ror #18
    1674:	000009cc 	andeq	r0, r0, ip, asr #19
    1678:	20770002 	rsbscs	r0, r7, r2
    167c:	000009cc 	andeq	r0, r0, ip, asr #19
    1680:	000009ce 	andeq	r0, r0, lr, asr #19
    1684:	08770002 	ldmdaeq	r7!, {r1}^
    1688:	000009ce 	andeq	r0, r0, lr, asr #19
    168c:	000009e4 	andeq	r0, r0, r4, ror #19
    1690:	087d0002 	ldmdaeq	sp!, {r1}^
	...
    169c:	00000958 	andeq	r0, r0, r8, asr r9
    16a0:	0000095a 	andeq	r0, r0, sl, asr r9
    16a4:	007d0002 	rsbseq	r0, sp, r2
    16a8:	0000095a 	andeq	r0, r0, sl, asr r9
    16ac:	0000095c 	andeq	r0, r0, ip, asr r9
    16b0:	087d0002 	ldmdaeq	sp!, {r1}^
    16b4:	0000095c 	andeq	r0, r0, ip, asr r9
    16b8:	00000964 	andeq	r0, r0, r4, ror #18
    16bc:	08770002 	ldmdaeq	r7!, {r1}^
	...
    16d0:	007d0002 	rsbseq	r0, sp, r2
	...
    16dc:	047d0002 	ldrbteq	r0, [sp], #-2
	...
    16e8:	107d0002 	rsbsne	r0, sp, r2
	...
    16f4:	10770002 	rsbsne	r0, r7, r2
	...
    1700:	04770002 	ldrbteq	r0, [r7], #-2
	...
    170c:	047d0002 	ldrbteq	r0, [sp], #-2
	...
    1718:	007d0002 	rsbseq	r0, sp, r2
	...
    172c:	007d0002 	rsbseq	r0, sp, r2
	...
    1738:	087d0002 	ldmdaeq	sp!, {r1}^
	...
    1744:	187d0002 	ldmdane	sp!, {r1}^
	...
    1750:	18770002 	ldmdane	r7!, {r1}^
	...
    175c:	08770002 	ldmdaeq	r7!, {r1}^
	...
    1768:	087d0002 	ldmdaeq	sp!, {r1}^
	...
    177c:	007d0002 	rsbseq	r0, sp, r2
	...
    1788:	087d0002 	ldmdaeq	sp!, {r1}^
	...
    1794:	107d0002 	rsbsne	r0, sp, r2
	...
    17a0:	10770002 	rsbsne	r0, r7, r2
	...
    17ac:	08770002 	ldmdaeq	r7!, {r1}^
	...
    17b8:	087d0002 	ldmdaeq	sp!, {r1}^
	...
    17c4:	00000a2c 	andeq	r0, r0, ip, lsr #20
    17c8:	00000a2e 	andeq	r0, r0, lr, lsr #20
    17cc:	007d0002 	rsbseq	r0, sp, r2
    17d0:	00000a2e 	andeq	r0, r0, lr, lsr #20
    17d4:	00000a30 	andeq	r0, r0, r0, lsr sl
    17d8:	087d0002 	ldmdaeq	sp!, {r1}^
    17dc:	00000a30 	andeq	r0, r0, r0, lsr sl
    17e0:	00000a32 	andeq	r0, r0, r2, lsr sl
    17e4:	107d0002 	rsbsne	r0, sp, r2
    17e8:	00000a32 	andeq	r0, r0, r2, lsr sl
    17ec:	00000ab6 			; <UNDEFINED> instruction: 0x00000ab6
    17f0:	10770002 	rsbsne	r0, r7, r2
    17f4:	00000ab6 			; <UNDEFINED> instruction: 0x00000ab6
    17f8:	00000ab8 			; <UNDEFINED> instruction: 0x00000ab8
    17fc:	08770002 	ldmdaeq	r7!, {r1}^
    1800:	00000ab8 			; <UNDEFINED> instruction: 0x00000ab8
    1804:	00000ac8 	andeq	r0, r0, r8, asr #21
    1808:	087d0002 	ldmdaeq	sp!, {r1}^
	...
    1814:	000009e4 	andeq	r0, r0, r4, ror #19
    1818:	000009e6 	andeq	r0, r0, r6, ror #19
    181c:	007d0002 	rsbseq	r0, sp, r2
    1820:	000009e6 	andeq	r0, r0, r6, ror #19
    1824:	000009e8 	andeq	r0, r0, r8, ror #19
    1828:	047d0002 	ldrbteq	r0, [sp], #-2
    182c:	000009e8 	andeq	r0, r0, r8, ror #19
    1830:	00000a16 	andeq	r0, r0, r6, lsl sl
    1834:	04770002 	ldrbteq	r0, [r7], #-2
    1838:	00000a16 	andeq	r0, r0, r6, lsl sl
    183c:	00000a18 	andeq	r0, r0, r8, lsl sl
    1840:	047d0002 	ldrbteq	r0, [sp], #-2
    1844:	00000a18 	andeq	r0, r0, r8, lsl sl
    1848:	00000a2c 	andeq	r0, r0, ip, lsr #20
    184c:	007d0002 	rsbseq	r0, sp, r2
	...
    1860:	007d0002 	rsbseq	r0, sp, r2
	...
    186c:	047d0002 	ldrbteq	r0, [sp], #-2
	...
    1878:	107d0002 	rsbsne	r0, sp, r2
	...
    1884:	10770002 	rsbsne	r0, r7, r2
	...
    1890:	04770002 	ldrbteq	r0, [r7], #-2
	...
    189c:	047d0002 	ldrbteq	r0, [sp], #-2
	...
    18a8:	007d0002 	rsbseq	r0, sp, r2
	...
    18bc:	007d0002 	rsbseq	r0, sp, r2
	...
    18c8:	047d0002 	ldrbteq	r0, [sp], #-2
	...
    18d4:	107d0002 	rsbsne	r0, sp, r2
	...
    18e0:	10770002 	rsbsne	r0, r7, r2
	...
    18ec:	04770002 	ldrbteq	r0, [r7], #-2
	...
    18f8:	047d0002 	ldrbteq	r0, [sp], #-2
	...
    1904:	007d0002 	rsbseq	r0, sp, r2
	...
    1918:	007d0002 	rsbseq	r0, sp, r2
	...
    1924:	047d0002 	ldrbteq	r0, [sp], #-2
	...
    1930:	107d0002 	rsbsne	r0, sp, r2
	...
    193c:	10770002 	rsbsne	r0, r7, r2
	...
    1948:	04770002 	ldrbteq	r0, [r7], #-2
	...
    1954:	047d0002 	ldrbteq	r0, [sp], #-2
	...
    1960:	007d0002 	rsbseq	r0, sp, r2
	...
    196c:	00000b70 	andeq	r0, r0, r0, ror fp
    1970:	00000b72 	andeq	r0, r0, r2, ror fp
    1974:	007d0002 	rsbseq	r0, sp, r2
    1978:	00000b72 	andeq	r0, r0, r2, ror fp
    197c:	00000b74 	andeq	r0, r0, r4, ror fp
    1980:	087d0002 	ldmdaeq	sp!, {r1}^
    1984:	00000b74 	andeq	r0, r0, r4, ror fp
    1988:	00000b76 	andeq	r0, r0, r6, ror fp
    198c:	207d0002 	rsbscs	r0, sp, r2
    1990:	00000b76 	andeq	r0, r0, r6, ror fp
    1994:	00000bba 			; <UNDEFINED> instruction: 0x00000bba
    1998:	20770002 	rsbscs	r0, r7, r2
    199c:	00000bba 			; <UNDEFINED> instruction: 0x00000bba
    19a0:	00000bbc 			; <UNDEFINED> instruction: 0x00000bbc
    19a4:	08770002 	ldmdaeq	r7!, {r1}^
    19a8:	00000bbc 			; <UNDEFINED> instruction: 0x00000bbc
    19ac:	00000bc8 	andeq	r0, r0, r8, asr #23
    19b0:	087d0002 	ldmdaeq	sp!, {r1}^
	...
    19c4:	007d0002 	rsbseq	r0, sp, r2
	...
    19d0:	047d0002 	ldrbteq	r0, [sp], #-2
	...
    19dc:	107d0002 	rsbsne	r0, sp, r2
	...
    19e8:	10770002 	rsbsne	r0, r7, r2
	...
    19f4:	04770002 	ldrbteq	r0, [r7], #-2
	...
    1a00:	047d0002 	ldrbteq	r0, [sp], #-2
	...
    1a0c:	007d0002 	rsbseq	r0, sp, r2
	...
    1a20:	007d0002 	rsbseq	r0, sp, r2
	...
    1a2c:	087d0002 	ldmdaeq	sp!, {r1}^
	...
    1a38:	287d0002 	ldmdacs	sp!, {r1}^
	...
    1a44:	28770002 	ldmdacs	r7!, {r1}^
	...
    1a50:	08770002 	ldmdaeq	r7!, {r1}^
	...
    1a5c:	087d0002 	ldmdaeq	sp!, {r1}^
	...
    1a68:	00000b44 	andeq	r0, r0, r4, asr #22
    1a6c:	00000b46 	andeq	r0, r0, r6, asr #22
    1a70:	007d0002 	rsbseq	r0, sp, r2
    1a74:	00000b46 	andeq	r0, r0, r6, asr #22
    1a78:	00000b48 	andeq	r0, r0, r8, asr #22
    1a7c:	047d0002 	ldrbteq	r0, [sp], #-2
    1a80:	00000b48 	andeq	r0, r0, r8, asr #22
    1a84:	00000b4a 	andeq	r0, r0, sl, asr #22
    1a88:	107d0002 	rsbsne	r0, sp, r2
    1a8c:	00000b4a 	andeq	r0, r0, sl, asr #22
    1a90:	00000b64 	andeq	r0, r0, r4, ror #22
    1a94:	10770002 	rsbsne	r0, r7, r2
    1a98:	00000b64 	andeq	r0, r0, r4, ror #22
    1a9c:	00000b66 	andeq	r0, r0, r6, ror #22
    1aa0:	04770002 	ldrbteq	r0, [r7], #-2
    1aa4:	00000b66 	andeq	r0, r0, r6, ror #22
    1aa8:	00000b68 	andeq	r0, r0, r8, ror #22
    1aac:	047d0002 	ldrbteq	r0, [sp], #-2
    1ab0:	00000b68 	andeq	r0, r0, r8, ror #22
    1ab4:	00000b70 	andeq	r0, r0, r0, ror fp
    1ab8:	007d0002 	rsbseq	r0, sp, r2
	...
    1ac4:	00000b00 	andeq	r0, r0, r0, lsl #22
    1ac8:	00000b02 	andeq	r0, r0, r2, lsl #22
    1acc:	007d0002 	rsbseq	r0, sp, r2
    1ad0:	00000b02 	andeq	r0, r0, r2, lsl #22
    1ad4:	00000b04 	andeq	r0, r0, r4, lsl #22
    1ad8:	107d0002 	rsbsne	r0, sp, r2
    1adc:	00000b04 	andeq	r0, r0, r4, lsl #22
    1ae0:	00000b06 	andeq	r0, r0, r6, lsl #22
    1ae4:	187d0002 	ldmdane	sp!, {r1}^
    1ae8:	00000b06 	andeq	r0, r0, r6, lsl #22
    1aec:	00000b36 	andeq	r0, r0, r6, lsr fp
    1af0:	18770002 	ldmdane	r7!, {r1}^
    1af4:	00000b36 	andeq	r0, r0, r6, lsr fp
    1af8:	00000b38 	andeq	r0, r0, r8, lsr fp
    1afc:	10770002 	rsbsne	r0, r7, r2
    1b00:	00000b38 	andeq	r0, r0, r8, lsr fp
    1b04:	00000b44 	andeq	r0, r0, r4, asr #22
    1b08:	107d0002 	rsbsne	r0, sp, r2
	...
    1b14:	00000ae4 	andeq	r0, r0, r4, ror #21
    1b18:	00000ae6 	andeq	r0, r0, r6, ror #21
    1b1c:	007d0002 	rsbseq	r0, sp, r2
    1b20:	00000ae6 	andeq	r0, r0, r6, ror #21
    1b24:	00000ae8 	andeq	r0, r0, r8, ror #21
    1b28:	047d0002 	ldrbteq	r0, [sp], #-2
    1b2c:	00000ae8 	andeq	r0, r0, r8, ror #21
    1b30:	00000af6 	strdeq	r0, [r0], -r6
    1b34:	04770002 	ldrbteq	r0, [r7], #-2
    1b38:	00000af6 	strdeq	r0, [r0], -r6
    1b3c:	00000af8 	strdeq	r0, [r0], -r8
    1b40:	047d0002 	ldrbteq	r0, [sp], #-2
    1b44:	00000af8 	strdeq	r0, [r0], -r8
    1b48:	00000b00 	andeq	r0, r0, r0, lsl #22
    1b4c:	007d0002 	rsbseq	r0, sp, r2
	...
    1b58:	00000ac8 	andeq	r0, r0, r8, asr #21
    1b5c:	00000aca 	andeq	r0, r0, sl, asr #21
    1b60:	007d0002 	rsbseq	r0, sp, r2
    1b64:	00000aca 	andeq	r0, r0, sl, asr #21
    1b68:	00000acc 	andeq	r0, r0, ip, asr #21
    1b6c:	047d0002 	ldrbteq	r0, [sp], #-2
    1b70:	00000acc 	andeq	r0, r0, ip, asr #21
    1b74:	00000ada 	ldrdeq	r0, [r0], -sl
    1b78:	04770002 	ldrbteq	r0, [r7], #-2
    1b7c:	00000ada 	ldrdeq	r0, [r0], -sl
    1b80:	00000adc 	ldrdeq	r0, [r0], -ip
    1b84:	047d0002 	ldrbteq	r0, [sp], #-2
    1b88:	00000adc 	ldrdeq	r0, [r0], -ip
    1b8c:	00000ae4 	andeq	r0, r0, r4, ror #21
    1b90:	007d0002 	rsbseq	r0, sp, r2
	...
    1ba4:	007d0002 	rsbseq	r0, sp, r2
	...
    1bb0:	087d0002 	ldmdaeq	sp!, {r1}^
	...
    1bbc:	08770002 	ldmdaeq	r7!, {r1}^
	...
    1bd0:	007d0002 	rsbseq	r0, sp, r2
	...
    1bdc:	047d0002 	ldrbteq	r0, [sp], #-2
	...
    1be8:	107d0002 	rsbsne	r0, sp, r2
	...
    1bf4:	10770002 	rsbsne	r0, r7, r2
	...
    1c00:	04770002 	ldrbteq	r0, [r7], #-2
	...
    1c0c:	047d0002 	ldrbteq	r0, [sp], #-2
	...
    1c18:	007d0002 	rsbseq	r0, sp, r2
	...
    1c2c:	007d0002 	rsbseq	r0, sp, r2
	...
    1c38:	047d0002 	ldrbteq	r0, [sp], #-2
	...
    1c44:	107d0002 	rsbsne	r0, sp, r2
	...
    1c50:	10770002 	rsbsne	r0, r7, r2
	...
    1c5c:	04770002 	ldrbteq	r0, [r7], #-2
	...
    1c68:	047d0002 	ldrbteq	r0, [sp], #-2
	...
    1c74:	007d0002 	rsbseq	r0, sp, r2
	...
    1c88:	007d0002 	rsbseq	r0, sp, r2
	...
    1c94:	047d0002 	ldrbteq	r0, [sp], #-2
	...
    1ca0:	107d0002 	rsbsne	r0, sp, r2
	...
    1cac:	10770002 	rsbsne	r0, r7, r2
	...
    1cb8:	04770002 	ldrbteq	r0, [r7], #-2
	...
    1cc4:	047d0002 	ldrbteq	r0, [sp], #-2
	...
    1cd0:	007d0002 	rsbseq	r0, sp, r2
	...
    1ce4:	007d0002 	rsbseq	r0, sp, r2
	...
    1cf0:	047d0002 	ldrbteq	r0, [sp], #-2
	...
    1cfc:	107d0002 	rsbsne	r0, sp, r2
	...
    1d08:	10770002 	rsbsne	r0, r7, r2
	...
    1d14:	04770002 	ldrbteq	r0, [r7], #-2
	...
    1d20:	047d0002 	ldrbteq	r0, [sp], #-2
	...
    1d2c:	007d0002 	rsbseq	r0, sp, r2
	...
    1d40:	007d0002 	rsbseq	r0, sp, r2
	...
    1d4c:	047d0002 	ldrbteq	r0, [sp], #-2
	...
    1d58:	107d0002 	rsbsne	r0, sp, r2
	...
    1d64:	10770002 	rsbsne	r0, r7, r2
	...
    1d70:	04770002 	ldrbteq	r0, [r7], #-2
	...
    1d7c:	047d0002 	ldrbteq	r0, [sp], #-2
	...
    1d88:	007d0002 	rsbseq	r0, sp, r2
	...
    1d9c:	007d0002 	rsbseq	r0, sp, r2
	...
    1da8:	047d0002 	ldrbteq	r0, [sp], #-2
	...
    1db4:	107d0002 	rsbsne	r0, sp, r2
	...
    1dc0:	10770002 	rsbsne	r0, r7, r2
	...
    1dcc:	04770002 	ldrbteq	r0, [r7], #-2
	...
    1dd8:	047d0002 	ldrbteq	r0, [sp], #-2
	...
    1de4:	007d0002 	rsbseq	r0, sp, r2
	...
    1df8:	007d0002 	rsbseq	r0, sp, r2
	...
    1e04:	047d0002 	ldrbteq	r0, [sp], #-2
	...
    1e10:	107d0002 	rsbsne	r0, sp, r2
	...
    1e1c:	10770002 	rsbsne	r0, r7, r2
	...
    1e28:	04770002 	ldrbteq	r0, [r7], #-2
	...
    1e34:	047d0002 	ldrbteq	r0, [sp], #-2
	...
    1e40:	007d0002 	rsbseq	r0, sp, r2
	...
    1e54:	007d0002 	rsbseq	r0, sp, r2
	...
    1e60:	047d0002 	ldrbteq	r0, [sp], #-2
	...
    1e6c:	107d0002 	rsbsne	r0, sp, r2
	...
    1e78:	10770002 	rsbsne	r0, r7, r2
	...
    1e84:	04770002 	ldrbteq	r0, [r7], #-2
	...
    1e90:	047d0002 	ldrbteq	r0, [sp], #-2
	...
    1e9c:	007d0002 	rsbseq	r0, sp, r2
	...
    1eb0:	007d0002 	rsbseq	r0, sp, r2
	...
    1ebc:	087d0002 	ldmdaeq	sp!, {r1}^
	...
    1ec8:	107d0002 	rsbsne	r0, sp, r2
	...
    1ed4:	10770002 	rsbsne	r0, r7, r2
	...
    1ee0:	08770002 	ldmdaeq	r7!, {r1}^
	...
    1eec:	087d0002 	ldmdaeq	sp!, {r1}^
	...
    1f00:	007d0002 	rsbseq	r0, sp, r2
	...
    1f0c:	087d0002 	ldmdaeq	sp!, {r1}^
	...
    1f18:	107d0002 	rsbsne	r0, sp, r2
	...
    1f24:	10770002 	rsbsne	r0, r7, r2
	...
    1f30:	08770002 	ldmdaeq	r7!, {r1}^
	...
    1f3c:	087d0002 	ldmdaeq	sp!, {r1}^
	...
    1f50:	007d0002 	rsbseq	r0, sp, r2
	...
    1f5c:	087d0002 	ldmdaeq	sp!, {r1}^
	...
    1f68:	107d0002 	rsbsne	r0, sp, r2
	...
    1f74:	10770002 	rsbsne	r0, r7, r2
	...
    1f80:	08770002 	ldmdaeq	r7!, {r1}^
	...
    1f8c:	087d0002 	ldmdaeq	sp!, {r1}^
	...
    1fa0:	007d0002 	rsbseq	r0, sp, r2
	...
    1fac:	047d0002 	ldrbteq	r0, [sp], #-2
	...
    1fb8:	107d0002 	rsbsne	r0, sp, r2
	...
    1fc4:	10770002 	rsbsne	r0, r7, r2
	...
    1fd0:	04770002 	ldrbteq	r0, [r7], #-2
	...
    1fdc:	047d0002 	ldrbteq	r0, [sp], #-2
	...
    1fe8:	007d0002 	rsbseq	r0, sp, r2
	...
    1ffc:	007d0002 	rsbseq	r0, sp, r2
	...
    2008:	087d0002 	ldmdaeq	sp!, {r1}^
	...
    2014:	107d0002 	rsbsne	r0, sp, r2
	...
    2020:	10770002 	rsbsne	r0, r7, r2
	...
    202c:	08770002 	ldmdaeq	r7!, {r1}^
	...
    2038:	087d0002 	ldmdaeq	sp!, {r1}^
	...
    204c:	007d0002 	rsbseq	r0, sp, r2
	...
    2058:	087d0002 	ldmdaeq	sp!, {r1}^
	...
    2064:	107d0002 	rsbsne	r0, sp, r2
	...
    2070:	10770002 	rsbsne	r0, r7, r2
	...
    207c:	08770002 	ldmdaeq	r7!, {r1}^
	...
    2088:	087d0002 	ldmdaeq	sp!, {r1}^
	...
    209c:	007d0002 	rsbseq	r0, sp, r2
	...
    20a8:	087d0002 	ldmdaeq	sp!, {r1}^
	...
    20b4:	107d0002 	rsbsne	r0, sp, r2
	...
    20c0:	10770002 	rsbsne	r0, r7, r2
	...
    20cc:	08770002 	ldmdaeq	r7!, {r1}^
	...
    20d8:	087d0002 	ldmdaeq	sp!, {r1}^
	...
    20ec:	007d0002 	rsbseq	r0, sp, r2
	...
    20f8:	047d0002 	ldrbteq	r0, [sp], #-2
	...
    2104:	107d0002 	rsbsne	r0, sp, r2
	...
    2110:	10770002 	rsbsne	r0, r7, r2
	...
    211c:	04770002 	ldrbteq	r0, [r7], #-2
	...
    2128:	047d0002 	ldrbteq	r0, [sp], #-2
	...
    2134:	007d0002 	rsbseq	r0, sp, r2
	...
    2148:	007d0002 	rsbseq	r0, sp, r2
	...
    2154:	047d0002 	ldrbteq	r0, [sp], #-2
	...
    2160:	107d0002 	rsbsne	r0, sp, r2
	...
    216c:	10770002 	rsbsne	r0, r7, r2
	...
    2178:	04770002 	ldrbteq	r0, [r7], #-2
	...
    2184:	047d0002 	ldrbteq	r0, [sp], #-2
	...
    2190:	007d0002 	rsbseq	r0, sp, r2
	...
    21a4:	007d0002 	rsbseq	r0, sp, r2
	...
    21b0:	047d0002 	ldrbteq	r0, [sp], #-2
	...
    21bc:	107d0002 	rsbsne	r0, sp, r2
	...
    21c8:	10770002 	rsbsne	r0, r7, r2
	...
    21d4:	04770002 	ldrbteq	r0, [r7], #-2
	...
    21e0:	047d0002 	ldrbteq	r0, [sp], #-2
	...
    21ec:	007d0002 	rsbseq	r0, sp, r2
	...
    2200:	007d0002 	rsbseq	r0, sp, r2
	...
    220c:	087d0002 	ldmdaeq	sp!, {r1}^
	...
    2218:	107d0002 	rsbsne	r0, sp, r2
	...
    2224:	10770002 	rsbsne	r0, r7, r2
	...
    2230:	08770002 	ldmdaeq	r7!, {r1}^
	...
    223c:	087d0002 	ldmdaeq	sp!, {r1}^
	...
    2250:	007d0002 	rsbseq	r0, sp, r2
	...
    225c:	087d0002 	ldmdaeq	sp!, {r1}^
	...
    2268:	107d0002 	rsbsne	r0, sp, r2
	...
    2274:	10770002 	rsbsne	r0, r7, r2
	...
    2280:	08770002 	ldmdaeq	r7!, {r1}^
	...
    228c:	087d0002 	ldmdaeq	sp!, {r1}^
	...
    22a0:	007d0002 	rsbseq	r0, sp, r2
	...
    22ac:	087d0002 	ldmdaeq	sp!, {r1}^
	...
    22b8:	107d0002 	rsbsne	r0, sp, r2
	...
    22c4:	10770002 	rsbsne	r0, r7, r2
	...
    22d0:	08770002 	ldmdaeq	r7!, {r1}^
	...
    22dc:	087d0002 	ldmdaeq	sp!, {r1}^
	...
    22f0:	007d0002 	rsbseq	r0, sp, r2
	...
    22fc:	087d0002 	ldmdaeq	sp!, {r1}^
	...
    2308:	107d0002 	rsbsne	r0, sp, r2
	...
    2314:	10770002 	rsbsne	r0, r7, r2
	...
    2320:	08770002 	ldmdaeq	r7!, {r1}^
	...
    232c:	087d0002 	ldmdaeq	sp!, {r1}^
	...
    2340:	007d0002 	rsbseq	r0, sp, r2
	...
    234c:	087d0002 	ldmdaeq	sp!, {r1}^
	...
    2358:	107d0002 	rsbsne	r0, sp, r2
	...
    2364:	10770002 	rsbsne	r0, r7, r2
	...
    2370:	08770002 	ldmdaeq	r7!, {r1}^
	...
    237c:	087d0002 	ldmdaeq	sp!, {r1}^
	...
    2390:	007d0002 	rsbseq	r0, sp, r2
	...
    239c:	087d0002 	ldmdaeq	sp!, {r1}^
	...
    23a8:	107d0002 	rsbsne	r0, sp, r2
	...
    23b4:	10770002 	rsbsne	r0, r7, r2
	...
    23c0:	08770002 	ldmdaeq	r7!, {r1}^
	...
    23cc:	087d0002 	ldmdaeq	sp!, {r1}^
	...
    23e0:	007d0002 	rsbseq	r0, sp, r2
	...
    23ec:	087d0002 	ldmdaeq	sp!, {r1}^
	...
    23f8:	107d0002 	rsbsne	r0, sp, r2
	...
    2404:	10770002 	rsbsne	r0, r7, r2
	...
    2410:	08770002 	ldmdaeq	r7!, {r1}^
	...
    241c:	087d0002 	ldmdaeq	sp!, {r1}^
	...
    2430:	007d0002 	rsbseq	r0, sp, r2
	...
    243c:	087d0002 	ldmdaeq	sp!, {r1}^
	...
    2448:	107d0002 	rsbsne	r0, sp, r2
	...
    2454:	10770002 	rsbsne	r0, r7, r2
	...
    2460:	08770002 	ldmdaeq	r7!, {r1}^
	...
    246c:	087d0002 	ldmdaeq	sp!, {r1}^
	...
    2480:	007d0002 	rsbseq	r0, sp, r2
	...
    248c:	087d0002 	ldmdaeq	sp!, {r1}^
	...
    2498:	107d0002 	rsbsne	r0, sp, r2
	...
    24a4:	10770002 	rsbsne	r0, r7, r2
	...
    24b0:	08770002 	ldmdaeq	r7!, {r1}^
	...
    24bc:	087d0002 	ldmdaeq	sp!, {r1}^
	...

Disassembly of section .debug_aranges:

00000000 <.debug_aranges>:
   0:	000000bc 	strheq	r0, [r0], -ip
   4:	00000002 	andeq	r0, r0, r2
   8:	00040000 	andeq	r0, r4, r0
	...
  14:	00000020 	andeq	r0, r0, r0, lsr #32
  18:	00000000 	andeq	r0, r0, r0
  1c:	00000024 	andeq	r0, r0, r4, lsr #32
  20:	0000001c 	andeq	r0, r0, ip, lsl r0
  24:	00000038 	andeq	r0, r0, r8, lsr r0
  28:	00000054 	andeq	r0, r0, r4, asr r0
  2c:	0000008c 	andeq	r0, r0, ip, lsl #1
  30:	00000000 	andeq	r0, r0, r0
  34:	00000070 	andeq	r0, r0, r0, ror r0
  38:	00000000 	andeq	r0, r0, r0
  3c:	00000028 	andeq	r0, r0, r8, lsr #32
  40:	000000e0 	andeq	r0, r0, r0, ror #1
  44:	0000002c 	andeq	r0, r0, ip, lsr #32
  48:	0000010c 	andeq	r0, r0, ip, lsl #2
  4c:	00000158 	andeq	r0, r0, r8, asr r1
  50:	00000000 	andeq	r0, r0, r0
  54:	00000158 	andeq	r0, r0, r8, asr r1
  58:	00000264 	andeq	r0, r0, r4, ror #4
  5c:	00000058 	andeq	r0, r0, r8, asr r0
  60:	00000000 	andeq	r0, r0, r0
  64:	00000024 	andeq	r0, r0, r4, lsr #32
  68:	000002bc 			; <UNDEFINED> instruction: 0x000002bc
  6c:	00000038 	andeq	r0, r0, r8, lsr r0
  70:	000002f4 	strdeq	r0, [r0], -r4
  74:	00000054 	andeq	r0, r0, r4, asr r0
  78:	00000348 	andeq	r0, r0, r8, asr #6
  7c:	00000058 	andeq	r0, r0, r8, asr r0
  80:	000003a0 	andeq	r0, r0, r0, lsr #7
  84:	00000058 	andeq	r0, r0, r8, asr r0
  88:	00000000 	andeq	r0, r0, r0
  8c:	0000005c 	andeq	r0, r0, ip, asr r0
  90:	00000000 	andeq	r0, r0, r0
  94:	00000034 	andeq	r0, r0, r4, lsr r0
  98:	00000000 	andeq	r0, r0, r0
  9c:	00000060 	andeq	r0, r0, r0, rrx
  a0:	00000000 	andeq	r0, r0, r0
  a4:	00000060 	andeq	r0, r0, r0, rrx
  a8:	00000000 	andeq	r0, r0, r0
  ac:	00000024 	andeq	r0, r0, r4, lsr #32
  b0:	00000000 	andeq	r0, r0, r0
  b4:	00000024 	andeq	r0, r0, r4, lsr #32
	...
  c0:	00000014 	andeq	r0, r0, r4, lsl r0
  c4:	0fd10002 	svceq	0x00d10002
  c8:	00040000 	andeq	r0, r4, r0
	...
  d8:	000000ec 	andeq	r0, r0, ip, ror #1
  dc:	177f0002 	ldrbne	r0, [pc, -r2]!
  e0:	00040000 	andeq	r0, r4, r0
	...
  ec:	0000001c 	andeq	r0, r0, ip, lsl r0
  f0:	00000000 	andeq	r0, r0, r0
  f4:	0000001c 	andeq	r0, r0, ip, lsl r0
  f8:	00000000 	andeq	r0, r0, r0
  fc:	0000001c 	andeq	r0, r0, ip, lsl r0
 100:	00000000 	andeq	r0, r0, r0
 104:	0000001c 	andeq	r0, r0, ip, lsl r0
 108:	00000000 	andeq	r0, r0, r0
 10c:	0000001c 	andeq	r0, r0, ip, lsl r0
 110:	00000000 	andeq	r0, r0, r0
 114:	0000001c 	andeq	r0, r0, ip, lsl r0
 118:	000003f8 	strdeq	r0, [r0], -r8
 11c:	00000060 	andeq	r0, r0, r0, rrx
 120:	00000458 	andeq	r0, r0, r8, asr r4
 124:	00000090 	muleq	r0, r0, r0
 128:	000004e8 	andeq	r0, r0, r8, ror #9
 12c:	00000090 	muleq	r0, r0, r0
 130:	00000000 	andeq	r0, r0, r0
 134:	0000004c 	andeq	r0, r0, ip, asr #32
 138:	00000000 	andeq	r0, r0, r0
 13c:	00000090 	muleq	r0, r0, r0
 140:	00000000 	andeq	r0, r0, r0
 144:	00000028 	andeq	r0, r0, r8, lsr #32
 148:	00000000 	andeq	r0, r0, r0
 14c:	00000060 	andeq	r0, r0, r0, rrx
 150:	00000578 	andeq	r0, r0, r8, ror r5
 154:	00000090 	muleq	r0, r0, r0
 158:	00000608 	andeq	r0, r0, r8, lsl #12
 15c:	00000080 	andeq	r0, r0, r0, lsl #1
 160:	00000000 	andeq	r0, r0, r0
 164:	0000004c 	andeq	r0, r0, ip, asr #32
 168:	00000000 	andeq	r0, r0, r0
 16c:	00000090 	muleq	r0, r0, r0
 170:	00000688 	andeq	r0, r0, r8, lsl #13
 174:	0000005a 	andeq	r0, r0, sl, asr r0
 178:	000006e4 	andeq	r0, r0, r4, ror #13
 17c:	00000090 	muleq	r0, r0, r0
 180:	00000774 	andeq	r0, r0, r4, ror r7
 184:	0000004c 	andeq	r0, r0, ip, asr #32
 188:	000007c0 	andeq	r0, r0, r0, asr #15
 18c:	00000064 	andeq	r0, r0, r4, rrx
 190:	00000000 	andeq	r0, r0, r0
 194:	00000054 	andeq	r0, r0, r4, asr r0
 198:	00000000 	andeq	r0, r0, r0
 19c:	00000034 	andeq	r0, r0, r4, lsr r0
 1a0:	00000000 	andeq	r0, r0, r0
 1a4:	00000084 	andeq	r0, r0, r4, lsl #1
 1a8:	00000000 	andeq	r0, r0, r0
 1ac:	0000005a 	andeq	r0, r0, sl, asr r0
 1b0:	00000000 	andeq	r0, r0, r0
 1b4:	0000007a 	andeq	r0, r0, sl, ror r0
 1b8:	00000000 	andeq	r0, r0, r0
 1bc:	00000024 	andeq	r0, r0, r4, lsr #32
	...
 1c8:	00000014 	andeq	r0, r0, r4, lsl r0
 1cc:	27da0002 	ldrbcs	r0, [sl, r2]
 1d0:	00040000 	andeq	r0, r4, r0
	...
 1e0:	0000004c 	andeq	r0, r0, ip, asr #32
 1e4:	2c1b0002 	ldccs	0, cr0, [fp], {2}
 1e8:	00040000 	andeq	r0, r4, r0
	...
 1f4:	00000080 	andeq	r0, r0, r0, lsl #1
 1f8:	00000000 	andeq	r0, r0, r0
 1fc:	0000005c 	andeq	r0, r0, ip, asr r0
 200:	00000000 	andeq	r0, r0, r0
 204:	0000005c 	andeq	r0, r0, ip, asr r0
 208:	00000000 	andeq	r0, r0, r0
 20c:	00000124 	andeq	r0, r0, r4, lsr #2
 210:	00000000 	andeq	r0, r0, r0
 214:	000000b0 	strheq	r0, [r0], -r0	; <UNPREDICTABLE>
 218:	00000000 	andeq	r0, r0, r0
 21c:	000000b4 	strheq	r0, [r0], -r4
 220:	00000000 	andeq	r0, r0, r0
 224:	000000cc 	andeq	r0, r0, ip, asr #1
	...
 230:	00000014 	andeq	r0, r0, r4, lsl r0
 234:	37d60002 	ldrbcc	r0, [r6, r2]
 238:	00040000 	andeq	r0, r4, r0
	...
 248:	0000004c 	andeq	r0, r0, ip, asr #32
 24c:	3a770002 	bcc	1dc025c <UART_InterruptFIFOLevelSelect+0x1dbee1c>
 250:	00040000 	andeq	r0, r4, r0
	...
 25c:	0000001c 	andeq	r0, r0, ip, lsl r0
 260:	00000000 	andeq	r0, r0, r0
 264:	00000020 	andeq	r0, r0, r0, lsr #32
 268:	00000000 	andeq	r0, r0, r0
 26c:	00000026 	andeq	r0, r0, r6, lsr #32
 270:	00000000 	andeq	r0, r0, r0
 274:	00000026 	andeq	r0, r0, r6, lsr #32
 278:	00000000 	andeq	r0, r0, r0
 27c:	00000018 	andeq	r0, r0, r8, lsl r0
 280:	00000000 	andeq	r0, r0, r0
 284:	00000018 	andeq	r0, r0, r8, lsl r0
 288:	00000000 	andeq	r0, r0, r0
 28c:	00000028 	andeq	r0, r0, r8, lsr #32
	...
 298:	00000024 	andeq	r0, r0, r4, lsr #32
 29c:	3f270002 	svccc	0x00270002
 2a0:	00040000 	andeq	r0, r4, r0
	...
 2ac:	0000002a 	andeq	r0, r0, sl, lsr #32
 2b0:	00000824 	andeq	r0, r0, r4, lsr #16
 2b4:	0000009c 	muleq	r0, ip, r0
	...
 2c0:	00000044 	andeq	r0, r0, r4, asr #32
 2c4:	47ad0002 	strmi	r0, [sp, r2]!
 2c8:	00040000 	andeq	r0, r4, r0
 2cc:	00000000 	andeq	r0, r0, r0
 2d0:	000008c0 	andeq	r0, r0, r0, asr #17
 2d4:	0000004c 	andeq	r0, r0, ip, asr #32
 2d8:	0000090c 	andeq	r0, r0, ip, lsl #18
 2dc:	0000004c 	andeq	r0, r0, ip, asr #32
 2e0:	00000000 	andeq	r0, r0, r0
 2e4:	0000004c 	andeq	r0, r0, ip, asr #32
 2e8:	00000000 	andeq	r0, r0, r0
 2ec:	0000004c 	andeq	r0, r0, ip, asr #32
 2f0:	00000000 	andeq	r0, r0, r0
 2f4:	00000038 	andeq	r0, r0, r8, lsr r0
 2f8:	00000000 	andeq	r0, r0, r0
 2fc:	00000134 	andeq	r0, r0, r4, lsr r1
	...
 308:	00000024 	andeq	r0, r0, r4, lsr #32
 30c:	4c1c0002 	ldcmi	0, cr0, [ip], {2}
 310:	00040000 	andeq	r0, r4, r0
 314:	00000000 	andeq	r0, r0, r0
 318:	00000958 	andeq	r0, r0, r8, asr r9
 31c:	0000000c 	andeq	r0, r0, ip
 320:	00000964 	andeq	r0, r0, r4, ror #18
 324:	00000080 	andeq	r0, r0, r0, lsl #1
	...
 330:	0000004c 	andeq	r0, r0, ip, asr #32
 334:	4dd10002 	ldclmi	0, cr0, [r1, #8]
 338:	00040000 	andeq	r0, r4, r0
	...
 344:	00000030 	andeq	r0, r0, r0, lsr r0
 348:	00000000 	andeq	r0, r0, r0
 34c:	0000012c 	andeq	r0, r0, ip, lsr #2
 350:	000009e4 	andeq	r0, r0, r4, ror #19
 354:	00000048 	andeq	r0, r0, r8, asr #32
 358:	00000a2c 	andeq	r0, r0, ip, lsr #20
 35c:	0000009c 	muleq	r0, ip, r0
 360:	00000000 	andeq	r0, r0, r0
 364:	0000004c 	andeq	r0, r0, ip, asr #32
 368:	00000000 	andeq	r0, r0, r0
 36c:	00000048 	andeq	r0, r0, r8, asr #32
 370:	00000000 	andeq	r0, r0, r0
 374:	0000002c 	andeq	r0, r0, ip, lsr #32
	...
 380:	00000014 	andeq	r0, r0, r4, lsl r0
 384:	554a0002 	strbpl	r0, [sl, #-2]
 388:	00040000 	andeq	r0, r4, r0
	...
 398:	0000005c 	andeq	r0, r0, ip, asr r0
 39c:	58430002 	stmdapl	r3, {r1}^
 3a0:	00040000 	andeq	r0, r4, r0
	...
 3ac:	0000001c 	andeq	r0, r0, ip, lsl r0
 3b0:	00000ac8 	andeq	r0, r0, r8, asr #21
 3b4:	0000001c 	andeq	r0, r0, ip, lsl r0
 3b8:	00000ae4 	andeq	r0, r0, r4, ror #21
 3bc:	0000001c 	andeq	r0, r0, ip, lsl r0
 3c0:	00000b00 	andeq	r0, r0, r0, lsl #22
 3c4:	00000044 	andeq	r0, r0, r4, asr #32
 3c8:	00000b44 	andeq	r0, r0, r4, asr #22
 3cc:	0000002c 	andeq	r0, r0, ip, lsr #32
 3d0:	00000000 	andeq	r0, r0, r0
 3d4:	00000074 	andeq	r0, r0, r4, ror r0
 3d8:	00000000 	andeq	r0, r0, r0
 3dc:	0000001c 	andeq	r0, r0, ip, lsl r0
 3e0:	00000b70 	andeq	r0, r0, r0, ror fp
 3e4:	00000058 	andeq	r0, r0, r8, asr r0
 3e8:	00000000 	andeq	r0, r0, r0
 3ec:	0000001c 	andeq	r0, r0, ip, lsl r0
	...
 3f8:	000000ec 	andeq	r0, r0, ip, ror #1
 3fc:	5bd10002 	blpl	ff44040c <_E_BSS+0xdf43e618>
 400:	00040000 	andeq	r0, r4, r0
	...
 40c:	00000090 	muleq	r0, r0, r0
 410:	00000000 	andeq	r0, r0, r0
 414:	00000090 	muleq	r0, r0, r0
 418:	00000000 	andeq	r0, r0, r0
 41c:	00000090 	muleq	r0, r0, r0
 420:	00000000 	andeq	r0, r0, r0
 424:	00000090 	muleq	r0, r0, r0
 428:	00000000 	andeq	r0, r0, r0
 42c:	00000090 	muleq	r0, r0, r0
 430:	00000000 	andeq	r0, r0, r0
 434:	00000090 	muleq	r0, r0, r0
 438:	00000000 	andeq	r0, r0, r0
 43c:	00000090 	muleq	r0, r0, r0
 440:	00000000 	andeq	r0, r0, r0
 444:	00000090 	muleq	r0, r0, r0
 448:	00000000 	andeq	r0, r0, r0
 44c:	00000110 	andeq	r0, r0, r0, lsl r1
 450:	00000000 	andeq	r0, r0, r0
 454:	000000b8 	strheq	r0, [r0], -r8
 458:	00000000 	andeq	r0, r0, r0
 45c:	0000005c 	andeq	r0, r0, ip, asr r0
 460:	00000000 	andeq	r0, r0, r0
 464:	00000058 	andeq	r0, r0, r8, asr r0
 468:	00000000 	andeq	r0, r0, r0
 46c:	00000064 	andeq	r0, r0, r4, rrx
 470:	00000000 	andeq	r0, r0, r0
 474:	00000060 	andeq	r0, r0, r0, rrx
 478:	00000000 	andeq	r0, r0, r0
 47c:	00000098 	muleq	r0, r8, r0
 480:	00000000 	andeq	r0, r0, r0
 484:	0000003c 	andeq	r0, r0, ip, lsr r0
 488:	00000000 	andeq	r0, r0, r0
 48c:	00000054 	andeq	r0, r0, r4, asr r0
 490:	00000000 	andeq	r0, r0, r0
 494:	00000054 	andeq	r0, r0, r4, asr r0
 498:	00000000 	andeq	r0, r0, r0
 49c:	0000005c 	andeq	r0, r0, ip, asr r0
 4a0:	00000000 	andeq	r0, r0, r0
 4a4:	00000024 	andeq	r0, r0, r4, lsr #32
 4a8:	00000000 	andeq	r0, r0, r0
 4ac:	00000024 	andeq	r0, r0, r4, lsr #32
 4b0:	00000000 	andeq	r0, r0, r0
 4b4:	00000024 	andeq	r0, r0, r4, lsr #32
 4b8:	00000000 	andeq	r0, r0, r0
 4bc:	00000024 	andeq	r0, r0, r4, lsr #32
 4c0:	00000000 	andeq	r0, r0, r0
 4c4:	00000024 	andeq	r0, r0, r4, lsr #32
 4c8:	00000000 	andeq	r0, r0, r0
 4cc:	00000024 	andeq	r0, r0, r4, lsr #32
 4d0:	00000000 	andeq	r0, r0, r0
 4d4:	00000024 	andeq	r0, r0, r4, lsr #32
 4d8:	00000000 	andeq	r0, r0, r0
 4dc:	00000024 	andeq	r0, r0, r4, lsr #32
	...
 4e8:	00000014 	andeq	r0, r0, r4, lsl r0
 4ec:	75c40002 	strbvc	r0, [r4, #2]
 4f0:	00040000 	andeq	r0, r4, r0
	...

Disassembly of section .debug_ranges:

00000000 <.debug_ranges>:
   0:	00000001 	andeq	r0, r0, r1
   4:	00000001 	andeq	r0, r0, r1
   8:	00000001 	andeq	r0, r0, r1
   c:	00000001 	andeq	r0, r0, r1
  10:	0000001c 	andeq	r0, r0, ip, lsl r0
  14:	00000054 	andeq	r0, r0, r4, asr r0
  18:	00000054 	andeq	r0, r0, r4, asr r0
  1c:	000000e0 	andeq	r0, r0, r0, ror #1
  20:	00000001 	andeq	r0, r0, r1
  24:	00000001 	andeq	r0, r0, r1
  28:	00000001 	andeq	r0, r0, r1
  2c:	00000001 	andeq	r0, r0, r1
  30:	000000e0 	andeq	r0, r0, r0, ror #1
  34:	0000010c 	andeq	r0, r0, ip, lsl #2
  38:	0000010c 	andeq	r0, r0, ip, lsl #2
  3c:	00000264 	andeq	r0, r0, r4, ror #4
  40:	00000001 	andeq	r0, r0, r1
  44:	00000001 	andeq	r0, r0, r1
  48:	00000264 	andeq	r0, r0, r4, ror #4
  4c:	000002bc 			; <UNDEFINED> instruction: 0x000002bc
  50:	00000001 	andeq	r0, r0, r1
  54:	00000001 	andeq	r0, r0, r1
  58:	000002bc 			; <UNDEFINED> instruction: 0x000002bc
  5c:	000002f4 	strdeq	r0, [r0], -r4
  60:	000002f4 	strdeq	r0, [r0], -r4
  64:	00000348 	andeq	r0, r0, r8, asr #6
  68:	00000348 	andeq	r0, r0, r8, asr #6
  6c:	000003a0 	andeq	r0, r0, r0, lsr #7
  70:	000003a0 	andeq	r0, r0, r0, lsr #7
  74:	000003f8 	strdeq	r0, [r0], -r8
  78:	00000001 	andeq	r0, r0, r1
  7c:	00000001 	andeq	r0, r0, r1
  80:	00000001 	andeq	r0, r0, r1
  84:	00000001 	andeq	r0, r0, r1
  88:	00000001 	andeq	r0, r0, r1
  8c:	00000001 	andeq	r0, r0, r1
  90:	00000001 	andeq	r0, r0, r1
  94:	00000001 	andeq	r0, r0, r1
  98:	00000001 	andeq	r0, r0, r1
  9c:	00000001 	andeq	r0, r0, r1
  a0:	00000001 	andeq	r0, r0, r1
  a4:	00000001 	andeq	r0, r0, r1
	...
  b0:	00000001 	andeq	r0, r0, r1
  b4:	00000001 	andeq	r0, r0, r1
  b8:	00000001 	andeq	r0, r0, r1
  bc:	00000001 	andeq	r0, r0, r1
  c0:	00000001 	andeq	r0, r0, r1
  c4:	00000001 	andeq	r0, r0, r1
  c8:	00000001 	andeq	r0, r0, r1
  cc:	00000001 	andeq	r0, r0, r1
  d0:	00000001 	andeq	r0, r0, r1
  d4:	00000001 	andeq	r0, r0, r1
  d8:	00000001 	andeq	r0, r0, r1
  dc:	00000001 	andeq	r0, r0, r1
  e0:	000003f8 	strdeq	r0, [r0], -r8
  e4:	00000458 	andeq	r0, r0, r8, asr r4
  e8:	00000458 	andeq	r0, r0, r8, asr r4
  ec:	000004e8 	andeq	r0, r0, r8, ror #9
  f0:	000004e8 	andeq	r0, r0, r8, ror #9
  f4:	00000578 	andeq	r0, r0, r8, ror r5
  f8:	00000001 	andeq	r0, r0, r1
  fc:	00000001 	andeq	r0, r0, r1
 100:	00000001 	andeq	r0, r0, r1
 104:	00000001 	andeq	r0, r0, r1
 108:	00000001 	andeq	r0, r0, r1
 10c:	00000001 	andeq	r0, r0, r1
 110:	00000001 	andeq	r0, r0, r1
 114:	00000001 	andeq	r0, r0, r1
 118:	00000578 	andeq	r0, r0, r8, ror r5
 11c:	00000608 	andeq	r0, r0, r8, lsl #12
 120:	00000608 	andeq	r0, r0, r8, lsl #12
 124:	00000688 	andeq	r0, r0, r8, lsl #13
 128:	00000001 	andeq	r0, r0, r1
 12c:	00000001 	andeq	r0, r0, r1
 130:	00000001 	andeq	r0, r0, r1
 134:	00000001 	andeq	r0, r0, r1
 138:	00000688 	andeq	r0, r0, r8, lsl #13
 13c:	000006e2 	andeq	r0, r0, r2, ror #13
 140:	000006e4 	andeq	r0, r0, r4, ror #13
 144:	00000774 	andeq	r0, r0, r4, ror r7
 148:	00000774 	andeq	r0, r0, r4, ror r7
 14c:	000007c0 	andeq	r0, r0, r0, asr #15
 150:	000007c0 	andeq	r0, r0, r0, asr #15
 154:	00000824 	andeq	r0, r0, r4, lsr #16
 158:	00000001 	andeq	r0, r0, r1
 15c:	00000001 	andeq	r0, r0, r1
 160:	00000001 	andeq	r0, r0, r1
 164:	00000001 	andeq	r0, r0, r1
 168:	00000001 	andeq	r0, r0, r1
 16c:	00000001 	andeq	r0, r0, r1
 170:	00000001 	andeq	r0, r0, r1
 174:	00000001 	andeq	r0, r0, r1
 178:	00000001 	andeq	r0, r0, r1
 17c:	00000001 	andeq	r0, r0, r1
 180:	00000001 	andeq	r0, r0, r1
 184:	00000001 	andeq	r0, r0, r1
	...
 190:	00000001 	andeq	r0, r0, r1
 194:	00000001 	andeq	r0, r0, r1
 198:	00000001 	andeq	r0, r0, r1
 19c:	00000001 	andeq	r0, r0, r1
 1a0:	00000001 	andeq	r0, r0, r1
 1a4:	00000001 	andeq	r0, r0, r1
 1a8:	00000001 	andeq	r0, r0, r1
 1ac:	00000001 	andeq	r0, r0, r1
 1b0:	00000001 	andeq	r0, r0, r1
 1b4:	00000001 	andeq	r0, r0, r1
 1b8:	00000001 	andeq	r0, r0, r1
 1bc:	00000001 	andeq	r0, r0, r1
 1c0:	00000001 	andeq	r0, r0, r1
 1c4:	00000001 	andeq	r0, r0, r1
	...
 1d0:	00000001 	andeq	r0, r0, r1
 1d4:	00000001 	andeq	r0, r0, r1
 1d8:	00000001 	andeq	r0, r0, r1
 1dc:	00000001 	andeq	r0, r0, r1
 1e0:	00000001 	andeq	r0, r0, r1
 1e4:	00000001 	andeq	r0, r0, r1
 1e8:	00000001 	andeq	r0, r0, r1
 1ec:	00000001 	andeq	r0, r0, r1
 1f0:	00000001 	andeq	r0, r0, r1
 1f4:	00000001 	andeq	r0, r0, r1
 1f8:	00000001 	andeq	r0, r0, r1
 1fc:	00000001 	andeq	r0, r0, r1
 200:	00000001 	andeq	r0, r0, r1
 204:	00000001 	andeq	r0, r0, r1
	...
 210:	00000001 	andeq	r0, r0, r1
 214:	00000001 	andeq	r0, r0, r1
 218:	00000824 	andeq	r0, r0, r4, lsr #16
 21c:	000008c0 	andeq	r0, r0, r0, asr #17
	...
 228:	000008c0 	andeq	r0, r0, r0, asr #17
 22c:	0000090c 	andeq	r0, r0, ip, lsl #18
 230:	0000090c 	andeq	r0, r0, ip, lsl #18
 234:	00000958 	andeq	r0, r0, r8, asr r9
 238:	00000001 	andeq	r0, r0, r1
 23c:	00000001 	andeq	r0, r0, r1
 240:	00000001 	andeq	r0, r0, r1
 244:	00000001 	andeq	r0, r0, r1
 248:	00000001 	andeq	r0, r0, r1
 24c:	00000001 	andeq	r0, r0, r1
 250:	00000001 	andeq	r0, r0, r1
 254:	00000001 	andeq	r0, r0, r1
	...
 260:	00000958 	andeq	r0, r0, r8, asr r9
 264:	00000964 	andeq	r0, r0, r4, ror #18
 268:	00000964 	andeq	r0, r0, r4, ror #18
 26c:	000009e4 	andeq	r0, r0, r4, ror #19
	...
 278:	00000001 	andeq	r0, r0, r1
 27c:	00000001 	andeq	r0, r0, r1
 280:	00000001 	andeq	r0, r0, r1
 284:	00000001 	andeq	r0, r0, r1
 288:	000009e4 	andeq	r0, r0, r4, ror #19
 28c:	00000a2c 	andeq	r0, r0, ip, lsr #20
 290:	00000a2c 	andeq	r0, r0, ip, lsr #20
 294:	00000ac8 	andeq	r0, r0, r8, asr #21
 298:	00000001 	andeq	r0, r0, r1
 29c:	00000001 	andeq	r0, r0, r1
 2a0:	00000001 	andeq	r0, r0, r1
 2a4:	00000001 	andeq	r0, r0, r1
 2a8:	00000001 	andeq	r0, r0, r1
 2ac:	00000001 	andeq	r0, r0, r1
	...
 2b8:	00000001 	andeq	r0, r0, r1
 2bc:	00000001 	andeq	r0, r0, r1
 2c0:	00000ac8 	andeq	r0, r0, r8, asr #21
 2c4:	00000ae4 	andeq	r0, r0, r4, ror #21
 2c8:	00000ae4 	andeq	r0, r0, r4, ror #21
 2cc:	00000b00 	andeq	r0, r0, r0, lsl #22
 2d0:	00000b00 	andeq	r0, r0, r0, lsl #22
 2d4:	00000b44 	andeq	r0, r0, r4, asr #22
 2d8:	00000b44 	andeq	r0, r0, r4, asr #22
 2dc:	00000b70 	andeq	r0, r0, r0, ror fp
 2e0:	00000001 	andeq	r0, r0, r1
 2e4:	00000001 	andeq	r0, r0, r1
 2e8:	00000001 	andeq	r0, r0, r1
 2ec:	00000001 	andeq	r0, r0, r1
 2f0:	00000b70 	andeq	r0, r0, r0, ror fp
 2f4:	00000bc8 	andeq	r0, r0, r8, asr #23
 2f8:	00000001 	andeq	r0, r0, r1
 2fc:	00000001 	andeq	r0, r0, r1
	...
 308:	00000001 	andeq	r0, r0, r1
 30c:	00000001 	andeq	r0, r0, r1
 310:	00000001 	andeq	r0, r0, r1
 314:	00000001 	andeq	r0, r0, r1
 318:	00000001 	andeq	r0, r0, r1
 31c:	00000001 	andeq	r0, r0, r1
 320:	00000001 	andeq	r0, r0, r1
 324:	00000001 	andeq	r0, r0, r1
 328:	00000001 	andeq	r0, r0, r1
 32c:	00000001 	andeq	r0, r0, r1
 330:	00000001 	andeq	r0, r0, r1
 334:	00000001 	andeq	r0, r0, r1
 338:	00000001 	andeq	r0, r0, r1
 33c:	00000001 	andeq	r0, r0, r1
 340:	00000001 	andeq	r0, r0, r1
 344:	00000001 	andeq	r0, r0, r1
 348:	00000001 	andeq	r0, r0, r1
 34c:	00000001 	andeq	r0, r0, r1
 350:	00000001 	andeq	r0, r0, r1
 354:	00000001 	andeq	r0, r0, r1
 358:	00000001 	andeq	r0, r0, r1
 35c:	00000001 	andeq	r0, r0, r1
 360:	00000001 	andeq	r0, r0, r1
 364:	00000001 	andeq	r0, r0, r1
 368:	00000001 	andeq	r0, r0, r1
 36c:	00000001 	andeq	r0, r0, r1
 370:	00000001 	andeq	r0, r0, r1
 374:	00000001 	andeq	r0, r0, r1
 378:	00000001 	andeq	r0, r0, r1
 37c:	00000001 	andeq	r0, r0, r1
 380:	00000001 	andeq	r0, r0, r1
 384:	00000001 	andeq	r0, r0, r1
 388:	00000001 	andeq	r0, r0, r1
 38c:	00000001 	andeq	r0, r0, r1
 390:	00000001 	andeq	r0, r0, r1
 394:	00000001 	andeq	r0, r0, r1
 398:	00000001 	andeq	r0, r0, r1
 39c:	00000001 	andeq	r0, r0, r1
 3a0:	00000001 	andeq	r0, r0, r1
 3a4:	00000001 	andeq	r0, r0, r1
 3a8:	00000001 	andeq	r0, r0, r1
 3ac:	00000001 	andeq	r0, r0, r1
 3b0:	00000001 	andeq	r0, r0, r1
 3b4:	00000001 	andeq	r0, r0, r1
 3b8:	00000001 	andeq	r0, r0, r1
 3bc:	00000001 	andeq	r0, r0, r1
 3c0:	00000001 	andeq	r0, r0, r1
 3c4:	00000001 	andeq	r0, r0, r1
 3c8:	00000001 	andeq	r0, r0, r1
 3cc:	00000001 	andeq	r0, r0, r1
 3d0:	00000001 	andeq	r0, r0, r1
 3d4:	00000001 	andeq	r0, r0, r1
 3d8:	00000001 	andeq	r0, r0, r1
 3dc:	00000001 	andeq	r0, r0, r1
	...

Disassembly of section .debug_line:

00000000 <.debug_line>:
       0:	0000050c 	andeq	r0, r0, ip, lsl #10
       4:	00540003 	subseq	r0, r4, r3
       8:	01020000 	mrseq	r0, (UNDEF: 2)
       c:	000d0efb 	strdeq	r0, [sp], -fp
      10:	01010101 	tsteq	r1, r1, lsl #2
      14:	01000000 	mrseq	r0, (UNDEF: 0)
      18:	00010000 	andeq	r0, r1, r0
      1c:	2e414d44 	cdpcs	13, 4, cr4, cr1, cr4, {2}
      20:	00000063 	andeq	r0, r0, r3, rrx
      24:	74736c00 	ldrbtvc	r6, [r3], #-3072	; 0xfffff400
      28:	00682e64 	rsbeq	r2, r8, r4, ror #28
      2c:	44000000 	strmi	r0, [r0], #-0
      30:	725f414d 	subsvc	r4, pc, #1073741843	; 0x40000013
      34:	682e6765 	stmdavs	lr!, {r0, r2, r5, r6, r8, r9, sl, sp, lr}
      38:	00000000 	andeq	r0, r0, r0
      3c:	5f414d44 	svcpl	0x00414d44
      40:	666e6f63 	strbtvs	r6, [lr], -r3, ror #30
      44:	682e6769 	stmdavs	lr!, {r0, r3, r5, r6, r8, r9, sl, sp, lr}
      48:	00000000 	andeq	r0, r0, r0
      4c:	4f495047 	svcmi	0x00495047
      50:	6e6f635f 	mcrvs	3, 3, r6, cr15, cr15, {2}
      54:	2e676966 	vnmulcs.f16	s13, s14, s13	; <UNPREDICTABLE>
      58:	00000068 	andeq	r0, r0, r8, rrx
      5c:	13050000 	movwne	r0, #20480	; 0x5000
      60:	00020500 	andeq	r0, r2, r0, lsl #10
      64:	03000000 	movweq	r0, #0
      68:	050101ca 	streq	r0, [r1, #-458]	; 0xfffffe36
      6c:	2e0f031a 	mcrcs	3, 0, r0, cr15, cr10, {0}
      70:	02680105 	rsbeq	r0, r8, #1073741825	; 0x40000001
      74:	01010008 	tsteq	r1, r8
      78:	05001e05 	streq	r1, [r0, #-3589]	; 0xfffff1fb
      7c:	00000002 	andeq	r0, r0, r2
      80:	03c20300 	biceq	r0, r2, #0, 6
      84:	3f053101 	svccc	0x00053101
      88:	4b050520 	blmi	141510 <UART_InterruptFIFOLevelSelect+0x1400d0>
      8c:	3c030205 	sfmcc	f0, 4, [r3], {5}
      90:	00060258 	andeq	r0, r6, r8, asr r2
      94:	24050101 	strcs	r0, [r5], #-257	; 0xfffffeff
      98:	1c020500 	cfstr32ne	mvfx0, [r2], {-0}
      9c:	03000000 	movweq	r0, #0
      a0:	050104a1 	streq	r0, [r1, #-1185]	; 0xfffffb5f
      a4:	3a053211 	bcc	14c8f0 <UART_InterruptFIFOLevelSelect+0x14b4b0>
      a8:	4e1b0520 	cfmul64mi	mvdx0, mvdx11, mvdx0
      ac:	056a2505 	strbeq	r2, [sl, #-1285]!	; 0xfffffafb
      b0:	2f052030 	svccs	0x00052030
      b4:	24010520 	strcs	r0, [r1], #-1312	; 0xfffffae0
      b8:	01000c02 	tsteq	r0, r2, lsl #24
      bc:	004b0501 	subeq	r0, fp, r1, lsl #10
      c0:	00540205 	subseq	r0, r4, r5, lsl #4
      c4:	b4030000 	strlt	r0, [r3], #-0
      c8:	05050104 	streq	r0, [r5, #-260]	; 0xfffffefc
      cc:	8629054e 	strthi	r0, [r9], -lr, asr #10
      d0:	052e3c05 	streq	r3, [lr, #-3077]!	; 0xfffff3fb
      d4:	29053c2d 	stmdbcs	r5, {r0, r2, r3, r5, sl, fp, ip, sp}
      d8:	4021053c 	eormi	r0, r1, ip, lsr r5
      dc:	052e3405 	streq	r3, [lr, #-1029]!	; 0xfffffbfb
      e0:	21053c25 	tstcs	r5, r5, lsr #24
      e4:	4120053c 			; <UNDEFINED> instruction: 0x4120053c
      e8:	052e3305 	streq	r3, [lr, #-773]!	; 0xfffffcfb
      ec:	20053c24 	andcs	r3, r5, r4, lsr #24
      f0:	3f23053c 	svccc	0x0023053c
      f4:	052e3d05 	streq	r3, [lr, #-3333]!	; 0xfffff2fb
      f8:	054d2e05 	strbeq	r2, [sp, #-3589]	; 0xfffff1fb
      fc:	0b026701 	bleq	99d08 <UART_InterruptFIFOLevelSelect+0x988c8>
     100:	05010100 	streq	r0, [r1, #-256]	; 0xffffff00
     104:	0205004c 	andeq	r0, r5, #76	; 0x4c
     108:	00000000 	andeq	r0, r0, r0
     10c:	0104ce03 	tsteq	r4, r3, lsl #28
     110:	054c2e05 	strbeq	r2, [ip, #-3589]	; 0xfffff1fb
     114:	25052e07 	strcs	r2, [r5, #-3591]	; 0xfffff1f9
     118:	2e3a0530 	mrccs	5, 1, r0, cr10, cr0, {1}
     11c:	053c2a05 	ldreq	r2, [ip, #-2565]!	; 0xfffff5fb
     120:	28053c25 	stmdacs	r5, {r0, r2, r5, sl, fp, ip, sp}
     124:	2e07053f 	mcrcs	5, 0, r0, cr7, cr15, {1}
     128:	05302505 	ldreq	r2, [r0, #-1285]!	; 0xfffffafb
     12c:	29052e39 	stmdbcs	r5, {r0, r3, r4, r5, r9, sl, fp, sp}
     130:	3c25053c 	cfstr32cc	mvfx0, [r5], #-240	; 0xffffff10
     134:	053f2005 	ldreq	r2, [pc, #-5]!	; 137 <DMA_ChannelControlStructureSet+0x2b>
     138:	24052e34 	strcs	r2, [r5], #-3636	; 0xfffff1cc
     13c:	3c20053c 	cfstr32cc	mvfx0, [r0], #-240	; 0xffffff10
     140:	023e0105 	eorseq	r0, lr, #1073741825	; 0x40000001
     144:	0101000b 	tsteq	r1, fp
     148:	05004005 	streq	r4, [r0, #-5]
     14c:	00000002 	andeq	r0, r0, r2
     150:	04de0300 	ldrbeq	r0, [lr], #768	; 0x300
     154:	4c430501 	cfstr64mi	mvdx0, [r3], {1}
     158:	05202205 	streq	r2, [r0, #-517]!	; 0xfffffdfb
     15c:	42052043 	andmi	r2, r5, #67	; 0x43
     160:	4b01052e 	blmi	41620 <UART_InterruptFIFOLevelSelect+0x401e0>
     164:	01000802 	tsteq	r0, r2, lsl #16
     168:	00330501 	eorseq	r0, r3, r1, lsl #10
     16c:	00e00205 	rsceq	r0, r0, r5, lsl #4
     170:	e3030000 	movw	r0, #12288	; 0x3000
     174:	1d050104 	stfnes	f0, [r5, #-16]
     178:	2e210559 	mcrcs	5, 1, r0, cr1, cr9, {2}
     17c:	05581d05 	ldrbeq	r1, [r8, #-3333]	; 0xfffff2fb
     180:	07023d01 	streq	r3, [r2, -r1, lsl #26]
     184:	05010100 	streq	r0, [r1, #-256]	; 0xffffff00
     188:	02050073 	andeq	r0, r5, #115	; 0x73
     18c:	0000010c 	andeq	r0, r0, ip, lsl #2
     190:	0104e803 	tsteq	r4, r3, lsl #16
     194:	05680a05 	strbeq	r0, [r8, #-2565]!	; 0xfffff5fb
     198:	21053c07 	tstcs	r5, r7, lsl #24
     19c:	01040200 	mrseq	r0, R12_usr
     1a0:	001c052e 	andseq	r0, ip, lr, lsr #10
     1a4:	3c010402 	cfstrscc	mvf0, [r1], {2}
     1a8:	052f2f05 	streq	r2, [pc, #-3845]!	; fffff2ab <_E_BSS+0xdfffd4b7>
     1ac:	3d053c25 	stccc	12, cr3, [r5, #-148]	; 0xffffff6c
     1b0:	310a053c 	tstcc	sl, ip, lsr r5
     1b4:	053c0705 	ldreq	r0, [ip, #-1797]!	; 0xfffff8fb
     1b8:	04020021 	streq	r0, [r2], #-33	; 0xffffffdf
     1bc:	1c052e01 	stcne	14, cr2, [r5], {1}
     1c0:	01040200 	mrseq	r0, R12_usr
     1c4:	2f34053c 	svccs	0x0034053c
     1c8:	053c2a05 	ldreq	r2, [ip, #-2565]!	; 0xfffff5fb
     1cc:	54053c42 	strpl	r3, [r5], #-3138	; 0xfffff3be
     1d0:	2e300531 	mrccs	5, 1, r0, cr0, cr1, {1}
     1d4:	053c2605 	ldreq	r2, [ip, #-1541]!	; 0xfffff9fb
     1d8:	4a053c54 	bmi	14f330 <UART_InterruptFIFOLevelSelect+0x14def0>
     1dc:	4b55054a 	blmi	154170c <UART_InterruptFIFOLevelSelect+0x15402cc>
     1e0:	052e3005 	streq	r3, [lr, #-5]!
     1e4:	55053c26 	strpl	r3, [r5, #-3110]	; 0xfffff3da
     1e8:	4a4b053c 	bmi	12c16e0 <UART_InterruptFIFOLevelSelect+0x12c02a0>
     1ec:	054b5405 	strbeq	r5, [fp, #-1029]	; 0xfffffbfb
     1f0:	26052e30 			; <UNDEFINED> instruction: 0x26052e30
     1f4:	3c54053c 	cfldr64cc	mvdx0, [r4], {60}	; 0x3c
     1f8:	054a4a05 	strbeq	r4, [sl, #-2565]	; 0xfffff5fb
     1fc:	30054b55 	andcc	r4, r5, r5, asr fp
     200:	3c26052e 	cfstr32cc	mvfx0, [r6], #-184	; 0xffffff48
     204:	053c5505 	ldreq	r5, [ip, #-1285]!	; 0xfffffafb
     208:	56054a4b 	strpl	r4, [r5], -fp, asr #20
     20c:	2e30054b 	cdpcs	5, 3, cr0, cr0, cr11, {2}
     210:	053c2605 	ldreq	r2, [ip, #-1541]!	; 0xfffff9fb
     214:	4c053c56 	stcmi	12, cr3, [r5], {86}	; 0x56
     218:	4b56054a 	blmi	1581748 <UART_InterruptFIFOLevelSelect+0x1580308>
     21c:	052e3005 	streq	r3, [lr, #-5]!
     220:	56053c26 	strpl	r3, [r5], -r6, lsr #24
     224:	4a4c053c 	bmi	130171c <UART_InterruptFIFOLevelSelect+0x13002dc>
     228:	054b5505 	strbeq	r5, [fp, #-1285]	; 0xfffffafb
     22c:	26052e30 			; <UNDEFINED> instruction: 0x26052e30
     230:	3c55053c 	cfldr64cc	mvdx0, [r5], {60}	; 0x3c
     234:	054a4b05 	strbeq	r4, [sl, #-2821]	; 0xfffff4fb
     238:	12024c01 	andne	r4, r2, #256	; 0x100
     23c:	05010100 	streq	r0, [r1, #-256]	; 0xffffff00
     240:	0205007b 	andeq	r0, r5, #123	; 0x7b
     244:	00000000 	andeq	r0, r0, r0
     248:	0104fc03 	tsteq	r4, r3, lsl #24	; <UNPREDICTABLE>
     24c:	05680a05 	strbeq	r0, [r8, #-2565]!	; 0xfffff5fb
     250:	21053c07 	tstcs	r5, r7, lsl #24
     254:	01040200 	mrseq	r0, R12_usr
     258:	001c052e 	andseq	r0, ip, lr, lsr #10
     25c:	3c010402 	cfstrscc	mvf0, [r1], {2}
     260:	052f3705 	streq	r3, [pc, #-1797]!	; fffffb63 <_E_BSS+0xdfffdd6f>
     264:	45053c2d 	strmi	r3, [r5, #-3117]	; 0xfffff3d3
     268:	310a053c 	tstcc	sl, ip, lsr r5
     26c:	053c0705 	ldreq	r0, [ip, #-1797]!	; 0xfffff8fb
     270:	04020021 	streq	r0, [r2], #-33	; 0xffffffdf
     274:	1c052e01 	stcne	14, cr2, [r5], {1}
     278:	01040200 	mrseq	r0, R12_usr
     27c:	2f3c053c 	svccs	0x003c053c
     280:	053c3205 	ldreq	r3, [ip, #-517]!	; 0xfffffdfb
     284:	5d053c4a 	stcpl	12, cr3, [r5, #-296]	; 0xfffffed8
     288:	2e390531 	mrccs	5, 1, r0, cr9, cr1, {1}
     28c:	053c2f05 	ldreq	r2, [ip, #-3845]!	; 0xfffff0fb
     290:	53053c5d 	movwpl	r3, #23645	; 0x5c5d
     294:	4b5e054a 	blmi	17817c4 <UART_InterruptFIFOLevelSelect+0x1780384>
     298:	052e3905 	streq	r3, [lr, #-2309]!	; 0xfffff6fb
     29c:	5e053c2f 	cdppl	12, 0, cr3, cr5, cr15, {1}
     2a0:	4a54053c 	bmi	1501798 <UART_InterruptFIFOLevelSelect+0x1500358>
     2a4:	054b5d05 	strbeq	r5, [fp, #-3333]	; 0xfffff2fb
     2a8:	2f052e39 	svccs	0x00052e39
     2ac:	3c5d053c 	cfldr64cc	mvdx0, [sp], {60}	; 0x3c
     2b0:	054a5305 	strbeq	r5, [sl, #-773]	; 0xfffffcfb
     2b4:	39054b5e 	stmdbcc	r5, {r1, r2, r3, r4, r6, r8, r9, fp, lr}
     2b8:	3c2f052e 	cfstr32cc	mvfx0, [pc], #-184	; 208 <DMA_ChannelControlStructureSet+0xfc>
     2bc:	053c5e05 	ldreq	r5, [ip, #-3589]!	; 0xfffff1fb
     2c0:	5f054a54 	svcpl	0x00054a54
     2c4:	2e39054b 	cdpcs	5, 3, cr0, cr9, cr11, {2}
     2c8:	053c2f05 	ldreq	r2, [ip, #-3845]!	; 0xfffff0fb
     2cc:	55053c5f 	strpl	r3, [r5, #-3167]	; 0xfffff3a1
     2d0:	4b5f054a 	blmi	17c1800 <UART_InterruptFIFOLevelSelect+0x17c03c0>
     2d4:	052e3905 	streq	r3, [lr, #-2309]!	; 0xfffff6fb
     2d8:	5f053c2f 	svcpl	0x00053c2f
     2dc:	4a55053c 	bmi	15417d4 <UART_InterruptFIFOLevelSelect+0x1540394>
     2e0:	054b5e05 	strbeq	r5, [fp, #-3589]	; 0xfffff1fb
     2e4:	2f052e39 	svccs	0x00052e39
     2e8:	3c5e053c 	cfldr64cc	mvdx0, [lr], {60}	; 0x3c
     2ec:	054a5405 	strbeq	r5, [sl, #-1029]	; 0xfffffbfb
     2f0:	12024c01 	andne	r4, r2, #256	; 0x100
     2f4:	05010100 	streq	r0, [r1, #-256]	; 0xffffff00
     2f8:	0205006b 	andeq	r0, r5, #107	; 0x6b
     2fc:	00000264 	andeq	r0, r0, r4, ror #4
     300:	01059103 	tsteq	r5, r3, lsl #2
     304:	05840505 	streq	r0, [r4, #1285]	; 0x505
     308:	580c0301 	stmdapl	ip, {r0, r8, r9}
     30c:	77032c05 	strvc	r2, [r3, -r5, lsl #24]
     310:	2e320520 	cfabs64cs	mvdx0, mvdx2
     314:	054a2f05 	strbeq	r2, [sl, #-3845]	; 0xfffff0fb
     318:	04052e2c 	streq	r2, [r5], #-3628	; 0xfffff1d4
     31c:	232c053d 			; <UNDEFINED> instruction: 0x232c053d
     320:	052e3105 	streq	r3, [lr, #-261]!	; 0xfffffefb
     324:	0505582c 	streq	r5, [r5, #-2092]	; 0xfffff7d4
     328:	2401053d 	strcs	r0, [r1], #-1341	; 0xfffffac3
     32c:	01000702 	tsteq	r0, r2, lsl #14
     330:	00360501 	eorseq	r0, r6, r1, lsl #10
     334:	00000205 	andeq	r0, r0, r5, lsl #4
     338:	a1030000 	mrsge	r0, (UNDEF: 3)
     33c:	28050105 	stmdacs	r5, {r0, r2, r8}
     340:	6701054c 	strvs	r0, [r1, -ip, asr #10]
     344:	01000802 	tsteq	r0, r2, lsl #16
     348:	00420501 	subeq	r0, r2, r1, lsl #10
     34c:	02bc0205 	adcseq	r0, ip, #1342177280	; 0x50000000
     350:	a6030000 	strge	r0, [r3], -r0
     354:	0b050105 	bleq	140770 <UART_InterruptFIFOLevelSelect+0x13f330>
     358:	3d09055a 	cfstr32cc	mvfx0, [r9, #-360]	; 0xfffffe98
     35c:	4401053d 	strmi	r0, [r1], #-1341	; 0xfffffac3
     360:	051b0c05 	ldreq	r0, [fp, #-3077]	; 0xfffff3fb
     364:	053d3d09 	ldreq	r3, [sp, #-3337]!	; 0xfffff2f7
     368:	04023f01 	streq	r3, [r2], #-3841	; 0xfffff0ff
     36c:	05010100 	streq	r0, [r1, #-256]	; 0xffffff00
     370:	0205005b 	andeq	r0, r5, #91	; 0x5b
     374:	000002f4 	strdeq	r0, [r0], -r4
     378:	0105b603 	tsteq	r5, r3, lsl #12
     37c:	05840505 	streq	r0, [r4, #1285]	; 0x505
     380:	2e056001 	cdpcs	0, 0, cr6, cr5, cr1, {0}
     384:	05207a03 	streq	r7, [r0, #-2563]!	; 0xfffff5fd
     388:	2e052e32 	mcrcs	14, 0, r2, cr5, cr2, {1}
     38c:	3f2d0558 	svccc	0x002d0558
     390:	052e3305 	streq	r3, [lr, #-773]!	; 0xfffffcfb
     394:	2d054a30 	vstrcs	s8, [r5, #-192]	; 0xffffff40
     398:	3f01052e 	svccc	0x0001052e
     39c:	01000702 	tsteq	r0, r2, lsl #14
     3a0:	00670501 	rsbeq	r0, r7, r1, lsl #10
     3a4:	03480205 	movteq	r0, #33285	; 0x8205
     3a8:	c2030000 	andgt	r0, r3, #0
     3ac:	05050105 	streq	r0, [r5, #-261]	; 0xfffffefb
     3b0:	03010584 	movweq	r0, #5508	; 0x1584
     3b4:	2305580b 	movwcs	r5, #22539	; 0x580b
     3b8:	05207803 	streq	r7, [r0, #-2051]!	; 0xfffff7fd
     3bc:	26052e29 	strcs	r2, [r5], -r9, lsr #28
     3c0:	2e23054a 	cfsh64cs	mvdx0, mvdx3, #42
     3c4:	053d0505 	ldreq	r0, [sp, #-1285]!	; 0xfffffafb
     3c8:	28052323 	stmdacs	r5, {r0, r1, r5, r8, r9, sp}
     3cc:	5823052e 	stmdapl	r3!, {r1, r2, r3, r5, r8, sl}
     3d0:	053d0505 	ldreq	r0, [sp, #-1285]!	; 0xfffffafb
     3d4:	07022301 	streq	r2, [r2, -r1, lsl #6]
     3d8:	05010100 	streq	r0, [r1, #-256]	; 0xffffff00
     3dc:	0205004a 	andeq	r0, r5, #74	; 0x4a
     3e0:	000003a0 	andeq	r0, r0, r0, lsr #7
     3e4:	0105d103 	tsteq	r5, r3, lsl #2
     3e8:	05840a05 	streq	r0, [r4, #2565]	; 0xa05
     3ec:	2f053d22 	svccs	0x00053d22
     3f0:	2e220520 	cfsh64cs	mvdx0, mvdx2, #16
     3f4:	05203705 	streq	r3, [r0, #-1797]!	; 0xfffff8fb
     3f8:	23053c0a 	movwcs	r3, #23562	; 0x5c0a
     3fc:	4a30053d 	bmi	c018f8 <UART_InterruptFIFOLevelSelect+0xc004b8>
     400:	05203405 	streq	r3, [r0, #-1029]!	; 0xfffffbfb
     404:	30055823 	andcc	r5, r5, r3, lsr #16
     408:	2f01054a 	svccs	0x0001054a
     40c:	01000702 	tsteq	r0, r2, lsl #14
     410:	004c0501 	subeq	r0, ip, r1, lsl #10
     414:	00000205 	andeq	r0, r0, r5, lsl #4
     418:	d8030000 	stmdale	r3, {}	; <UNPREDICTABLE>
     41c:	0a050105 	beq	140838 <UART_InterruptFIFOLevelSelect+0x13f3f8>
     420:	3d220584 	cfstr32cc	mvfx0, [r2, #-528]!	; 0xfffffdf0
     424:	05202f05 	streq	r2, [r0, #-3845]!	; 0xfffff0fb
     428:	37052e22 	strcc	r2, [r5, -r2, lsr #28]
     42c:	3c0a0520 	cfstr32cc	mvfx0, [sl], {32}
     430:	053d2305 	ldreq	r2, [sp, #-773]!	; 0xfffffcfb
     434:	35054a30 	strcc	r4, [r5, #-2608]	; 0xfffff5d0
     438:	4a320520 	bmi	c818c0 <UART_InterruptFIFOLevelSelect+0xc80480>
     43c:	052e2305 	streq	r2, [lr, #-773]!	; 0xfffffcfb
     440:	01054a30 	tsteq	r5, r0, lsr sl
     444:	0008022f 	andeq	r0, r8, pc, lsr #4
     448:	48050101 	stmdami	r5, {r0, r8}
     44c:	00020500 	andeq	r0, r2, r0, lsl #10
     450:	03000000 	movweq	r0, #0
     454:	050105e0 	streq	r0, [r1, #-1504]	; 0xfffffa20
     458:	4b775a05 	blmi	1dd6c74 <UART_InterruptFIFOLevelSelect+0x1dd5834>
     45c:	023f0105 	eorseq	r0, pc, #1073741825	; 0x40000001
     460:	01010007 	tsteq	r1, r7
     464:	05004805 	streq	r4, [r0, #-2053]	; 0xfffff7fb
     468:	00000002 	andeq	r0, r0, r2
     46c:	05ec0300 	strbeq	r0, [ip, #768]!	; 0x300
     470:	4c070501 	cfstr32mi	mvfx0, [r7], {1}
     474:	05202105 	streq	r2, [r0, #-261]!	; 0xfffffefb
     478:	27052f07 	strcs	r2, [r5, -r7, lsl #30]
     47c:	20260520 	eorcs	r0, r6, r0, lsr #10
     480:	05211705 	streq	r1, [r1, #-1797]!	; 0xfffff8fb
     484:	16053d05 	strne	r3, [r5], -r5, lsl #26
     488:	03290559 			; <UNDEFINED> instruction: 0x03290559
     48c:	39053c0a 	stmdbcc	r5, {r1, r3, sl, fp, ip, sp}
     490:	3c2d052e 	cfstr32cc	mvfx0, [sp], #-184	; 0xffffff48
     494:	053c2905 	ldreq	r2, [ip, #-2309]!	; 0xfffff6fb
     498:	10023e01 	andne	r3, r2, r1, lsl #28
     49c:	05010100 	streq	r0, [r1, #-256]	; 0xffffff00
     4a0:	02050052 	andeq	r0, r5, #82	; 0x52
     4a4:	00000000 	andeq	r0, r0, r0
     4a8:	01068103 	tsteq	r6, r3, lsl #2
     4ac:	054c0805 	strbeq	r0, [ip, #-2053]	; 0xfffff7fb
     4b0:	08052022 	stmdaeq	r5, {r1, r5, sp}
     4b4:	2028052f 	eorcs	r0, r8, pc, lsr #10
     4b8:	05202705 	streq	r2, [r0, #-1797]!	; 0xfffff8fb
     4bc:	05052117 	streq	r2, [r5, #-279]	; 0xfffffee9
     4c0:	5916053d 	ldmdbpl	r6, {r0, r2, r3, r4, r5, r8, sl}
     4c4:	0a032905 	beq	ca8e0 <UART_InterruptFIFOLevelSelect+0xc94a0>
     4c8:	2e39053c 	mrccs	5, 1, r0, cr9, cr12, {1}
     4cc:	053c2d05 	ldreq	r2, [ip, #-3333]!	; 0xfffff2fb
     4d0:	01053c29 	tsteq	r5, r9, lsr #24
     4d4:	0010023e 	andseq	r0, r0, lr, lsr r2
     4d8:	6c050101 	stfvss	f0, [r5], {1}
     4dc:	00020500 	andeq	r0, r2, r0, lsl #10
     4e0:	03000000 	movweq	r0, #0
     4e4:	05010695 	streq	r0, [r1, #-1685]	; 0xfffff96b
     4e8:	2f056823 	svccs	0x00056823
     4ec:	4c020520 	cfstr32mi	mvfx0, [r2], {32}
     4f0:	01000702 	tsteq	r0, r2, lsl #14
     4f4:	00680501 	rsbeq	r0, r8, r1, lsl #10
     4f8:	00000205 	andeq	r0, r0, r5, lsl #4
     4fc:	9b030000 	blls	c0504 <UART_InterruptFIFOLevelSelect+0xbf0c4>
     500:	1f050106 	svcne	0x00050106
     504:	202b0568 	eorcs	r0, fp, r8, ror #10
     508:	024c0205 	subeq	r0, ip, #1342177280	; 0x50000000
     50c:	01010007 	tsteq	r1, r7
     510:	00000043 	andeq	r0, r0, r3, asr #32
     514:	003d0003 	eorseq	r0, sp, r3
     518:	01020000 	mrseq	r0, (UNDEF: 2)
     51c:	000d0efb 	strdeq	r0, [sp], -fp
     520:	01010101 	tsteq	r1, r1, lsl #2
     524:	01000000 	mrseq	r0, (UNDEF: 0)
     528:	00010000 	andeq	r0, r1, r0
     52c:	6474736c 	ldrbtvs	r7, [r4], #-876	; 0xfffffc94
     530:	0000682e 	andeq	r6, r0, lr, lsr #16
     534:	4d440000 	stclmi	0, cr0, [r4, #-0]
     538:	6f635f41 	svcvs	0x00635f41
     53c:	6769666e 	strbvs	r6, [r9, -lr, ror #12]!
     540:	0000682e 	andeq	r6, r0, lr, lsr #16
     544:	4d440000 	stclmi	0, cr0, [r4, #-0]
     548:	6f635f41 	svcvs	0x00635f41
     54c:	6769666e 	strbvs	r6, [r9, -lr, ror #12]!
     550:	0000632e 	andeq	r6, r0, lr, lsr #6
     554:	3e000000 	cdpcc	0, 0, cr0, cr0, cr0, {0}
     558:	03000005 	movweq	r0, #5
     55c:	00004600 	andeq	r4, r0, r0, lsl #12
     560:	fb010200 	blx	40d6a <UART_InterruptFIFOLevelSelect+0x3f92a>
     564:	01000d0e 	tsteq	r0, lr, lsl #26
     568:	00010101 	andeq	r0, r1, r1, lsl #2
     56c:	00010000 	andeq	r0, r1, r0
     570:	47000100 	strmi	r0, [r0, -r0, lsl #2]
     574:	2e4f4950 			; <UNDEFINED> instruction: 0x2e4f4950
     578:	00000063 	andeq	r0, r0, r3, rrx
     57c:	74736c00 	ldrbtvc	r6, [r3], #-3072	; 0xfffff400
     580:	00682e64 	rsbeq	r2, r8, r4, ror #28
     584:	47000000 	strmi	r0, [r0, -r0]
     588:	5f4f4950 	svcpl	0x004f4950
     58c:	2e676572 	mcrcs	5, 3, r6, cr7, cr2, {3}
     590:	00000068 	andeq	r0, r0, r8, rrx
     594:	69706700 	ldmdbvs	r0!, {r8, r9, sl, sp, lr}^
     598:	6f635f6f 	svcvs	0x00635f6f
     59c:	6769666e 	strbvs	r6, [r9, -lr, ror #12]!
     5a0:	0000682e 	andeq	r6, r0, lr, lsr #16
     5a4:	05000000 	streq	r0, [r0, #-0]
     5a8:	02050013 	andeq	r0, r5, #19
     5ac:	00000000 	andeq	r0, r0, r0
     5b0:	0100dc03 	tsteq	r0, r3, lsl #24
     5b4:	05301605 	ldreq	r1, [r0, #-1541]!	; 0xfffff9fb
     5b8:	06052e08 	streq	r2, [r5], -r8, lsl #28
     5bc:	40010530 	andmi	r0, r1, r0, lsr r5
     5c0:	01000502 	tsteq	r0, r2, lsl #10
     5c4:	00130501 	andseq	r0, r3, r1, lsl #10
     5c8:	00000205 	andeq	r0, r0, r5, lsl #4
     5cc:	fc030000 	stc2	0, cr0, [r3], {-0}
     5d0:	16050100 	strne	r0, [r5], -r0, lsl #2
     5d4:	2e080530 	cfmv64hrcs	mvdx8, r0
     5d8:	05300605 	ldreq	r0, [r0, #-1541]!	; 0xfffff9fb
     5dc:	05024001 	streq	r4, [r2, #-1]
     5e0:	05010100 	streq	r0, [r1, #-256]	; 0xffffff00
     5e4:	02050012 	andeq	r0, r5, #18
     5e8:	00000000 	andeq	r0, r0, r0
     5ec:	01019d03 	tsteq	r1, r3, lsl #26
     5f0:	05301605 	ldreq	r1, [r0, #-1541]!	; 0xfffff9fb
     5f4:	06052e08 	streq	r2, [r5], -r8, lsl #28
     5f8:	40010530 	andmi	r0, r1, r0, lsr r5
     5fc:	01000502 	tsteq	r0, r2, lsl #10
     600:	00120501 	andseq	r0, r2, r1, lsl #10
     604:	00000205 	andeq	r0, r0, r5, lsl #4
     608:	bc030000 	stclt	0, cr0, [r3], {-0}
     60c:	16050101 	strne	r0, [r5], -r1, lsl #2
     610:	2e080530 	cfmv64hrcs	mvdx8, r0
     614:	05300605 	ldreq	r0, [r0, #-1541]!	; 0xfffff9fb
     618:	05024001 	streq	r4, [r2, #-1]
     61c:	05010100 	streq	r0, [r1, #-256]	; 0xffffff00
     620:	02050012 	andeq	r0, r5, #18
     624:	00000000 	andeq	r0, r0, r0
     628:	0101db03 	tsteq	r1, r3, lsl #22
     62c:	05301605 	ldreq	r1, [r0, #-1541]!	; 0xfffff9fb
     630:	06052e08 	streq	r2, [r5], -r8, lsl #28
     634:	40010530 	andmi	r0, r1, r0, lsr r5
     638:	01000502 	tsteq	r0, r2, lsl #10
     63c:	00120501 	andseq	r0, r2, r1, lsl #10
     640:	00000205 	andeq	r0, r0, r5, lsl #4
     644:	fc030000 	stc2	0, cr0, [r3], {-0}
     648:	16050101 	strne	r0, [r5], -r1, lsl #2
     64c:	2e080530 	cfmv64hrcs	mvdx8, r0
     650:	05300605 	ldreq	r0, [r0, #-1541]!	; 0xfffff9fb
     654:	05024101 	streq	r4, [r2, #-257]	; 0xfffffeff
     658:	05010100 	streq	r0, [r1, #-256]	; 0xffffff00
     65c:	0205005e 	andeq	r0, r5, #94	; 0x5e
     660:	000003f8 	strdeq	r0, [r0], -r8
     664:	01049f03 	tsteq	r4, r3, lsl #30
     668:	055a4d05 	ldrbeq	r4, [sl, #-3333]	; 0xfffff2fb
     66c:	4d056652 	stcmi	6, cr6, [r5, #-328]	; 0xfffffeb8
     670:	ae0b054a 	cfsh32ge	mvfx0, mvfx11, #42
     674:	02002c05 	andeq	r2, r0, #1280	; 0x500
     678:	05200104 	streq	r0, [r0, #-260]!	; 0xfffffefc
     67c:	04020032 	streq	r0, [r2], #-50	; 0xffffffce
     680:	6d052001 	stcvs	0, cr2, [r5, #-4]
     684:	01040200 	mrseq	r0, R12_usr
     688:	000b0558 	andeq	r0, fp, r8, asr r5
     68c:	58010402 	stmdapl	r1, {r1, sl}
     690:	02300205 	eorseq	r0, r0, #1342177280	; 0x50000000
     694:	01010008 	tsteq	r1, r8
     698:	00018a05 	andeq	r8, r1, r5, lsl #20
     69c:	04580205 	ldrbeq	r0, [r8], #-517	; 0xfffffdfb
     6a0:	c1030000 	mrsgt	r0, (UNDEF: 3)
     6a4:	05050104 	streq	r0, [r5, #-260]	; 0xfffffefc
     6a8:	03010597 	movweq	r0, #5527	; 0x1597
     6ac:	1f05580d 	svcne	0x0005580d
     6b0:	05207603 	streq	r7, [r0, #-1539]!	; 0xfffff9fd
     6b4:	47054a41 	strmi	r4, [r5, -r1, asr #20]
     6b8:	4a41053c 	bmi	1041bb0 <UART_InterruptFIFOLevelSelect+0x1040770>
     6bc:	05581f05 	ldrbeq	r1, [r8, #-3845]	; 0xfffff0fb
     6c0:	05054a41 	streq	r4, [r5, #-2625]	; 0xfffff5bf
     6c4:	231f0559 	tstcs	pc, #373293056	; 0x16400000
     6c8:	054a4105 	strbeq	r4, [sl, #-261]	; 0xfffffefb
     6cc:	41053c45 	tstmi	r5, r5, asr #24
     6d0:	3c1f054a 	cfldr32cc	mvfx0, [pc], {74}	; 0x4a
     6d4:	054a4105 	strbeq	r4, [sl, #-261]	; 0xfffffefb
     6d8:	01055905 	tsteq	r5, r5, lsl #18
     6dc:	00070225 	andeq	r0, r7, r5, lsr #4
     6e0:	8b050101 	blhi	140aec <UART_InterruptFIFOLevelSelect+0x13f6ac>
     6e4:	02050001 	andeq	r0, r5, #1
     6e8:	000004e8 	andeq	r0, r0, r8, ror #9
     6ec:	0104d703 	tsteq	r4, r3, lsl #14
     6f0:	05950905 	ldreq	r0, [r5, #2309]	; 0x905
     6f4:	580e0301 	stmdapl	lr, {r0, r8, r9}
     6f8:	75032305 	strvc	r2, [r3, #-773]	; 0xfffffcfb
     6fc:	4a400520 	bmi	1001b84 <UART_InterruptFIFOLevelSelect+0x1000744>
     700:	053c4605 	ldreq	r4, [ip, #-1541]!	; 0xfffff9fb
     704:	23054a40 	movwcs	r4, #23104	; 0x5a40
     708:	4a400558 	bmi	1001c70 <UART_InterruptFIFOLevelSelect+0x1000830>
     70c:	05590c05 	ldrbeq	r0, [r9, #-3077]	; 0xfffff3fb
     710:	3f052322 	svccc	0x00052322
     714:	3c44054a 	cfstr64cc	mvdx0, [r4], {74}	; 0x4a
     718:	054a3f05 	strbeq	r3, [sl, #-3845]	; 0xfffff0fb
     71c:	3f053c22 	svccc	0x00053c22
     720:	590c054a 	stmdbpl	ip, {r1, r3, r6, r8, sl}
     724:	02260105 	eoreq	r0, r6, #1073741825	; 0x40000001
     728:	01010007 	tsteq	r1, r7
     72c:	05007105 	streq	r7, [r0, #-261]	; 0xfffffefb
     730:	00000002 	andeq	r0, r0, r2
     734:	04ed0300 	strbteq	r0, [sp], #768	; 0x300
     738:	871e0501 	ldrhi	r0, [lr, -r1, lsl #10]
     73c:	054a3b05 	strbeq	r3, [sl, #-2821]	; 0xfffff4fb
     740:	3b053c40 	blcc	14f848 <UART_InterruptFIFOLevelSelect+0x14e408>
     744:	3c1e054a 	cfldr32cc	mvfx0, [lr], {74}	; 0x4a
     748:	054a3b05 	strbeq	r3, [sl, #-2821]	; 0xfffff4fb
     74c:	07025c01 	streq	r5, [r2, -r1, lsl #24]
     750:	05010100 	streq	r0, [r1, #-256]	; 0xffffff00
     754:	050001a0 	streq	r0, [r0, #-416]	; 0xfffffe60
     758:	00000002 	andeq	r0, r0, r2
     75c:	04f80300 	ldrbteq	r0, [r8], #768	; 0x300
     760:	92050501 	andls	r0, r5, #4194304	; 0x400000
     764:	0b030105 	bleq	c0b80 <UART_InterruptFIFOLevelSelect+0xbf740>
     768:	03310558 	teqeq	r1, #88, 10	; 0x16000000
     76c:	61052078 	tstvs	r5, r8, ror r0
     770:	3c67054a 	cfstr64cc	mvdx0, [r7], #-296	; 0xfffffed8
     774:	054a6105 	strbeq	r6, [sl, #-261]	; 0xfffffefb
     778:	61055831 	tstvs	r5, r1, lsr r8
     77c:	5909054a 	stmdbpl	r9, {r1, r3, r6, r8, sl}
     780:	05233005 	streq	r3, [r3, #-5]!
     784:	65054a60 	strvs	r4, [r5, #-2656]	; 0xfffff5a0
     788:	4a60053c 	bmi	1801c80 <UART_InterruptFIFOLevelSelect+0x1800840>
     78c:	053c3005 	ldreq	r3, [ip, #-5]!
     790:	09054a60 	stmdbeq	r5, {r5, r6, r9, fp, lr}
     794:	23010559 	movwcs	r0, #5465	; 0x1559
     798:	01000702 	tsteq	r0, r2, lsl #14
     79c:	01980501 	orrseq	r0, r8, r1, lsl #10
     7a0:	00020500 	andeq	r0, r2, r0, lsl #10
     7a4:	03000000 	movweq	r0, #0
     7a8:	05010588 	streq	r0, [r1, #-1416]	; 0xfffffa78
     7ac:	09059205 	stmdbeq	r5, {r0, r2, r9, ip, pc}
     7b0:	01051c52 	tsteq	r5, r2, asr ip
     7b4:	00050227 	andeq	r0, r5, r7, lsr #4
     7b8:	a4050101 	strge	r0, [r5], #-257	; 0xfffffeff
     7bc:	02050001 	andeq	r0, r5, #1
     7c0:	00000000 	andeq	r0, r0, r0
     7c4:	01059703 	tsteq	r5, r3, lsl #14
     7c8:	05932005 	ldreq	r2, [r3, #5]
     7cc:	5a054a32 	bpl	15309c <UART_InterruptFIFOLevelSelect+0x151c5c>
     7d0:	2e430520 	cdpcs	5, 4, cr0, cr3, cr0, {1}
     7d4:	053c3505 	ldreq	r3, [ip, #-1285]!	; 0xfffffafb
     7d8:	32052020 	andcc	r2, r5, #32
     7dc:	0320054a 			; <UNDEFINED> instruction: 0x0320054a
     7e0:	32052e0d 	andcc	r2, r5, #13, 28	; 0xd0
     7e4:	2037054a 	eorscs	r0, r7, sl, asr #10
     7e8:	05206605 	streq	r6, [r0, #-1541]!	; 0xfffff9fb
     7ec:	20052e50 	andcs	r2, r5, r0, asr lr
     7f0:	4a320520 	bmi	c81c78 <UART_InterruptFIFOLevelSelect+0xc80838>
     7f4:	02340105 	eorseq	r0, r4, #1073741825	; 0x40000001
     7f8:	01010007 	tsteq	r1, r7
     7fc:	00019905 	andeq	r9, r1, r5, lsl #18
     800:	05780205 	ldrbeq	r0, [r8, #-517]!	; 0xfffffdfb
     804:	af030000 	svcge	0x00030000
     808:	05050105 	streq	r0, [r5, #-261]	; 0xfffffefb
     80c:	03010593 	movweq	r0, #5523	; 0x1593
     810:	2705580c 	strcs	r5, [r5, -ip, lsl #16]
     814:	05207703 	streq	r7, [r0, #-1795]!	; 0xfffff8fd
     818:	53054a4d 	movwpl	r4, #23117	; 0x5a4d
     81c:	4a4d053c 	bmi	1341d14 <UART_InterruptFIFOLevelSelect+0x13408d4>
     820:	05582705 	ldrbeq	r2, [r8, #-1797]	; 0xfffff8fb
     824:	09054a4d 	stmdbeq	r5, {r0, r2, r3, r6, r9, fp, lr}
     828:	23270559 			; <UNDEFINED> instruction: 0x23270559
     82c:	054a4d05 	strbeq	r4, [sl, #-3333]	; 0xfffff2fb
     830:	4d053c51 	stcmi	12, cr3, [r5, #-324]	; 0xfffffebc
     834:	3c27054a 	cfstr32cc	mvfx0, [r7], #-296	; 0xfffffed8
     838:	054a4d05 	strbeq	r4, [sl, #-3333]	; 0xfffff2fb
     83c:	01055909 	tsteq	r5, r9, lsl #18
     840:	00070224 	andeq	r0, r7, r4, lsr #4
     844:	8c050101 	stfhis	f0, [r5], {1}
     848:	02050001 	andeq	r0, r5, #1
     84c:	00000608 	andeq	r0, r0, r8, lsl #12
     850:	0105c003 	tsteq	r5, r3
     854:	05920505 	ldreq	r0, [r2, #1285]	; 0x505
     858:	580c0301 	stmdapl	ip, {r0, r8, r9}
     85c:	77031d05 	strvc	r1, [r3, -r5, lsl #26]
     860:	4a2f0520 	bmi	bc1ce8 <UART_InterruptFIFOLevelSelect+0xbc08a8>
     864:	052f0905 	streq	r0, [pc, #-2309]!	; ffffff67 <_E_BSS+0xdfffe173>
     868:	2f05231d 	svccs	0x0005231d
     86c:	2f1b054a 	svccs	0x001b054a
     870:	054a3a05 	strbeq	r3, [sl, #-2565]	; 0xfffff5fb
     874:	3a053c3e 	bcc	14f974 <UART_InterruptFIFOLevelSelect+0x14e534>
     878:	3c1b054a 	cfldr32cc	mvfx0, [fp], {74}	; 0x4a
     87c:	054a3a05 	strbeq	r3, [sl, #-2565]	; 0xfffff5fb
     880:	01055909 	tsteq	r5, r9, lsl #18
     884:	000c0223 	andeq	r0, ip, r3, lsr #4
     888:	75050101 	strvc	r0, [r5, #-257]	; 0xfffffeff
     88c:	00020500 	andeq	r0, r2, r0, lsl #10
     890:	03000000 	movweq	r0, #0
     894:	050105d1 	streq	r0, [r1, #-1489]	; 0xfffffa2f
     898:	4b058424 	blmi	161930 <UART_InterruptFIFOLevelSelect+0x1604f0>
     89c:	3c50054a 	cfldr64cc	mvdx0, [r0], {74}	; 0x4a
     8a0:	054a4b05 	strbeq	r4, [sl, #-2821]	; 0xfffff4fb
     8a4:	4b053c24 	blmi	14f93c <UART_InterruptFIFOLevelSelect+0x14e4fc>
     8a8:	5a01054a 	bpl	41dd8 <UART_InterruptFIFOLevelSelect+0x40998>
     8ac:	01000702 	tsteq	r0, r2, lsl #14
     8b0:	01a50501 			; <UNDEFINED> instruction: 0x01a50501
     8b4:	00020500 	andeq	r0, r2, r0, lsl #10
     8b8:	03000000 	movweq	r0, #0
     8bc:	050105d7 	streq	r0, [r1, #-1495]	; 0xfffffa29
     8c0:	01059205 	tsteq	r5, r5, lsl #4
     8c4:	05580c03 	ldrbeq	r0, [r8, #-3075]	; 0xfffff3fd
     8c8:	20770327 	rsbscs	r0, r7, r7, lsr #6
     8cc:	054a5305 	strbeq	r5, [sl, #-773]	; 0xfffffcfb
     8d0:	53053c58 	movwpl	r3, #23640	; 0x5c58
     8d4:	3c27054a 	cfstr32cc	mvfx0, [r7], #-296	; 0xfffffed8
     8d8:	054a5305 	strbeq	r5, [sl, #-773]	; 0xfffffcfb
     8dc:	27055905 	strcs	r5, [r5, -r5, lsl #18]
     8e0:	4a530523 	bmi	14c1d74 <UART_InterruptFIFOLevelSelect+0x14c0934>
     8e4:	053c5905 	ldreq	r5, [ip, #-2309]!	; 0xfffff6fb
     8e8:	27054a53 	smlsdcs	r5, r3, sl, r4
     8ec:	4a530558 	bmi	14c1e54 <UART_InterruptFIFOLevelSelect+0x14c0a14>
     8f0:	05590505 	ldrbeq	r0, [r9, #-1285]	; 0xfffffafb
     8f4:	07022401 	streq	r2, [r2, -r1, lsl #8]
     8f8:	05010100 	streq	r0, [r1, #-256]	; 0xffffff00
     8fc:	02050043 	andeq	r0, r5, #67	; 0x43
     900:	00000688 	andeq	r0, r0, r8, lsl #13
     904:	0105eb03 	tsteq	r5, r3, lsl #22
     908:	5a4c0505 	bpl	1301d24 <UART_InterruptFIFOLevelSelect+0x13008e4>
     90c:	05848484 	streq	r8, [r4, #1156]	; 0x484
     910:	04028402 	streq	r8, [r2], #-1026	; 0xfffffbfe
     914:	05010100 	streq	r0, [r1, #-256]	; 0xffffff00
     918:	0500018d 	streq	r0, [r0, #-397]	; 0xfffffe73
     91c:	0006e402 	andeq	lr, r6, r2, lsl #8
     920:	05f90300 	ldrbeq	r0, [r9, #768]!	; 0x300
     924:	95050501 	strls	r0, [r5, #-1281]	; 0xfffffaff
     928:	0d030105 	stfeqs	f0, [r3, #-20]	; 0xffffffec
     92c:	031f0558 	tsteq	pc, #88, 10	; 0x16000000
     930:	41052076 	tstmi	r5, r6, ror r0
     934:	3c47054a 	cfstr64cc	mvdx0, [r7], {74}	; 0x4a
     938:	054a4105 	strbeq	r4, [sl, #-261]	; 0xfffffefb
     93c:	4105581f 	tstmi	r5, pc, lsl r8
     940:	5905054a 	stmdbpl	r5, {r1, r3, r6, r8, sl}
     944:	05231f05 	streq	r1, [r3, #-3845]!	; 0xfffff0fb
     948:	45054a41 	strmi	r4, [r5, #-2625]	; 0xfffff5bf
     94c:	4a41053c 	bmi	1041e44 <UART_InterruptFIFOLevelSelect+0x1040a04>
     950:	053c1f05 	ldreq	r1, [ip, #-3845]!	; 0xfffff0fb
     954:	05054a41 	streq	r4, [r5, #-2625]	; 0xfffff5bf
     958:	25010559 	strcs	r0, [r1, #-1369]	; 0xfffffaa7
     95c:	01000702 	tsteq	r0, r2, lsl #14
     960:	00710501 	rsbseq	r0, r1, r1, lsl #10
     964:	07740205 	ldrbeq	r0, [r4, -r5, lsl #4]!
     968:	8d030000 	stchi	0, cr0, [r3, #-0]
     96c:	1a050106 	bne	140d8c <UART_InterruptFIFOLevelSelect+0x13f94c>
     970:	4a3f0584 	bmi	fc1f88 <UART_InterruptFIFOLevelSelect+0xfc0b48>
     974:	053c4305 	ldreq	r4, [ip, #-773]!	; 0xfffffcfb
     978:	1a054a3f 	bne	15327c <UART_InterruptFIFOLevelSelect+0x151e3c>
     97c:	4a3f053c 	bmi	fc1e74 <UART_InterruptFIFOLevelSelect+0xfc0a34>
     980:	02590105 	subseq	r0, r9, #1073741825	; 0x40000001
     984:	01010007 	tsteq	r1, r7
     988:	05004205 	streq	r4, [r0, #-517]	; 0xfffffdfb
     98c:	0007c002 	andeq	ip, r7, r2
     990:	06930300 	ldreq	r0, [r3], r0, lsl #6
     994:	4c050501 	cfstr32mi	mvfx0, [r5], {1}
     998:	055a2305 	ldrbeq	r2, [sl, #-773]	; 0xfffffcfb
     99c:	4b052e07 	blmi	14c1c0 <UART_InterruptFIFOLevelSelect+0x14ad80>
     9a0:	01040200 	mrseq	r0, R12_usr
     9a4:	0037052e 	eorseq	r0, r7, lr, lsr #10
     9a8:	2e010402 	cdpcs	4, 0, cr0, cr1, cr2, {0}
     9ac:	5b300505 	blpl	c01dc8 <UART_InterruptFIFOLevelSelect+0xc00988>
     9b0:	84040584 	strhi	r0, [r4], #-1412	; 0xfffffa7c
     9b4:	02850105 	addeq	r0, r5, #1073741825	; 0x40000001
     9b8:	01010004 	tsteq	r1, r4
     9bc:	05006b05 	streq	r6, [r0, #-2821]	; 0xfffff4fb
     9c0:	00000002 	andeq	r0, r0, r2
     9c4:	06a60300 	strteq	r0, [r6], r0, lsl #6
     9c8:	84360501 	ldrthi	r0, [r6], #-1281	; 0xfffffaff
     9cc:	054a6005 	strbeq	r6, [sl, #-5]
     9d0:	60057465 	andvs	r7, r5, r5, ror #8
     9d4:	a0010558 	andge	r0, r1, r8, asr r5
     9d8:	01000802 	tsteq	r0, r2, lsl #16
     9dc:	006a0501 	rsbeq	r0, sl, r1, lsl #10
     9e0:	00000205 	andeq	r0, r0, r5, lsl #4
     9e4:	ad030000 	stcge	0, cr0, [r3, #-0]
     9e8:	40050106 	andmi	r0, r5, r6, lsl #2
     9ec:	4a590584 	bmi	1642004 <UART_InterruptFIFOLevelSelect+0x1640bc4>
     9f0:	052e5505 	streq	r5, [lr, #-1285]!	; 0xfffffafb
     9f4:	0c053c51 	stceq	12, cr3, [r5], {81}	; 0x51
     9f8:	22010520 	andcs	r0, r1, #32, 10	; 0x8000000
     9fc:	01000702 	tsteq	r0, r2, lsl #14
     a00:	018b0501 	orreq	r0, fp, r1, lsl #10
     a04:	00020500 	andeq	r0, r2, r0, lsl #10
     a08:	03000000 	movweq	r0, #0
     a0c:	050106b3 	streq	r0, [r1, #-1715]	; 0xfffff94d
     a10:	69059205 	stmdbvs	r5, {r0, r2, r9, ip, pc}
     a14:	4a3b055a 	bmi	ec1f84 <UART_InterruptFIFOLevelSelect+0xec0b44>
     a18:	054a5405 	strbeq	r5, [sl, #-1029]	; 0xfffffbfb
     a1c:	4c052e50 	stcmi	14, cr2, [r5], {80}	; 0x50
     a20:	2069053c 	rsbcs	r0, r9, ip, lsr r5
     a24:	05206505 	streq	r6, [r0, #-1285]!	; 0xfffffafb
     a28:	3d052107 	stfccs	f2, [r5, #-28]	; 0xffffffe4
     a2c:	4a670523 	bmi	19c1ec0 <UART_InterruptFIFOLevelSelect+0x19c0a80>
     a30:	05746d05 	ldrbeq	r6, [r4, #-3333]!	; 0xfffff2fb
     a34:	67054a6a 	strvs	r4, [r5, -sl, ror #20]
     a38:	9f09052e 	svcls	0x0009052e
     a3c:	02240105 	eoreq	r0, r4, #1073741825	; 0x40000001
     a40:	01010007 	tsteq	r1, r7
     a44:	05004e05 	streq	r4, [r0, #-3589]	; 0xfffff1fb
     a48:	00000002 	andeq	r0, r0, r2
     a4c:	06c50300 	strbeq	r0, [r5], r0, lsl #6
     a50:	4c050501 	cfstr32mi	mvfx0, [r5], {1}
     a54:	8583835e 	strhi	r8, [r3, #862]	; 0x35e
     a58:	02840105 	addeq	r0, r4, #1073741825	; 0x40000001
     a5c:	01010004 	tsteq	r1, r4
     a60:	05004b05 	streq	r4, [r0, #-2821]	; 0xfffff4fb
     a64:	00000002 	andeq	r0, r0, r2
     a68:	06ed0300 	strbteq	r0, [sp], r0, lsl #6
     a6c:	4c050501 	cfstr32mi	mvfx0, [r5], {1}
     a70:	8384835a 	orrhi	r8, r4, #1744830465	; 0x68000001
     a74:	01058384 	smlabbeq	r5, r4, r3, r8
     a78:	00040285 	andeq	r0, r4, r5, lsl #5
     a7c:	61050101 	tstvs	r5, r1, lsl #2
     a80:	00020500 	andeq	r0, r2, r0, lsl #10
     a84:	03000000 	movweq	r0, #0
     a88:	050106fd 	streq	r0, [r1, #-1789]	; 0xfffff903
     a8c:	23056812 	movwcs	r6, #22546	; 0x5812
     a90:	4f010520 	svcmi	0x00010520
     a94:	01000702 	tsteq	r0, r2, lsl #14
     a98:	00004501 	andeq	r4, r0, r1, lsl #10
     a9c:	3f000300 	svccc	0x00000300
     aa0:	02000000 	andeq	r0, r0, #0
     aa4:	0d0efb01 	vstreq	d15, [lr, #-4]
     aa8:	01010100 	mrseq	r0, (UNDEF: 17)
     aac:	00000001 	andeq	r0, r0, r1
     ab0:	01000001 	tsteq	r0, r1
     ab4:	74736c00 	ldrbtvc	r6, [r3], #-3072	; 0xfffff400
     ab8:	00682e64 	rsbeq	r2, r8, r4, ror #28
     abc:	47000000 	strmi	r0, [r0, -r0]
     ac0:	5f4f4950 	svcpl	0x004f4950
     ac4:	666e6f63 	strbtvs	r6, [lr], -r3, ror #30
     ac8:	682e6769 	stmdavs	lr!, {r0, r3, r5, r6, r8, r9, sl, sp, lr}
     acc:	00000000 	andeq	r0, r0, r0
     ad0:	4f495047 	svcmi	0x00495047
     ad4:	6e6f635f 	mcrvs	3, 3, r6, cr15, cr15, {2}
     ad8:	2e676966 	vnmulcs.f16	s13, s14, s13	; <UNPREDICTABLE>
     adc:	00000063 	andeq	r0, r0, r3, rrx
     ae0:	02990000 	addseq	r0, r9, #0
     ae4:	00030000 	andeq	r0, r3, r0
     ae8:	00000057 	andeq	r0, r0, r7, asr r0
     aec:	0efb0102 	cdpeq	1, 15, cr0, cr11, cr2, {0}
     af0:	0101000d 	tsteq	r1, sp
     af4:	00000101 	andeq	r0, r0, r1, lsl #2
     af8:	00000100 	andeq	r0, r0, r0, lsl #2
     afc:	50470001 	subpl	r0, r7, r1
     b00:	632e4d54 			; <UNDEFINED> instruction: 0x632e4d54
     b04:	00000000 	andeq	r0, r0, r0
     b08:	6474736c 	ldrbtvs	r7, [r4], #-876	; 0xfffffc94
     b0c:	0000682e 	andeq	r6, r0, lr, lsr #16
     b10:	50470000 	subpl	r0, r7, r0
     b14:	725f4d54 	subsvc	r4, pc, #84, 26	; 0x1500
     b18:	682e6765 	stmdavs	lr!, {r0, r2, r5, r6, r8, r9, sl, sp, lr}
     b1c:	00000000 	andeq	r0, r0, r0
     b20:	4f495047 	svcmi	0x00495047
     b24:	6e6f635f 	mcrvs	3, 3, r6, cr15, cr15, {2}
     b28:	2e676966 	vnmulcs.f16	s13, s14, s13	; <UNPREDICTABLE>
     b2c:	00000068 	andeq	r0, r0, r8, rrx
     b30:	54504700 	ldrbpl	r4, [r0], #-1792	; 0xfffff900
     b34:	6f635f4d 	svcvs	0x00635f4d
     b38:	6769666e 	strbvs	r6, [r9, -lr, ror #12]!
     b3c:	0000682e 	andeq	r6, r0, lr, lsr #16
     b40:	05000000 	streq	r0, [r0, #-0]
     b44:	05000182 	streq	r0, [r0, #-386]	; 0xfffffe7e
     b48:	00000002 	andeq	r0, r0, r2
     b4c:	01f20300 	mvnseq	r0, r0, lsl #6
     b50:	84070501 	strhi	r0, [r7], #-1281	; 0xfffffaff
     b54:	053d1605 	ldreq	r1, [sp, #-1541]!	; 0xfffff9fb
     b58:	16052e1a 			; <UNDEFINED> instruction: 0x16052e1a
     b5c:	3d0a0558 	cfstr32cc	mvfx0, [sl, #-352]	; 0xfffffea0
     b60:	02000d05 	andeq	r0, r0, #320	; 0x140
     b64:	05200104 	streq	r0, [r0, #-260]!	; 0xfffffefc
     b68:	04020022 	streq	r0, [r2], #-34	; 0xffffffde
     b6c:	1e052e01 	cdpne	14, 0, cr2, cr5, cr1, {0}
     b70:	01040200 	mrseq	r0, R12_usr
     b74:	000a054a 	andeq	r0, sl, sl, asr #10
     b78:	20010402 	andcs	r0, r1, r2, lsl #8
     b7c:	05350105 	ldreq	r0, [r5, #-261]!	; 0xfffffefb
     b80:	1b051c0c 	blne	147bb8 <UART_InterruptFIFOLevelSelect+0x146778>
     b84:	2e1f053d 	mrccs	5, 0, r0, cr15, cr13, {1}
     b88:	05581b05 	ldrbeq	r1, [r8, #-2821]	; 0xfffff4fb
     b8c:	11053d0e 	tstne	r5, lr, lsl #26
     b90:	01040200 	mrseq	r0, R12_usr
     b94:	00270520 	eoreq	r0, r7, r0, lsr #10
     b98:	2e010402 	cdpcs	4, 0, cr0, cr1, cr2, {0}
     b9c:	02002305 	andeq	r2, r0, #335544320	; 0x14000000
     ba0:	054a0104 	strbeq	r0, [sl, #-260]	; 0xfffffefc
     ba4:	0402000e 	streq	r0, [r2], #-14
     ba8:	01052001 	tsteq	r5, r1
     bac:	00090230 	andeq	r0, r9, r0, lsr r2
     bb0:	ae050101 	adfges	f0, f5, f1
     bb4:	02050001 	andeq	r0, r5, #1
     bb8:	00000000 	andeq	r0, r0, r0
     bbc:	0101ff03 	tsteq	r1, r3, lsl #30	; <UNPREDICTABLE>
     bc0:	05922505 	ldreq	r2, [r2, #1285]	; 0x505
     bc4:	4c059e48 	stcmi	14, cr9, [r5], {72}	; 0x48
     bc8:	58250520 	stmdapl	r5!, {r5, r8, sl}
     bcc:	059e4805 	ldreq	r4, [lr, #2053]	; 0x805
     bd0:	08023d02 	stmdaeq	r2, {r1, r8, sl, fp, ip, sp}
     bd4:	05010100 	streq	r0, [r1, #-256]	; 0xffffff00
     bd8:	050001af 	streq	r0, [r0, #-431]	; 0xfffffe51
     bdc:	00000002 	andeq	r0, r0, r2
     be0:	02840300 	addeq	r0, r4, #0, 6
     be4:	92250501 	eorls	r0, r5, #4194304	; 0x400000
     be8:	059e4805 	ldreq	r4, [lr, #2053]	; 0x805
     bec:	4b05204e 	blmi	148d2c <UART_InterruptFIFOLevelSelect+0x1478ec>
     bf0:	2e25054a 	cfsh64cs	mvdx0, mvdx5, #42
     bf4:	059e4805 	ldreq	r4, [lr, #2053]	; 0x805
     bf8:	07023e01 	streq	r3, [r2, -r1, lsl #28]
     bfc:	05010100 	streq	r0, [r1, #-256]	; 0xffffff00
     c00:	02050079 	andeq	r0, r5, #121	; 0x79
     c04:	00000000 	andeq	r0, r0, r0
     c08:	01029103 	tsteq	r2, r3, lsl #2
     c0c:	845a0505 	ldrbhi	r0, [sl], #-1285	; 0xfffffafb
     c10:	93370540 	teqls	r7, #64, 10	; 0x10000000
     c14:	053c6005 	ldreq	r6, [ip, #-5]!
     c18:	87053c4b 	strhi	r3, [r5, -fp, asr #24]
     c1c:	2a058201 	bcs	161428 <UART_InterruptFIFOLevelSelect+0x15ffe8>
     c20:	3c57055b 	cfldr64cc	mvdx0, [r7], {91}	; 0x5b
     c24:	053c4205 	ldreq	r4, [ip, #-517]!	; 0xfffffdfb
     c28:	05820188 	streq	r0, [r2, #392]	; 0x188
     c2c:	57054b2a 	strpl	r4, [r5, -sl, lsr #22]
     c30:	3c42053c 	cfstr64cc	mvdx0, [r2], {60}	; 0x3c
     c34:	05827a05 	streq	r7, [r2, #2565]	; 0xa05
     c38:	5705592a 	strpl	r5, [r5, -sl, lsr #18]
     c3c:	3c42053c 	cfstr64cc	mvdx0, [r2], {60}	; 0x3c
     c40:	82018105 	andhi	r8, r1, #1073741825	; 0x40000001
     c44:	054d2805 	strbeq	r2, [sp, #-2053]	; 0xfffff7fb
     c48:	3c053c51 	stccc	12, cr3, [r5], {81}	; 0x51
     c4c:	827f053c 	rsbshi	r0, pc, #60, 10	; 0xf000000
     c50:	054b2805 	strbeq	r2, [fp, #-2053]	; 0xfffff7fb
     c54:	3c053c51 	stccc	12, cr3, [r5], {81}	; 0x51
     c58:	827f053c 	rsbshi	r0, pc, #60, 10	; 0xf000000
     c5c:	024c0105 	subeq	r0, ip, #1073741825	; 0x40000001
     c60:	0101000b 	tsteq	r1, fp
     c64:	05006c05 	streq	r6, [r0, #-3077]	; 0xfffff3fb
     c68:	00000002 	andeq	r0, r0, r2
     c6c:	02a90300 	adceq	r0, r9, #0, 6
     c70:	76020501 	strvc	r0, [r2], -r1, lsl #10
     c74:	11030f05 	tstne	r3, r5, lsl #30
     c78:	670e0590 			; <UNDEFINED> instruction: 0x670e0590
     c7c:	052f1105 	streq	r1, [pc, #-261]!	; b7f <SysTickGenerateDelay_Interrupt+0xf>
     c80:	04052f24 	streq	r2, [r5], #-3876	; 0xfffff0dc
     c84:	3146052e 	cmpcc	r6, lr, lsr #10
     c88:	053c3105 	ldreq	r3, [ip, #-261]!	; 0xfffffefb
     c8c:	40053c59 	andmi	r3, r5, r9, asr ip
     c90:	3c2b052f 	cfstr32cc	mvfx0, [fp], #-188	; 0xffffff44
     c94:	053c5305 	ldreq	r5, [ip, #-773]!	; 0xfffffcfb
     c98:	0a053f29 	beq	150944 <UART_InterruptFIFOLevelSelect+0x14f504>
     c9c:	2f39052e 	svccs	0x0039052e
     ca0:	053c2405 	ldreq	r2, [ip, #-1029]!	; 0xfffffbfb
     ca4:	32053c4b 	andcc	r3, r5, #19200	; 0x4b00
     ca8:	3c1d052f 	cfldr32cc	mvfx0, [sp], {47}	; 0x2f
     cac:	053c4405 	ldreq	r4, [ip, #-1029]!	; 0xfffffbfb
     cb0:	01053102 	tsteq	r5, r2, lsl #2
     cb4:	000c0291 	muleq	ip, r1, r2
     cb8:	89050101 	stmdbhi	r5, {r0, r8}
     cbc:	02050001 	andeq	r0, r5, #1
     cc0:	00000000 	andeq	r0, r0, r0
     cc4:	0102cf03 	tsteq	r2, r3, lsl #30
     cc8:	845a0505 	ldrbhi	r0, [sl], #-1285	; 0xfffffafb
     ccc:	922b053e 	eorls	r0, fp, #260046848	; 0xf800000
     cd0:	053c5905 	ldreq	r5, [ip, #-2309]!	; 0xfffff6fb
     cd4:	7c053c43 	stcvc	12, cr3, [r5], {67}	; 0x43
     cd8:	5b2b0582 	blpl	ac22e8 <UART_InterruptFIFOLevelSelect+0xac0ea8>
     cdc:	053c5905 	ldreq	r5, [ip, #-2309]!	; 0xfffff6fb
     ce0:	85053c43 	strhi	r3, [r5, #-3139]	; 0xfffff3bd
     ce4:	38058201 	stmdacc	r5, {r0, r9, pc}
     ce8:	3c62054c 	cfstr64cc	mvdx0, [r2], #-304	; 0xfffffed0
     cec:	053c4c05 	ldreq	r4, [ip, #-3077]!	; 0xfffff3fb
     cf0:	05820189 	streq	r0, [r2, #393]	; 0x189
     cf4:	09025a05 	stmdbeq	r2, {r0, r2, r9, fp, ip, lr}
     cf8:	05010100 	streq	r0, [r1, #-256]	; 0xffffff00
     cfc:	0205007c 	andeq	r0, r5, #124	; 0x7c
     d00:	00000000 	andeq	r0, r0, r0
     d04:	0102e003 	tsteq	r2, r3
     d08:	676e1005 	strbvs	r1, [lr, -r5]!
     d0c:	052f4905 	streq	r4, [pc, #-2309]!	; 40f <GPIO_EnableRunModeClockGateControl+0x17>
     d10:	5c053c33 	stcpl	12, cr3, [r5], {51}	; 0x33
     d14:	2f42053c 	svccs	0x0042053c
     d18:	053c2c05 	ldreq	r2, [ip, #-3077]!	; 0xfffff3fb
     d1c:	07053c55 	smlsdeq	r5, r5, ip, r3
     d20:	951d0530 	ldrls	r0, [sp, #-1328]	; 0xfffffad0
     d24:	052e0505 	streq	r0, [lr, #-1285]!	; 0xfffffafb
     d28:	3305220b 	movwcc	r2, #21003	; 0x520b
     d2c:	01040200 	mrseq	r0, R12_usr
     d30:	00610520 	rsbeq	r0, r1, r0, lsr #10
     d34:	3c010402 	cfstrscc	mvf0, [r1], {2}
     d38:	02004b05 	andeq	r4, r0, #5120	; 0x1400
     d3c:	053c0104 	ldreq	r0, [ip, #-260]!	; 0xfffffefc
     d40:	04020079 	streq	r0, [r2], #-121	; 0xffffff87
     d44:	0b058201 	bleq	161550 <UART_InterruptFIFOLevelSelect+0x160110>
     d48:	01040200 	mrseq	r0, R12_usr
     d4c:	002d054a 	eoreq	r0, sp, sl, asr #10
     d50:	2f020402 	svccs	0x00020402
     d54:	02005b05 	andeq	r5, r0, #5120	; 0x1400
     d58:	053c0204 	ldreq	r0, [ip, #-516]!	; 0xfffffdfc
     d5c:	04020045 	streq	r0, [r2], #-69	; 0xffffffbb
     d60:	7c053c02 	stcvc	12, cr3, [r5], {2}
     d64:	02040200 	andeq	r0, r4, #0, 4
     d68:	00590582 	subseq	r0, r9, r2, lsl #11
     d6c:	47020402 	strmi	r0, [r2, -r2, lsl #8]
     d70:	02000505 	andeq	r0, r0, #20971520	; 0x1400000
     d74:	053c0104 	ldreq	r0, [ip, #-260]!	; 0xfffffefc
     d78:	0e025101 	adfeqs	f5, f2, f1
     d7c:	3b010100 	blcc	41184 <UART_InterruptFIFOLevelSelect+0x3fd44>
     d80:	03000000 	movweq	r0, #0
     d84:	00003500 	andeq	r3, r0, r0, lsl #10
     d88:	fb010200 	blx	41592 <UART_InterruptFIFOLevelSelect+0x40152>
     d8c:	01000d0e 	tsteq	r0, lr, lsl #26
     d90:	00010101 	andeq	r0, r1, r1, lsl #2
     d94:	00010000 	andeq	r0, r1, r0
     d98:	47000100 	strmi	r0, [r0, -r0, lsl #2]
     d9c:	5f4d5450 	svcpl	0x004d5450
     da0:	666e6f63 	strbtvs	r6, [lr], -r3, ror #30
     da4:	682e6769 	stmdavs	lr!, {r0, r3, r5, r6, r8, r9, sl, sp, lr}
     da8:	00000000 	andeq	r0, r0, r0
     dac:	4d545047 	ldclmi	0, cr5, [r4, #-284]	; 0xfffffee4
     db0:	6e6f635f 	mcrvs	3, 3, r6, cr15, cr15, {2}
     db4:	2e676966 	vnmulcs.f16	s13, s14, s13	; <UNPREDICTABLE>
     db8:	00000063 	andeq	r0, r0, r3, rrx
     dbc:	010d0000 	mrseq	r0, (UNDEF: 13)
     dc0:	00030000 	andeq	r0, r3, r0
     dc4:	0000005a 	andeq	r0, r0, sl, asr r0
     dc8:	0efb0102 	cdpeq	1, 15, cr0, cr11, cr2, {0}
     dcc:	0101000d 	tsteq	r1, sp
     dd0:	00000101 	andeq	r0, r0, r1, lsl #2
     dd4:	00000100 	andeq	r0, r0, r0, lsl #2
     dd8:	43480001 	movtmi	r0, #32769	; 0x8001
     ddc:	2e35302d 	cdpcs	0, 3, cr3, cr5, cr13, {1}
     de0:	00000063 	andeq	r0, r0, r3, rrx
     de4:	74736c00 	ldrbtvc	r6, [r3], #-3072	; 0xfffff400
     de8:	00682e64 	rsbeq	r2, r8, r4, ror #28
     dec:	55000000 	strpl	r0, [r0, #-0]
     df0:	5f545241 	svcpl	0x00545241
     df4:	666e6f63 	strbtvs	r6, [lr], -r3, ror #30
     df8:	682e6769 	stmdavs	lr!, {r0, r3, r5, r6, r8, r9, sl, sp, lr}
     dfc:	00000000 	andeq	r0, r0, r0
     e00:	4f495047 	svcmi	0x00495047
     e04:	6e6f635f 	mcrvs	3, 3, r6, cr15, cr15, {2}
     e08:	2e676966 	vnmulcs.f16	s13, s14, s13	; <UNPREDICTABLE>
     e0c:	00000068 	andeq	r0, r0, r8, rrx
     e10:	414d4400 	cmpmi	sp, r0, lsl #8
     e14:	6e6f635f 	mcrvs	3, 3, r6, cr15, cr15, {2}
     e18:	2e676966 	vnmulcs.f16	s13, s14, s13	; <UNPREDICTABLE>
     e1c:	00000068 	andeq	r0, r0, r8, rrx
     e20:	1f050000 	svcne	0x00050000
     e24:	00020500 	andeq	r0, r2, r0, lsl #10
     e28:	19000000 	stmdbne	r0, {}	; <UNPREDICTABLE>
     e2c:	052f0205 	streq	r0, [pc, #-517]!	; c2f <SourceAddressPointerRegisters+0x67>
     e30:	06026801 	streq	r6, [r2], -r1, lsl #16
     e34:	05010100 	streq	r0, [r1, #-256]	; 0xffffff00
     e38:	02050023 	andeq	r0, r5, #35	; 0x23
     e3c:	00000000 	andeq	r0, r0, r0
     e40:	05010c03 	streq	r0, [r1, #-3075]	; 0xfffff3fd
     e44:	05673002 	strbeq	r3, [r7, #-2]!
     e48:	06023201 	streq	r3, [r2], -r1, lsl #4
     e4c:	05010100 	streq	r0, [r1, #-256]	; 0xffffff00
     e50:	0205002a 	andeq	r0, r5, #42	; 0x2a
     e54:	00000000 	andeq	r0, r0, r0
     e58:	05011503 	streq	r1, [r1, #-1283]	; 0xfffffafd
     e5c:	4b4e4c05 	blmi	1393e78 <UART_InterruptFIFOLevelSelect+0x1392a38>
     e60:	023d0105 	eorseq	r0, sp, #1073741825	; 0x40000001
     e64:	01010004 	tsteq	r1, r4
     e68:	05002d05 	streq	r2, [r0, #-3333]	; 0xfffff2fb
     e6c:	00000002 	andeq	r0, r0, r2
     e70:	01200300 			; <UNDEFINED> instruction: 0x01200300
     e74:	4e4c0505 	cdpmi	5, 4, cr0, cr12, cr5, {0}
     e78:	3d01054b 	cfstr32cc	mvfx0, [r1, #-300]	; 0xfffffed4
     e7c:	01000402 	tsteq	r0, r2, lsl #8
     e80:	00280501 	eoreq	r0, r8, r1, lsl #10
     e84:	00000205 	andeq	r0, r0, r5, lsl #4
     e88:	2a030000 	bcs	c0e90 <UART_InterruptFIFOLevelSelect+0xbfa50>
     e8c:	4c050501 	cfstr32mi	mvfx0, [r5], {1}
     e90:	024c0105 	subeq	r0, ip, #1073741825	; 0x40000001
     e94:	01010004 	tsteq	r1, r4
     e98:	05002505 	streq	r2, [r0, #-1285]	; 0xfffffafb
     e9c:	00000002 	andeq	r0, r0, r2
     ea0:	01310300 	teqeq	r1, r0, lsl #6
     ea4:	054b0205 	strbeq	r0, [fp, #-517]	; 0xfffffdfb
     ea8:	04024c01 	streq	r4, [r2], #-3073	; 0xfffff3ff
     eac:	05010100 	streq	r0, [r1, #-256]	; 0xffffff00
     eb0:	02050026 	andeq	r0, r5, #38	; 0x26
     eb4:	00000000 	andeq	r0, r0, r0
     eb8:	05013603 	streq	r3, [r1, #-1539]	; 0xfffff9fd
     ebc:	09054c0a 	stmdbeq	r5, {r1, r3, sl, fp, lr}
     ec0:	640b0522 	strvs	r0, [fp], #-1314	; 0xfffffade
     ec4:	052e0a05 	streq	r0, [lr, #-2565]!	; 0xfffff5fb
     ec8:	05023201 	streq	r3, [r2, #-513]	; 0xfffffdff
     ecc:	db010100 	blle	412d4 <UART_InterruptFIFOLevelSelect+0x3fe94>
     ed0:	03000000 	movweq	r0, #0
     ed4:	00006b00 	andeq	r6, r0, r0, lsl #22
     ed8:	fb010200 	blx	416e2 <UART_InterruptFIFOLevelSelect+0x402a2>
     edc:	01000d0e 	tsteq	r0, lr, lsl #26
     ee0:	00010101 	andeq	r0, r1, r1, lsl #2
     ee4:	00010000 	andeq	r0, r1, r0
     ee8:	6d000100 	stfvss	f0, [r0, #-0]
     eec:	2e6e6961 	vnmulcs.f16	s13, s28, s3	; <UNPREDICTABLE>
     ef0:	00000063 	andeq	r0, r0, r3, rrx
     ef4:	74736c00 	ldrbtvc	r6, [r3], #-3072	; 0xfffff400
     ef8:	00682e64 	rsbeq	r2, r8, r4, ror #28
     efc:	67000000 	strvs	r0, [r0, -r0]
     f00:	5f6f6970 	svcpl	0x006f6970
     f04:	666e6f63 	strbtvs	r6, [lr], -r3, ror #30
     f08:	682e6769 	stmdavs	lr!, {r0, r3, r5, r6, r8, r9, sl, sp, lr}
     f0c:	00000000 	andeq	r0, r0, r0
     f10:	4d545047 	ldclmi	0, cr5, [r4, #-284]	; 0xfffffee4
     f14:	6e6f635f 	mcrvs	3, 3, r6, cr15, cr15, {2}
     f18:	2e676966 	vnmulcs.f16	s13, s14, s13	; <UNPREDICTABLE>
     f1c:	00000068 	andeq	r0, r0, r8, rrx
     f20:	414d4400 	cmpmi	sp, r0, lsl #8
     f24:	6e6f635f 	mcrvs	3, 3, r6, cr15, cr15, {2}
     f28:	2e676966 	vnmulcs.f16	s13, s14, s13	; <UNPREDICTABLE>
     f2c:	00000068 	andeq	r0, r0, r8, rrx
     f30:	73795300 	cmnvc	r9, #0, 6
     f34:	6b636974 	blvs	18db50c <UART_InterruptFIFOLevelSelect+0x18da0cc>
     f38:	656d6954 	strbvs	r6, [sp, #-2388]!	; 0xfffff6ac
     f3c:	00682e72 	rsbeq	r2, r8, r2, ror lr
     f40:	00000000 	andeq	r0, r0, r0
     f44:	05001705 	streq	r1, [r0, #-1797]	; 0xfffff8fb
     f48:	00000002 	andeq	r0, r0, r2
     f4c:	01350300 	teqeq	r5, r0, lsl #6
     f50:	05401505 	strbeq	r1, [r0, #-1285]	; 0xfffffafb
     f54:	10052e05 	andne	r2, r5, r5, lsl #28
     f58:	03040200 	movweq	r0, #16896	; 0x4200
     f5c:	00350521 	eorseq	r0, r5, r1, lsr #10
     f60:	3b030402 	blcc	c1f70 <UART_InterruptFIFOLevelSelect+0xc0b30>
     f64:	02000505 	andeq	r0, r0, #20971520	; 0x1400000
     f68:	053c0104 	ldreq	r0, [ip, #-260]!	; 0xfffffefc
     f6c:	06023f01 	streq	r3, [r2], -r1, lsl #30
     f70:	05010100 	streq	r0, [r1, #-256]	; 0xffffff00
     f74:	02050001 	andeq	r0, r5, #1
     f78:	00000824 	andeq	r0, r0, r4, lsr #16
     f7c:	05013f03 	streq	r3, [r1, #-3843]	; 0xfffff0fd
     f80:	05224106 	streq	r4, [r2, #-262]!	; 0xfffffefa
     f84:	13053d15 	movwne	r3, #23829	; 0x5d15
     f88:	3107053c 	tstcc	r7, ip, lsr r5
     f8c:	05053d3d 	streq	r3, [r5, #-3389]	; 0xfffff2c3
     f90:	3c00d303 	stccc	3, cr13, [r0], {3}
     f94:	4b59752f 	blmi	165e458 <UART_InterruptFIFOLevelSelect+0x165d018>
     f98:	4b4d3d3d 	blmi	1350494 <UART_InterruptFIFOLevelSelect+0x134f054>
     f9c:	86030905 	strhi	r0, [r3], -r5, lsl #18
     fa0:	12054a01 	andne	r4, r5, #4096	; 0x1000
     fa4:	01040200 	mrseq	r0, R12_usr
     fa8:	00130231 	andseq	r0, r3, r1, lsr r2
     fac:	01bd0101 			; <UNDEFINED> instruction: 0x01bd0101
     fb0:	00030000 	andeq	r0, r3, r0
     fb4:	00000046 	andeq	r0, r0, r6, asr #32
     fb8:	0efb0102 	cdpeq	1, 15, cr0, cr11, cr2, {0}
     fbc:	0101000d 	tsteq	r1, sp
     fc0:	00000101 	andeq	r0, r0, r1, lsl #2
     fc4:	00000100 	andeq	r0, r0, r0, lsl #2
     fc8:	564e0001 	strbpl	r0, [lr], -r1
     fcc:	632e4349 			; <UNDEFINED> instruction: 0x632e4349
     fd0:	00000000 	andeq	r0, r0, r0
     fd4:	6474736c 	ldrbtvs	r7, [r4], #-876	; 0xfffffc94
     fd8:	0000682e 	andeq	r6, r0, lr, lsr #16
     fdc:	564e0000 	strbpl	r0, [lr], -r0
     fe0:	725f4349 	subsvc	r4, pc, #603979777	; 0x24000001
     fe4:	682e6765 	stmdavs	lr!, {r0, r2, r5, r6, r8, r9, sl, sp, lr}
     fe8:	00000000 	andeq	r0, r0, r0
     fec:	4349564e 	movtmi	r5, #38478	; 0x964e
     ff0:	6e6f635f 	mcrvs	3, 3, r6, cr15, cr15, {2}
     ff4:	2e676966 	vnmulcs.f16	s13, s14, s13	; <UNPREDICTABLE>
     ff8:	00000068 	andeq	r0, r0, r8, rrx
     ffc:	34050000 	strcc	r0, [r5], #-0
    1000:	c0020500 	andgt	r0, r2, r0, lsl #10
    1004:	03000008 	movweq	r0, #8
    1008:	050100e1 	streq	r0, [r1, #-225]	; 0xffffff1f
    100c:	0a054c2d 	beq	1540c8 <UART_InterruptFIFOLevelSelect+0x152c88>
    1010:	2418052e 	ldrcs	r0, [r8], #-1326	; 0xfffffad2
    1014:	05580a05 	ldrbeq	r0, [r8, #-2565]	; 0xfffff5fb
    1018:	2c053020 	stccs	0, cr3, [r5], {32}
    101c:	2030054a 	eorscs	r0, r0, sl, asr #10
    1020:	05582005 	ldrbeq	r2, [r8, #-5]
    1024:	02054a2c 	andeq	r4, r5, #44, 20	; 0x2c000
    1028:	00080230 	andeq	r0, r8, r0, lsr r2
    102c:	33050101 	movwcc	r0, #20737	; 0x5101
    1030:	0c020500 	cfstr32eq	mvfx0, [r2], {-0}
    1034:	03000009 	movweq	r0, #9
    1038:	050100ee 	streq	r0, [r1, #-238]	; 0xffffff12
    103c:	0a054c2d 	beq	1540f8 <UART_InterruptFIFOLevelSelect+0x152cb8>
    1040:	2417052e 	ldrcs	r0, [r7], #-1326	; 0xfffffad2
    1044:	05580a05 	ldrbeq	r0, [r8, #-2565]	; 0xfffff5fb
    1048:	2c05301f 	stccs	0, cr3, [r5], {31}
    104c:	2032054a 	eorscs	r0, r2, sl, asr #10
    1050:	054a2f05 	strbeq	r2, [sl, #-3845]	; 0xfffff0fb
    1054:	2c052e1f 	stccs	14, cr2, [r5], {31}
    1058:	3202054a 	andcc	r0, r2, #310378496	; 0x12800000
    105c:	01000702 	tsteq	r0, r2, lsl #14
    1060:	002f0501 	eoreq	r0, pc, r1, lsl #10
    1064:	00000205 	andeq	r0, r0, r5, lsl #4
    1068:	fd030000 	stc2	0, cr0, [r3, #-0]
    106c:	2d050100 	stfcss	f0, [r5, #-0]
    1070:	2e0a054c 	cfsh32cs	mvfx0, mvfx10, #44
    1074:	05241705 	streq	r1, [r4, #-1797]!	; 0xfffff8fb
    1078:	1a05580a 	bne	1570a8 <UART_InterruptFIFOLevelSelect+0x155c68>
    107c:	4a260530 	bmi	982544 <UART_InterruptFIFOLevelSelect+0x981104>
    1080:	05202a05 	streq	r2, [r0, #-2565]!	; 0xfffff5fb
    1084:	2605581a 			; <UNDEFINED> instruction: 0x2605581a
    1088:	3202054a 	andcc	r0, r2, #310378496	; 0x12800000
    108c:	01000802 	tsteq	r0, r2, lsl #16
    1090:	00310501 	eorseq	r0, r1, r1, lsl #10
    1094:	00000205 	andeq	r0, r0, r5, lsl #4
    1098:	8c030000 	stchi	0, cr0, [r3], {-0}
    109c:	2d050101 	stfcss	f0, [r5, #-4]
    10a0:	2e0a054c 	cfsh32cs	mvfx0, mvfx10, #44
    10a4:	05241605 	streq	r1, [r4, #-1541]!	; 0xfffff9fb
    10a8:	1c05580a 	stcne	8, cr5, [r5], {10}
    10ac:	4a290530 	bmi	a42574 <UART_InterruptFIFOLevelSelect+0xa41134>
    10b0:	05202f05 	streq	r2, [r0, #-3845]!	; 0xfffff0fb
    10b4:	1c054a2c 			; <UNDEFINED> instruction: 0x1c054a2c
    10b8:	4a29052e 	bmi	a42578 <UART_InterruptFIFOLevelSelect+0xa41138>
    10bc:	02320205 	eorseq	r0, r2, #1342177280	; 0x50000000
    10c0:	01010007 	tsteq	r1, r7
    10c4:	05003b05 	streq	r3, [r0, #-2821]	; 0xfffff4fb
    10c8:	00000002 	andeq	r0, r0, r2
    10cc:	019b0300 	orrseq	r0, fp, r0, lsl #6
    10d0:	5a050501 	bpl	1424dc <UART_InterruptFIFOLevelSelect+0x14109c>
    10d4:	05201b05 	streq	r1, [r0, #-2821]!	; 0xfffff4fb
    10d8:	1c056805 	stcne	8, cr6, [r5], {5}
    10dc:	84010520 	strhi	r0, [r1], #-1312	; 0xfffffae0
    10e0:	01000702 	tsteq	r0, r2, lsl #14
    10e4:	00720501 	rsbseq	r0, r2, r1, lsl #10
    10e8:	00000205 	andeq	r0, r0, r5, lsl #4
    10ec:	a4030000 	strge	r0, [r3], #-0
    10f0:	0b050101 	bleq	1414fc <UART_InterruptFIFOLevelSelect+0x1400bc>
    10f4:	410c0593 			; <UNDEFINED> instruction: 0x410c0593
    10f8:	05201505 	streq	r1, [r0, #-1285]!	; 0xfffffafb
    10fc:	22052e07 	andcs	r2, r5, #7, 28	; 0x70
    1100:	4a31052f 	bmi	c425c4 <UART_InterruptFIFOLevelSelect+0xc41184>
    1104:	05ac2205 	streq	r2, [ip, #517]!	; 0x205
    1108:	01054a31 	tsteq	r5, r1, lsr sl
    110c:	05821503 	streq	r1, [r2, #1283]	; 0x503
    1110:	206f0311 	rsbcs	r0, pc, r1, lsl r3	; <UNPREDICTABLE>
    1114:	05201a05 	streq	r1, [r0, #-2565]!	; 0xfffff5fb
    1118:	0d052e1d 	stceq	14, cr2, [r5, #-116]	; 0xffffff8c
    111c:	2f260520 	svccs	0x00260520
    1120:	054a3505 	strbeq	r3, [sl, #-1285]	; 0xfffffafb
    1124:	3505ac26 	strcc	sl, [r5, #-3110]	; 0xfffff3da
    1128:	0301054a 	movweq	r0, #5450	; 0x154a
    112c:	10058210 	andne	r8, r5, r0, lsl r2
    1130:	05207403 	streq	r7, [r0, #-1027]!	; 0xfffffbfd
    1134:	1c052019 	stcne	0, cr2, [r5], {25}
    1138:	200c052e 	andcs	r0, ip, lr, lsr #10
    113c:	052f2605 	streq	r2, [pc, #-1541]!	; b3f <SysTickFrequencyGet+0x3f>
    1140:	26054a35 			; <UNDEFINED> instruction: 0x26054a35
    1144:	4a3505ac 	bmi	d427fc <UART_InterruptFIFOLevelSelect+0xd413bc>
    1148:	0b030105 	bleq	c1564 <UART_InterruptFIFOLevelSelect+0xc0124>
    114c:	03110582 	tsteq	r1, #545259520	; 0x20800000
    1150:	1a052079 	bne	14933c <UART_InterruptFIFOLevelSelect+0x147efc>
    1154:	2e1d0520 	cfmul64cs	mvdx0, mvdx13, mvdx0
    1158:	05200d05 	streq	r0, [r0, #-3333]!	; 0xfffff2fb
    115c:	35052f26 	strcc	r2, [r5, #-3878]	; 0xfffff0da
    1160:	ac26054a 	cfstr32ge	mvfx0, [r6], #-296	; 0xfffffed8
    1164:	054a3505 	strbeq	r3, [sl, #-1285]	; 0xfffffafb
    1168:	08028801 	stmdaeq	r2, {r0, fp, pc}
    116c:	c0010100 	andgt	r0, r1, r0, lsl #2
    1170:	03000000 	movweq	r0, #0
    1174:	00002000 	andeq	r2, r0, r0
    1178:	fb010200 	blx	41982 <UART_InterruptFIFOLevelSelect+0x40542>
    117c:	01000d0e 	tsteq	r0, lr, lsl #26
    1180:	00010101 	andeq	r0, r1, r1, lsl #2
    1184:	00010000 	andeq	r0, r1, r0
    1188:	73000100 	movwvc	r0, #256	; 0x100
    118c:	74726174 	ldrbtvc	r6, [r2], #-372	; 0xfffffe8c
    1190:	632e7075 			; <UNDEFINED> instruction: 0x632e7075
    1194:	00000000 	andeq	r0, r0, r0
    1198:	00170500 	andseq	r0, r7, r0, lsl #10
    119c:	09580205 	ldmdbeq	r8, {r0, r2, r9}^
    11a0:	0b030000 	bleq	c11a8 <UART_InterruptFIFOLevelSelect+0xbfd68>
    11a4:	30010501 	andcc	r0, r1, r1, lsl #10
    11a8:	00020230 	andeq	r0, r2, r0, lsr r2
    11ac:	16050101 	strne	r0, [r5], -r1, lsl #2
    11b0:	64020500 	strvs	r0, [r2], #-1280	; 0xfffffb00
    11b4:	03000009 	movweq	r0, #9
    11b8:	34050132 	strcc	r0, [r5], #-306	; 0xfffffece
    11bc:	3c0e053e 	cfstr32cc	mvfx0, [lr], {62}	; 0x3e
    11c0:	05213205 	streq	r3, [r1, #-517]!	; 0xfffffdfb
    11c4:	10053c0e 	andne	r3, r5, lr, lsl #24
    11c8:	0a052f23 	beq	14ce5c <UART_InterruptFIFOLevelSelect+0x14ba1c>
    11cc:	2e010530 	cfmv64hrcs	mvdx1, r0
    11d0:	02002205 	andeq	r2, r0, #1342177280	; 0x50000000
    11d4:	05220304 	streq	r0, [r2, #-772]!	; 0xfffffcfc
    11d8:	04020004 	streq	r0, [r2], #-4
    11dc:	20053c03 	andcs	r3, r5, r3, lsl #24
    11e0:	03040200 	movweq	r0, #16896	; 0x4200
    11e4:	001e053c 	andseq	r0, lr, ip, lsr r5
    11e8:	20030402 	andcs	r0, r3, r2, lsl #8
    11ec:	02002005 	andeq	r2, r0, #5
    11f0:	051e0304 	ldreq	r0, [lr, #-772]	; 0xfffffcfc
    11f4:	04020012 	streq	r0, [r2], #-18	; 0xffffffee
    11f8:	01053c01 	tsteq	r5, r1, lsl #24
    11fc:	01040200 	mrseq	r0, R12_usr
    1200:	410a0520 	tstmi	sl, r0, lsr #10
    1204:	052e0105 	streq	r0, [lr, #-261]!	; 0xfffffefb
    1208:	04020004 	streq	r0, [r2], #-4
    120c:	1e052203 	cdpne	2, 0, cr2, cr5, cr3, {0}
    1210:	03040200 	movweq	r0, #16896	; 0x4200
    1214:	0402003c 	streq	r0, [r2], #-60	; 0xffffffc4
    1218:	11052c03 	tstne	r5, r3, lsl #24
    121c:	01040200 	mrseq	r0, R12_usr
    1220:	0001053c 	andeq	r0, r1, ip, lsr r5
    1224:	20010402 	andcs	r0, r1, r2, lsl #8
    1228:	05430205 	strbeq	r0, [r3, #-517]	; 0xfffffdfb
    122c:	0e023001 	cdpeq	0, 0, cr3, cr2, cr1, {0}
    1230:	69010100 	stmdbvs	r1, {r8}
    1234:	03000002 	movweq	r0, #2
    1238:	00006100 	andeq	r6, r0, r0, lsl #2
    123c:	fb010200 	blx	41a46 <UART_InterruptFIFOLevelSelect+0x40606>
    1240:	01000d0e 	tsteq	r0, lr, lsl #26
    1244:	00010101 	andeq	r0, r1, r1, lsl #2
    1248:	00010000 	andeq	r0, r1, r0
    124c:	53000100 	movwpl	r0, #256	; 0x100
    1250:	65747379 	ldrbvs	r7, [r4, #-889]!	; 0xfffffc87
    1254:	6e6f436d 	cdpvs	3, 6, cr4, cr15, cr13, {3}
    1258:	6c6f7274 	sfmvs	f7, 2, [pc], #-464	; 1090 <GPTM_16_32_BitTimerA_IntervalLoad+0x8>
    125c:	0000632e 	andeq	r6, r0, lr, lsr #6
    1260:	736c0000 	cmnvc	ip, #0
    1264:	682e6474 	stmdavs	lr!, {r2, r4, r5, r6, sl, sp, lr}
    1268:	00000000 	andeq	r0, r0, r0
    126c:	74737953 	ldrbtvc	r7, [r3], #-2387	; 0xfffff6ad
    1270:	6f436d65 	svcvs	0x00436d65
    1274:	6f72746e 	svcvs	0x0072746e
    1278:	65725f6c 	ldrbvs	r5, [r2, #-3948]!	; 0xfffff094
    127c:	00682e67 	rsbeq	r2, r8, r7, ror #28
    1280:	53000000 	movwpl	r0, #0
    1284:	65747379 	ldrbvs	r7, [r4, #-889]!	; 0xfffffc87
    1288:	6e6f436d 	cdpvs	3, 6, cr4, cr15, cr13, {3}
    128c:	6c6f7274 	sfmvs	f7, 2, [pc], #-464	; 10c4 <GPTM_16BitTimerB_IntervalLoad+0xc>
    1290:	6e6f635f 	mcrvs	3, 3, r6, cr15, cr15, {2}
    1294:	2e676966 	vnmulcs.f16	s13, s14, s13	; <UNPREDICTABLE>
    1298:	00000068 	andeq	r0, r0, r8, rrx
    129c:	54050000 	strpl	r0, [r5], #-0
    12a0:	00020500 	andeq	r0, r2, r0, lsl #10
    12a4:	03000000 	movweq	r0, #0
    12a8:	2805012b 	stmdacs	r5, {r0, r1, r3, r5, r8}
    12ac:	2e43054c 	cdpcs	5, 4, cr0, cr3, cr12, {2}
    12b0:	053c2c05 	ldreq	r2, [ip, #-3077]!	; 0xfffff3fb
    12b4:	01053c28 	tsteq	r5, r8, lsr #24
    12b8:	0009023e 	andeq	r0, r9, lr, lsr r2
    12bc:	38050101 	stmdacc	r5, {r0, r8}
    12c0:	00020500 	andeq	r0, r2, r0, lsl #10
    12c4:	03000000 	movweq	r0, #0
    12c8:	050100c4 	streq	r0, [r1, #-196]	; 0xffffff3c
    12cc:	30054d22 	andcc	r4, r5, r2, lsr #26
    12d0:	501e0520 	andspl	r0, lr, r0, lsr #10
    12d4:	052e0605 	streq	r0, [lr, #-1541]!	; 0xfffff9fb
    12d8:	3a05312a 	bcc	14d788 <UART_InterruptFIFOLevelSelect+0x14c348>
    12dc:	4b2a0520 	blmi	a82764 <UART_InterruptFIFOLevelSelect+0xa81324>
    12e0:	05204905 	streq	r4, [r0, #-2309]!	; 0xfffff6fb
    12e4:	4a0c034c 	bmi	30201c <UART_InterruptFIFOLevelSelect+0x300bdc>
    12e8:	052e2a05 	streq	r2, [lr, #-2565]!	; 0xfffff5fb
    12ec:	4205204c 	andmi	r2, r5, #76	; 0x4c
    12f0:	4b2a053c 	blmi	a827e8 <UART_InterruptFIFOLevelSelect+0xa813a8>
    12f4:	05203d05 	streq	r3, [r0, #-3333]!	; 0xfffff2fb
    12f8:	11054c2c 	tstne	r5, ip, lsr #24
    12fc:	2f47052e 	svccs	0x0047052e
    1300:	052e2a05 	streq	r2, [lr, #-2565]!	; 0xfffff5fb
    1304:	3d052047 	stccc	0, cr2, [r5, #-284]	; 0xfffffee4
    1308:	034e053c 	movteq	r0, #58684	; 0xe53c
    130c:	2a054a0d 	bcs	153b48 <UART_InterruptFIFOLevelSelect+0x152708>
    1310:	204e052e 	subcs	r0, lr, lr, lsr #10
    1314:	053c4405 	ldreq	r4, [ip, #-1029]!	; 0xfffffbfb
    1318:	2a054b52 	bcs	154068 <UART_InterruptFIFOLevelSelect+0x152c28>
    131c:	2052052e 	subscs	r0, r2, lr, lsr #10
    1320:	053c4905 	ldreq	r4, [ip, #-2309]!	; 0xfffff6fb
    1324:	4a0e0314 	bmi	381f7c <UART_InterruptFIFOLevelSelect+0x380b3c>
    1328:	02002005 	andeq	r2, r0, #5
    132c:	05200104 	streq	r0, [r0, #-260]!	; 0xfffffefc
    1330:	04020026 	streq	r0, [r2], #-38	; 0xffffffda
    1334:	14052001 	strne	r2, [r5], #-1
    1338:	01040200 	mrseq	r0, R12_usr
    133c:	342a054a 	strtcc	r0, [sl], #-1354	; 0xfffffab6
    1340:	05203a05 	streq	r3, [r0, #-2565]!	; 0xfffff5fb
    1344:	4a1c0301 	bmi	701f50 <UART_InterruptFIFOLevelSelect+0x700b10>
    1348:	70032805 	andvc	r2, r3, r5, lsl #16
    134c:	2e110520 	cfmul64cs	mvdx0, mvdx1, mvdx0
    1350:	05302a05 	ldreq	r2, [r0, #-2565]!	; 0xfffff5fb
    1354:	4b05203a 	blmi	149444 <UART_InterruptFIFOLevelSelect+0x148004>
    1358:	2e2a054b 	cfsh64cs	mvdx0, mvdx10, #43
    135c:	05204b05 	streq	r4, [r0, #-2821]!	; 0xfffff4fb
    1360:	2c053c41 	stccs	12, cr3, [r5], {65}	; 0x41
    1364:	2e10054c 	cfmac32cs	mvfx0, mvfx0, mvfx12
    1368:	052f4705 	streq	r4, [pc, #-1797]!	; c6b <AlternateSourceAddressPointerRegisters+0x23>
    136c:	47052e2a 	strmi	r2, [r5, -sl, lsr #28]
    1370:	3c3d0520 	cfldr32cc	mvfx0, [sp], #-128	; 0xffffff80
    1374:	054d2a05 	strbeq	r2, [sp, #-2565]	; 0xfffff5fb
    1378:	4e052e10 	mcrmi	14, 0, r2, cr5, cr0, {0}
    137c:	2e2a052f 	cfsh64cs	mvdx0, mvdx10, #31
    1380:	05204e05 	streq	r4, [r0, #-3589]!	; 0xfffff1fb
    1384:	2a053c44 	bcs	15049c <UART_InterruptFIFOLevelSelect+0x14f05c>
    1388:	2049054b 	subcs	r0, r9, fp, asr #10
    138c:	024f0105 	subeq	r0, pc, #1073741825	; 0x40000001
    1390:	0101000c 	tsteq	r1, ip
    1394:	05002905 	streq	r2, [r0, #-2309]	; 0xfffff6fb
    1398:	0009e402 	andeq	lr, r9, r2, lsl #8
    139c:	01ae0300 			; <UNDEFINED> instruction: 0x01ae0300
    13a0:	30280501 	eorcc	r0, r8, r1, lsl #10
    13a4:	05202e05 	streq	r2, [r0, #-3589]!	; 0xfffff1fb
    13a8:	14054a05 	strne	r4, [r5], #-2565	; 0xfffff5fb
    13ac:	32323285 	eorscc	r3, r2, #1342177288	; 0x50000008
    13b0:	0d030105 	stfeqs	f0, [r3, #-20]	; 0xffffffec
    13b4:	000d022e 	andeq	r0, sp, lr, lsr #4
    13b8:	1e050101 	adfnes	f0, f5, f1
    13bc:	2c020500 	cfstr32cs	mvfx0, [r2], {-0}
    13c0:	0300000a 	movweq	r0, #10
    13c4:	050101da 	streq	r0, [r1, #-474]	; 0xfffffe26
    13c8:	3105442b 	tstcc	r5, fp, lsr #8
    13cc:	4a080520 	bmi	202854 <UART_InterruptFIFOLevelSelect+0x201414>
    13d0:	05302f05 	ldreq	r2, [r0, #-3845]!	; 0xfffff0fb
    13d4:	0c052035 	stceq	0, cr2, [r5], {53}	; 0x35
    13d8:	3018054a 	andscc	r0, r8, sl, asr #10
    13dc:	052f4805 	streq	r4, [pc, #-2053]!	; bdf <SourceAddressPointerRegisters+0x17>
    13e0:	2b05204e 	blcs	149520 <UART_InterruptFIFOLevelSelect+0x1480e0>
    13e4:	3c160558 	cfldr32cc	mvfx0, [r6], {88}	; 0x58
    13e8:	054d1005 	strbeq	r1, [sp, #-5]
    13ec:	2e09032e 	cdpcs	3, 0, cr0, cr9, cr14, {1}
    13f0:	05203405 	streq	r3, [r0, #-1029]!	; 0xfffffbfb
    13f4:	13054a0c 	movwne	r4, #23052	; 0x5a0c
    13f8:	3e2f0535 	mcrcc	5, 1, r0, cr15, cr5, {1}
    13fc:	05203505 	streq	r3, [r0, #-1285]!	; 0xfffffafb
    1400:	47054a0c 	strmi	r4, [r5, -ip, lsl #20]
    1404:	204d052f 	subcs	r0, sp, pc, lsr #10
    1408:	05582a05 	ldrbeq	r2, [r8, #-2565]	; 0xfffff5fb
    140c:	10053c15 	andne	r3, r5, r5, lsl ip
    1410:	320c054d 	andcc	r0, ip, #322961408	; 0x13400000
    1414:	02210105 	eoreq	r0, r1, #1073741825	; 0x40000001
    1418:	0101000b 	tsteq	r1, fp
    141c:	05004505 	streq	r4, [r0, #-1285]	; 0xfffffafb
    1420:	00000002 	andeq	r0, r0, r2
    1424:	02880300 	addeq	r0, r8, #0, 6
    1428:	4c050501 	cfstr32mi	mvfx0, [r5], {1}
    142c:	053e5005 	ldreq	r5, [lr, #-5]!
    1430:	50052e21 	andpl	r2, r5, r1, lsr #28
    1434:	3c3e0520 	cfldr32cc	mvfx0, [lr], #-128	; 0xffffff80
    1438:	054c2d05 	strbeq	r2, [ip, #-3333]	; 0xfffff2fb
    143c:	4e052e08 	cdpmi	14, 0, cr2, cr5, cr8, {0}
    1440:	2e210530 	mcrcs	5, 1, r0, cr1, cr0, {1}
    1444:	05204e05 	streq	r4, [r0, #-3589]!	; 0xfffff1fb
    1448:	01053c3c 	tsteq	r5, ip, lsr ip
    144c:	0007024d 	andeq	r0, r7, sp, asr #4
    1450:	46050101 	strmi	r0, [r5], -r1, lsl #2
    1454:	00020500 	andeq	r0, r2, r0, lsl #10
    1458:	03000000 	movweq	r0, #0
    145c:	05010297 	streq	r0, [r1, #-663]	; 0xfffffd69
    1460:	21054f11 	tstcs	r5, r1, lsl pc
    1464:	2e070540 	cfsh32cs	mvfx0, mvfx7, #32
    1468:	05304305 	ldreq	r4, [r0, #-773]!	; 0xfffffcfb
    146c:	26052049 	strcs	r2, [r5], -r9, asr #32
    1470:	3c100558 	cfldr32cc	mvfx0, [r0], {88}	; 0x58
    1474:	054b0f05 	strbeq	r0, [fp, #-3845]	; 0xfffff0fb
    1478:	0105310a 	tsteq	r5, sl, lsl #2
    147c:	00090222 	andeq	r0, r9, r2, lsr #4
    1480:	4a050101 	bmi	14188c <UART_InterruptFIFOLevelSelect+0x14044c>
    1484:	00020500 	andeq	r0, r2, r0, lsl #10
    1488:	03000000 	movweq	r0, #0
    148c:	050102ab 	streq	r0, [r1, #-683]	; 0xfffffd55
    1490:	23055a1e 	movwcs	r5, #23070	; 0x5a1e
    1494:	581e052e 	ldmdapl	lr, {r1, r2, r3, r5, r8, sl}
    1498:	023d0105 	eorseq	r0, sp, #1073741825	; 0x40000001
    149c:	01010007 	tsteq	r1, r7
    14a0:	0000004d 	andeq	r0, r0, sp, asr #32
    14a4:	00470003 	subeq	r0, r7, r3
    14a8:	01020000 	mrseq	r0, (UNDEF: 2)
    14ac:	000d0efb 	strdeq	r0, [sp], -fp
    14b0:	01010101 	tsteq	r1, r1, lsl #2
    14b4:	01000000 	mrseq	r0, (UNDEF: 0)
    14b8:	00010000 	andeq	r0, r1, r0
    14bc:	74737953 	ldrbtvc	r7, [r3], #-2387	; 0xfffff6ad
    14c0:	6f436d65 	svcvs	0x00436d65
    14c4:	6f72746e 	svcvs	0x0072746e
    14c8:	6f635f6c 	svcvs	0x00635f6c
    14cc:	6769666e 	strbvs	r6, [r9, -lr, ror #12]!
    14d0:	0000682e 	andeq	r6, r0, lr, lsr #16
    14d4:	79530000 	ldmdbvc	r3, {}^	; <UNPREDICTABLE>
    14d8:	6d657473 	cfstrdvs	mvd7, [r5, #-460]!	; 0xfffffe34
    14dc:	746e6f43 	strbtvc	r6, [lr], #-3907	; 0xfffff0bd
    14e0:	5f6c6f72 	svcpl	0x006c6f72
    14e4:	666e6f43 	strbtvs	r6, [lr], -r3, asr #30
    14e8:	632e6769 			; <UNDEFINED> instruction: 0x632e6769
    14ec:	00000000 	andeq	r0, r0, r0
    14f0:	0001b800 	andeq	fp, r1, r0, lsl #16
    14f4:	68000300 	stmdavs	r0, {r8, r9}
    14f8:	02000000 	andeq	r0, r0, #0
    14fc:	0d0efb01 	vstreq	d15, [lr, #-4]
    1500:	01010100 	mrseq	r0, (UNDEF: 17)
    1504:	00000001 	andeq	r0, r0, r1
    1508:	01000001 	tsteq	r0, r1
    150c:	73795300 	cmnvc	r9, #0, 6
    1510:	6b636974 	blvs	18dbae8 <UART_InterruptFIFOLevelSelect+0x18da6a8>
    1514:	656d6954 	strbvs	r6, [sp, #-2388]!	; 0xfffff6ac
    1518:	00632e72 	rsbeq	r2, r3, r2, ror lr
    151c:	6c000000 	stcvs	0, cr0, [r0], {-0}
    1520:	2e647473 	mcrcs	4, 3, r7, cr4, cr3, {3}
    1524:	00000068 	andeq	r0, r0, r8, rrx
    1528:	73795300 	cmnvc	r9, #0, 6
    152c:	6b636974 	blvs	18dbb04 <UART_InterruptFIFOLevelSelect+0x18da6c4>
    1530:	656d6954 	strbvs	r6, [sp, #-2388]!	; 0xfffff6ac
    1534:	65725f72 	ldrbvs	r5, [r2, #-3954]!	; 0xfffff08e
    1538:	00682e67 	rsbeq	r2, r8, r7, ror #28
    153c:	47000000 	strmi	r0, [r0, -r0]
    1540:	5f4d5450 	svcpl	0x004d5450
    1544:	666e6f63 	strbtvs	r6, [lr], -r3, ror #30
    1548:	682e6769 	stmdavs	lr!, {r0, r3, r5, r6, r8, r9, sl, sp, lr}
    154c:	00000000 	andeq	r0, r0, r0
    1550:	74737953 	ldrbtvc	r7, [r3], #-2387	; 0xfffff6ad
    1554:	546b6369 	strbtpl	r6, [fp], #-873	; 0xfffffc97
    1558:	72656d69 	rsbvc	r6, r5, #6720	; 0x1a40
    155c:	0000682e 	andeq	r6, r0, lr, lsr #16
    1560:	05000000 	streq	r0, [r0, #-0]
    1564:	02050012 	andeq	r0, r5, #18
    1568:	00000000 	andeq	r0, r0, r0
    156c:	05010b03 	streq	r0, [r1, #-2819]	; 0xfffff4fd
    1570:	0905301b 	stmdbeq	r5, {r0, r1, r3, r4, ip, sp}
    1574:	3007052e 	andcc	r0, r7, lr, lsr #10
    1578:	02400205 	subeq	r0, r0, #1342177280	; 0x50000000
    157c:	01010005 	tsteq	r1, r5
    1580:	05002705 	streq	r2, [r0, #-1797]	; 0xfffff8fb
    1584:	000ac802 	andeq	ip, sl, r2, lsl #16
    1588:	01170300 	tsteq	r7, r0, lsl #6
    158c:	052f1b05 	streq	r1, [pc, #-2821]!	; a8f <SC_GetSystemClock+0x63>
    1590:	01052028 	tsteq	r5, r8, lsr #32
    1594:	0007024b 	andeq	r0, r7, fp, asr #4
    1598:	28050101 	stmdacs	r5, {r0, r8}
    159c:	e4020500 	str	r0, [r2], #-1280	; 0xfffffb00
    15a0:	0300000a 	movweq	r0, #10
    15a4:	1b05011c 	blne	141a1c <UART_InterruptFIFOLevelSelect+0x1405dc>
    15a8:	2028052f 	eorcs	r0, r8, pc, lsr #10
    15ac:	024b0105 	subeq	r0, fp, #1073741825	; 0x40000001
    15b0:	01010007 	tsteq	r1, r7
    15b4:	05002e05 	streq	r2, [r0, #-3589]	; 0xfffff1fb
    15b8:	000b0002 	andeq	r0, fp, r2
    15bc:	01220300 			; <UNDEFINED> instruction: 0x01220300
    15c0:	053f2a05 	ldreq	r2, [pc, #-2565]!	; bc3 <SysTickGenerateDelay_Interrupt+0x53>
    15c4:	05052030 	streq	r2, [r5, #-48]	; 0xffffffd0
    15c8:	300e054a 	andcc	r0, lr, sl, asr #10
    15cc:	054e1405 	strbeq	r1, [lr, #-1029]	; 0xfffffbfb
    15d0:	0a053c12 	beq	150620 <UART_InterruptFIFOLevelSelect+0x14f1e0>
    15d4:	30010559 	andcc	r0, r1, r9, asr r5
    15d8:	01000a02 	tsteq	r0, r2, lsl #20
    15dc:	003e0501 	eorseq	r0, lr, r1, lsl #10
    15e0:	0b440205 	bleq	1101dfc <UART_InterruptFIFOLevelSelect+0x11009bc>
    15e4:	35030000 	strcc	r0, [r3, #-0]
    15e8:	5a1b0501 	bpl	6c29f4 <UART_InterruptFIFOLevelSelect+0x6c15b4>
    15ec:	05202905 	streq	r2, [r0, #-2309]!	; 0xfffff6fb
    15f0:	08028301 	stmdaeq	r2, {r0, r8, r9, pc}
    15f4:	05010100 	streq	r0, [r1, #-256]	; 0xffffff00
    15f8:	02050052 	andeq	r0, r5, #82	; 0x52
    15fc:	00000000 	andeq	r0, r0, r0
    1600:	05013a03 	streq	r3, [r1, #-2563]	; 0xfffff5fd
    1604:	1f055a05 	svcne	0x00055a05
    1608:	67150536 			; <UNDEFINED> instruction: 0x67150536
    160c:	05671905 	strbeq	r1, [r7, #-2309]!	; 0xfffff6fb
    1610:	05052026 	streq	r2, [r5, #-38]	; 0xffffffda
    1614:	321d0576 	andscc	r0, sp, #494927872	; 0x1d800000
    1618:	052e0505 	streq	r0, [lr, #-1285]!	; 0xfffffafb
    161c:	2205210b 	andcs	r2, r5, #-1073741822	; 0xc0000002
    1620:	01040200 	mrseq	r0, R12_usr
    1624:	00280520 	eoreq	r0, r8, r0, lsr #10
    1628:	20010402 	andcs	r0, r1, r2, lsl #8
    162c:	02000b05 	andeq	r0, r0, #5120	; 0x1400
    1630:	054a0104 	strbeq	r0, [sl, #-260]	; 0xfffffefc
    1634:	04020059 	streq	r0, [r2], #-89	; 0xffffffa7
    1638:	05052d02 	streq	r2, [r5, #-3330]	; 0xfffff2fe
    163c:	01040200 	mrseq	r0, R12_usr
    1640:	01054e3c 	tsteq	r5, ip, lsr lr
    1644:	00090230 	andeq	r0, r9, r0, lsr r2
    1648:	42050101 	andmi	r0, r5, #1073741824	; 0x40000000
    164c:	00020500 	andeq	r0, r2, r0, lsl #10
    1650:	03000000 	movweq	r0, #0
    1654:	050100d4 	streq	r0, [r1, #-212]	; 0xffffff2c
    1658:	01054c15 	tsteq	r5, r5, lsl ip
    165c:	0007023d 	andeq	r0, r7, sp, lsr r2
    1660:	54050101 	strpl	r0, [r5], #-257	; 0xfffffeff
    1664:	70020500 	andvc	r0, r2, r0, lsl #10
    1668:	0300000b 	movweq	r0, #11
    166c:	050100da 	streq	r0, [r1, #-218]	; 0xffffff26
    1670:	1e055a05 	vmlane.f32	s10, s10, s10
    1674:	4d140533 	cfldr32mi	mvfx0, [r4, #-204]	; 0xffffff34
    1678:	05671905 	strbeq	r1, [r7, #-2309]!	; 0xfffff6fb
    167c:	1b052026 	blne	14971c <UART_InterruptFIFOLevelSelect+0x1482dc>
    1680:	20270576 	eorcs	r0, r7, r6, ror r5
    1684:	054b0605 	strbeq	r0, [fp, #-1541]	; 0xfffff9fb
    1688:	01053d05 	tsteq	r5, r5, lsl #26
    168c:	00090230 	andeq	r0, r9, r0, lsr r2
    1690:	1d050101 	stfnes	f0, [r5, #-4]
    1694:	00020500 	andeq	r0, r2, r0, lsl #10
    1698:	03000000 	movweq	r0, #0
    169c:	050100ed 	streq	r0, [r1, #-237]	; 0xffffff13
    16a0:	0d053f24 	stceq	15, cr3, [r5, #-144]	; 0xffffff70
    16a4:	2f010520 	svccs	0x00010520
    16a8:	01000802 	tsteq	r0, r2, lsl #16
    16ac:	0006d401 	andeq	sp, r6, r1, lsl #8
    16b0:	85000300 	strhi	r0, [r0, #-768]	; 0xfffffd00
    16b4:	02000000 	andeq	r0, r0, #0
    16b8:	0d0efb01 	vstreq	d15, [lr, #-4]
    16bc:	01010100 	mrseq	r0, (UNDEF: 17)
    16c0:	00000001 	andeq	r0, r0, r1
    16c4:	01000001 	tsteq	r0, r1
    16c8:	52415500 	subpl	r5, r1, #0, 10
    16cc:	00632e54 	rsbeq	r2, r3, r4, asr lr
    16d0:	6c000000 	stcvs	0, cr0, [r0], {-0}
    16d4:	2e647473 	mcrcs	4, 3, r7, cr4, cr3, {3}
    16d8:	00000068 	andeq	r0, r0, r8, rrx
    16dc:	52415500 	subpl	r5, r1, #0, 10
    16e0:	6f635f54 	svcvs	0x00635f54
    16e4:	6769666e 	strbvs	r6, [r9, -lr, ror #12]!
    16e8:	0000682e 	andeq	r6, r0, lr, lsr #16
    16ec:	50470000 	subpl	r0, r7, r0
    16f0:	635f4f49 	cmpvs	pc, #292	; 0x124
    16f4:	69666e6f 	stmdbvs	r6!, {r0, r1, r2, r3, r5, r6, r9, sl, fp, sp, lr}^
    16f8:	00682e67 	rsbeq	r2, r8, r7, ror #28
    16fc:	44000000 	strmi	r0, [r0], #-0
    1700:	635f414d 	cmpvs	pc, #1073741843	; 0x40000013
    1704:	69666e6f 	stmdbvs	r6!, {r0, r1, r2, r3, r5, r6, r9, sl, fp, sp, lr}^
    1708:	00682e67 	rsbeq	r2, r8, r7, ror #28
    170c:	55000000 	strpl	r0, [r0, #-0]
    1710:	5f545241 	svcpl	0x00545241
    1714:	2e676572 	mcrcs	5, 3, r6, cr7, cr2, {3}
    1718:	00000068 	andeq	r0, r0, r8, rrx
    171c:	54504700 	ldrbpl	r4, [r0], #-1792	; 0xfffff900
    1720:	6f635f4d 	svcvs	0x00635f4d
    1724:	6769666e 	strbvs	r6, [r9, -lr, ror #12]!
    1728:	0000682e 	andeq	r6, r0, lr, lsr #16
    172c:	4d440000 	stclmi	0, cr0, [r4, #-0]
    1730:	65725f41 	ldrbvs	r5, [r2, #-3905]!	; 0xfffff0bf
    1734:	00682e67 	rsbeq	r2, r8, r7, ror #28
    1738:	00000000 	andeq	r0, r0, r0
    173c:	05001705 	streq	r1, [r0, #-1797]	; 0xfffff8fb
    1740:	00000002 	andeq	r0, r0, r2
    1744:	04800300 	streq	r0, [r0], #768	; 0x300
    1748:	41350501 	teqmi	r5, r1, lsl #10
    174c:	05204a05 	streq	r4, [r0, #-2565]!	; 0xfffff5fb
    1750:	0f054a09 	svceq	0x00054a09
    1754:	40380530 	eorsmi	r0, r8, r0, lsr r5
    1758:	05204d05 	streq	r4, [r0, #-3333]!	; 0xfffff2fb
    175c:	0e054a0d 	vmlaeq.f32	s8, s10, s26
    1760:	4039052f 	eorsmi	r0, r9, pc, lsr #10
    1764:	05204e05 	streq	r4, [r0, #-3589]!	; 0xfffff1fb
    1768:	0e054a0d 	vmlaeq.f32	s8, s10, s26
    176c:	3f38052f 	svccc	0x0038052f
    1770:	05204d05 	streq	r4, [r0, #-3333]!	; 0xfffff2fb
    1774:	0e054a0d 	vmlaeq.f32	s8, s10, s26
    1778:	3f38052f 	svccc	0x0038052f
    177c:	05204d05 	streq	r4, [r0, #-3333]!	; 0xfffff2fb
    1780:	0e054a0d 	vmlaeq.f32	s8, s10, s26
    1784:	3218052f 	andscc	r0, r8, #197132288	; 0xbc00000
    1788:	054a0905 	strbeq	r0, [sl, #-2309]	; 0xfffff6fb
    178c:	0305300b 	movweq	r3, #20491	; 0x500b
    1790:	0009025c 	andeq	r0, r9, ip, asr r2
    1794:	17050101 	strne	r0, [r5, -r1, lsl #2]
    1798:	00020500 	andeq	r0, r2, r0, lsl #10
    179c:	03000000 	movweq	r0, #0
    17a0:	050104bb 	streq	r0, [r1, #-1211]	; 0xfffffb45
    17a4:	4a054135 	bmi	151c80 <UART_InterruptFIFOLevelSelect+0x150840>
    17a8:	4a090520 	bmi	242c30 <UART_InterruptFIFOLevelSelect+0x2417f0>
    17ac:	05300f05 	ldreq	r0, [r0, #-3845]!	; 0xfffff0fb
    17b0:	4d054038 	stcmi	0, cr4, [r5, #-224]	; 0xffffff20
    17b4:	4a0d0520 	bmi	342c3c <UART_InterruptFIFOLevelSelect+0x3417fc>
    17b8:	052f0e05 	streq	r0, [pc, #-3589]!	; 9bb <Reset_Handler+0x57>
    17bc:	4e054039 	mcrmi	0, 0, r4, cr5, cr9, {1}
    17c0:	4a0d0520 	bmi	342c48 <UART_InterruptFIFOLevelSelect+0x341808>
    17c4:	052f0e05 	streq	r0, [pc, #-3589]!	; 9c7 <Reset_Handler+0x63>
    17c8:	4d053f38 	stcmi	15, cr3, [r5, #-224]	; 0xffffff20
    17cc:	4a0d0520 	bmi	342c54 <UART_InterruptFIFOLevelSelect+0x341814>
    17d0:	052f0e05 	streq	r0, [pc, #-3589]!	; 9d3 <Reset_Handler+0x6f>
    17d4:	4d053f38 	stcmi	15, cr3, [r5, #-224]	; 0xffffff20
    17d8:	4a0d0520 	bmi	342c60 <UART_InterruptFIFOLevelSelect+0x341820>
    17dc:	052f0e05 	streq	r0, [pc, #-3589]!	; 9df <Reset_Handler+0x7b>
    17e0:	09053218 	stmdbeq	r5, {r3, r4, r9, ip, sp}
    17e4:	300b054a 	andcc	r0, fp, sl, asr #10
    17e8:	025e0305 	subseq	r0, lr, #335544320	; 0x14000000
    17ec:	01010009 	tsteq	r1, r9
    17f0:	05001705 	streq	r1, [r0, #-1797]	; 0xfffff8fb
    17f4:	00000002 	andeq	r0, r0, r2
    17f8:	04f70300 	ldrbteq	r0, [r7], #768	; 0x300
    17fc:	41350501 	teqmi	r5, r1, lsl #10
    1800:	05204a05 	streq	r4, [r0, #-2565]!	; 0xfffff5fb
    1804:	0f054a09 	svceq	0x00054a09
    1808:	40380530 	eorsmi	r0, r8, r0, lsr r5
    180c:	05204d05 	streq	r4, [r0, #-3333]!	; 0xfffff2fb
    1810:	0e054a0d 	vmlaeq.f32	s8, s10, s26
    1814:	4039052f 	eorsmi	r0, r9, pc, lsr #10
    1818:	05204e05 	streq	r4, [r0, #-3589]!	; 0xfffff1fb
    181c:	0e054a0d 	vmlaeq.f32	s8, s10, s26
    1820:	3f38052f 	svccc	0x0038052f
    1824:	05204d05 	streq	r4, [r0, #-3333]!	; 0xfffff2fb
    1828:	0e054a0d 	vmlaeq.f32	s8, s10, s26
    182c:	3f38052f 	svccc	0x0038052f
    1830:	05204d05 	streq	r4, [r0, #-3333]!	; 0xfffff2fb
    1834:	0e054a0d 	vmlaeq.f32	s8, s10, s26
    1838:	3218052f 	andscc	r0, r8, #197132288	; 0xbc00000
    183c:	054a0905 	strbeq	r0, [sl, #-2309]	; 0xfffff6fb
    1840:	0305300b 	movweq	r3, #20491	; 0x500b
    1844:	0009025e 	andeq	r0, r9, lr, asr r2
    1848:	17050101 	strne	r0, [r5, -r1, lsl #2]
    184c:	00020500 	andeq	r0, r2, r0, lsl #10
    1850:	03000000 	movweq	r0, #0
    1854:	050105b4 	streq	r0, [r1, #-1460]	; 0xfffffa4c
    1858:	4a054135 	bmi	151d34 <UART_InterruptFIFOLevelSelect+0x1508f4>
    185c:	4a090520 	bmi	242ce4 <UART_InterruptFIFOLevelSelect+0x2418a4>
    1860:	05300f05 	ldreq	r0, [r0, #-3845]!	; 0xfffff0fb
    1864:	4d054038 	stcmi	0, cr4, [r5, #-224]	; 0xffffff20
    1868:	4a0d0520 	bmi	342cf0 <UART_InterruptFIFOLevelSelect+0x3418b0>
    186c:	052f0e05 	streq	r0, [pc, #-3589]!	; a6f <SC_GetSystemClock+0x43>
    1870:	4e054039 	mcrmi	0, 0, r4, cr5, cr9, {1}
    1874:	4a0d0520 	bmi	342cfc <UART_InterruptFIFOLevelSelect+0x3418bc>
    1878:	052f0e05 	streq	r0, [pc, #-3589]!	; a7b <SC_GetSystemClock+0x4f>
    187c:	4d053f38 	stcmi	15, cr3, [r5, #-224]	; 0xffffff20
    1880:	4a0d0520 	bmi	342d08 <UART_InterruptFIFOLevelSelect+0x3418c8>
    1884:	052f0e05 	streq	r0, [pc, #-3589]!	; a87 <SC_GetSystemClock+0x5b>
    1888:	4d053f38 	stcmi	15, cr3, [r5, #-224]	; 0xffffff20
    188c:	4a0d0520 	bmi	342d14 <UART_InterruptFIFOLevelSelect+0x3418d4>
    1890:	052f0e05 	streq	r0, [pc, #-3589]!	; a93 <SC_GetSystemClock+0x67>
    1894:	09053218 	stmdbeq	r5, {r3, r4, r9, ip, sp}
    1898:	300b054a 	andcc	r0, fp, sl, asr #10
    189c:	025d0305 	subseq	r0, sp, #335544320	; 0x14000000
    18a0:	01010009 	tsteq	r1, r9
    18a4:	05001705 	streq	r1, [r0, #-1797]	; 0xfffff8fb
    18a8:	00000002 	andeq	r0, r0, r2
    18ac:	05f00300 	ldrbeq	r0, [r0, #768]!	; 0x300
    18b0:	41350501 	teqmi	r5, r1, lsl #10
    18b4:	05204a05 	streq	r4, [r0, #-2565]!	; 0xfffff5fb
    18b8:	0f054a09 	svceq	0x00054a09
    18bc:	40380530 	eorsmi	r0, r8, r0, lsr r5
    18c0:	05204d05 	streq	r4, [r0, #-3333]!	; 0xfffff2fb
    18c4:	0e054a0d 	vmlaeq.f32	s8, s10, s26
    18c8:	4039052f 	eorsmi	r0, r9, pc, lsr #10
    18cc:	05204e05 	streq	r4, [r0, #-3589]!	; 0xfffff1fb
    18d0:	0e054a0d 	vmlaeq.f32	s8, s10, s26
    18d4:	3f38052f 	svccc	0x0038052f
    18d8:	05204d05 	streq	r4, [r0, #-3333]!	; 0xfffff2fb
    18dc:	0e054a0d 	vmlaeq.f32	s8, s10, s26
    18e0:	3f38052f 	svccc	0x0038052f
    18e4:	05204d05 	streq	r4, [r0, #-3333]!	; 0xfffff2fb
    18e8:	0e054a0d 	vmlaeq.f32	s8, s10, s26
    18ec:	3218052f 	andscc	r0, r8, #197132288	; 0xbc00000
    18f0:	054a0905 	strbeq	r0, [sl, #-2309]	; 0xfffff6fb
    18f4:	0305300b 	movweq	r3, #20491	; 0x500b
    18f8:	0009025e 	andeq	r0, r9, lr, asr r2
    18fc:	17050101 	strne	r0, [r5, -r1, lsl #2]
    1900:	00020500 	andeq	r0, r2, r0, lsl #10
    1904:	03000000 	movweq	r0, #0
    1908:	050106ad 	streq	r0, [r1, #-1709]	; 0xfffff953
    190c:	4a054135 	bmi	151de8 <UART_InterruptFIFOLevelSelect+0x1509a8>
    1910:	4a090520 	bmi	242d98 <UART_InterruptFIFOLevelSelect+0x241958>
    1914:	05300f05 	ldreq	r0, [r0, #-3845]!	; 0xfffff0fb
    1918:	4d054038 	stcmi	0, cr4, [r5, #-224]	; 0xffffff20
    191c:	4a0d0520 	bmi	342da4 <UART_InterruptFIFOLevelSelect+0x341964>
    1920:	052f0e05 	streq	r0, [pc, #-3589]!	; b23 <SysTickFrequencyGet+0x23>
    1924:	4e054039 	mcrmi	0, 0, r4, cr5, cr9, {1}
    1928:	4a0d0520 	bmi	342db0 <UART_InterruptFIFOLevelSelect+0x341970>
    192c:	052f0e05 	streq	r0, [pc, #-3589]!	; b2f <SysTickFrequencyGet+0x2f>
    1930:	4d053f38 	stcmi	15, cr3, [r5, #-224]	; 0xffffff20
    1934:	4a0d0520 	bmi	342dbc <UART_InterruptFIFOLevelSelect+0x34197c>
    1938:	052f0e05 	streq	r0, [pc, #-3589]!	; b3b <SysTickFrequencyGet+0x3b>
    193c:	4d053f38 	stcmi	15, cr3, [r5, #-224]	; 0xffffff20
    1940:	4a0d0520 	bmi	342dc8 <UART_InterruptFIFOLevelSelect+0x341988>
    1944:	052f0e05 	streq	r0, [pc, #-3589]!	; b47 <SysTickConfigureClockSource+0x3>
    1948:	09053318 	stmdbeq	r5, {r3, r4, r8, r9, ip, sp}
    194c:	300b054a 	andcc	r0, fp, sl, asr #10
    1950:	025c0305 	subseq	r0, ip, #335544320	; 0x14000000
    1954:	01010009 	tsteq	r1, r9
    1958:	05001705 	streq	r1, [r0, #-1797]	; 0xfffff8fb
    195c:	00000002 	andeq	r0, r0, r2
    1960:	06e90300 	strbteq	r0, [r9], r0, lsl #6
    1964:	40350501 	eorsmi	r0, r5, r1, lsl #10
    1968:	05204a05 	streq	r4, [r0, #-2565]!	; 0xfffff5fb
    196c:	0f054a09 	svceq	0x00054a09
    1970:	40380530 	eorsmi	r0, r8, r0, lsr r5
    1974:	05204d05 	streq	r4, [r0, #-3333]!	; 0xfffff2fb
    1978:	0e054a0d 	vmlaeq.f32	s8, s10, s26
    197c:	4039052f 	eorsmi	r0, r9, pc, lsr #10
    1980:	05204e05 	streq	r4, [r0, #-3589]!	; 0xfffff1fb
    1984:	0e054a0d 	vmlaeq.f32	s8, s10, s26
    1988:	3f38052f 	svccc	0x0038052f
    198c:	05204d05 	streq	r4, [r0, #-3333]!	; 0xfffff2fb
    1990:	0e054a0d 	vmlaeq.f32	s8, s10, s26
    1994:	3f38052f 	svccc	0x0038052f
    1998:	05204d05 	streq	r4, [r0, #-3333]!	; 0xfffff2fb
    199c:	0e054a0d 	vmlaeq.f32	s8, s10, s26
    19a0:	3318052f 	tstcc	r8, #197132288	; 0xbc00000
    19a4:	054a0905 	strbeq	r0, [sl, #-2309]	; 0xfffff6fb
    19a8:	0305300b 	movweq	r3, #20491	; 0x500b
    19ac:	0009025d 	andeq	r0, r9, sp, asr r2
    19b0:	19050101 	stmdbne	r5, {r0, r8}
    19b4:	00020500 	andeq	r0, r2, r0, lsl #10
    19b8:	03000000 	movweq	r0, #0
    19bc:	050107a5 	streq	r0, [r1, #-1957]	; 0xfffff85b
    19c0:	4c054037 	stcmi	0, cr4, [r5], {55}	; 0x37
    19c4:	4a0b0520 	bmi	2c2e4c <UART_InterruptFIFOLevelSelect+0x2c1a0c>
    19c8:	05301105 	ldreq	r1, [r0, #-261]!	; 0xfffffefb
    19cc:	4f05403a 	svcmi	0x0005403a
    19d0:	4a0f0520 	bmi	3c2e58 <UART_InterruptFIFOLevelSelect+0x3c1a18>
    19d4:	052f1005 	streq	r1, [pc, #-5]!	; 19d7 <UART_InterruptFIFOLevelSelect+0x597>
    19d8:	5005403b 	andpl	r4, r5, fp, lsr r0
    19dc:	4a0f0520 	bmi	3c2e64 <UART_InterruptFIFOLevelSelect+0x3c1a24>
    19e0:	052f1005 	streq	r1, [pc, #-5]!	; 19e3 <UART_InterruptFIFOLevelSelect+0x5a3>
    19e4:	4f053f3a 	svcmi	0x00053f3a
    19e8:	4a0f0520 	bmi	3c2e70 <UART_InterruptFIFOLevelSelect+0x3c1a30>
    19ec:	052f1005 	streq	r1, [pc, #-5]!	; 19ef <UART_InterruptFIFOLevelSelect+0x5af>
    19f0:	4f053f3a 	svcmi	0x00053f3a
    19f4:	4a0f0520 	bmi	3c2e7c <UART_InterruptFIFOLevelSelect+0x3c1a3c>
    19f8:	052f1005 	streq	r1, [pc, #-5]!	; 19fb <UART_InterruptFIFOLevelSelect+0x5bb>
    19fc:	0b05331a 	bleq	14e66c <UART_InterruptFIFOLevelSelect+0x14d22c>
    1a00:	300d054a 	andcc	r0, sp, sl, asr #10
    1a04:	025c0605 	subseq	r0, ip, #5242880	; 0x500000
    1a08:	01010009 	tsteq	r1, r9
    1a0c:	05006505 	streq	r6, [r0, #-1285]	; 0xfffffafb
    1a10:	00000002 	andeq	r0, r0, r2
    1a14:	07e20300 	strbeq	r0, [r2, r0, lsl #6]!
    1a18:	5d5c0501 	cfldr64pl	mvdx0, [ip, #-4]
    1a1c:	054a6d05 	strbeq	r6, [sl, #-3333]	; 0xfffff2fb
    1a20:	5c053c61 	stcpl	12, cr3, [r5], {97}	; 0x61
    1a24:	9807052e 	stmdals	r7, {r1, r2, r3, r5, r8, sl}
    1a28:	05402805 	strbeq	r2, [r0, #-2053]	; 0xfffff7fb
    1a2c:	43053c1e 	movwmi	r3, #23582	; 0x5c1e
    1a30:	0337053c 	teqeq	r7, #60, 10	; 0xf000000
    1a34:	2d054a0c 	vstrcs	s8, [r5, #-48]	; 0xffffffd0
    1a38:	3c5e053c 	cfldr64cc	mvdx0, [lr], {60}	; 0x3c
    1a3c:	05593a05 	ldrbeq	r3, [r9, #-2565]	; 0xfffff5fb
    1a40:	64053c30 	strvs	r3, [r5], #-3120	; 0xfffff3d0
    1a44:	0354053c 	cmpeq	r4, #60, 10	; 0xf000000
    1a48:	2d055817 	stccs	8, cr5, [r5, #-92]	; 0xffffffa4
    1a4c:	3c23052e 	cfstr32cc	mvfx0, [r3], #-184	; 0xffffff48
    1a50:	053c5405 	ldreq	r5, [ip, #-1029]!	; 0xfffffbfb
    1a54:	2d054a49 	vstrcs	s8, [r5, #-292]	; 0xfffffedc
    1a58:	3c23054f 	cfstr32cc	mvfx0, [r3], #-316	; 0xfffffec4
    1a5c:	053c4905 	ldreq	r4, [ip, #-2309]!	; 0xfffff6fb
    1a60:	23054b2d 	movwcs	r4, #23341	; 0x5b2d
    1a64:	3c4a053c 	cfstr64cc	mvdx0, [sl], {60}	; 0x3c
    1a68:	054d5f05 	strbeq	r5, [sp, #-3845]	; 0xfffff0fb
    1a6c:	2a052e34 	bcs	14d344 <UART_InterruptFIFOLevelSelect+0x14bf04>
    1a70:	3c5f053c 	cfldr64cc	mvdx0, [pc], {60}	; 0x3c
    1a74:	054a5405 	strbeq	r5, [sl, #-1029]	; 0xfffffbfb
    1a78:	1e054e28 	cdpne	14, 0, cr4, cr5, cr8, {1}
    1a7c:	3c43053c 	cfstr64cc	mvdx0, [r3], {60}	; 0x3c
    1a80:	024c0305 	subeq	r0, ip, #335544320	; 0x14000000
    1a84:	01010010 	tsteq	r1, r0, lsl r0
    1a88:	00019005 	andeq	r9, r1, r5
    1a8c:	00000205 	andeq	r0, r0, r5, lsl #4
    1a90:	bd030000 	stclt	0, cr0, [r3, #-0]
    1a94:	26050108 	strcs	r0, [r5], -r8, lsl #2
    1a98:	4a350593 	bmi	d430ec <UART_InterruptFIFOLevelSelect+0xd41cac>
    1a9c:	314a0905 	cmpcc	sl, r5, lsl #18
    1aa0:	053d2805 	ldreq	r2, [sp, #-2053]!	; 0xfffff7fb
    1aa4:	03054a50 	movweq	r4, #23120	; 0x5a50
    1aa8:	05821203 	streq	r1, [r2, #515]	; 0x203
    1aac:	2071030e 	rsbscs	r0, r1, lr, lsl #6
    1ab0:	053d2805 	ldreq	r2, [sp, #-2053]!	; 0xfffff7fb
    1ab4:	03054a4c 	movweq	r4, #23116	; 0x5a4c
    1ab8:	05820e03 	streq	r0, [r2, #3587]	; 0xe03
    1abc:	2075030e 	rsbscs	r0, r5, lr, lsl #6
    1ac0:	053d2805 	ldreq	r2, [sp, #-2053]!	; 0xfffff7fb
    1ac4:	03054a4d 	movweq	r4, #23117	; 0x5a4d
    1ac8:	05820a03 	streq	r0, [r2, #2563]	; 0xa03
    1acc:	2079030e 	rsbscs	r0, r9, lr, lsl #6
    1ad0:	053d2805 	ldreq	r2, [sp, #-2053]!	; 0xfffff7fb
    1ad4:	03054a51 	movweq	r4, #23121	; 0x5a51
    1ad8:	000a0288 	andeq	r0, sl, r8, lsl #5
    1adc:	4b050101 	blmi	141ee8 <UART_InterruptFIFOLevelSelect+0x140aa8>
    1ae0:	00020500 	andeq	r0, r2, r0, lsl #10
    1ae4:	03000000 	movweq	r0, #0
    1ae8:	050108d9 	streq	r0, [r1, #-2265]	; 0xfffff727
    1aec:	3d05681f 	stccc	8, cr6, [r5, #-124]	; 0xffffff84
    1af0:	4e0d054a 	cfsh32mi	mvfx0, mvfx13, #42
    1af4:	02002305 	andeq	r2, r0, #335544320	; 0x14000000
    1af8:	05200104 	streq	r0, [r0, #-260]!	; 0xfffffefc
    1afc:	04020032 	streq	r0, [r2], #-50	; 0xffffffce
    1b00:	0d054a01 	vstreq	s8, [r5, #-4]
    1b04:	01040200 	mrseq	r0, R12_usr
    1b08:	301c054a 	andscc	r0, ip, sl, asr #10
    1b0c:	054a3205 	strbeq	r3, [sl, #-517]	; 0xfffffdfb
    1b10:	04052e30 	streq	r2, [r5], #-3632	; 0xfffff1d0
    1b14:	000b024c 	andeq	r0, fp, ip, asr #4
    1b18:	4b050101 	blmi	141f24 <UART_InterruptFIFOLevelSelect+0x140ae4>
    1b1c:	00020500 	andeq	r0, r2, r0, lsl #10
    1b20:	03000000 	movweq	r0, #0
    1b24:	050108e6 	streq	r0, [r1, #-2278]	; 0xfffff71a
    1b28:	3d056820 	stccc	8, cr6, [r5, #-128]	; 0xffffff80
    1b2c:	4c0e054a 	cfstr32mi	mvfx0, [lr], {74}	; 0x4a
    1b30:	02002405 	andeq	r2, r0, #83886080	; 0x5000000
    1b34:	05200104 	streq	r0, [r0, #-260]!	; 0xfffffefc
    1b38:	04020033 	streq	r0, [r2], #-51	; 0xffffffcd
    1b3c:	0e054a01 	vmlaeq.f32	s8, s10, s2
    1b40:	01040200 	mrseq	r0, R12_usr
    1b44:	3034054a 	eorscc	r0, r4, sl, asr #10
    1b48:	054a4305 	strbeq	r4, [sl, #-773]	; 0xfffffcfb
    1b4c:	04052e1e 	streq	r2, [r5], #-3614	; 0xfffff1e2
    1b50:	000b0230 	andeq	r0, fp, r0, lsr r2
    1b54:	4d050101 	stfmis	f0, [r5, #-4]
    1b58:	00020500 	andeq	r0, r2, r0, lsl #10
    1b5c:	03000000 	movweq	r0, #0
    1b60:	050108f2 	streq	r0, [r1, #-2290]	; 0xfffff70e
    1b64:	3d056a1f 	vstrcc	s12, [r5, #-124]	; 0xffffff84
    1b68:	4c34054a 	cfldr32mi	mvfx0, [r4], #-296	; 0xfffffed8
    1b6c:	053c0805 	ldreq	r0, [ip, #-2053]!	; 0xfffff7fb
    1b70:	4a053e25 	bmi	15140c <UART_InterruptFIFOLevelSelect+0x14ffcc>
    1b74:	4c1b054a 	cfldr32mi	mvfx0, [fp], {74}	; 0x4a
    1b78:	054a3105 	strbeq	r3, [sl, #-261]	; 0xfffffefb
    1b7c:	04052e2f 	streq	r2, [r5], #-3631	; 0xfffff1d1
    1b80:	000c024c 	andeq	r0, ip, ip, asr #4
    1b84:	4d050101 	stfmis	f0, [r5, #-4]
    1b88:	00020500 	andeq	r0, r2, r0, lsl #10
    1b8c:	03000000 	movweq	r0, #0
    1b90:	05010981 	streq	r0, [r1, #-2433]	; 0xfffff67f
    1b94:	3d056820 	stccc	8, cr6, [r5, #-128]	; 0xffffff80
    1b98:	4b36054a 	blmi	d830c8 <UART_InterruptFIFOLevelSelect+0xd81c88>
    1b9c:	053c0a05 	ldreq	r0, [ip, #-2565]!	; 0xfffff5fb
    1ba0:	4a053d26 	bmi	151040 <UART_InterruptFIFOLevelSelect+0x14fc00>
    1ba4:	4c35054a 	cfldr32mi	mvfx0, [r5], #-296	; 0xfffffed8
    1ba8:	054a4405 	strbeq	r4, [sl, #-1029]	; 0xfffffbfb
    1bac:	04052e1e 	streq	r2, [r5], #-3614	; 0xfffff1e2
    1bb0:	000c0230 	andeq	r0, ip, r0, lsr r2
    1bb4:	6d050101 	stfvss	f0, [r5, #-4]
    1bb8:	00020500 	andeq	r0, r2, r0, lsl #10
    1bbc:	03000000 	movweq	r0, #0
    1bc0:	0501098b 	streq	r0, [r1, #-2443]	; 0xfffff675
    1bc4:	0b058419 	bleq	162c30 <UART_InterruptFIFOLevelSelect+0x1617f0>
    1bc8:	587f053e 	ldmdapl	pc!, {r1, r2, r3, r4, r5, r8, sl}^	; <UNPREDICTABLE>
    1bcc:	053c0b05 	ldreq	r0, [ip, #-2821]!	; 0xfffff4fb
    1bd0:	0d054b49 	vstreq	d4, [r5, #-292]	; 0xfffffedc
    1bd4:	20490520 	subcs	r0, r9, r0, lsr #10
    1bd8:	053c2e05 	ldreq	r2, [ip, #-3589]!	; 0xfffff1fb
    1bdc:	40052228 	andmi	r2, r5, r8, lsr #4
    1be0:	5a24054a 	bpl	903110 <UART_InterruptFIFOLevelSelect+0x901cd0>
    1be4:	054a4505 	strbeq	r4, [sl, #-1285]	; 0xfffffafb
    1be8:	3f054b21 	svccc	0x00054b21
    1bec:	4b18054a 	blmi	60311c <UART_InterruptFIFOLevelSelect+0x601cdc>
    1bf0:	023d0605 	eorseq	r0, sp, #5242880	; 0x500000
    1bf4:	01010013 	tsteq	r1, r3, lsl r0
    1bf8:	05003305 	streq	r3, [r0, #-773]	; 0xfffffcfb
    1bfc:	00000002 	andeq	r0, r0, r2
    1c00:	09990300 	ldmibeq	r9, {r8, r9}
    1c04:	03240501 			; <UNDEFINED> instruction: 0x03240501
    1c08:	44055809 	strmi	r5, [r5], #-2057	; 0xfffff7f7
    1c0c:	4b21054a 	blmi	84313c <UART_InterruptFIFOLevelSelect+0x841cfc>
    1c10:	054a3f05 	strbeq	r3, [sl, #-3845]	; 0xfffff0fb
    1c14:	09024d06 	stmdbeq	r2, {r1, r2, r8, sl, fp, lr}
    1c18:	05010100 	streq	r0, [r1, #-256]	; 0xffffff00
    1c1c:	02050063 	andeq	r0, r5, #99	; 0x63
    1c20:	00000000 	andeq	r0, r0, r0
    1c24:	0109a803 	tsteq	r9, r3, lsl #16
    1c28:	05681805 	strbeq	r1, [r8, #-2053]!	; 0xfffff7fb
    1c2c:	61053d0a 	tstvs	r5, sl, lsl #26
    1c30:	3c0a0558 	cfstr32cc	mvfx0, [sl], {88}	; 0x58
    1c34:	054b4305 	strbeq	r4, [fp, #-773]	; 0xfffffcfb
    1c38:	4305200c 	movwmi	r2, #20492	; 0x500c
    1c3c:	3c280520 	cfstr32cc	mvfx0, [r8], #-128	; 0xffffff80
    1c40:	05211805 	streq	r1, [r1, #-2053]!	; 0xfffff7fb
    1c44:	0c023e06 	stceq	14, cr3, [r2], {6}
    1c48:	05010100 	streq	r0, [r1, #-256]	; 0xffffff00
    1c4c:	02050065 	andeq	r0, r5, #101	; 0x65
    1c50:	00000000 	andeq	r0, r0, r0
    1c54:	0109b103 	tsteq	r9, r3, lsl #2
    1c58:	05681805 	strbeq	r1, [r8, #-2053]!	; 0xfffff7fb
    1c5c:	6a053d0a 	bvs	15108c <UART_InterruptFIFOLevelSelect+0x14fc4c>
    1c60:	3c0a0558 	cfstr32cc	mvfx0, [sl], {88}	; 0x58
    1c64:	054b4c05 	strbeq	r4, [fp, #-3077]	; 0xfffff3fb
    1c68:	4c05200c 	stcmi	0, cr2, [r5], {12}
    1c6c:	3c310520 	cfldr32cc	mvfx0, [r1], #-128	; 0xffffff80
    1c70:	05211805 	streq	r1, [r1, #-2053]!	; 0xfffff7fb
    1c74:	0c023e06 	stceq	14, cr3, [r2], {6}
    1c78:	05010100 	streq	r0, [r1, #-256]	; 0xffffff00
    1c7c:	02050043 	andeq	r0, r5, #67	; 0x43
    1c80:	00000000 	andeq	r0, r0, r0
    1c84:	0109bc03 	tsteq	r9, r3, lsl #24
    1c88:	05680905 	strbeq	r0, [r8, #-2309]!	; 0xfffff6fb
    1c8c:	34059225 	strcc	r9, [r5], #-549	; 0xfffffddb
    1c90:	4a0b054a 	bmi	2c31c0 <UART_InterruptFIFOLevelSelect+0x2c1d80>
    1c94:	05302805 	ldreq	r2, [r0, #-2053]!	; 0xfffff7fb
    1c98:	12054a37 	andne	r4, r5, #225280	; 0x37000
    1c9c:	2f0d052e 	svccs	0x000d052e
    1ca0:	05220e05 	streq	r0, [r2, #-3589]!	; 0xfffff1fb
    1ca4:	3c160305 	ldccc	3, cr0, [r6], {5}
    1ca8:	01000902 	tsteq	r0, r2, lsl #18
    1cac:	005e0501 	subseq	r0, lr, r1, lsl #10
    1cb0:	00000205 	andeq	r0, r0, r5, lsl #4
    1cb4:	e2030000 	and	r0, r3, #0
    1cb8:	17050109 	strne	r0, [r5, -r9, lsl #2]
    1cbc:	201d0568 	andscs	r0, sp, r8, ror #10
    1cc0:	024b0505 	subeq	r0, fp, #20971520	; 0x1400000
    1cc4:	01010007 	tsteq	r1, r7
    1cc8:	05005e05 	streq	r5, [r0, #-3589]	; 0xfffff1fb
    1ccc:	00000002 	andeq	r0, r0, r2
    1cd0:	09e80300 	stmibeq	r8!, {r8, r9}^
    1cd4:	68180501 	ldmdavs	r8, {r0, r8, sl}
    1cd8:	05201e05 	streq	r1, [r0, #-3589]!	; 0xfffff1fb
    1cdc:	07024b05 	streq	r4, [r2, -r5, lsl #22]
    1ce0:	05010100 	streq	r0, [r1, #-256]	; 0xffffff00
    1ce4:	0205005e 	andeq	r0, r5, #94	; 0x5e
    1ce8:	00000000 	andeq	r0, r0, r0
    1cec:	0109ed03 	tsteq	r9, r3, lsl #26
    1cf0:	05681805 	strbeq	r1, [r8, #-2053]!	; 0xfffff7fb
    1cf4:	0505201e 	streq	r2, [r5, #-30]	; 0xffffffe2
    1cf8:	0007024b 	andeq	r0, r7, fp, asr #4
    1cfc:	5e050101 	adfpls	f0, f5, f1
    1d00:	00020500 	andeq	r0, r2, r0, lsl #10
    1d04:	03000000 	movweq	r0, #0
    1d08:	050109f2 	streq	r0, [r1, #-2546]	; 0xfffff60e
    1d0c:	1e056818 	mcrne	8, 0, r6, cr5, cr8, {0}
    1d10:	4b050520 	blmi	143198 <UART_InterruptFIFOLevelSelect+0x141d58>
    1d14:	01000702 	tsteq	r0, r2, lsl #14
    1d18:	005e0501 	subseq	r0, lr, r1, lsl #10
    1d1c:	00000205 	andeq	r0, r0, r5, lsl #4
    1d20:	f7030000 			; <UNDEFINED> instruction: 0xf7030000
    1d24:	18050109 	stmdane	r5, {r0, r3, r8}
    1d28:	201e0568 	andscs	r0, lr, r8, ror #10
    1d2c:	024b0505 	subeq	r0, fp, #20971520	; 0x1400000
    1d30:	01010007 	tsteq	r1, r7
    1d34:	05005e05 	streq	r5, [r0, #-3589]	; 0xfffff1fb
    1d38:	00000002 	andeq	r0, r0, r2
    1d3c:	09fc0300 	ldmibeq	ip!, {r8, r9}^
    1d40:	68180501 	ldmdavs	r8, {r0, r8, sl}
    1d44:	05201e05 	streq	r1, [r0, #-3589]!	; 0xfffff1fb
    1d48:	07024c05 	streq	r4, [r2, -r5, lsl #24]
    1d4c:	05010100 	streq	r0, [r1, #-256]	; 0xffffff00
    1d50:	0205005e 	andeq	r0, r5, #94	; 0x5e
    1d54:	00000000 	andeq	r0, r0, r0
    1d58:	010a8103 	tsteq	sl, r3, lsl #2
    1d5c:	05681805 	strbeq	r1, [r8, #-2053]!	; 0xfffff7fb
    1d60:	0505201e 	streq	r2, [r5, #-30]	; 0xffffffe2
    1d64:	0007024c 	andeq	r0, r7, ip, asr #4
    1d68:	5e050101 	adfpls	f0, f5, f1
    1d6c:	00020500 	andeq	r0, r2, r0, lsl #10
    1d70:	03000000 	movweq	r0, #0
    1d74:	05010a86 	streq	r0, [r1, #-2694]	; 0xfffff57a
    1d78:	1e056818 	mcrne	8, 0, r6, cr5, cr8, {0}
    1d7c:	4c050520 	cfstr32mi	mvfx0, [r5], {32}
    1d80:	01000702 	tsteq	r0, r2, lsl #14
    1d84:	00004501 	andeq	r4, r0, r1, lsl #10
    1d88:	3f000300 	svccc	0x00000300
    1d8c:	02000000 	andeq	r0, r0, #0
    1d90:	0d0efb01 	vstreq	d15, [lr, #-4]
    1d94:	01010100 	mrseq	r0, (UNDEF: 17)
    1d98:	00000001 	andeq	r0, r0, r1
    1d9c:	01000001 	tsteq	r0, r1
    1da0:	74736c00 	ldrbtvc	r6, [r3], #-3072	; 0xfffff400
    1da4:	00682e64 	rsbeq	r2, r8, r4, ror #28
    1da8:	55000000 	strpl	r0, [r0, #-0]
    1dac:	5f545241 	svcpl	0x00545241
    1db0:	666e6f63 	strbtvs	r6, [lr], -r3, ror #30
    1db4:	682e6769 	stmdavs	lr!, {r0, r3, r5, r6, r8, r9, sl, sp, lr}
    1db8:	00000000 	andeq	r0, r0, r0
    1dbc:	54524155 	ldrbpl	r4, [r2], #-341	; 0xfffffeab
    1dc0:	6e6f635f 	mcrvs	3, 3, r6, cr15, cr15, {2}
    1dc4:	2e676966 	vnmulcs.f16	s13, s14, s13	; <UNPREDICTABLE>
    1dc8:	00000063 	andeq	r0, r0, r3, rrx
	...

Disassembly of section .debug_str:

00000000 <.debug_str>:
       0:	6e616843 	cdpvs	8, 6, cr6, cr1, cr3, {2}
       4:	496c656e 	stmdbmi	ip!, {r1, r2, r3, r5, r6, r8, sl, sp, lr}^
       8:	7265746e 	rsbvc	r7, r5, #1845493760	; 0x6e000000
       c:	74707572 	ldrbtvc	r7, [r0], #-1394	; 0xfffffa8e
      10:	74617453 	strbtvc	r7, [r1], #-1107	; 0xfffffbad
      14:	325f7375 	subscc	r7, pc, #-738197503	; 0xd4000001
      18:	61684300 	cmnvs	r8, r0, lsl #6
      1c:	6c656e6e 	stclvs	14, cr6, [r5], #-440	; 0xfffffe48
      20:	65746e49 	ldrbvs	r6, [r4, #-3657]!	; 0xfffff1b7
      24:	70757272 	rsbsvc	r7, r5, r2, ror r2
      28:	61745374 	cmnvs	r4, r4, ror r3
      2c:	5f737574 	svcpl	0x00737574
      30:	68430033 	stmdavs	r3, {r0, r1, r4, r5}^
      34:	656e6e61 	strbvs	r6, [lr, #-3681]!	; 0xfffff19f
      38:	746e496c 	strbtvc	r4, [lr], #-2412	; 0xfffff694
      3c:	75727265 	ldrbvc	r7, [r2, #-613]!	; 0xfffffd9b
      40:	74537470 	ldrbvc	r7, [r3], #-1136	; 0xfffffb90
      44:	73757461 	cmnvc	r5, #1627389952	; 0x61000000
      48:	4300345f 	movwmi	r3, #1119	; 0x45f
      4c:	6e6e6168 	powvsez	f6, f6, #0.0
      50:	6e496c65 	cdpvs	12, 4, cr6, cr9, cr5, {3}
      54:	72726574 	rsbsvc	r6, r2, #116, 10	; 0x1d000000
      58:	53747075 	cmnpl	r4, #117	; 0x75
      5c:	75746174 	ldrbvc	r6, [r4, #-372]!	; 0xfffffe8c
      60:	00355f73 	eorseq	r5, r5, r3, ror pc
      64:	6e616843 	cdpvs	8, 6, cr6, cr1, cr3, {2}
      68:	496c656e 	stmdbmi	ip!, {r1, r2, r3, r5, r6, r8, sl, sp, lr}^
      6c:	7265746e 	rsbvc	r7, r5, #1845493760	; 0x6e000000
      70:	74707572 	ldrbtvc	r7, [r0], #-1394	; 0xfffffa8e
      74:	74617453 	strbtvc	r7, [r1], #-1107	; 0xfffffbad
      78:	365f7375 			; <UNDEFINED> instruction: 0x365f7375
      7c:	61684300 	cmnvs	r8, r0, lsl #6
      80:	6c656e6e 	stclvs	14, cr6, [r5], #-440	; 0xfffffe48
      84:	65746e49 	ldrbvs	r6, [r4, #-3657]!	; 0xfffff1b7
      88:	70757272 	rsbsvc	r7, r5, r2, ror r2
      8c:	61745374 	cmnvs	r4, r4, ror r3
      90:	5f737574 	svcpl	0x00737574
      94:	68430037 	stmdavs	r3, {r0, r1, r2, r4, r5}^
      98:	656e6e61 	strbvs	r6, [lr, #-3681]!	; 0xfffff19f
      9c:	746e496c 	strbtvc	r4, [lr], #-2412	; 0xfffff694
      a0:	75727265 	ldrbvc	r7, [r2, #-613]!	; 0xfffffd9b
      a4:	74537470 	ldrbvc	r7, [r3], #-1136	; 0xfffffb90
      a8:	73757461 	cmnvc	r5, #1627389952	; 0x61000000
      ac:	4300385f 	movwmi	r3, #2143	; 0x85f
      b0:	6e6e6168 	powvsez	f6, f6, #0.0
      b4:	6e496c65 	cdpvs	12, 4, cr6, cr9, cr5, {3}
      b8:	72726574 	rsbsvc	r6, r2, #116, 10	; 0x1d000000
      bc:	53747075 	cmnpl	r4, #117	; 0x75
      c0:	75746174 	ldrbvc	r6, [r4, #-372]!	; 0xfffffe8c
      c4:	00395f73 	eorseq	r5, r9, r3, ror pc
      c8:	74726f50 	ldrbtvc	r6, [r2], #-3920	; 0xfffff0b0
      cc:	6f500044 	svcvs	0x00500044
      d0:	00457472 	subeq	r7, r5, r2, ror r4
      d4:	74726f50 	ldrbtvc	r6, [r2], #-3920	; 0xfffff0b0
      d8:	53440046 	movtpl	r0, #16454	; 0x4046
      dc:	5a495354 	bpl	1254e34 <UART_InterruptFIFOLevelSelect+0x12539f4>
      e0:	325f0045 	subscc	r0, pc, #69	; 0x45
      e4:	6172545f 	cmnvs	r2, pc, asr r4
      e8:	6566736e 	strbvs	r7, [r6, #-878]!	; 0xfffffc92
      ec:	45007372 	strmi	r7, [r0, #-882]	; 0xfffffc8e
      f0:	6c62616e 	stfvse	f6, [r2], #-440	; 0xfffffe48
      f4:	746e4965 	strbtvc	r4, [lr], #-2405	; 0xfffff69b
      f8:	75727265 	ldrbvc	r7, [r2, #-613]!	; 0xfffffd9b
      fc:	75007470 	strvc	r7, [r0, #-1136]	; 0xfffffb90
     100:	6f433869 	svcvs	0x00433869
     104:	6f72746e 	svcvs	0x0072746e
     108:	6261546c 	rsbvs	r5, r1, #108, 8	; 0x6c000000
     10c:	5300656c 	movwpl	r6, #1388	; 0x56c
     110:	69487465 	stmdbvs	r8, {r0, r2, r5, r6, sl, ip, sp, lr}^
     114:	72506867 	subsvc	r6, r0, #6750208	; 0x670000
     118:	69726f69 	ldmdbvs	r2!, {r0, r3, r5, r6, r8, r9, sl, fp, sp, lr}^
     11c:	68437974 	stmdavs	r3, {r2, r4, r5, r6, r8, fp, ip, sp, lr}^
     120:	656e6e61 	strbvs	r6, [lr, #-3681]!	; 0xfffff19f
     124:	6c41006c 	mcrrvs	0, 6, r0, r1, cr12
     128:	6e726574 	mrcvs	5, 3, r6, cr2, cr4, {3}
     12c:	4d657461 	cfstrdmi	mvd7, [r5, #-388]!	; 0xfffffe7c
     130:	726f6d65 	rsbvc	r6, pc, #6464	; 0x1940
     134:	61635379 	smcvs	13625	; 0x3539
     138:	72657474 	rsbvc	r7, r5, #116, 8	; 0x74000000
     13c:	68746147 	ldmdavs	r4!, {r0, r1, r2, r6, r8, sp, lr}^
     140:	45007265 	strmi	r7, [r0, #-613]	; 0xfffffd9b
     144:	6c62616e 	stfvse	f6, [r2], #-440	; 0xfffffe48
     148:	666f5365 	strbtvs	r5, [pc], -r5, ror #6
     14c:	72617774 	rsbvc	r7, r1, #116, 14	; 0x1d00000
     150:	71655265 	cmnvc	r5, r5, ror #4
     154:	74736575 	ldrbtvc	r6, [r3], #-1397	; 0xfffffa8b
     158:	71655200 	cmnvc	r5, r0, lsl #4
     15c:	74736575 	ldrbtvc	r6, [r3], #-1397	; 0xfffffa8b
     160:	65646f4d 	strbvs	r6, [r4, #-3917]!	; 0xfffff0b3
     164:	414d4400 	cmpmi	sp, r0, lsl #8
     168:	6168435f 	cmnvs	r8, pc, asr r3
     16c:	6c656e6e 	stclvs	14, cr6, [r5], #-440	; 0xfffffe48
     170:	746e6f43 	strbtvc	r6, [lr], #-3907	; 0xfffff0bd
     174:	536c6f72 	cmnpl	ip, #456	; 0x1c8
     178:	63757274 	cmnvs	r5, #116, 4	; 0x40000007
     17c:	65727574 	ldrbvs	r7, [r2, #-1396]!	; 0xfffffa8c
     180:	00746553 	rsbseq	r6, r4, r3, asr r5
     184:	5f414d44 	svcpl	0x00414d44
     188:	6e616843 	cdpvs	8, 6, cr6, cr1, cr3, {2}
     18c:	416c656e 	cmnmi	ip, lr, ror #10
     190:	7265746c 	rsbvc	r7, r5, #108, 8	; 0x6c000000
     194:	6574616e 	ldrbvs	r6, [r4, #-366]!	; 0xfffffe92
     198:	746e6f43 	strbtvc	r6, [lr], #-3907	; 0xfffff0bd
     19c:	536c6f72 	cmnpl	ip, #456	; 0x1c8
     1a0:	63757274 	cmnvs	r5, #116, 4	; 0x40000007
     1a4:	65727574 	ldrbvs	r7, [r2, #-1396]!	; 0xfffffa8c
     1a8:	00746553 	rsbseq	r6, r4, r3, asr r5
     1ac:	20554e47 	subscs	r4, r5, r7, asr #28
     1b0:	20373143 	eorscs	r3, r7, r3, asr #2
     1b4:	332e3031 			; <UNDEFINED> instruction: 0x332e3031
     1b8:	3220312e 	eorcc	r3, r0, #-2147483637	; 0x8000000b
     1bc:	30313230 	eorscc	r3, r1, r0, lsr r2
     1c0:	20343238 	eorscs	r3, r4, r8, lsr r2
     1c4:	6c657228 	sfmvs	f7, 2, [r5], #-160	; 0xffffff60
     1c8:	65736165 	ldrbvs	r6, [r3, #-357]!	; 0xfffffe9b
     1cc:	6d2d2029 	stcvs	0, cr2, [sp, #-164]!	; 0xffffff5c
     1d0:	3d757063 	ldclcc	0, cr7, [r5, #-396]!	; 0xfffffe74
     1d4:	74726f63 	ldrbtvc	r6, [r2], #-3939	; 0xfffff09d
     1d8:	6d2d7865 	stcvs	8, cr7, [sp, #-404]!	; 0xfffffe6c
     1dc:	6d2d2034 	stcvs	0, cr2, [sp, #-208]!	; 0xffffff30
     1e0:	616f6c66 	cmnvs	pc, r6, ror #24
     1e4:	62612d74 	rsbvs	r2, r1, #116, 26	; 0x1d00
     1e8:	6f733d69 	svcvs	0x00733d69
     1ec:	2d207466 	cfstrscs	mvf7, [r0, #-408]!	; 0xfffffe68
     1f0:	7568746d 	strbvc	r7, [r8, #-1133]!	; 0xfffffb93
     1f4:	2d20626d 	sfmcs	f6, 4, [r0, #-436]!	; 0xfffffe4c
     1f8:	6372616d 	cmnvs	r2, #1073741851	; 0x4000001b
     1fc:	72613d68 	rsbvc	r3, r1, #104, 26	; 0x1a00
     200:	6537766d 	ldrvs	r7, [r7, #-1645]!	; 0xfffff993
     204:	2d206d2d 	stccs	13, cr6, [r0, #-180]!	; 0xffffff4c
     208:	61776467 	cmnvs	r7, r7, ror #8
     20c:	322d6672 	eorcc	r6, sp, #119537664	; 0x7200000
     210:	20672d20 	rsbcs	r2, r7, r0, lsr #26
     214:	20304f2d 	eorscs	r4, r0, sp, lsr #30
     218:	7566662d 	strbvc	r6, [r6, #-1581]!	; 0xfffff9d3
     21c:	6974636e 	ldmdbvs	r4!, {r1, r2, r3, r5, r6, r8, r9, sp, lr}^
     220:	732d6e6f 			; <UNDEFINED> instruction: 0x732d6e6f
     224:	69746365 	ldmdbvs	r4!, {r0, r2, r5, r6, r8, r9, sp, lr}^
     228:	20736e6f 	rsbscs	r6, r3, pc, ror #28
     22c:	6164662d 	cmnvs	r4, sp, lsr #12
     230:	732d6174 			; <UNDEFINED> instruction: 0x732d6174
     234:	69746365 	ldmdbvs	r4!, {r0, r2, r5, r6, r8, r9, sp, lr}^
     238:	00736e6f 	rsbseq	r6, r3, pc, ror #28
     23c:	6e496f4e 	cdpvs	15, 4, cr6, cr9, cr14, {2}
     240:	6d657263 	sfmvs	f7, 2, [r5, #-396]!	; 0xfffffe74
     244:	5f746e65 	svcpl	0x00746e65
     248:	49637273 	stmdbmi	r3!, {r0, r1, r4, r5, r6, r9, ip, sp, lr}^
     24c:	4300636e 	movwmi	r6, #878	; 0x36e
     250:	6e6e6168 	powvsez	f6, f6, #0.0
     254:	6e496c65 	cdpvs	12, 4, cr6, cr9, cr5, {3}
     258:	72726574 	rsbsvc	r6, r2, #116, 10	; 0x1d000000
     25c:	53747075 	cmnpl	r4, #117	; 0x75
     260:	75746174 	ldrbvc	r6, [r4, #-372]!	; 0xfffffe8c
     264:	30315f73 	eorscc	r5, r1, r3, ror pc
     268:	61684300 	cmnvs	r8, r0, lsl #6
     26c:	6c656e6e 	stclvs	14, cr6, [r5], #-440	; 0xfffffe48
     270:	65746e49 	ldrbvs	r6, [r4, #-3657]!	; 0xfffff1b7
     274:	70757272 	rsbsvc	r7, r5, r2, ror r2
     278:	61745374 	cmnvs	r4, r4, ror r3
     27c:	5f737574 	svcpl	0x00737574
     280:	43003131 	movwmi	r3, #305	; 0x131
     284:	6e6e6168 	powvsez	f6, f6, #0.0
     288:	6e496c65 	cdpvs	12, 4, cr6, cr9, cr5, {3}
     28c:	72726574 	rsbsvc	r6, r2, #116, 10	; 0x1d000000
     290:	53747075 	cmnpl	r4, #117	; 0x75
     294:	75746174 	ldrbvc	r6, [r4, #-372]!	; 0xfffffe8c
     298:	32315f73 	eorscc	r5, r1, #460	; 0x1cc
     29c:	61684300 	cmnvs	r8, r0, lsl #6
     2a0:	6c656e6e 	stclvs	14, cr6, [r5], #-440	; 0xfffffe48
     2a4:	65746e49 	ldrbvs	r6, [r4, #-3657]!	; 0xfffff1b7
     2a8:	70757272 	rsbsvc	r7, r5, r2, ror r2
     2ac:	61745374 	cmnvs	r4, r4, ror r3
     2b0:	5f737574 	svcpl	0x00737574
     2b4:	43003331 	movwmi	r3, #817	; 0x331
     2b8:	6e6e6168 	powvsez	f6, f6, #0.0
     2bc:	6e496c65 	cdpvs	12, 4, cr6, cr9, cr5, {3}
     2c0:	72726574 	rsbsvc	r6, r2, #116, 10	; 0x1d000000
     2c4:	53747075 	cmnpl	r4, #117	; 0x75
     2c8:	75746174 	ldrbvc	r6, [r4, #-372]!	; 0xfffffe8c
     2cc:	34315f73 	ldrtcc	r5, [r1], #-3955	; 0xfffff08d
     2d0:	61684300 	cmnvs	r8, r0, lsl #6
     2d4:	6c656e6e 	stclvs	14, cr6, [r5], #-440	; 0xfffffe48
     2d8:	65746e49 	ldrbvs	r6, [r4, #-3657]!	; 0xfffff1b7
     2dc:	70757272 	rsbsvc	r7, r5, r2, ror r2
     2e0:	61745374 	cmnvs	r4, r4, ror r3
     2e4:	5f737574 	svcpl	0x00737574
     2e8:	43003531 	movwmi	r3, #1329	; 0x531
     2ec:	6e6e6168 	powvsez	f6, f6, #0.0
     2f0:	6e496c65 	cdpvs	12, 4, cr6, cr9, cr5, {3}
     2f4:	72726574 	rsbsvc	r6, r2, #116, 10	; 0x1d000000
     2f8:	53747075 	cmnpl	r4, #117	; 0x75
     2fc:	75746174 	ldrbvc	r6, [r4, #-372]!	; 0xfffffe8c
     300:	36315f73 	shsub16cc	r5, r1, r3
     304:	61684300 	cmnvs	r8, r0, lsl #6
     308:	6c656e6e 	stclvs	14, cr6, [r5], #-440	; 0xfffffe48
     30c:	65746e49 	ldrbvs	r6, [r4, #-3657]!	; 0xfffff1b7
     310:	70757272 	rsbsvc	r7, r5, r2, ror r2
     314:	61745374 	cmnvs	r4, r4, ror r3
     318:	5f737574 	svcpl	0x00737574
     31c:	43003731 	movwmi	r3, #1841	; 0x731
     320:	6e6e6168 	powvsez	f6, f6, #0.0
     324:	6e496c65 	cdpvs	12, 4, cr6, cr9, cr5, {3}
     328:	72726574 	rsbsvc	r6, r2, #116, 10	; 0x1d000000
     32c:	53747075 	cmnpl	r4, #117	; 0x75
     330:	75746174 	ldrbvc	r6, [r4, #-372]!	; 0xfffffe8c
     334:	38315f73 	ldmdacc	r1!, {r0, r1, r4, r5, r6, r8, r9, sl, fp, ip, lr}
     338:	61684300 	cmnvs	r8, r0, lsl #6
     33c:	6c656e6e 	stclvs	14, cr6, [r5], #-440	; 0xfffffe48
     340:	65746e49 	ldrbvs	r6, [r4, #-3657]!	; 0xfffff1b7
     344:	70757272 	rsbsvc	r7, r5, r2, ror r2
     348:	61745374 	cmnvs	r4, r4, ror r3
     34c:	5f737574 	svcpl	0x00737574
     350:	44003931 	strmi	r3, [r0], #-2353	; 0xfffff6cf
     354:	6f43414d 	svcvs	0x0043414d
     358:	6769666e 	strbvs	r6, [r9, -lr, ror #12]!
     35c:	50657275 	rsbpl	r7, r5, r5, ror r2
     360:	436f6972 	cmnmi	pc, #1867776	; 0x1c8000
     364:	6e6e6168 	powvsez	f6, f6, #0.0
     368:	745f6c65 	ldrbvc	r6, [pc], #-3173	; 370 <DMA_ConfigurePriority+0x28>
     36c:	73694400 	cmnvc	r9, #0, 8
     370:	656c6261 	strbvs	r6, [ip, #-609]!	; 0xfffffd9f
     374:	74666f53 	strbtvc	r6, [r6], #-3923	; 0xfffff0ad
     378:	65726177 	ldrbvs	r6, [r2, #-375]!	; 0xfffffe89
     37c:	75716552 	ldrbvc	r6, [r1, #-1362]!	; 0xfffffaae
     380:	00747365 	rsbseq	r7, r4, r5, ror #6
     384:	74616353 	strbtvc	r6, [r1], #-851	; 0xfffffcad
     388:	47726574 			; <UNDEFINED> instruction: 0x47726574
     38c:	65687461 	strbvs	r7, [r8, #-1121]!	; 0xfffffb9f
     390:	616c4672 	smcvs	50274	; 0xc462
     394:	4d440067 	stclmi	0, cr0, [r4, #-412]	; 0xfffffe64
     398:	65525f41 	ldrbvs	r5, [r2, #-3905]	; 0xfffff0bf
     39c:	74736967 	ldrbtvc	r6, [r3], #-2407	; 0xfffff699
     3a0:	61437265 	cmpvs	r3, r5, ror #4
     3a4:	61626c6c 	cmnvs	r2, ip, ror #24
     3a8:	75466b63 	strbvc	r6, [r6, #-2915]	; 0xfffff49d
     3ac:	6974636e 	ldmdbvs	r4!, {r1, r2, r3, r5, r6, r8, r9, sp, lr}^
     3b0:	535f6e6f 	cmppl	pc, #1776	; 0x6f0
     3b4:	7774666f 	ldrbvc	r6, [r4, -pc, ror #12]!
     3b8:	54657261 	strbtpl	r7, [r5], #-609	; 0xfffffd9f
     3bc:	736e6172 	cmnvc	lr, #-2147483620	; 0x8000001c
     3c0:	00726566 	rsbseq	r6, r2, r6, ror #10
     3c4:	53425241 	movtpl	r5, #8769	; 0x2241
     3c8:	00455a49 	subeq	r5, r5, r9, asr #20
     3cc:	74736544 	ldrbtvc	r6, [r3], #-1348	; 0xfffffabc
     3d0:	72646441 	rsbvc	r6, r4, #1090519040	; 0x41000000
     3d4:	49737365 	ldmdbmi	r3!, {r0, r2, r5, r6, r8, r9, ip, sp, lr}^
     3d8:	6572636e 	ldrbvs	r6, [r2, #-878]!	; 0xfffffc92
     3dc:	746e656d 	strbtvc	r6, [lr], #-1389	; 0xfffffa93
     3e0:	6e6f4300 	cdpvs	3, 6, cr4, cr15, cr0, {0}
     3e4:	6c6f7274 	sfmvs	f7, 2, [pc], #-464	; 21c <DMA_ChannelControlStructureSet+0x110>
     3e8:	64726f57 	ldrbtvs	r6, [r2], #-3927	; 0xfffff0a9
     3ec:	61725400 	cmnvs	r2, r0, lsl #8
     3f0:	6566736e 	strbvs	r7, [r6, #-878]!	; 0xfffffc92
     3f4:	7a695372 	bvc	1a551c4 <UART_InterruptFIFOLevelSelect+0x1a53d84>
     3f8:	68430065 	stmdavs	r3, {r0, r2, r5, r6}^
     3fc:	656e6e61 	strbvs	r6, [lr, #-3681]!	; 0xfffff19f
     400:	746e496c 	strbtvc	r4, [lr], #-2412	; 0xfffff694
     404:	75727265 	ldrbvc	r7, [r2, #-613]!	; 0xfffffd9b
     408:	74537470 	ldrbvc	r7, [r3], #-1136	; 0xfffffb90
     40c:	73757461 	cmnvc	r5, #1627389952	; 0x61000000
     410:	0030325f 	eorseq	r3, r0, pc, asr r2
     414:	6e616843 	cdpvs	8, 6, cr6, cr1, cr3, {2}
     418:	496c656e 	stmdbmi	ip!, {r1, r2, r3, r5, r6, r8, sl, sp, lr}^
     41c:	7265746e 	rsbvc	r7, r5, #1845493760	; 0x6e000000
     420:	74707572 	ldrbtvc	r7, [r0], #-1394	; 0xfffffa8e
     424:	74617453 	strbtvc	r7, [r1], #-1107	; 0xfffffbad
     428:	325f7375 	subscc	r7, pc, #-738197503	; 0xd4000001
     42c:	68430031 	stmdavs	r3, {r0, r4, r5}^
     430:	656e6e61 	strbvs	r6, [lr, #-3681]!	; 0xfffff19f
     434:	746e496c 	strbtvc	r4, [lr], #-2412	; 0xfffff694
     438:	75727265 	ldrbvc	r7, [r2, #-613]!	; 0xfffffd9b
     43c:	74537470 	ldrbvc	r7, [r3], #-1136	; 0xfffffb90
     440:	73757461 	cmnvc	r5, #1627389952	; 0x61000000
     444:	0032325f 	eorseq	r3, r2, pc, asr r2
     448:	6e616843 	cdpvs	8, 6, cr6, cr1, cr3, {2}
     44c:	496c656e 	stmdbmi	ip!, {r1, r2, r3, r5, r6, r8, sl, sp, lr}^
     450:	7265746e 	rsbvc	r7, r5, #1845493760	; 0x6e000000
     454:	74707572 	ldrbtvc	r7, [r0], #-1394	; 0xfffffa8e
     458:	74617453 	strbtvc	r7, [r1], #-1107	; 0xfffffbad
     45c:	325f7375 	subscc	r7, pc, #-738197503	; 0xd4000001
     460:	68430033 	stmdavs	r3, {r0, r1, r4, r5}^
     464:	656e6e61 	strbvs	r6, [lr, #-3681]!	; 0xfffff19f
     468:	746e496c 	strbtvc	r4, [lr], #-2412	; 0xfffff694
     46c:	75727265 	ldrbvc	r7, [r2, #-613]!	; 0xfffffd9b
     470:	74537470 	ldrbvc	r7, [r3], #-1136	; 0xfffffb90
     474:	73757461 	cmnvc	r5, #1627389952	; 0x61000000
     478:	0034325f 	eorseq	r3, r4, pc, asr r2
     47c:	6e616843 	cdpvs	8, 6, cr6, cr1, cr3, {2}
     480:	496c656e 	stmdbmi	ip!, {r1, r2, r3, r5, r6, r8, sl, sp, lr}^
     484:	7265746e 	rsbvc	r7, r5, #1845493760	; 0x6e000000
     488:	74707572 	ldrbtvc	r7, [r0], #-1394	; 0xfffffa8e
     48c:	74617453 	strbtvc	r7, [r1], #-1107	; 0xfffffbad
     490:	325f7375 	subscc	r7, pc, #-738197503	; 0xd4000001
     494:	68430035 	stmdavs	r3, {r0, r2, r4, r5}^
     498:	656e6e61 	strbvs	r6, [lr, #-3681]!	; 0xfffff19f
     49c:	746e496c 	strbtvc	r4, [lr], #-2412	; 0xfffff694
     4a0:	75727265 	ldrbvc	r7, [r2, #-613]!	; 0xfffffd9b
     4a4:	74537470 	ldrbvc	r7, [r3], #-1136	; 0xfffffb90
     4a8:	73757461 	cmnvc	r5, #1627389952	; 0x61000000
     4ac:	0036325f 	eorseq	r3, r6, pc, asr r2
     4b0:	6e616843 	cdpvs	8, 6, cr6, cr1, cr3, {2}
     4b4:	496c656e 	stmdbmi	ip!, {r1, r2, r3, r5, r6, r8, sl, sp, lr}^
     4b8:	7265746e 	rsbvc	r7, r5, #1845493760	; 0x6e000000
     4bc:	74707572 	ldrbtvc	r7, [r0], #-1394	; 0xfffffa8e
     4c0:	74617453 	strbtvc	r7, [r1], #-1107	; 0xfffffbad
     4c4:	325f7375 	subscc	r7, pc, #-738197503	; 0xd4000001
     4c8:	68430037 	stmdavs	r3, {r0, r1, r2, r4, r5}^
     4cc:	656e6e61 	strbvs	r6, [lr, #-3681]!	; 0xfffff19f
     4d0:	746e496c 	strbtvc	r4, [lr], #-2412	; 0xfffff694
     4d4:	75727265 	ldrbvc	r7, [r2, #-613]!	; 0xfffffd9b
     4d8:	74537470 	ldrbvc	r7, [r3], #-1136	; 0xfffffb90
     4dc:	73757461 	cmnvc	r5, #1627389952	; 0x61000000
     4e0:	0038325f 	eorseq	r3, r8, pc, asr r2
     4e4:	6e616843 	cdpvs	8, 6, cr6, cr1, cr3, {2}
     4e8:	496c656e 	stmdbmi	ip!, {r1, r2, r3, r5, r6, r8, sl, sp, lr}^
     4ec:	7265746e 	rsbvc	r7, r5, #1845493760	; 0x6e000000
     4f0:	74707572 	ldrbtvc	r7, [r0], #-1394	; 0xfffffa8e
     4f4:	74617453 	strbtvc	r7, [r1], #-1107	; 0xfffffbad
     4f8:	325f7375 	subscc	r7, pc, #-738197503	; 0xd4000001
     4fc:	65440039 	strbvs	r0, [r4, #-57]	; 0xffffffc7
     500:	64417473 	strbvs	r7, [r1], #-1139	; 0xfffffb8d
     504:	73657264 	cmnvc	r5, #100, 4	; 0x40000006
     508:	6c660073 	stclvs	0, cr0, [r6], #-460	; 0xfffffe34
     50c:	0074616f 	rsbseq	r6, r4, pc, ror #2
     510:	5f414d44 	svcpl	0x00414d44
     514:	65746e49 	ldrbvs	r6, [r4, #-3657]!	; 0xfffff1b7
     518:	70757272 	rsbsvc	r7, r5, r2, ror r2
     51c:	616c4674 	smcvs	50276	; 0xc464
     520:	6f6c0067 	svcvs	0x006c0067
     524:	6c20676e 	stcvs	7, cr6, [r0], #-440	; 0xfffffe48
     528:	20676e6f 	rsbcs	r6, r7, pc, ror #28
     52c:	69736e75 	ldmdbvs	r3!, {r0, r2, r4, r5, r6, r9, sl, fp, sp, lr}^
     530:	64656e67 	strbtvs	r6, [r5], #-3687	; 0xfffff199
     534:	746e6920 	strbtvc	r6, [lr], #-2336	; 0xfffff6e0
     538:	52415500 	subpl	r5, r1, #0, 10
     53c:	414d4454 	cmpmi	sp, r4, asr r4
     540:	4678545f 			; <UNDEFINED> instruction: 0x4678545f
     544:	0067616c 	rsbeq	r6, r7, ip, ror #2
     548:	5f414d44 	svcpl	0x00414d44
     54c:	65746e49 	ldrbvs	r6, [r4, #-3657]!	; 0xfffff1b7
     550:	70757272 	rsbsvc	r7, r5, r2, ror r2
     554:	61745374 	cmnvs	r4, r4, ror r3
     558:	00737574 	rsbseq	r7, r3, r4, ror r5
     55c:	6e616843 	cdpvs	8, 6, cr6, cr1, cr3, {2}
     560:	496c656e 	stmdbmi	ip!, {r1, r2, r3, r5, r6, r8, sl, sp, lr}^
     564:	7265746e 	rsbvc	r7, r5, #1845493760	; 0x6e000000
     568:	74707572 	ldrbtvc	r7, [r0], #-1394	; 0xfffffa8e
     56c:	74617453 	strbtvc	r7, [r1], #-1107	; 0xfffffbad
     570:	335f7375 	cmpcc	pc, #-738197503	; 0xd4000001
     574:	68430030 	stmdavs	r3, {r4, r5}^
     578:	656e6e61 	strbvs	r6, [lr, #-3681]!	; 0xfffff19f
     57c:	746e496c 	strbtvc	r4, [lr], #-2412	; 0xfffff694
     580:	75727265 	ldrbvc	r7, [r2, #-613]!	; 0xfffffd9b
     584:	74537470 	ldrbvc	r7, [r3], #-1136	; 0xfffffb90
     588:	73757461 	cmnvc	r5, #1627389952	; 0x61000000
     58c:	0031335f 	eorseq	r3, r1, pc, asr r3
     590:	5f414d44 	svcpl	0x00414d44
     594:	6e616843 	cdpvs	8, 6, cr6, cr1, cr3, {2}
     598:	4e6c656e 	cdpmi	5, 6, cr6, cr12, cr14, {3}
     59c:	50006d75 	andpl	r6, r0, r5, ror sp
     5a0:	50676e69 	rsbpl	r6, r7, r9, ror #28
     5a4:	00676e6f 	rsbeq	r6, r7, pc, ror #28
     5a8:	6e696f50 	mcrvs	15, 3, r6, cr9, cr0, {2}
     5ac:	5f726574 	svcpl	0x00726574
     5b0:	45747344 	ldrbmi	r7, [r4, #-836]!	; 0xfffffcbc
     5b4:	6441646e 	strbvs	r6, [r1], #-1134	; 0xfffffb92
     5b8:	52007264 	andpl	r7, r0, #100, 4	; 0x40000006
     5bc:	44434743 	strbmi	r4, [r3], #-1859	; 0xfffff8bd
     5c0:	525f414d 	subspl	r4, pc, #1073741843	; 0x40000013
     5c4:	41006765 	tstmi	r0, r5, ror #14
     5c8:	7265746c 	rsbvc	r7, r5, #108, 8	; 0x6c000000
     5cc:	6574616e 	ldrbvs	r6, [r4, #-366]!	; 0xfffffe92
     5d0:	5f414d44 	svcpl	0x00414d44
     5d4:	6e616843 	cdpvs	8, 6, cr6, cr1, cr3, {2}
     5d8:	436c656e 	cmnmi	ip, #461373440	; 0x1b800000
     5dc:	72746e6f 	rsbsvc	r6, r4, #1776	; 0x6f0
     5e0:	6f576c6f 	svcvs	0x00576c6f
     5e4:	65526472 	ldrbvs	r6, [r2, #-1138]	; 0xfffffb8e
     5e8:	74736967 	ldrbtvc	r6, [r3], #-2407	; 0xfffff699
     5ec:	00737265 	rsbseq	r7, r3, r5, ror #4
     5f0:	5554584e 	ldrbpl	r5, [r4, #-2126]	; 0xfffff7b2
     5f4:	55424553 	strbpl	r4, [r2, #-1363]	; 0xfffffaad
     5f8:	00545352 	subseq	r5, r4, r2, asr r3
     5fc:	43414d44 	movtmi	r4, #7492	; 0x1d44
     600:	4c544348 	mrrcmi	3, 4, r4, r4, cr8	; <UNPREDICTABLE>
     604:	6765525f 			; <UNDEFINED> instruction: 0x6765525f
     608:	5f745000 	svcpl	0x00745000
     60c:	43414d44 	movtmi	r4, #7492	; 0x1d44
     610:	6e6e6168 	powvsez	f6, f6, #0.0
     614:	30336c65 	eorscc	r6, r3, r5, ror #24
     618:	6d654d5f 	stclvs	13, cr4, [r5, #-380]!	; 0xfffffe84
     61c:	654d6f54 	strbvs	r6, [sp, #-3924]	; 0xfffff0ac
     620:	7942006d 	stmdbvc	r2, {r0, r2, r3, r5, r6}^
     624:	735f6574 	cmpvc	pc, #116, 10	; 0x1d000000
     628:	6e496372 	mcrvs	3, 2, r6, cr9, cr2, {3}
     62c:	754f0063 	strbvc	r0, [pc, #-99]	; 5d1 <GPIO_ConfigureDigitalEnable+0x59>
     630:	74757074 	ldrbtvc	r7, [r5], #-116	; 0xffffff8c
     634:	00776f4c 	rsbseq	r6, r7, ip, asr #30
     638:	5f414d44 	svcpl	0x00414d44
     63c:	666e6f43 	strbtvs	r6, [lr], -r3, asr #30
     640:	72416769 	subvc	r6, r1, #27525120	; 0x1a40000
     644:	53746962 	cmnpl	r4, #1605632	; 0x188000
     648:	5f657a69 	svcpl	0x00657a69
     64c:	4d440074 	stclmi	0, cr0, [r4, #-464]	; 0xfffffe30
     650:	68435f41 	stmdavs	r3, {r0, r6, r8, r9, sl, fp, ip, lr}^
     654:	656e6e61 	strbvs	r6, [lr, #-3681]!	; 0xfffff19f
     658:	70614d6c 	rsbvc	r4, r1, ip, ror #26
     65c:	656c6553 	strbvs	r6, [ip, #-1363]!	; 0xfffffaad
     660:	65527463 	ldrbvs	r7, [r2, #-1123]	; 0xfffffb9d
     664:	74736967 	ldrbtvc	r6, [r3], #-2407	; 0xfffff699
     668:	00737265 	rsbseq	r7, r3, r5, ror #4
     66c:	5f414d44 	svcpl	0x00414d44
     670:	666e6f43 	strbtvs	r6, [lr], -r3, asr #30
     674:	72756769 	rsbsvc	r6, r5, #27525120	; 0x1a40000
     678:	6f697461 	svcvs	0x00697461
     67c:	6168436e 	cmnvs	r8, lr, ror #6
     680:	6c656e6e 	stclvs	14, cr6, [r5], #-440	; 0xfffffe48
     684:	5000745f 	andpl	r7, r0, pc, asr r4
     688:	746e696f 	strbtvc	r6, [lr], #-2415	; 0xfffff691
     68c:	535f7265 	cmppl	pc, #1342177286	; 0x50000006
     690:	6e456372 	mcrvs	3, 2, r6, cr5, cr2, {3}
     694:	64644164 	strbtvs	r4, [r4], #-356	; 0xfffffe9c
     698:	53440072 	movtpl	r0, #16498	; 0x4072
     69c:	434e4954 	movtmi	r4, #59732	; 0xe954
     6a0:	414d4400 	cmpmi	sp, r0, lsl #8
     6a4:	6e6f435f 	mcrvs	3, 3, r4, cr15, cr15, {2}
     6a8:	75676966 	strbvc	r6, [r7, #-2406]!	; 0xfffff69a
     6ac:	65506572 	ldrbvs	r6, [r0, #-1394]	; 0xfffffa8e
     6b0:	68706972 	ldmdavs	r0!, {r1, r4, r5, r6, r8, fp, sp, lr}^
     6b4:	6c617265 	sfmvs	f7, 2, [r1], #-404	; 0xfffffe6c
     6b8:	65746e49 	ldrbvs	r6, [r4, #-3657]!	; 0xfffff1b7
     6bc:	70757272 	rsbsvc	r7, r5, r2, ror r2
     6c0:	4d440074 	stclmi	0, cr0, [r4, #-464]	; 0xfffffe30
     6c4:	654d5f41 	strbvs	r5, [sp, #-3905]	; 0xfffff0bf
     6c8:	79726f6d 	ldmdbvc	r2!, {r0, r2, r3, r5, r6, r8, r9, sl, fp, sp, lr}^
     6cc:	654d6f54 	strbvs	r6, [sp, #-3924]	; 0xfffff0ac
     6d0:	79726f6d 	ldmdbvc	r2!, {r0, r2, r3, r5, r6, r8, r9, sl, fp, sp, lr}^
     6d4:	6172545f 	cmnvs	r2, pc, asr r4
     6d8:	6566736e 	strbvs	r7, [r6, #-878]!	; 0xfffffc92
     6dc:	4d440072 	stclmi	0, cr0, [r4, #-456]	; 0xfffffe38
     6e0:	6f435f41 	svcvs	0x00435f41
     6e4:	6769666e 	strbvs	r6, [r9, -lr, ror #12]!
     6e8:	43657275 	cmnmi	r5, #1342177287	; 0x50000007
     6ec:	6e6e6168 	powvsez	f6, f6, #0.0
     6f0:	52736c65 	rsbspl	r6, r3, #25856	; 0x6500
     6f4:	65757165 	ldrbvs	r7, [r5, #-357]!	; 0xfffffe9b
     6f8:	00737473 	rsbseq	r7, r3, r3, ror r4
     6fc:	5f414d44 	svcpl	0x00414d44
     700:	74666f53 	strbtvc	r6, [r6], #-3923	; 0xfffff0ad
     704:	65726177 	ldrbvs	r6, [r2, #-375]!	; 0xfffffe89
     708:	75716552 	ldrbvc	r6, [r1, #-1362]!	; 0xfffffaae
     70c:	4d747365 	ldclmi	3, cr7, [r4, #-404]!	; 0xfffffe6c
     710:	5f65646f 	svcpl	0x0065646f
     714:	4d440074 	stclmi	0, cr0, [r4, #-464]	; 0xfffffe30
     718:	68435f41 	stmdavs	r3, {r0, r6, r8, r9, sl, fp, ip, lr}^
     71c:	656e6e61 	strbvs	r6, [lr, #-3681]!	; 0xfffff19f
     720:	7265506c 	rsbvc	r5, r5, #108	; 0x6c
     724:	65687069 	strbvs	r7, [r8, #-105]!	; 0xffffff97
     728:	536c6172 	cmnpl	ip, #-2147483620	; 0x8000001c
     72c:	74746163 	ldrbtvc	r6, [r4], #-355	; 0xfffffe9d
     730:	61477265 	cmpvs	r7, r5, ror #4
     734:	72656874 	rsbvc	r6, r5, #116, 16	; 0x740000
     738:	00746553 	rsbseq	r6, r4, r3, asr r5
     73c:	5f34365f 	svcpl	0x0034365f
     740:	6e617254 	mcrvs	2, 3, r7, cr1, cr4, {2}
     744:	72656673 	rsbvc	r6, r5, #120586240	; 0x7300000
     748:	6e550073 	mrcvs	0, 2, r0, cr5, cr3, {3}
     74c:	64657375 	strbtvs	r7, [r5], #-885	; 0xfffffc8b
     750:	414d4400 	cmpmi	sp, r0, lsl #8
     754:	616e455f 	cmnvs	lr, pc, asr r5
     758:	43656c62 	cmnmi	r5, #25088	; 0x6200
     75c:	6e6e6168 	powvsez	f6, f6, #0.0
     760:	74416c65 	strbvc	r6, [r1], #-3173	; 0xfffff39b
     764:	62697274 	rsbvs	r7, r9, #116, 4	; 0x40000007
     768:	73657475 	cmnvc	r5, #1962934272	; 0x75000000
     76c:	636e4500 	cmnvs	lr, #0, 10
     770:	6e69646f 	cdpvs	4, 6, cr6, cr9, cr15, {3}
     774:	6d754e67 	ldclvs	14, cr4, [r5, #-412]!	; 0xfffffe64
     778:	4100335f 	tstmi	r0, pc, asr r3
     77c:	7265746c 	rsbvc	r7, r5, #108, 8	; 0x6c000000
     780:	6574616e 	ldrbvs	r6, [r4, #-366]!	; 0xfffffe92
     784:	69726550 	ldmdbvs	r2!, {r4, r6, r8, sl, sp, lr}^
     788:	72656870 	rsbvc	r6, r5, #112, 16	; 0x700000
     78c:	63536c61 	cmpvs	r3, #24832	; 0x6100
     790:	65747461 	ldrbvs	r7, [r4, #-1121]!	; 0xfffffb9f
     794:	74614772 	strbtvc	r4, [r1], #-1906	; 0xfffff88e
     798:	00726568 	rsbseq	r6, r2, r8, ror #10
     79c:	52454658 	subpl	r4, r5, #88, 12	; 0x5800000
     7a0:	455a4953 	ldrbmi	r4, [sl, #-2387]	; 0xfffff6ad
     7a4:	6c614800 	stclvs	8, cr4, [r1], #-0
     7a8:	726f5766 	rsbvc	r5, pc, #26738688	; 0x1980000
     7ac:	65445f64 	strbvs	r5, [r4, #-3940]	; 0xfffff09c
     7b0:	61447473 	hvcvs	18243	; 0x4743
     7b4:	42006174 	andmi	r6, r0, #116, 2
     7b8:	5f657479 	svcpl	0x00657479
     7bc:	74736544 	ldrbtvc	r6, [r3], #-1348	; 0xfffffabc
     7c0:	00636e49 	rsbeq	r6, r3, r9, asr #28
     7c4:	5f414d44 	svcpl	0x00414d44
     7c8:	6f727245 	svcvs	0x00727245
     7cc:	6e614872 	mcrvs	8, 3, r4, cr1, cr2, {3}
     7d0:	72656c64 	rsbvc	r6, r5, #100, 24	; 0x6400
     7d4:	6c61435f 	stclvs	3, cr4, [r1], #-380	; 0xfffffe84
     7d8:	6361626c 	cmnvs	r1, #108, 4	; 0xc0000006
     7dc:	4d44006b 	stclmi	0, cr0, [r4, #-428]	; 0xfffffe54
     7e0:	6f435f41 	svcvs	0x00435f41
     7e4:	6769666e 	strbvs	r6, [r9, -lr, ror #12]!
     7e8:	43657275 	cmnmi	r5, #1342177287	; 0x50000007
     7ec:	72746e6f 	rsbsvc	r6, r4, #1776	; 0x6f0
     7f0:	61546c6f 	cmpvs	r4, pc, ror #24
     7f4:	42656c62 	rsbmi	r6, r5, #25088	; 0x6200
     7f8:	41657361 	cmnmi	r5, r1, ror #6
     7fc:	65726464 	ldrbvs	r6, [r2, #-1124]!	; 0xfffffb9c
     800:	6c007373 	stcvs	3, cr7, [r0], {115}	; 0x73
     804:	20676e6f 	rsbcs	r6, r7, pc, ror #28
     808:	676e6f6c 	strbvs	r6, [lr, -ip, ror #30]!
     80c:	746e6920 	strbtvc	r6, [lr], #-2336	; 0xfffff6e0
     810:	6c614800 	stclvs	8, cr4, [r1], #-0
     814:	726f5766 	rsbvc	r5, pc, #26738688	; 0x1980000
     818:	65445f64 	strbvs	r5, [r4, #-3940]	; 0xfffff09c
     81c:	6e497473 	mcrvs	4, 2, r7, cr9, cr3, {3}
     820:	68430063 	stmdavs	r3, {r0, r1, r5, r6}^
     824:	656e6e61 	strbvs	r6, [lr, #-3681]!	; 0xfffff19f
     828:	6e6f436c 	cdpvs	3, 6, cr4, cr15, cr12, {3}
     82c:	6c6f7274 	sfmvs	f7, 2, [pc], #-464	; 664 <GPIO_ConfigureCommit+0x5c>
     830:	65736142 	ldrbvs	r6, [r3, #-322]!	; 0xfffffebe
     834:	72646441 	rsbvc	r6, r4, #1090519040	; 0x41000000
     838:	00737365 	rsbseq	r7, r3, r5, ror #6
     83c:	69627241 	stmdbvs	r2!, {r0, r6, r9, ip, sp, lr}^
     840:	7a695374 	bvc	1a55618 <UART_InterruptFIFOLevelSelect+0x1a541d8>
     844:	79420065 	stmdbvc	r2, {r0, r2, r5, r6}^
     848:	535f6574 	cmppl	pc, #116, 10	; 0x1d000000
     84c:	61446372 	hvcvs	17970	; 0x4632
     850:	75006174 	strvc	r6, [r0, #-372]	; 0xfffffe8c
     854:	00745f38 	rsbseq	r5, r4, r8, lsr pc
     858:	666e6f43 	strbtvs	r6, [lr], -r3, asr #30
     85c:	72756769 	rsbsvc	r6, r5, #27525120	; 0x1a40000
     860:	69725065 	ldmdbvs	r2!, {r0, r2, r5, r6, ip, lr}^
     864:	6168436f 	cmnvs	r8, pc, ror #6
     868:	6c656e6e 	stclvs	14, cr6, [r5], #-440	; 0xfffffe48
     86c:	496f4e00 	stmdbmi	pc!, {r9, sl, fp, lr}^	; <UNPREDICTABLE>
     870:	6572636e 	ldrbvs	r6, [r2, #-878]!	; 0xfffffc92
     874:	746e656d 	strbtvc	r6, [lr], #-1389	; 0xfffffa93
     878:	7365445f 	cmnvc	r5, #1593835520	; 0x5f000000
     87c:	636e4974 	cmnvs	lr, #116, 18	; 0x1d0000
     880:	5f747000 	svcpl	0x00747000
     884:	6c6c6163 	stfvse	f6, [ip], #-396	; 0xfffffe74
     888:	6b636162 	blvs	18d8e18 <UART_InterruptFIFOLevelSelect+0x18d79d8>
     88c:	414d4400 	cmpmi	sp, r0, lsl #8
     890:	4165445f 	cmnmi	r5, pc, asr r4
     894:	67697373 			; <UNDEFINED> instruction: 0x67697373
     898:	6168436e 	cmnvs	r8, lr, ror #6
     89c:	6c656e6e 	stclvs	14, cr6, [r5], #-440	; 0xfffffe48
     8a0:	6c614800 	stclvs	8, cr4, [r1], #-0
     8a4:	726f5766 	rsbvc	r5, pc, #26738688	; 0x1980000
     8a8:	72535f64 	subsvc	r5, r3, #100, 30	; 0x190
     8ac:	74614463 	strbtvc	r4, [r1], #-1123	; 0xfffffb9d
     8b0:	4d440061 	stclmi	0, cr0, [r4, #-388]	; 0xfffffe7c
     8b4:	65525f41 	ldrbvs	r5, [r2, #-3905]	; 0xfffff0bf
     8b8:	74736967 	ldrbtvc	r6, [r3], #-2407	; 0xfffff699
     8bc:	61437265 	cmpvs	r3, r5, ror #4
     8c0:	61626c6c 	cmnvs	r2, ip, ror #24
     8c4:	75466b63 	strbvc	r6, [r6, #-2915]	; 0xfffff49d
     8c8:	6974636e 	ldmdbvs	r4!, {r1, r2, r3, r5, r6, r8, r9, sp, lr}^
     8cc:	455f6e6f 	ldrbmi	r6, [pc, #-3695]	; fffffa65 <_E_BSS+0xdfffdc71>
     8d0:	726f7272 	rsbvc	r7, pc, #536870919	; 0x20000007
     8d4:	646e6148 	strbtvs	r6, [lr], #-328	; 0xfffffeb8
     8d8:	0072656c 	rsbseq	r6, r2, ip, ror #10
     8dc:	6e616843 	cdpvs	8, 6, cr6, cr1, cr3, {2}
     8e0:	736c656e 	cmnvc	ip, #461373440	; 0x1b800000
     8e4:	006d754e 	rsbeq	r7, sp, lr, asr #10
     8e8:	54524155 	ldrbpl	r4, [r2], #-341	; 0xfffffeab
     8ec:	5f414d44 	svcpl	0x00414d44
     8f0:	6c467852 	mcrrvs	8, 5, r7, r6, cr2
     8f4:	53006761 	movwpl	r6, #1889	; 0x761
     8f8:	64416372 	strbvs	r6, [r1], #-882	; 0xfffffc8e
     8fc:	73657264 	cmnvc	r5, #100, 4	; 0x40000006
     900:	636e4973 	cmnvs	lr, #1884160	; 0x1cc000
     904:	656d6572 	strbvs	r6, [sp, #-1394]!	; 0xfffffa8e
     908:	4400746e 	strmi	r7, [r0], #-1134	; 0xfffffb92
     90c:	455f414d 	ldrbmi	r4, [pc, #-333]	; 7c7 <GPIO_ConfigureInputPin+0x7>
     910:	6c62616e 	stfvse	f6, [r2], #-440	; 0xfffffe48
     914:	61684365 	cmnvs	r8, r5, ror #6
     918:	6c656e6e 	stclvs	14, cr6, [r5], #-440	; 0xfffffe48
     91c:	74754f00 	ldrbtvc	r4, [r5], #-3840	; 0xfffff100
     920:	48747570 	ldmdami	r4!, {r4, r5, r6, r8, sl, ip, sp, lr}^
     924:	00686769 	rsbeq	r6, r8, r9, ror #14
     928:	5f414d44 	svcpl	0x00414d44
     92c:	746e6f43 	strbtvc	r6, [lr], #-3907	; 0xfffff0bd
     930:	546c6f72 	strbtpl	r6, [ip], #-3954	; 0xfffff08e
     934:	656c6261 	strbvs	r6, [ip, #-609]!	; 0xfffffd9f
     938:	7272415f 	rsbsvc	r4, r2, #-1073741801	; 0xc0000017
     93c:	414d4400 	cmpmi	sp, r0, lsl #8
     940:	4400632e 	strmi	r6, [r0], #-814	; 0xfffffcd2
     944:	435f414d 	cmpmi	pc, #1073741843	; 0x40000013
     948:	69666e6f 	stmdbvs	r6!, {r0, r1, r2, r3, r5, r6, r9, sl, fp, sp, lr}^
     94c:	65727567 	ldrbvs	r7, [r2, #-1383]!	; 0xfffffa99
     950:	6f697250 	svcvs	0x00697250
     954:	79746972 	ldmdbvc	r4!, {r1, r4, r5, r6, r8, fp, sp, lr}^
     958:	756f5300 	strbvc	r5, [pc, #-768]!	; 660 <GPIO_ConfigureCommit+0x58>
     95c:	41656372 	smcmi	22066	; 0x5632
     960:	65726464 	ldrbvs	r6, [r2, #-1124]!	; 0xfffffb9c
     964:	44007373 	strmi	r7, [r0], #-883	; 0xfffffc8d
     968:	6e45414d 	dvfvssm	f4, f5, #5.0
     96c:	69646f63 	stmdbvs	r4!, {r0, r1, r5, r6, r8, r9, sl, fp, sp, lr}^
     970:	754e676e 	strbvc	r6, [lr, #-1902]	; 0xfffff892
     974:	00745f6d 	rsbseq	r5, r4, sp, ror #30
     978:	6e617254 	mcrvs	2, 3, r7, cr1, cr4, {2}
     97c:	72656673 	rsbvc	r6, r5, #120586240	; 0x7300000
     980:	65646f4d 	strbvs	r6, [r4, #-3917]!	; 0xfffff0b3
     984:	6c614300 	stclvs	3, cr4, [r1], #-0
     988:	6361626c 	cmnvs	r1, #108, 4	; 0xc0000006
     98c:	6e75466b 	cdpvs	6, 7, cr4, cr5, cr11, {3}
     990:	00745f63 	rsbseq	r5, r4, r3, ror #30
     994:	706f7453 	rsbvc	r7, pc, r3, asr r4	; <UNPREDICTABLE>
     998:	65646f4d 	strbvs	r6, [r4, #-3917]!	; 0xfffff0b3
     99c:	414d4400 	cmpmi	sp, r0, lsl #8
     9a0:	424c5443 	submi	r5, ip, #1124073472	; 0x43000000
     9a4:	5f455341 	svcpl	0x00455341
     9a8:	00676552 	rsbeq	r6, r7, r2, asr r5
     9ac:	676e6f6c 	strbvs	r6, [lr, -ip, ror #30]!
     9b0:	756f6420 	strbvc	r6, [pc, #-1056]!	; 598 <GPIO_ConfigureDigitalEnable+0x20>
     9b4:	00656c62 	rsbeq	r6, r5, r2, ror #24
     9b8:	6f636e45 	svcvs	0x00636e45
     9bc:	676e6964 	strbvs	r6, [lr, -r4, ror #18]!
     9c0:	5f6d754e 	svcpl	0x006d754e
     9c4:	6e450030 	mcrvs	0, 2, r0, cr5, cr0, {1}
     9c8:	69646f63 	stmdbvs	r4!, {r0, r1, r5, r6, r8, r9, sl, fp, sp, lr}^
     9cc:	754e676e 	strbvc	r6, [lr, #-1902]	; 0xfffff892
     9d0:	00315f6d 	eorseq	r5, r1, sp, ror #30
     9d4:	6f636e45 	svcvs	0x00636e45
     9d8:	676e6964 	strbvs	r6, [lr, -r4, ror #18]!
     9dc:	5f6d754e 	svcpl	0x006d754e
     9e0:	61480032 	cmpvs	r8, r2, lsr r0
     9e4:	6f57666c 	svcvs	0x0057666c
     9e8:	735f6472 	cmpvc	pc, #1912602624	; 0x72000000
     9ec:	6e496372 	mcrvs	3, 2, r6, cr9, cr2, {3}
     9f0:	6e450063 	cdpvs	0, 4, cr0, cr5, cr3, {3}
     9f4:	69646f63 	stmdbvs	r4!, {r0, r1, r5, r6, r8, r9, sl, fp, sp, lr}^
     9f8:	754e676e 	strbvc	r6, [lr, #-1902]	; 0xfffff892
     9fc:	00345f6d 	eorseq	r5, r4, sp, ror #30
     a00:	5f414d44 	svcpl	0x00414d44
     a04:	41637253 	cmnmi	r3, r3, asr r2
     a08:	65726464 	ldrbvs	r6, [r2, #-1124]!	; 0xfffffb9c
     a0c:	6e497373 	mcrvs	3, 2, r7, cr9, cr3, {3}
     a10:	6d657263 	sfmvs	f7, 2, [r5, #-396]!	; 0xfffffe74
     a14:	5f746e65 	svcpl	0x00746e65
     a18:	75410074 	strbvc	r0, [r1, #-116]	; 0xffffff8c
     a1c:	65526f74 	ldrbvs	r6, [r2, #-3956]	; 0xfffff08c
     a20:	73657571 	cmnvc	r5, #473956352	; 0x1c400000
     a24:	4d440074 	stclmi	0, cr0, [r4, #-464]	; 0xfffffe30
     a28:	73415f41 	movtvc	r5, #8001	; 0x1f41
     a2c:	6e676973 			; <UNDEFINED> instruction: 0x6e676973
     a30:	6e616843 	cdpvs	8, 6, cr6, cr1, cr3, {2}
     a34:	006c656e 	rsbeq	r6, ip, lr, ror #10
     a38:	545f345f 	ldrbpl	r3, [pc], #-1119	; a40 <SC_GetSystemClock+0x14>
     a3c:	736e6172 	cmnvc	lr, #-2147483620	; 0x8000001c
     a40:	73726566 	cmnvc	r2, #427819008	; 0x19800000
     a44:	414d4400 	cmpmi	sp, r0, lsl #8
     a48:	6e6f435f 	mcrvs	3, 3, r4, cr15, cr15, {2}
     a4c:	52676966 	rsbpl	r6, r7, #1671168	; 0x198000
     a50:	65757165 	ldrbvs	r7, [r5, #-357]!	; 0xfffffe9b
     a54:	79547473 	ldmdbvc	r4, {r0, r1, r4, r5, r6, sl, ip, sp, lr}^
     a58:	745f6570 	ldrbvc	r6, [pc], #-1392	; a60 <SC_GetSystemClock+0x34>
     a5c:	32337500 	eorscc	r7, r3, #0, 10
     a60:	7300745f 	movwvc	r7, #1119	; 0x45f
     a64:	74726f68 	ldrbtvc	r6, [r2], #-3944	; 0xfffff098
     a68:	746e6920 	strbtvc	r6, [lr], #-2336	; 0xfffff6e0
     a6c:	414d4400 	cmpmi	sp, r0, lsl #8
     a70:	6168435f 	cmnvs	r8, pc, asr r3
     a74:	6c656e6e 	stclvs	14, cr6, [r5], #-440	; 0xfffffe48
     a78:	74616353 	strbtvc	r6, [r1], #-851	; 0xfffffcad
     a7c:	47726574 			; <UNDEFINED> instruction: 0x47726574
     a80:	65687461 	strbvs	r7, [r8, #-1121]!	; 0xfffffb9f
     a84:	74655372 	strbtvc	r5, [r5], #-882	; 0xfffffc8e
     a88:	414d4400 	cmpmi	sp, r0, lsl #8
     a8c:	7369445f 	cmnvc	r9, #1593835520	; 0x5f000000
     a90:	656c6261 	strbvs	r6, [ip, #-609]!	; 0xfffffd9f
     a94:	6e616843 	cdpvs	8, 6, cr6, cr1, cr3, {2}
     a98:	416c656e 	cmnmi	ip, lr, ror #10
     a9c:	69727474 	ldmdbvs	r2!, {r2, r4, r5, r6, sl, ip, sp, lr}^
     aa0:	65747562 	ldrbvs	r7, [r4, #-1378]!	; 0xfffffa9e
     aa4:	74700073 	ldrbtvc	r0, [r0], #-115	; 0xffffff8d
     aa8:	6e6f4372 	mcrvs	3, 3, r4, cr15, cr2, {3}
     aac:	00676966 	rsbeq	r6, r7, r6, ror #18
     ab0:	65746c41 	ldrbvs	r6, [r4, #-3137]!	; 0xfffff3bf
     ab4:	74616e72 	strbtvc	r6, [r1], #-3698	; 0xfffff18e
     ab8:	73654465 	cmnvc	r5, #1694498816	; 0x65000000
     abc:	616e6974 	smcvs	59028	; 0xe694
     ac0:	6e6f6974 			; <UNDEFINED> instruction: 0x6e6f6974
     ac4:	72646441 	rsbvc	r6, r4, #1090519040	; 0x41000000
     ac8:	50737365 	rsbspl	r7, r3, r5, ror #6
     acc:	746e696f 	strbtvc	r6, [lr], #-2415	; 0xfffff691
     ad0:	65527265 	ldrbvs	r7, [r2, #-613]	; 0xfffffd9b
     ad4:	74736967 	ldrbtvc	r6, [r3], #-2407	; 0xfffff699
     ad8:	00737265 	rsbseq	r7, r3, r5, ror #4
     adc:	5f414d44 	svcpl	0x00414d44
     ae0:	666e6f43 	strbtvs	r6, [lr], -r3, asr #30
     ae4:	72756769 	rsbsvc	r6, r5, #27525120	; 0x1a40000
     ae8:	61684365 	cmnvs	r8, r5, ror #6
     aec:	6c656e6e 	stclvs	14, cr6, [r5], #-440	; 0xfffffe48
     af0:	74666f53 	strbtvc	r6, [r6], #-3923	; 0xfffff0ad
     af4:	65726177 	ldrbvs	r6, [r2, #-375]!	; 0xfffffe89
     af8:	75716552 	ldrbvc	r6, [r1, #-1362]!	; 0xfffffaae
     afc:	00747365 	rsbseq	r7, r4, r5, ror #6
     b00:	5f32335f 	svcpl	0x0032335f
     b04:	6e617254 	mcrvs	2, 3, r7, cr1, cr4, {2}
     b08:	72656673 	rsbvc	r6, r5, #120586240	; 0x7300000
     b0c:	61680073 	smcvs	32771	; 0x8003
     b10:	656c646e 	strbvs	r6, [ip, #-1134]!	; 0xfffffb92
     b14:	756f4372 	strbvc	r4, [pc, #-882]!	; 7aa <GPIO_SetInputStatus+0x36>
     b18:	7265746e 	rsbvc	r7, r5, #1845493760	; 0x6e000000
     b1c:	63725300 	cmnvs	r2, #0, 6
     b20:	61746144 	cmnvs	r4, r4, asr #2
     b24:	657a6953 	ldrbvs	r6, [sl, #-2387]!	; 0xfffff6ad
     b28:	414d4400 	cmpmi	sp, r0, lsl #8
     b2c:	6e616843 	cdpvs	8, 6, cr6, cr1, cr3, {2}
     b30:	5f6c656e 	svcpl	0x006c656e
     b34:	44003232 	strmi	r3, [r0], #-562	; 0xfffffdce
     b38:	6843414d 	stmdavs	r3, {r0, r2, r3, r6, r8, lr}^
     b3c:	656e6e61 	strbvs	r6, [lr, #-3681]!	; 0xfffff19f
     b40:	33325f6c 	teqcc	r2, #108, 30	; 0x1b0
     b44:	72745000 	rsbsvc	r5, r4, #0
     b48:	43414d44 	movtmi	r4, #7492	; 0x1d44
     b4c:	69666e6f 	stmdbvs	r6!, {r0, r1, r2, r3, r5, r6, r9, sl, fp, sp, lr}^
     b50:	4d440067 	stclmi	0, cr0, [r4, #-412]	; 0xfffffe64
     b54:	72455f41 	subvc	r5, r5, #260	; 0x104
     b58:	48726f72 	ldmdami	r2!, {r1, r4, r5, r6, r8, r9, sl, fp, sp, lr}^
     b5c:	6c646e61 	stclvs	14, cr6, [r4], #-388	; 0xfffffe7c
     b60:	44007265 	strmi	r7, [r0], #-613	; 0xfffffd9b
     b64:	535f414d 	cmppl	pc, #1073741843	; 0x40000013
     b68:	7774666f 	ldrbvc	r6, [r4, -pc, ror #12]!
     b6c:	54657261 	strbtpl	r7, [r5], #-609	; 0xfffffd9f
     b70:	736e6172 	cmnvc	lr, #-2147483620	; 0x8000001c
     b74:	48726566 	ldmdami	r2!, {r1, r2, r5, r6, r8, sl, sp, lr}^
     b78:	6c646e61 	stclvs	14, cr6, [r4], #-388	; 0xfffffe7c
     b7c:	70007265 	andvc	r7, r0, r5, ror #4
     b80:	6e6f4374 	mcrvs	3, 3, r4, cr15, cr4, {3}
     b84:	6c6f7274 	sfmvs	f7, 2, [pc], #-464	; 9bc <Reset_Handler+0x58>
     b88:	6c626154 	stfvse	f6, [r2], #-336	; 0xfffffeb0
     b8c:	4d440065 	stclmi	0, cr0, [r4, #-404]	; 0xfffffe6c
     b90:	6f435f41 	svcvs	0x00435f41
     b94:	6769666e 	strbvs	r6, [r9, -lr, ror #12]!
     b98:	43657275 	cmnmi	r5, #1342177287	; 0x50000007
     b9c:	6e6e6168 	powvsez	f6, f6, #0.0
     ba0:	6e496c65 	cdpvs	12, 4, cr6, cr9, cr5, {3}
     ba4:	72726574 	rsbsvc	r6, r2, #116, 10	; 0x1d000000
     ba8:	00747075 	rsbseq	r7, r4, r5, ror r0
     bac:	65746c41 	ldrbvs	r6, [r4, #-3137]!	; 0xfffff3bf
     bb0:	74616e72 	strbtvc	r6, [r1], #-3698	; 0xfffff18e
     bb4:	756f5365 	strbvc	r5, [pc, #-869]!	; 857 <main+0x33>
     bb8:	41656372 	smcmi	22066	; 0x5632
     bbc:	65726464 	ldrbvs	r6, [r2, #-1124]!	; 0xfffffb9c
     bc0:	6f507373 	svcvs	0x00507373
     bc4:	65746e69 	ldrbvs	r6, [r4, #-3689]!	; 0xfffff197
     bc8:	67655272 			; <UNDEFINED> instruction: 0x67655272
     bcc:	65747369 	ldrbvs	r7, [r4, #-873]!	; 0xfffffc97
     bd0:	44007372 	strmi	r7, [r0], #-882	; 0xfffffc8e
     bd4:	6843414d 	stmdavs	r3, {r0, r2, r3, r6, r8, lr}^
     bd8:	656e6e61 	strbvs	r6, [lr, #-3681]!	; 0xfffff19f
     bdc:	30315f6c 	eorscc	r5, r1, ip, ror #30
     be0:	414d4400 	cmpmi	sp, r0, lsl #8
     be4:	6e616843 	cdpvs	8, 6, cr6, cr1, cr3, {2}
     be8:	5f6c656e 	svcpl	0x006c656e
     bec:	44003131 	strmi	r3, [r0], #-305	; 0xfffffecf
     bf0:	6843414d 	stmdavs	r3, {r0, r2, r3, r6, r8, lr}^
     bf4:	656e6e61 	strbvs	r6, [lr, #-3681]!	; 0xfffff19f
     bf8:	32315f6c 	eorscc	r5, r1, #108, 30	; 0x1b0
     bfc:	414d4400 	cmpmi	sp, r0, lsl #8
     c00:	6e616843 	cdpvs	8, 6, cr6, cr1, cr3, {2}
     c04:	5f6c656e 	svcpl	0x006c656e
     c08:	44003331 	strmi	r3, [r0], #-817	; 0xfffffccf
     c0c:	6843414d 	stmdavs	r3, {r0, r2, r3, r6, r8, lr}^
     c10:	656e6e61 	strbvs	r6, [lr, #-3681]!	; 0xfffff19f
     c14:	34315f6c 	ldrtcc	r5, [r1], #-3948	; 0xfffff094
     c18:	414d4400 	cmpmi	sp, r0, lsl #8
     c1c:	6e616843 	cdpvs	8, 6, cr6, cr1, cr3, {2}
     c20:	5f6c656e 	svcpl	0x006c656e
     c24:	44003531 	strmi	r3, [r0], #-1329	; 0xfffffacf
     c28:	6843414d 	stmdavs	r3, {r0, r2, r3, r6, r8, lr}^
     c2c:	656e6e61 	strbvs	r6, [lr, #-3681]!	; 0xfffff19f
     c30:	36315f6c 	ldrtcc	r5, [r1], -ip, ror #30
     c34:	414d4400 	cmpmi	sp, r0, lsl #8
     c38:	6e616843 	cdpvs	8, 6, cr6, cr1, cr3, {2}
     c3c:	5f6c656e 	svcpl	0x006c656e
     c40:	44003731 	strmi	r3, [r0], #-1841	; 0xfffff8cf
     c44:	6843414d 	stmdavs	r3, {r0, r2, r3, r6, r8, lr}^
     c48:	656e6e61 	strbvs	r6, [lr, #-3681]!	; 0xfffff19f
     c4c:	38315f6c 	ldmdacc	r1!, {r2, r3, r5, r6, r8, r9, sl, fp, ip, lr}
     c50:	414d4400 	cmpmi	sp, r0, lsl #8
     c54:	6e616843 	cdpvs	8, 6, cr6, cr1, cr3, {2}
     c58:	5f6c656e 	svcpl	0x006c656e
     c5c:	5f003931 	svcpl	0x00003931
     c60:	545f3631 	ldrbpl	r3, [pc], #-1585	; c68 <AlternateSourceAddressPointerRegisters+0x20>
     c64:	736e6172 	cmnvc	lr, #-2147483620	; 0x8000001c
     c68:	73726566 	cmnvc	r2, #427819008	; 0x19800000
     c6c:	74794200 	ldrbtvc	r4, [r9], #-512	; 0xfffffe00
     c70:	65445f65 	strbvs	r5, [r4, #-3941]	; 0xfffff09b
     c74:	61447473 	hvcvs	18243	; 0x4743
     c78:	42006174 	andmi	r6, r0, #116, 2
     c7c:	63697361 	cmnvs	r9, #-2080374783	; 0x84000001
     c80:	65646f4d 	strbvs	r6, [r4, #-3917]!	; 0xfffff0b3
     c84:	414d4400 	cmpmi	sp, r0, lsl #8
     c88:	7265505f 	rsbvc	r5, r5, #95	; 0x5f
     c8c:	65687069 	strbvs	r7, [r8, #-105]!	; 0xffffff97
     c90:	496c6172 	stmdbmi	ip!, {r1, r4, r5, r6, r8, sp, lr}^
     c94:	6974696e 	ldmdbvs	r4!, {r1, r2, r3, r5, r6, r8, fp, sp, lr}^
     c98:	7a696c61 	bvc	1a5be24 <UART_InterruptFIFOLevelSelect+0x1a5a9e4>
     c9c:	6f697461 	svcvs	0x00697461
     ca0:	4d44006e 	stclmi	0, cr0, [r4, #-440]	; 0xfffffe48
     ca4:	72535f41 	subsvc	r5, r3, #260	; 0x104
     ca8:	74614463 	strbtvc	r4, [r1], #-1123	; 0xfffffb9d
     cac:	7a695361 	bvc	1a55a38 <UART_InterruptFIFOLevelSelect+0x1a545f8>
     cb0:	00745f65 	rsbseq	r5, r4, r5, ror #30
     cb4:	4d414d44 	stclmi	13, cr4, [r1, #-272]	; 0xfffffef0
     cb8:	6c75646f 	cfldrdvs	mvd6, [r5], #-444	; 0xfffffe44
     cbc:	6e755265 	cdpvs	2, 7, cr5, cr5, cr5, {3}
     cc0:	65646f4d 	strbvs	r6, [r4, #-3917]!	; 0xfffff0b3
     cc4:	636f6c43 	cmnvs	pc, #17152	; 0x4300
     cc8:	7461476b 	strbtvc	r4, [r1], #-1899	; 0xfffff895
     ccc:	43676e69 	cmnmi	r7, #1680	; 0x690
     cd0:	72746e6f 	rsbsvc	r6, r4, #1776	; 0x6f0
     cd4:	5f006c6f 	svcpl	0x00006c6f
     cd8:	5f323135 	svcpl	0x00323135
     cdc:	6e617254 	mcrvs	2, 3, r7, cr1, cr4, {2}
     ce0:	72656673 	rsbvc	r6, r5, #120586240	; 0x7300000
     ce4:	6f500073 	svcvs	0x00500073
     ce8:	00417472 	subeq	r7, r1, r2, ror r4
     cec:	43414d44 	movtmi	r4, #7492	; 0x1d44
     cf0:	6e6e6168 	powvsez	f6, f6, #0.0
     cf4:	325f6c65 	subscc	r6, pc, #25856	; 0x6500
     cf8:	4d440030 	stclmi	0, cr0, [r4, #-192]	; 0xffffff40
     cfc:	61684341 	cmnvs	r8, r1, asr #6
     d00:	6c656e6e 	stclvs	14, cr6, [r5], #-440	; 0xfffffe48
     d04:	0031325f 	eorseq	r3, r1, pc, asr r2
     d08:	43414d44 	movtmi	r4, #7492	; 0x1d44
     d0c:	5f534948 	svcpl	0x00534948
     d10:	00676552 	rsbeq	r6, r7, r2, asr r5
     d14:	69736e75 	ldmdbvs	r3!, {r0, r2, r4, r5, r6, r9, sl, fp, sp, lr}^
     d18:	64656e67 	strbtvs	r6, [r5], #-3687	; 0xfffff199
     d1c:	61686320 	cmnvs	r8, r0, lsr #6
     d20:	4d440072 	stclmi	0, cr0, [r4, #-456]	; 0xfffffe38
     d24:	61684341 	cmnvs	r8, r1, asr #6
     d28:	6c656e6e 	stclvs	14, cr6, [r5], #-440	; 0xfffffe48
     d2c:	0034325f 	eorseq	r3, r4, pc, asr r2
     d30:	43414d44 	movtmi	r4, #7492	; 0x1d44
     d34:	6e6e6168 	powvsez	f6, f6, #0.0
     d38:	325f6c65 	subscc	r6, pc, #25856	; 0x6500
     d3c:	4d440035 	stclmi	0, cr0, [r4, #-212]	; 0xffffff2c
     d40:	61684341 	cmnvs	r8, r1, asr #6
     d44:	6c656e6e 	stclvs	14, cr6, [r5], #-440	; 0xfffffe48
     d48:	0036325f 	eorseq	r3, r6, pc, asr r2
     d4c:	43414d44 	movtmi	r4, #7492	; 0x1d44
     d50:	6e6e6168 	powvsez	f6, f6, #0.0
     d54:	325f6c65 	subscc	r6, pc, #25856	; 0x6500
     d58:	4d440037 	stclmi	0, cr0, [r4, #-220]	; 0xffffff24
     d5c:	61684341 	cmnvs	r8, r1, asr #6
     d60:	6c656e6e 	stclvs	14, cr6, [r5], #-440	; 0xfffffe48
     d64:	0038325f 	eorseq	r3, r8, pc, asr r2
     d68:	43414d44 	movtmi	r4, #7492	; 0x1d44
     d6c:	6e6e6168 	powvsez	f6, f6, #0.0
     d70:	325f6c65 	subscc	r6, pc, #25856	; 0x6500
     d74:	4d440039 	stclmi	0, cr0, [r4, #-228]	; 0xffffff1c
     d78:	61684341 	cmnvs	r8, r1, asr #6
     d7c:	6c656e6e 	stclvs	14, cr6, [r5], #-440	; 0xfffffe48
     d80:	4400305f 	strmi	r3, [r0], #-95	; 0xffffffa1
     d84:	6843414d 	stmdavs	r3, {r0, r2, r3, r6, r8, lr}^
     d88:	656e6e61 	strbvs	r6, [lr, #-3681]!	; 0xfffff19f
     d8c:	00315f6c 	eorseq	r5, r1, ip, ror #30
     d90:	43414d44 	movtmi	r4, #7492	; 0x1d44
     d94:	6e6e6168 	powvsez	f6, f6, #0.0
     d98:	325f6c65 	subscc	r6, pc, #25856	; 0x6500
     d9c:	414d4400 	cmpmi	sp, r0, lsl #8
     da0:	6e616843 	cdpvs	8, 6, cr6, cr1, cr3, {2}
     da4:	5f6c656e 	svcpl	0x006c656e
     da8:	4d440033 	stclmi	0, cr0, [r4, #-204]	; 0xffffff34
     dac:	61684341 	cmnvs	r8, r1, asr #6
     db0:	6c656e6e 	stclvs	14, cr6, [r5], #-440	; 0xfffffe48
     db4:	4400345f 	strmi	r3, [r0], #-1119	; 0xfffffba1
     db8:	6843414d 	stmdavs	r3, {r0, r2, r3, r6, r8, lr}^
     dbc:	656e6e61 	strbvs	r6, [lr, #-3681]!	; 0xfffff19f
     dc0:	00355f6c 	eorseq	r5, r5, ip, ror #30
     dc4:	43414d44 	movtmi	r4, #7492	; 0x1d44
     dc8:	6e6e6168 	powvsez	f6, f6, #0.0
     dcc:	365f6c65 	ldrbcc	r6, [pc], -r5, ror #24
     dd0:	414d4400 	cmpmi	sp, r0, lsl #8
     dd4:	6e616843 	cdpvs	8, 6, cr6, cr1, cr3, {2}
     dd8:	5f6c656e 	svcpl	0x006c656e
     ddc:	4d440037 	stclmi	0, cr0, [r4, #-220]	; 0xffffff24
     de0:	61684341 	cmnvs	r8, r1, asr #6
     de4:	6c656e6e 	stclvs	14, cr6, [r5], #-440	; 0xfffffe48
     de8:	4400385f 	strmi	r3, [r0], #-2143	; 0xfffff7a1
     dec:	6843414d 	stmdavs	r3, {r0, r2, r3, r6, r8, lr}^
     df0:	656e6e61 	strbvs	r6, [lr, #-3681]!	; 0xfffff19f
     df4:	00395f6c 	eorseq	r5, r9, ip, ror #30
     df8:	74726f50 	ldrbtvc	r6, [r2], #-3920	; 0xfffff0b0
     dfc:	646e495f 	strbtvs	r4, [lr], #-2399	; 0xfffff6a1
     e00:	73656369 	cmnvc	r5, #-1543503871	; 0xa4000001
     e04:	414d4400 	cmpmi	sp, r0, lsl #8
     e08:	666f535f 			; <UNDEFINED> instruction: 0x666f535f
     e0c:	72617774 	rsbvc	r7, r1, #116, 14	; 0x1d00000
     e10:	61725465 	cmnvs	r2, r5, ror #8
     e14:	6566736e 	strbvs	r7, [r6, #-878]!	; 0xfffffc92
     e18:	61435f72 	hvcvs	13810	; 0x35f2
     e1c:	61626c6c 	cmnvs	r2, ip, ror #24
     e20:	53006b63 	movwpl	r6, #2915	; 0xb63
     e24:	49534352 	ldmdbmi	r3, {r1, r4, r6, r8, r9, lr}^
     e28:	5f00455a 	svcpl	0x0000455a
     e2c:	34323031 	ldrtcc	r3, [r2], #-49	; 0xffffffcf
     e30:	6172545f 	cmnvs	r2, pc, asr r4
     e34:	6566736e 	strbvs	r7, [r6, #-878]!	; 0xfffffc92
     e38:	44007372 	strmi	r7, [r0], #-882	; 0xfffffc8e
     e3c:	6843414d 	stmdavs	r3, {r0, r2, r3, r6, r8, lr}^
     e40:	656e6e61 	strbvs	r6, [lr, #-3681]!	; 0xfffff19f
     e44:	6d754e6c 	ldclvs	14, cr4, [r5, #-432]!	; 0xfffffe50
     e48:	4400745f 	strmi	r7, [r0], #-1119	; 0xfffffba1
     e4c:	435f414d 	cmpmi	pc, #1073741843	; 0x40000013
     e50:	69666e6f 	stmdbvs	r6!, {r0, r1, r2, r3, r5, r6, r9, sl, fp, sp, lr}^
     e54:	61725467 	cmnvs	r2, r7, ror #8
     e58:	6566736e 	strbvs	r7, [r6, #-878]!	; 0xfffffc92
     e5c:	646f4d72 	strbtvs	r4, [pc], #-3442	; e64 <DMA_ChannelControlWordRegisters+0x1c>
     e60:	00745f65 	rsbseq	r5, r4, r5, ror #30
     e64:	5f414d44 	svcpl	0x00414d44
     e68:	746e6f43 	strbtvc	r6, [lr], #-3907	; 0xfffff0bd
     e6c:	546c6f72 	strbtpl	r6, [ip], #-3954	; 0xfffff08e
     e70:	656c6261 	strbvs	r6, [ip, #-609]!	; 0xfffffd9f
     e74:	7265505f 	rsbvc	r5, r5, #95	; 0x5f
     e78:	65687069 	strbvs	r7, [r8, #-105]!	; 0xffffff97
     e7c:	536c6172 	cmnpl	ip, #-2147483620	; 0x8000001c
     e80:	74746163 	ldrbtvc	r6, [r4], #-355	; 0xfffffe9d
     e84:	61477265 	cmpvs	r7, r5, ror #4
     e88:	72656874 	rsbvc	r6, r5, #116, 16	; 0x740000
     e8c:	00727241 	rsbseq	r7, r2, r1, asr #4
     e90:	43414d44 	movtmi	r4, #7492	; 0x1d44
     e94:	6e6e6168 	powvsez	f6, f6, #0.0
     e98:	335f6c65 	cmpcc	pc, #25856	; 0x6500
     e9c:	4d440030 	stclmi	0, cr0, [r4, #-192]	; 0xffffff40
     ea0:	61684341 	cmnvs	r8, r1, asr #6
     ea4:	6c656e6e 	stclvs	14, cr6, [r5], #-440	; 0xfffffe48
     ea8:	0031335f 	eorseq	r3, r1, pc, asr r3
     eac:	5f414d44 	svcpl	0x00414d44
     eb0:	73727542 	cmnvc	r2, #276824064	; 0x10800000
     eb4:	71655274 	smcvc	21796	; 0x5524
     eb8:	74736575 	ldrbtvc	r6, [r3], #-1397	; 0xfffffa8b
     ebc:	35325f00 	ldrcc	r5, [r2, #-3840]!	; 0xfffff100
     ec0:	72545f36 	subsvc	r5, r4, #54, 30	; 0xd8
     ec4:	66736e61 	ldrbtvs	r6, [r3], -r1, ror #28
     ec8:	00737265 	rsbseq	r7, r3, r5, ror #4
     ecc:	69676552 	stmdbvs	r7!, {r1, r4, r6, r8, sl, sp, lr}^
     ed0:	72657473 	rsbvc	r7, r5, #1929379840	; 0x73000000
     ed4:	006d754e 	rsbeq	r7, sp, lr, asr #10
     ed8:	545f315f 	ldrbpl	r3, [pc], #-351	; ee0 <GPIO_AlternateFunctionSelect_Registers>
     edc:	736e6172 	cmnvc	lr, #-2147483620	; 0x8000001c
     ee0:	00726566 	rsbseq	r6, r2, r6, ror #10
     ee4:	726f6873 	rsbvc	r6, pc, #7536640	; 0x730000
     ee8:	6e752074 	mrcvs	0, 3, r2, cr5, cr4, {3}
     eec:	6e676973 			; <UNDEFINED> instruction: 0x6e676973
     ef0:	69206465 	stmdbvs	r0!, {r0, r2, r5, r6, sl, sp, lr}
     ef4:	5000746e 	andpl	r7, r0, lr, ror #8
     ef8:	4274726f 	rsbsmi	r7, r4, #-268435450	; 0xf0000006
     efc:	726f5000 	rsbvc	r5, pc, #0
     f00:	52004374 	andpl	r4, r0, #116, 6	; 0xd0000001
     f04:	65757165 	ldrbvs	r7, [r5, #-357]!	; 0xfffffe9b
     f08:	79547473 	ldmdbvc	r4, {r0, r1, r4, r5, r6, sl, ip, sp, lr}^
     f0c:	44006570 	strmi	r6, [r0], #-1392	; 0xfffffa90
     f10:	4c5f414d 	ldfmie	f4, [pc], {77}	; 0x4d
     f14:	54747369 	ldrbtpl	r7, [r4], #-873	; 0xfffffc97
     f18:	656c6261 	strbvs	r6, [ip, #-609]!	; 0xfffffd9f
     f1c:	4400745f 	strmi	r7, [r0], #-1119	; 0xfffffba1
     f20:	535f414d 	cmppl	pc, #1073741843	; 0x40000013
     f24:	6c676e69 	stclvs	14, cr6, [r7], #-420	; 0xfffffe5c
     f28:	71655265 	cmnvc	r5, r5, ror #4
     f2c:	74736575 	ldrbtvc	r6, [r3], #-1397	; 0xfffffa8b
     f30:	45465800 	strbmi	r5, [r6, #-2048]	; 0xfffff800
     f34:	444f4d52 	strbmi	r4, [pc], #-3410	; f3c <GPIO_InterruptMask_Registers+0x14>
     f38:	65530045 	ldrbvs	r0, [r3, #-69]	; 0xffffffbb
     f3c:	66654474 			; <UNDEFINED> instruction: 0x66654474
     f40:	746c7561 	strbtvc	r7, [ip], #-1377	; 0xfffffa9f
     f44:	6f697250 	svcvs	0x00697250
     f48:	79746972 	ldmdbvc	r4!, {r1, r4, r5, r6, r8, fp, sp, lr}^
     f4c:	6e616843 	cdpvs	8, 6, cr6, cr1, cr3, {2}
     f50:	006c656e 	rsbeq	r6, ip, lr, ror #10
     f54:	49435253 	stmdbmi	r3, {r0, r1, r4, r6, r9, ip, lr}^
     f58:	4500434e 	strmi	r4, [r0, #-846]	; 0xfffffcb2
     f5c:	646f636e 	strbtvs	r6, [pc], #-878	; f64 <GPIO_DigitalEnable_Registers+0xc>
     f60:	4e676e69 	cdpmi	14, 6, cr6, cr7, cr9, {3}
     f64:	44006d75 	strmi	r6, [r0], #-3445	; 0xfffff28b
     f68:	445f414d 	ldrbmi	r4, [pc], #-333	; f70 <GPIO_PortControl_Registers>
     f6c:	44747365 	ldrbtmi	r7, [r4], #-869	; 0xfffffc9b
     f70:	53617461 	cmnpl	r1, #1627389952	; 0x61000000
     f74:	5f657a69 	svcpl	0x00657a69
     f78:	385f0074 	ldmdacc	pc, {r2, r4, r5, r6}^	; <UNPREDICTABLE>
     f7c:	6172545f 	cmnvs	r2, pc, asr r4
     f80:	6566736e 	strbvs	r7, [r6, #-878]!	; 0xfffffc92
     f84:	44007372 	strmi	r7, [r0], #-882	; 0xfffffc8e
     f88:	445f414d 	ldrbmi	r4, [pc], #-333	; f90 <GPIO_LOCK_Registers+0x8>
     f8c:	41747365 	cmnmi	r4, r5, ror #6
     f90:	65726464 	ldrbvs	r6, [r2, #-1124]!	; 0xfffffb9c
     f94:	6e497373 	mcrvs	3, 2, r7, cr9, cr3, {3}
     f98:	6d657263 	sfmvs	f7, 2, [r5, #-396]!	; 0xfffffe74
     f9c:	5f746e65 	svcpl	0x00746e65
     fa0:	65440074 	strbvs	r0, [r4, #-116]	; 0xffffff8c
     fa4:	61447473 	hvcvs	18243	; 0x4743
     fa8:	69536174 	ldmdbvs	r3, {r2, r4, r5, r6, r8, sp, lr}^
     fac:	5f00657a 	svcpl	0x0000657a
     fb0:	5f383231 	svcpl	0x00383231
     fb4:	6e617254 	mcrvs	2, 3, r7, cr1, cr4, {2}
     fb8:	72656673 	rsbvc	r6, r5, #120586240	; 0x7300000
     fbc:	68430073 	stmdavs	r3, {r0, r1, r4, r5, r6}^
     fc0:	656e6e61 	strbvs	r6, [lr, #-3681]!	; 0xfffff19f
     fc4:	746e496c 	strbtvc	r4, [lr], #-2412	; 0xfffff694
     fc8:	75727265 	ldrbvc	r7, [r2, #-613]!	; 0xfffffd9b
     fcc:	74537470 	ldrbvc	r7, [r3], #-1136	; 0xfffffb90
     fd0:	73757461 	cmnvc	r5, #1627389952	; 0x61000000
     fd4:	4300305f 	movwmi	r3, #95	; 0x5f
     fd8:	6e6e6168 	powvsez	f6, f6, #0.0
     fdc:	6e496c65 	cdpvs	12, 4, cr6, cr9, cr5, {3}
     fe0:	72726574 	rsbsvc	r6, r2, #116, 10	; 0x1d000000
     fe4:	53747075 	cmnpl	r4, #117	; 0x75
     fe8:	75746174 	ldrbvc	r6, [r4, #-372]!	; 0xfffffe8c
     fec:	00315f73 	eorseq	r5, r1, r3, ror pc
     ff0:	43414d44 	movtmi	r4, #7492	; 0x1d44
     ff4:	6e6e6168 	powvsez	f6, f6, #0.0
     ff8:	33326c65 	teqcc	r2, #25856	; 0x6500
     ffc:	5241555f 	subpl	r5, r1, #398458880	; 0x17c00000
    1000:	61684354 	cmnvs	r8, r4, asr r3
    1004:	6c656e6e 	stclvs	14, cr6, [r5], #-440	; 0xfffffe48
    1008:	00585432 	subseq	r5, r8, r2, lsr r4
    100c:	5f414d44 	svcpl	0x00414d44
    1010:	666e6f63 	strbtvs	r6, [lr], -r3, ror #30
    1014:	632e6769 			; <UNDEFINED> instruction: 0x632e6769
    1018:	414d4400 	cmpmi	sp, r0, lsl #8
    101c:	6e616843 	cdpvs	8, 6, cr6, cr1, cr3, {2}
    1020:	326c656e 	rsbcc	r6, ip, #461373440	; 0x1b800000
    1024:	654d5f36 	strbvs	r5, [sp, #-3894]	; 0xfffff0ca
    1028:	4d6f546d 	cfstrdmi	mvd5, [pc, #-436]!	; e7c <DMA_ChannelControlWordRegisters+0x34>
    102c:	4c006d65 	stcmi	13, cr6, [r0], {101}	; 0x65
    1030:	44747369 	ldrbtmi	r7, [r4], #-873	; 0xfffffc97
    1034:	00747365 	rsbseq	r7, r4, r5, ror #6
    1038:	43414d44 	movtmi	r4, #7492	; 0x1d44
    103c:	6e6e6168 	powvsez	f6, f6, #0.0
    1040:	5f386c65 	svcpl	0x00386c65
    1044:	54524155 	ldrbpl	r4, [r2], #-341	; 0xfffffeab
    1048:	6e616843 	cdpvs	8, 6, cr6, cr1, cr3, {2}
    104c:	306c656e 	rsbcc	r6, ip, lr, ror #10
    1050:	44005852 	strmi	r5, [r0], #-2130	; 0xfffff7ae
    1054:	435f414d 	cmpmi	pc, #1073741843	; 0x40000013
    1058:	6e6e6168 	powvsez	f6, f6, #0.0
    105c:	43736c65 	cmnmi	r3, #25856	; 0x6500
    1060:	69666e6f 	stmdbvs	r6!, {r0, r1, r2, r3, r5, r6, r9, sl, fp, sp, lr}^
    1064:	00585267 	subseq	r5, r8, r7, ror #4
    1068:	43414d44 	movtmi	r4, #7492	; 0x1d44
    106c:	6e6e6168 	powvsez	f6, f6, #0.0
    1070:	36316c65 	ldrtcc	r6, [r1], -r5, ror #24
    1074:	5241555f 	subpl	r5, r1, #398458880	; 0x17c00000
    1078:	61684354 	cmnvs	r8, r4, asr r3
    107c:	6c656e6e 	stclvs	14, cr6, [r5], #-440	; 0xfffffe48
    1080:	00585233 	subseq	r5, r8, r3, lsr r2
    1084:	43414d44 	movtmi	r4, #7492	; 0x1d44
    1088:	6e6e6168 	powvsez	f6, f6, #0.0
    108c:	31326c65 	teqcc	r2, r5, ror #24
    1090:	5241555f 	subpl	r5, r1, #398458880	; 0x17c00000
    1094:	61684354 	cmnvs	r8, r4, asr r3
    1098:	6c656e6e 	stclvs	14, cr6, [r5], #-440	; 0xfffffe48
    109c:	00585437 	subseq	r5, r8, r7, lsr r4
    10a0:	43414d44 	movtmi	r4, #7492	; 0x1d44
    10a4:	6e6e6168 	powvsez	f6, f6, #0.0
    10a8:	38316c65 	ldmdacc	r1!, {r0, r2, r5, r6, sl, fp, sp, lr}
    10ac:	5241555f 	subpl	r5, r1, #398458880	; 0x17c00000
    10b0:	61684354 	cmnvs	r8, r4, asr r3
    10b4:	6c656e6e 	stclvs	14, cr6, [r5], #-440	; 0xfffffe48
    10b8:	00585234 	subseq	r5, r8, r4, lsr r2
    10bc:	7473694c 	ldrbtvc	r6, [r3], #-2380	; 0xfffff6b4
    10c0:	694c0041 	stmdbvs	ip, {r0, r6}^
    10c4:	00437473 	subeq	r7, r3, r3, ror r4
    10c8:	7473694c 	ldrbtvc	r6, [r3], #-2380	; 0xfffff6b4
    10cc:	694c0044 	stmdbvs	ip, {r2, r6}^
    10d0:	00457473 	subeq	r7, r5, r3, ror r4
    10d4:	43414d44 	movtmi	r4, #7492	; 0x1d44
    10d8:	6e6e6168 	powvsez	f6, f6, #0.0
    10dc:	33326c65 	teqcc	r2, #25856	; 0x6500
    10e0:	5241555f 	subpl	r5, r1, #398458880	; 0x17c00000
    10e4:	61684354 	cmnvs	r8, r4, asr r3
    10e8:	6c656e6e 	stclvs	14, cr6, [r5], #-440	; 0xfffffe48
    10ec:	00585431 	subseq	r5, r8, r1, lsr r4
    10f0:	5f414d44 	svcpl	0x00414d44
    10f4:	6e616843 	cdpvs	8, 6, cr6, cr1, cr3, {2}
    10f8:	736c656e 	cmnvc	ip, #461373440	; 0x1b800000
    10fc:	666e6f43 	strbtvs	r6, [lr], -r3, asr #30
    1100:	58546769 	ldmdapl	r4, {r0, r3, r5, r6, r8, r9, sl, sp, lr}^
    1104:	414d4400 	cmpmi	sp, r0, lsl #8
    1108:	6e616843 	cdpvs	8, 6, cr6, cr1, cr3, {2}
    110c:	366c656e 	strbtcc	r6, [ip], -lr, ror #10
    1110:	5241555f 	subpl	r5, r1, #398458880	; 0x17c00000
    1114:	61684354 	cmnvs	r8, r4, asr r3
    1118:	6c656e6e 	stclvs	14, cr6, [r5], #-440	; 0xfffffe48
    111c:	00585235 	subseq	r5, r8, r5, lsr r2
    1120:	43414d44 	movtmi	r4, #7492	; 0x1d44
    1124:	6e6e6168 	powvsez	f6, f6, #0.0
    1128:	30326c65 	eorscc	r6, r2, r5, ror #24
    112c:	5241555f 	subpl	r5, r1, #398458880	; 0x17c00000
    1130:	61684354 	cmnvs	r8, r4, asr r3
    1134:	6c656e6e 	stclvs	14, cr6, [r5], #-440	; 0xfffffe48
    1138:	00585237 	subseq	r5, r8, r7, lsr r2
    113c:	445f7450 	ldrbmi	r7, [pc], #-1104	; 1144 <GPTM_TimerMode+0x2c>
    1140:	6843414d 	stmdavs	r3, {r0, r2, r3, r6, r8, lr}^
    1144:	656e6e61 	strbvs	r6, [lr, #-3681]!	; 0xfffff19f
    1148:	4d5f306c 	ldclmi	0, cr3, [pc, #-432]	; fa0 <GPIO_Port_Commit>
    114c:	6f546d65 	svcvs	0x00546d65
    1150:	006d654d 	rsbeq	r6, sp, sp, asr #10
    1154:	445f7450 	ldrbmi	r7, [pc], #-1104	; 115c <GPTM_TimerMode+0x44>
    1158:	6843414d 	stmdavs	r3, {r0, r2, r3, r6, r8, lr}^
    115c:	656e6e61 	strbvs	r6, [lr, #-3681]!	; 0xfffff19f
    1160:	4d5f316c 	ldfmie	f3, [pc, #-432]	; fb8 <GPIO_InterruptClear_Registers>
    1164:	6f546d65 	svcvs	0x00546d65
    1168:	006d654d 	rsbeq	r6, sp, sp, asr #10
    116c:	43414d44 	movtmi	r4, #7492	; 0x1d44
    1170:	6e6e6168 	powvsez	f6, f6, #0.0
    1174:	5f306c65 	svcpl	0x00306c65
    1178:	54524155 	ldrbpl	r4, [r2], #-341	; 0xfffffeab
    117c:	6e616843 	cdpvs	8, 6, cr6, cr1, cr3, {2}
    1180:	326c656e 	rsbcc	r6, ip, #461373440	; 0x1b800000
    1184:	4c005852 	stcmi	8, cr5, [r0], {82}	; 0x52
    1188:	42747369 	rsbsmi	r7, r4, #-1543503871	; 0xa4000001
    118c:	73694c00 	cmnvc	r9, #0, 24
    1190:	44004674 	strmi	r4, [r0], #-1652	; 0xfffff98c
    1194:	6843414d 	stmdavs	r3, {r0, r2, r3, r6, r8, lr}^
    1198:	656e6e61 	strbvs	r6, [lr, #-3681]!	; 0xfffff19f
    119c:	555f396c 	ldrbpl	r3, [pc, #-2412]	; 838 <main+0x14>
    11a0:	43545241 	cmpmi	r4, #268435460	; 0x10000004
    11a4:	6e6e6168 	powvsez	f6, f6, #0.0
    11a8:	54306c65 	ldrtpl	r6, [r0], #-3173	; 0xfffff39b
    11ac:	4d440058 	stclmi	0, cr0, [r4, #-352]	; 0xfffffea0
    11b0:	61684341 	cmnvs	r8, r1, asr #6
    11b4:	6c656e6e 	stclvs	14, cr6, [r5], #-440	; 0xfffffe48
    11b8:	555f3031 	ldrbpl	r3, [pc, #-49]	; 118f <GPTM_Control+0x17>
    11bc:	43545241 	cmpmi	r4, #268435460	; 0x10000004
    11c0:	6e6e6168 	powvsez	f6, f6, #0.0
    11c4:	52366c65 	eorspl	r6, r6, #25856	; 0x6500
    11c8:	4d440058 	stclmi	0, cr0, [r4, #-352]	; 0xfffffea0
    11cc:	61684341 	cmnvs	r8, r1, asr #6
    11d0:	6c656e6e 	stclvs	14, cr6, [r5], #-440	; 0xfffffe48
    11d4:	555f3731 	ldrbpl	r3, [pc, #-1841]	; aab <SC_GetSystemClock+0x7f>
    11d8:	43545241 	cmpmi	r4, #268435460	; 0x10000004
    11dc:	6e6e6168 	powvsez	f6, f6, #0.0
    11e0:	54336c65 	ldrtpl	r6, [r3], #-3173	; 0xfffff39b
    11e4:	4d440058 	stclmi	0, cr0, [r4, #-352]	; 0xfffffea0
    11e8:	61684341 	cmnvs	r8, r1, asr #6
    11ec:	6c656e6e 	stclvs	14, cr6, [r5], #-440	; 0xfffffe48
    11f0:	555f3131 	ldrbpl	r3, [pc, #-305]	; 10c7 <GPTM_16BitTimerB_IntervalLoad+0xf>
    11f4:	43545241 	cmpmi	r4, #268435460	; 0x10000004
    11f8:	6e6e6168 	powvsez	f6, f6, #0.0
    11fc:	54366c65 	ldrtpl	r6, [r6], #-3173	; 0xfffff39b
    1200:	4d440058 	stclmi	0, cr0, [r4, #-352]	; 0xfffffea0
    1204:	61684341 	cmnvs	r8, r1, asr #6
    1208:	6c656e6e 	stclvs	14, cr6, [r5], #-440	; 0xfffffe48
    120c:	555f3931 	ldrbpl	r3, [pc, #-2353]	; 8e3 <NVIC_Enable_Interrupt+0x23>
    1210:	43545241 	cmpmi	r4, #268435460	; 0x10000004
    1214:	6e6e6168 	powvsez	f6, f6, #0.0
    1218:	54346c65 	ldrtpl	r6, [r4], #-3173	; 0xfffff39b
    121c:	74500058 	ldrbvc	r0, [r0], #-88	; 0xffffffa8
    1220:	414d445f 	cmpmi	sp, pc, asr r4
    1224:	6e616843 	cdpvs	8, 6, cr6, cr1, cr3, {2}
    1228:	326c656e 	rsbcc	r6, ip, #461373440	; 0x1b800000
    122c:	654d5f38 	strbvs	r5, [sp, #-3896]	; 0xfffff0c8
    1230:	4d6f546d 	cfstrdmi	mvd5, [pc, #-436]!	; 1084 <GPIO_AFSELUARTConfig_ArrPtrStruct+0x1c>
    1234:	50006d65 	andpl	r6, r0, r5, ror #26
    1238:	4d445f74 	stclmi	15, cr5, [r4, #-464]	; 0xfffffe30
    123c:	61684341 	cmnvs	r8, r1, asr #6
    1240:	6c656e6e 	stclvs	14, cr6, [r5], #-440	; 0xfffffe48
    1244:	4d5f3932 	vldrmi.16	s7, [pc, #-100]	; 11e8 <GPTM_ICRRegisters+0x10>	; <UNPREDICTABLE>
    1248:	6f546d65 	svcvs	0x00546d65
    124c:	006d654d 	rsbeq	r6, sp, sp, asr #10
    1250:	43414d44 	movtmi	r4, #7492	; 0x1d44
    1254:	6e6e6168 	powvsez	f6, f6, #0.0
    1258:	32326c65 	eorscc	r6, r2, #25856	; 0x6500
    125c:	5241555f 	subpl	r5, r1, #398458880	; 0x17c00000
    1260:	61684354 	cmnvs	r8, r4, asr r3
    1264:	6c656e6e 	stclvs	14, cr6, [r5], #-440	; 0xfffffe48
    1268:	00585231 	subseq	r5, r8, r1, lsr r2
    126c:	43414d44 	movtmi	r4, #7492	; 0x1d44
    1270:	6e6e6168 	powvsez	f6, f6, #0.0
    1274:	5f376c65 	svcpl	0x00376c65
    1278:	54524155 	ldrbpl	r4, [r2], #-341	; 0xfffffeab
    127c:	6e616843 	cdpvs	8, 6, cr6, cr1, cr3, {2}
    1280:	356c656e 	strbcc	r6, [ip, #-1390]!	; 0xfffffa92
    1284:	41005854 	tstmi	r0, r4, asr r8
    1288:	4c455346 	mcrrmi	3, 4, r5, r5, cr6
    128c:	65646f4d 	strbvs	r6, [r4, #-3917]!	; 0xfffff0b3
    1290:	54584500 	ldrbpl	r4, [r8], #-1280	; 0xfffffb00
    1294:	6e494449 	cdpvs	4, 4, cr4, cr9, cr9, {2}
    1298:	6e614874 	mcrvs	8, 3, r4, cr1, cr4, {3}
    129c:	72656c64 	rsbvc	r6, r5, #100, 24	; 0x6400
    12a0:	49504700 	ldmdbmi	r0, {r8, r9, sl, lr}^
    12a4:	58455f4f 	stmdapl	r5, {r0, r1, r2, r3, r6, r8, r9, sl, fp, ip, lr}^
    12a8:	6c434954 	mcrrvs	9, 5, r4, r3, cr4	; <UNPREDICTABLE>
    12ac:	49726165 	ldmdbmi	r2!, {r0, r2, r5, r6, r8, sp, lr}^
    12b0:	7265746e 	rsbvc	r7, r5, #1845493760	; 0x6e000000
    12b4:	74707572 	ldrbtvc	r7, [r0], #-1394	; 0xfffffa8e
    12b8:	54584500 	ldrbpl	r4, [r8], #-1280	; 0xfffffb00
    12bc:	61435f49 	cmpvs	r3, r9, asr #30
    12c0:	61626c6c 	cmnvs	r2, ip, ror #24
    12c4:	47006b63 	strmi	r6, [r0, -r3, ror #22]
    12c8:	5f4f4950 	svcpl	0x004f4950
    12cc:	666e6f43 	strbtvs	r6, [lr], -r3, asr #30
    12d0:	72756769 	rsbsvc	r6, r5, #27525120	; 0x1a40000
    12d4:	6d6f4365 	stclvs	3, cr4, [pc, #-404]!	; 1148 <GPTM_TimerMode+0x30>
    12d8:	0074696d 	rsbseq	r6, r4, sp, ror #18
    12dc:	545f7470 	ldrbpl	r7, [pc], #-1136	; 12e4 <UART_DataRegisters+0x4>
    12e0:	72656d69 	rsbvc	r6, r5, #6720	; 0x1a40
    12e4:	666e6f43 	strbtvs	r6, [lr], -r3, asr #30
    12e8:	68436769 	stmdavs	r3, {r0, r3, r5, r6, r8, r9, sl, sp, lr}^
    12ec:	656e6e61 	strbvs	r6, [lr, #-3681]!	; 0xfffff19f
    12f0:	5047006c 	subpl	r0, r7, ip, rrx
    12f4:	505f4f49 	subspl	r4, pc, r9, asr #30
    12f8:	74536e69 	ldrbvc	r6, [r3], #-3689	; 0xfffff197
    12fc:	5f657461 	svcpl	0x00657461
    1300:	50470074 	subpl	r0, r7, r4, ror r0
    1304:	445f4f49 	ldrbmi	r4, [pc], #-3913	; 130c <UART_FlagRegisters+0xc>
    1308:	74696769 	strbtvc	r6, [r9], #-1897	; 0xfffff897
    130c:	6e456c61 	cdpvs	12, 4, cr6, cr5, cr1, {3}
    1310:	656c6261 	strbvs	r6, [ip, #-609]!	; 0xfffffd9f
    1314:	6765525f 			; <UNDEFINED> instruction: 0x6765525f
    1318:	49504700 	ldmdbmi	r0, {r8, r9, sl, lr}^
    131c:	6f545f4f 	svcvs	0x00545f4f
    1320:	656c6767 	strbvs	r6, [ip, #-1895]!	; 0xfffff899
    1324:	42746942 	rsbsmi	r6, r4, #1081344	; 0x108000
    1328:	42646e61 	rsbmi	r6, r4, #1552	; 0x610
    132c:	00737469 	rsbseq	r7, r3, r9, ror #8
    1330:	4f495047 	svcmi	0x00495047
    1334:	616e455f 	cmnvs	lr, pc, asr r5
    1338:	41656c62 	cmnmi	r5, r2, ror #24
    133c:	4c455346 	mcrrmi	3, 4, r5, r5, cr6
    1340:	5241555f 	subpl	r5, r1, #398458880	; 0x17c00000
    1344:	754d0054 	strbvc	r0, [sp, #-84]	; 0xffffffac
    1348:	6c615678 	stclvs	6, cr5, [r1], #-480	; 0xfffffe20
    134c:	315f6575 	cmpcc	pc, r5, ror r5	; <UNPREDICTABLE>
    1350:	6e490031 	mcrvs	0, 2, r0, cr9, cr1, {1}
    1354:	46747570 			; <UNDEFINED> instruction: 0x46747570
    1358:	74616f6c 	strbtvc	r6, [r1], #-3948	; 0xfffff094
    135c:	746e4900 	strbtvc	r4, [lr], #-2304	; 0xfffff700
    1360:	75727265 	ldrbvc	r7, [r2, #-613]!	; 0xfffffd9b
    1364:	614d7470 	hvcvs	55104	; 0xd740
    1368:	6e456b73 	vmovvs.8	d5[3], r6
    136c:	656c6261 	strbvs	r6, [ip, #-609]!	; 0xfffffd9f
    1370:	49504700 	ldmdbmi	r0, {r8, r9, sl, lr}^
    1374:	6f435f4f 	svcvs	0x00435f4f
    1378:	6769666e 	strbvs	r6, [r9, -lr, ror #12]!
    137c:	44657275 	strbtmi	r7, [r5], #-629	; 0xfffffd8b
    1380:	74696769 	strbtvc	r6, [r9], #-1897	; 0xfffff897
    1384:	6e456c61 	cdpvs	12, 4, cr6, cr5, cr1, {3}
    1388:	656c6261 	strbvs	r6, [ip, #-609]!	; 0xfffffd9f
    138c:	49504700 	ldmdbmi	r0, {r8, r9, sl, lr}^
    1390:	61445f4f 	cmpvs	r4, pc, asr #30
    1394:	525f6174 	subspl	r6, pc, #116, 2
    1398:	73696765 	cmnvc	r9, #26476544	; 0x1940000
    139c:	73726574 	cmnvc	r2, #116, 10	; 0x1d000000
    13a0:	49504700 	ldmdbmi	r0, {r8, r9, sl, lr}^
    13a4:	6f545f4f 	svcvs	0x00545f4f
    13a8:	656c6767 	strbvs	r6, [ip, #-1895]!	; 0xfffff899
    13ac:	566e6950 			; <UNDEFINED> instruction: 0x566e6950
    13b0:	65756c61 	ldrbvs	r6, [r5, #-3169]!	; 0xfffff39f
    13b4:	5f747000 	svcpl	0x00747000
    13b8:	54524155 	ldrbpl	r4, [r2], #-341	; 0xfffffeab
    13bc:	666e6f43 	strbtvs	r6, [lr], -r3, asr #30
    13c0:	68436769 	stmdavs	r3, {r0, r3, r5, r6, r8, r9, sl, sp, lr}^
    13c4:	656e6e61 	strbvs	r6, [lr, #-3681]!	; 0xfffff19f
    13c8:	5845006c 	stmdapl	r5, {r2, r3, r5, r6}^
    13cc:	49424954 	stmdbmi	r2, {r2, r4, r6, r8, fp, lr}^
    13d0:	6148746e 	cmpvs	r8, lr, ror #8
    13d4:	656c646e 	strbvs	r6, [ip, #-1134]!	; 0xfffffb92
    13d8:	6e450072 	mcrvs	0, 2, r0, cr5, cr2, {3}
    13dc:	656c6261 	strbvs	r6, [ip, #-609]!	; 0xfffffd9f
    13e0:	5346415f 	movtpl	r4, #24927	; 0x615f
    13e4:	47004c45 	strmi	r4, [r0, -r5, asr #24]
    13e8:	5f4f4950 	svcpl	0x004f4950
    13ec:	44746553 	ldrbtmi	r6, [r4], #-1363	; 0xfffffaad
    13f0:	00617461 	rsbeq	r7, r1, r1, ror #8
    13f4:	4f495047 	svcmi	0x00495047
    13f8:	616e455f 	cmnvs	lr, pc, asr r5
    13fc:	41656c62 	cmnmi	r5, r2, ror #24
    1400:	4c455346 	mcrrmi	3, 4, r5, r5, cr6
    1404:	5450475f 	ldrbpl	r4, [r0], #-1887	; 0xfffff8a1
    1408:	5047004d 	subpl	r0, r7, sp, asr #32
    140c:	4c5f4f49 	mrrcmi	15, 4, r4, pc, cr9	; <UNPREDICTABLE>
    1410:	5f4b434f 	svcpl	0x004b434f
    1414:	69676552 	stmdbvs	r7!, {r1, r4, r6, r8, sl, sp, lr}^
    1418:	72657473 	rsbvc	r7, r5, #1929379840	; 0x73000000
    141c:	6f500073 	svcvs	0x00500073
    1420:	754e7472 	strbvc	r7, [lr, #-1138]	; 0xfffffb8e
    1424:	646e496d 	strbtvs	r4, [lr], #-2413	; 0xfffff693
    1428:	72417865 	subvc	r7, r1, #6619136	; 0x650000
    142c:	50470072 	subpl	r0, r7, r2, ror r0
    1430:	505f4f49 	subspl	r4, pc, r9, asr #30
    1434:	4374726f 	cmnmi	r4, #-268435450	; 0xf0000006
    1438:	72746e6f 	rsbsvc	r6, r4, #1776	; 0x6f0
    143c:	525f6c6f 	subspl	r6, pc, #28416	; 0x6f00
    1440:	73696765 	cmnvc	r9, #26476544	; 0x1940000
    1444:	73726574 	cmnvc	r2, #116, 10	; 0x1d000000
    1448:	73694400 	cmnvc	r9, #0, 8
    144c:	656c6261 	strbvs	r6, [ip, #-609]!	; 0xfffffd9f
    1450:	6b636f4c 	blvs	18dd188 <UART_InterruptFIFOLevelSelect+0x18dbd48>
    1454:	49504700 	ldmdbmi	r0, {r8, r9, sl, lr}^
    1458:	61445f4f 	cmpvs	r4, pc, asr #30
    145c:	525f6174 	subspl	r6, pc, #116, 2
    1460:	45006765 	strmi	r6, [r0, #-1893]	; 0xfffff89b
    1464:	46495458 			; <UNDEFINED> instruction: 0x46495458
    1468:	48746e49 	ldmdami	r4!, {r0, r3, r6, r9, sl, fp, sp, lr}^
    146c:	6c646e61 	stclvs	14, cr6, [r4], #-388	; 0xfffffe7c
    1470:	50007265 	andpl	r7, r0, r5, ror #4
    1474:	74536e69 	ldrbvc	r6, [r3], #-3689	; 0xfffff197
    1478:	00657461 	rsbeq	r7, r5, r1, ror #8
    147c:	4f495047 	svcmi	0x00495047
    1480:	6e6f435f 	mcrvs	3, 3, r4, cr15, cr15, {2}
    1484:	75676966 	strbvc	r6, [r7, #-2406]!	; 0xfffff69a
    1488:	754f6572 	strbvc	r6, [pc, #-1394]	; f1e <GPIO_InterruptEvent_Registers+0xe>
    148c:	74757074 	ldrbtvc	r7, [r5], #-116	; 0xffffff8c
    1490:	006e6950 	rsbeq	r6, lr, r0, asr r9
    1494:	4f495047 	svcmi	0x00495047
    1498:	5346415f 	movtpl	r4, #24927	; 0x615f
    149c:	525f4c45 	subspl	r4, pc, #17664	; 0x4500
    14a0:	4d006765 	stcmi	7, cr6, [r0, #-404]	; 0xfffffe6c
    14a4:	754e7861 	strbvc	r7, [lr, #-2145]	; 0xfffff79f
    14a8:	6174536d 	cmnvs	r4, sp, ror #6
    14ac:	47006574 	smlsdxmi	r0, r4, r5, r6
    14b0:	5f4f4950 	svcpl	0x004f4950
    14b4:	45534641 	ldrbmi	r4, [r3, #-1601]	; 0xfffff9bf
    14b8:	646f4d4c 	strbtvs	r4, [pc], #-3404	; 14c0 <UART_InterruptFIFOLevelSelect+0x80>
    14bc:	00745f65 	rsbseq	r5, r4, r5, ror #30
    14c0:	4f495047 	svcmi	0x00495047
    14c4:	6e6f435f 	mcrvs	3, 3, r4, cr15, cr15, {2}
    14c8:	75676966 	strbvc	r6, [r7, #-2406]!	; 0xfffff69a
    14cc:	68436572 	stmdavs	r3, {r1, r4, r5, r6, r8, sl, sp, lr}^
    14d0:	656e6e61 	strbvs	r6, [lr, #-3681]!	; 0xfffff19f
    14d4:	6d754e6c 	ldclvs	14, cr4, [r5, #-432]!	; 0xfffffe50
    14d8:	4700745f 	smlsdmi	r0, pc, r4, r7	; <UNPREDICTABLE>
    14dc:	5f4f4950 	svcpl	0x004f4950
    14e0:	65746e49 	ldrbvs	r6, [r4, #-3657]!	; 0xfffff1b7
    14e4:	70757272 	rsbsvc	r7, r5, r2, ror r2
    14e8:	65764574 	ldrbvs	r4, [r6, #-1396]!	; 0xfffffa8c
    14ec:	525f746e 	subspl	r7, pc, #1845493760	; 0x6e000000
    14f0:	47006765 	strmi	r6, [r0, -r5, ror #14]
    14f4:	5f4f4950 	svcpl	0x004f4950
    14f8:	666e6f43 	strbtvs	r6, [lr], -r3, asr #30
    14fc:	72756769 	rsbsvc	r6, r5, #27525120	; 0x1a40000
    1500:	616e4165 	cmnvs	lr, r5, ror #2
    1504:	4d676f6c 	stclmi	15, cr6, [r7, #-432]!	; 0xfffffe50
    1508:	5365646f 	cmnpl	r5, #1862270976	; 0x6f000000
    150c:	63656c65 	cmnvs	r5, #25856	; 0x6500
    1510:	65720074 	ldrbvs	r0, [r2, #-116]!	; 0xffffff8c
    1514:	76726573 			; <UNDEFINED> instruction: 0x76726573
    1518:	47006465 	strmi	r6, [r0, -r5, ror #8]
    151c:	5f4f4950 	svcpl	0x004f4950
    1520:	45534d41 	ldrbmi	r4, [r3, #-3393]	; 0xfffff2bf
    1524:	646f4d4c 	strbtvs	r4, [pc], #-3404	; 152c <UART_InterruptFIFOLevelSelect+0xec>
    1528:	00745f65 	rsbseq	r5, r4, r5, ror #30
    152c:	49545845 	ldmdbmi	r4, {r0, r2, r6, fp, ip, lr}^
    1530:	746e4941 	strbtvc	r4, [lr], #-2369	; 0xfffff6bf
    1534:	646e6148 	strbtvs	r6, [lr], #-328	; 0xfffffeb8
    1538:	0072656c 	rsbseq	r6, r2, ip, ror #10
    153c:	62616e45 	rsbvs	r6, r1, #1104	; 0x450
    1540:	6944656c 	stmdbvs	r4, {r2, r3, r5, r6, r8, sl, sp, lr}^
    1544:	61746967 	cmnvs	r4, r7, ror #18
    1548:	6e75466c 	cdpvs	6, 7, cr4, cr5, cr12, {3}
    154c:	6f697463 	svcvs	0x00697463
    1550:	6e49006e 	cdpvs	0, 4, cr0, cr9, cr14, {3}
    1554:	72726574 	rsbsvc	r6, r2, #116, 10	; 0x1d000000
    1558:	5f747075 	svcpl	0x00747075
    155c:	636e6553 	cmnvs	lr, #348127232	; 0x14c00000
    1560:	50470065 	subpl	r0, r7, r5, rrx
    1564:	495f4f49 	ldmdbmi	pc, {r0, r3, r6, r8, r9, sl, fp, lr}^	; <UNPREDICTABLE>
    1568:	7265746e 	rsbvc	r7, r5, #1845493760	; 0x6e000000
    156c:	74707572 	ldrbtvc	r7, [r0], #-1394	; 0xfffffa8e
    1570:	736e6553 	cmnvc	lr, #348127232	; 0x14c00000
    1574:	65525f65 	ldrbvs	r5, [r2, #-3941]	; 0xfffff09b
    1578:	6f430067 	svcvs	0x00430067
    157c:	6769666e 	strbvs	r6, [r9, -lr, ror #12]!
    1580:	43657275 	cmnmi	r5, #1342177287	; 0x50000007
    1584:	6e6e6168 	powvsez	f6, f6, #0.0
    1588:	754e6c65 	strbvc	r6, [lr, #-3173]	; 0xfffff39b
    158c:	754d006d 	strbvc	r0, [sp, #-109]	; 0xffffff93
    1590:	6c615678 	stclvs	6, cr5, [r1], #-480	; 0xfffffe20
    1594:	315f6575 	cmpcc	pc, r5, ror r5	; <UNPREDICTABLE>
    1598:	754d0030 	strbvc	r0, [sp, #-48]	; 0xffffffd0
    159c:	6c615678 	stclvs	6, cr5, [r1], #-480	; 0xfffffe20
    15a0:	315f6575 	cmpcc	pc, r5, ror r5	; <UNPREDICTABLE>
    15a4:	754d0032 	strbvc	r0, [sp, #-50]	; 0xffffffce
    15a8:	6c615678 	stclvs	6, cr5, [r1], #-480	; 0xfffffe20
    15ac:	315f6575 	cmpcc	pc, r5, ror r5	; <UNPREDICTABLE>
    15b0:	754d0033 	strbvc	r0, [sp, #-51]	; 0xffffffcd
    15b4:	6c615678 	stclvs	6, cr5, [r1], #-480	; 0xfffffe20
    15b8:	315f6575 	cmpcc	pc, r5, ror r5	; <UNPREDICTABLE>
    15bc:	6e450034 	mcrvs	0, 2, r0, cr5, cr4, {1}
    15c0:	656c6261 	strbvs	r6, [ip, #-609]!	; 0xfffffd9f
    15c4:	534d415f 	movtpl	r4, #53599	; 0xd15f
    15c8:	44004c45 	strmi	r4, [r0], #-3141	; 0xfffff3bb
    15cc:	62617369 	rsbvs	r7, r1, #-1543503871	; 0xa4000001
    15d0:	6944656c 	stmdbvs	r4, {r2, r3, r5, r6, r8, sl, sp, lr}^
    15d4:	61746967 	cmnvs	r4, r7, ror #18
    15d8:	6e75466c 	cdpvs	6, 7, cr4, cr5, cr12, {3}
    15dc:	6f697463 	svcvs	0x00697463
    15e0:	6e49006e 	cdpvs	0, 4, cr0, cr9, cr14, {3}
    15e4:	72726574 	rsbsvc	r6, r2, #116, 10	; 0x1d000000
    15e8:	45747075 	ldrbmi	r7, [r4, #-117]!	; 0xffffff8b
    15ec:	746e6576 	strbtvc	r6, [lr], #-1398	; 0xfffffa8a
    15f0:	49504700 	ldmdbmi	r0, {r8, r9, sl, lr}^
    15f4:	69445f4f 	stmdbvs	r4, {r0, r1, r2, r3, r6, r8, r9, sl, fp, ip, lr}^
    15f8:	74636572 	strbtvc	r6, [r3], #-1394	; 0xfffffa8e
    15fc:	5f6e6f69 	svcpl	0x006e6f69
    1600:	69676552 	stmdbvs	r7!, {r1, r4, r6, r8, sl, sp, lr}^
    1604:	72657473 	rsbvc	r7, r5, #1929379840	; 0x73000000
    1608:	50470073 	subpl	r0, r7, r3, ror r0
    160c:	575f4f49 	ldrbpl	r4, [pc, -r9, asr #30]
    1610:	65746972 	ldrbvs	r6, [r4, #-2418]!	; 0xfffff68e
    1614:	42746942 	rsbsmi	r6, r4, #1081344	; 0x108000
    1618:	42646e61 	rsbmi	r6, r4, #1552	; 0x610
    161c:	00737469 	rsbseq	r7, r3, r9, ror #8
    1620:	4f495047 	svcmi	0x00495047
    1624:	746e495f 	strbtvc	r4, [lr], #-2399	; 0xfffff6a1
    1628:	75727265 	ldrbvc	r7, [r2, #-613]!	; 0xfffffd9b
    162c:	6c437470 	cfstrdvs	mvd7, [r3], {112}	; 0x70
    1630:	5f726165 	svcpl	0x00726165
    1634:	69676552 	stmdbvs	r7!, {r1, r4, r6, r8, sl, sp, lr}^
    1638:	72657473 	rsbvc	r7, r5, #1929379840	; 0x73000000
    163c:	50470073 	subpl	r0, r7, r3, ror r0
    1640:	445f4f49 	ldrbmi	r4, [pc], #-3913	; 1648 <UART_InterruptFIFOLevelSelect+0x208>
    1644:	74696769 	strbtvc	r6, [r9], #-1897	; 0xfffff897
    1648:	6f4d6c61 	svcvs	0x004d6c61
    164c:	745f6564 	ldrbvc	r6, [pc], #-1380	; 1654 <UART_InterruptFIFOLevelSelect+0x214>
    1650:	49504700 	ldmdbmi	r0, {r8, r9, sl, lr}^
    1654:	69445f4f 	stmdbvs	r4, {r0, r1, r2, r3, r6, r8, r9, sl, fp, ip, lr}^
    1658:	61746967 	cmnvs	r4, r7, ror #18
    165c:	616e456c 	cmnvs	lr, ip, ror #10
    1660:	5f656c62 	svcpl	0x00656c62
    1664:	69676552 	stmdbvs	r7!, {r1, r4, r6, r8, sl, sp, lr}^
    1668:	72657473 	rsbvc	r7, r5, #1929379840	; 0x73000000
    166c:	50470073 	subpl	r0, r7, r3, ror r0
    1670:	4f5f4f49 	svcmi	0x005f4f49
    1674:	75707475 	ldrbvc	r7, [r0, #-1141]!	; 0xfffffb8b
    1678:	6c615674 	stclvs	6, cr5, [r1], #-464	; 0xfffffe30
    167c:	745f6575 	ldrbvc	r6, [pc], #-1397	; 1684 <UART_InterruptFIFOLevelSelect+0x244>
    1680:	61684300 	cmnvs	r8, r0, lsl #6
    1684:	6c656e6e 	stclvs	14, cr6, [r5], #-440	; 0xfffffe48
    1688:	526d754e 	rsbpl	r7, sp, #327155712	; 0x13800000
    168c:	6f430078 	svcvs	0x00430078
    1690:	6769666e 	strbvs	r6, [r9, -lr, ror #12]!
    1694:	4d657275 	sfmmi	f7, 2, [r5, #-468]!	; 0xfffffe2c
    1698:	61567875 	cmpvs	r6, r5, ror r8
    169c:	0065756c 	rsbeq	r7, r5, ip, ror #10
    16a0:	4f495047 	svcmi	0x00495047
    16a4:	746e495f 	strbtvc	r4, [lr], #-2399	; 0xfffff6a1
    16a8:	75727265 	ldrbvc	r7, [r2, #-613]!	; 0xfffffd9b
    16ac:	614d7470 	hvcvs	55104	; 0xd740
    16b0:	525f6b73 	subspl	r6, pc, #117760	; 0x1cc00
    16b4:	73696765 	cmnvc	r9, #26476544	; 0x1940000
    16b8:	73726574 	cmnvc	r2, #116, 10	; 0x1d000000
    16bc:	49504700 	ldmdbmi	r0, {r8, r9, sl, lr}^
    16c0:	6f505f4f 	svcvs	0x00505f4f
    16c4:	435f7472 	cmpmi	pc, #1912602624	; 0x72000000
    16c8:	696d6d6f 	stmdbvs	sp!, {r0, r1, r2, r3, r5, r6, r8, sl, fp, sp, lr}^
    16cc:	50470074 	subpl	r0, r7, r4, ror r0
    16d0:	435f4f49 	cmpmi	pc, #292	; 0x124
    16d4:	69666e6f 	stmdbvs	r6!, {r0, r1, r2, r3, r5, r6, r9, sl, fp, sp, lr}^
    16d8:	65727567 	ldrbvs	r7, [r2, #-1383]!	; 0xfffffa99
    16dc:	65746c41 	ldrbvs	r6, [r4, #-3137]!	; 0xfffff3bf
    16e0:	74616e72 	strbtvc	r6, [r1], #-3698	; 0xfffff18e
    16e4:	6e754665 	cdpvs	6, 7, cr4, cr5, cr5, {3}
    16e8:	6f697463 	svcvs	0x00697463
    16ec:	6c65536e 	stclvs	3, cr5, [r5], #-440	; 0xfffffe48
    16f0:	00746365 	rsbseq	r6, r4, r5, ror #6
    16f4:	4f495047 	svcmi	0x00495047
    16f8:	616e455f 	cmnvs	lr, pc, asr r5
    16fc:	52656c62 	rsbpl	r6, r5, #25088	; 0x6200
    1700:	6f4d6e75 	svcvs	0x004d6e75
    1704:	6c436564 	cfstr64vs	mvdx6, [r3], {100}	; 0x64
    1708:	476b636f 	strbmi	r6, [fp, -pc, ror #6]!
    170c:	43657461 	cmnmi	r5, #1627389952	; 0x61000000
    1710:	72746e6f 	rsbsvc	r6, r4, #1776	; 0x6f0
    1714:	44006c6f 	strmi	r6, [r0], #-3183	; 0xfffff391
    1718:	62617369 	rsbvs	r7, r1, #-1543503871	; 0xa4000001
    171c:	495f656c 	ldmdbmi	pc, {r2, r3, r5, r6, r8, sl, sp, lr}^	; <UNPREDICTABLE>
    1720:	7265746e 	rsbvc	r7, r5, #1845493760	; 0x6e000000
    1724:	74707572 	ldrbtvc	r7, [r0], #-1394	; 0xfffffa8e
    1728:	6b73614d 	blvs	1cd9c64 <UART_InterruptFIFOLevelSelect+0x1cd8824>
    172c:	49504700 	ldmdbmi	r0, {r8, r9, sl, lr}^
    1730:	6f435f4f 	svcvs	0x00435f4f
    1734:	6769666e 	strbvs	r6, [r9, -lr, ror #12]!
    1738:	4d657275 	sfmmi	f7, 2, [r5, #-468]!	; 0xfffffe2c
    173c:	61567875 	cmpvs	r6, r5, ror r8
    1740:	5f65756c 	svcpl	0x0065756c
    1744:	6f4c0074 	svcvs	0x004c0074
    1748:	6f4d6b63 	svcvs	0x004d6b63
    174c:	45006564 	strmi	r6, [r0, #-1380]	; 0xfffffa9c
    1750:	43495458 	movtmi	r5, #37976	; 0x9458
    1754:	48746e49 	ldmdami	r4!, {r0, r3, r6, r9, sl, fp, sp, lr}^
    1758:	6c646e61 	stclvs	14, cr6, [r4], #-388	; 0xfffffe7c
    175c:	47007265 	strmi	r7, [r0, -r5, ror #4]
    1760:	5f4f4950 	svcpl	0x004f4950
    1764:	74726f50 	ldrbtvc	r6, [r2], #-3920	; 0xfffff0b0
    1768:	496d754e 	stmdbmi	sp!, {r1, r2, r3, r6, r8, sl, ip, sp, lr}^
    176c:	7865646e 	stmdavc	r5!, {r1, r2, r3, r5, r6, sl, sp, lr}^
    1770:	5f727241 	svcpl	0x00727241
    1774:	50470074 	subpl	r0, r7, r4, ror r0
    1778:	495f4f49 	ldmdbmi	pc, {r0, r3, r6, r8, r9, sl, fp, lr}^	; <UNPREDICTABLE>
    177c:	7265746e 	rsbvc	r7, r5, #1845493760	; 0x6e000000
    1780:	74707572 	ldrbtvc	r7, [r0], #-1394	; 0xfffffa8e
    1784:	736e6553 	cmnvc	lr, #348127232	; 0x14c00000
    1788:	65525f65 	ldrbvs	r5, [r2, #-3941]	; 0xfffff09b
    178c:	74736967 	ldrbtvc	r6, [r3], #-2407	; 0xfffff699
    1790:	00737265 	rsbseq	r7, r3, r5, ror #4
    1794:	7074754f 	rsbsvc	r7, r4, pc, asr #10
    1798:	61567475 	cmpvs	r6, r5, ror r4
    179c:	0065756c 	rsbeq	r7, r5, ip, ror #10
    17a0:	4f495047 	svcmi	0x00495047
    17a4:	4700632e 	strmi	r6, [r0, -lr, lsr #6]
    17a8:	504f4950 	subpl	r4, pc, r0, asr r9	; <UNPREDICTABLE>
    17ac:	525f5255 	subspl	r5, pc, #1342177285	; 0x50000005
    17b0:	45006765 	strmi	r6, [r0, #-1893]	; 0xfffff89b
    17b4:	6c62616e 	stfvse	f6, [r2], #-440	; 0xfffffe48
    17b8:	636f4c65 	cmnvs	pc, #25856	; 0x6500
    17bc:	5047006b 	subpl	r0, r7, fp, rrx
    17c0:	495f4f49 	ldmdbmi	pc, {r0, r3, r6, r8, r9, sl, fp, lr}^	; <UNPREDICTABLE>
    17c4:	7265746e 	rsbvc	r7, r5, #1845493760	; 0x6e000000
    17c8:	74707572 	ldrbtvc	r7, [r0], #-1394	; 0xfffffa8e
    17cc:	6b73614d 	blvs	1cd9d08 <UART_InterruptFIFOLevelSelect+0x1cd88c8>
    17d0:	6765525f 			; <UNDEFINED> instruction: 0x6765525f
    17d4:	49504700 	ldmdbmi	r0, {r8, r9, sl, lr}^
    17d8:	6f435f4f 	svcvs	0x00435f4f
    17dc:	6769666e 	strbvs	r6, [r9, -lr, ror #12]!
    17e0:	49657275 	stmdbmi	r5!, {r0, r2, r4, r5, r6, r9, ip, sp, lr}^
    17e4:	7265746e 	rsbvc	r7, r5, #1845493760	; 0x6e000000
    17e8:	74707572 	ldrbtvc	r7, [r0], #-1394	; 0xfffffa8e
    17ec:	6b73614d 	blvs	1cd9d28 <UART_InterruptFIFOLevelSelect+0x1cd88e8>
    17f0:	49504700 	ldmdbmi	r0, {r8, r9, sl, lr}^
    17f4:	69445f4f 	stmdbvs	r4, {r0, r1, r2, r3, r6, r8, r9, sl, fp, ip, lr}^
    17f8:	74636572 	strbtvc	r6, [r3], #-1394	; 0xfffffa8e
    17fc:	5f6e6f69 	svcpl	0x006e6f69
    1800:	00676552 	rsbeq	r6, r7, r2, asr r5
    1804:	4f495047 	svcmi	0x00495047
    1808:	7465535f 	strbtvc	r5, [r5], #-863	; 0xfffffca1
    180c:	75706e49 	ldrbvc	r6, [r0, #-3657]!	; 0xfffff1b7
    1810:	61745374 	cmnvs	r4, r4, ror r3
    1814:	00737574 	rsbseq	r7, r3, r4, ror r5
    1818:	6d6d6f63 	stclvs	15, cr6, [sp, #-396]!	; 0xfffffe74
    181c:	47007469 	strmi	r7, [r0, -r9, ror #8]
    1820:	5f4f4950 	svcpl	0x004f4950
    1824:	65746e49 	ldrbvs	r6, [r4, #-3657]!	; 0xfffff1b7
    1828:	70757272 	rsbsvc	r7, r5, r2, ror r2
    182c:	65764574 	ldrbvs	r4, [r6, #-1396]!	; 0xfffffa8c
    1830:	525f746e 	subspl	r7, pc, #1845493760	; 0x6e000000
    1834:	73696765 	cmnvc	r9, #26476544	; 0x1940000
    1838:	73726574 	cmnvc	r2, #116, 10	; 0x1d000000
    183c:	78754d00 	ldmdavc	r5!, {r8, sl, fp, lr}^
    1840:	756c6156 	strbvc	r6, [ip, #-342]!	; 0xfffffeaa
    1844:	00305f65 	eorseq	r5, r0, r5, ror #30
    1848:	5678754d 	ldrbtpl	r7, [r8], -sp, asr #10
    184c:	65756c61 	ldrbvs	r6, [r5, #-3169]!	; 0xfffff39f
    1850:	4d00315f 	stfmis	f3, [r0, #-380]	; 0xfffffe84
    1854:	61567875 	cmpvs	r6, r5, ror r8
    1858:	5f65756c 	svcpl	0x0065756c
    185c:	754d0032 	strbvc	r0, [sp, #-50]	; 0xffffffce
    1860:	6c615678 	stclvs	6, cr5, [r1], #-480	; 0xfffffe20
    1864:	335f6575 	cmpcc	pc, #490733568	; 0x1d400000
    1868:	78754d00 	ldmdavc	r5!, {r8, sl, fp, lr}^
    186c:	756c6156 	strbvc	r6, [ip, #-342]!	; 0xfffffeaa
    1870:	00345f65 	eorseq	r5, r4, r5, ror #30
    1874:	5678754d 	ldrbtpl	r7, [r8], -sp, asr #10
    1878:	65756c61 	ldrbvs	r6, [r5, #-3169]!	; 0xfffff39f
    187c:	4d00355f 	cfstr32mi	mvfx3, [r0, #-380]	; 0xfffffe84
    1880:	61567875 	cmpvs	r6, r5, ror r8
    1884:	5f65756c 	svcpl	0x0065756c
    1888:	754d0036 	strbvc	r0, [sp, #-54]	; 0xffffffca
    188c:	6c615678 	stclvs	6, cr5, [r1], #-480	; 0xfffffe20
    1890:	375f6575 			; <UNDEFINED> instruction: 0x375f6575
    1894:	78754d00 	ldmdavc	r5!, {r8, sl, fp, lr}^
    1898:	756c6156 	strbvc	r6, [ip, #-342]!	; 0xfffffeaa
    189c:	00385f65 	eorseq	r5, r8, r5, ror #30
    18a0:	5678754d 	ldrbtpl	r7, [r8], -sp, asr #10
    18a4:	65756c61 	ldrbvs	r6, [r5, #-3169]!	; 0xfffff39f
    18a8:	4700395f 	smlsdmi	r0, pc, r9, r3	; <UNPREDICTABLE>
    18ac:	5f4f4950 	svcpl	0x004f4950
    18b0:	666e6f43 	strbtvs	r6, [lr], -r3, asr #30
    18b4:	72756769 	rsbsvc	r6, r5, #27525120	; 0x1a40000
    18b8:	706e4965 	rsbvc	r4, lr, r5, ror #18
    18bc:	69507475 	ldmdbvs	r0, {r0, r2, r4, r5, r6, sl, ip, sp, lr}^
    18c0:	6944006e 	stmdbvs	r4, {r1, r2, r3, r5, r6}^
    18c4:	61746967 	cmnvs	r4, r7, ror #18
    18c8:	646f4d6c 	strbtvs	r4, [pc], #-3436	; 18d0 <UART_InterruptFIFOLevelSelect+0x490>
    18cc:	69440065 	stmdbvs	r4, {r0, r2, r5, r6}^
    18d0:	6c626173 	stfvse	f6, [r2], #-460	; 0xfffffe34
    18d4:	46415f65 	strbmi	r5, [r1], -r5, ror #30
    18d8:	004c4553 	subeq	r4, ip, r3, asr r5
    18dc:	435f7470 	cmpmi	pc, #112, 8	; 0x70000000
    18e0:	69666e6f 	stmdbvs	r6!, {r0, r1, r2, r3, r5, r6, r9, sl, fp, sp, lr}^
    18e4:	65727567 	ldrbvs	r7, [r2, #-1383]!	; 0xfffffa99
    18e8:	006e6950 	rsbeq	r6, lr, r0, asr r9
    18ec:	6c6c7550 	cfstr64vs	mvdx7, [ip], #-320	; 0xfffffec0
    18f0:	6e457055 	mcrvs	0, 2, r7, cr5, cr5, {2}
    18f4:	656c6261 	strbvs	r6, [ip, #-609]!	; 0xfffffd9f
    18f8:	61684300 	cmnvs	r8, r0, lsl #6
    18fc:	6c656e6e 	stclvs	14, cr6, [r5], #-440	; 0xfffffe48
    1900:	546d754e 	strbtpl	r7, [sp], #-1358	; 0xfffffab2
    1904:	50470078 	subpl	r0, r7, r8, ror r0
    1908:	555f4f49 	ldrbpl	r4, [pc, #-3913]	; 9c7 <Reset_Handler+0x63>
    190c:	43545241 	cmpmi	r4, #268435460	; 0x10000004
    1910:	69666e6f 	stmdbvs	r6!, {r0, r1, r2, r3, r5, r6, r9, sl, fp, sp, lr}^
    1914:	61684367 	cmnvs	r8, r7, ror #6
    1918:	6c656e6e 	stclvs	14, cr6, [r5], #-440	; 0xfffffe48
    191c:	4500745f 	strmi	r7, [r0, #-1119]	; 0xfffffba1
    1920:	45495458 	strbmi	r5, [r9, #-1112]	; 0xfffffba8
    1924:	48746e49 	ldmdami	r4!, {r0, r3, r6, r9, sl, fp, sp, lr}^
    1928:	6c646e61 	stclvs	14, cr6, [r4], #-388	; 0xfffffe7c
    192c:	4d007265 	sfmmi	f7, 4, [r0, #-404]	; 0xfffffe6c
    1930:	754e6e69 	strbvc	r6, [lr, #-3689]	; 0xfffff197
    1934:	6174536d 	cmnvs	r4, sp, ror #6
    1938:	47006574 	smlsdxmi	r0, r4, r5, r6
    193c:	5f4f4950 	svcpl	0x004f4950
    1940:	666e6f43 	strbtvs	r6, [lr], -r3, asr #30
    1944:	72756769 	rsbsvc	r6, r5, #27525120	; 0x1a40000
    1948:	6e695065 	cdpvs	0, 6, cr5, cr9, cr5, {3}
    194c:	4700745f 	smlsdmi	r0, pc, r4, r7	; <UNPREDICTABLE>
    1950:	5f4f4950 	svcpl	0x004f4950
    1954:	6b636f4c 	blvs	18dd68c <UART_InterruptFIFOLevelSelect+0x18dc24c>
    1958:	65646f4d 	strbvs	r6, [r4, #-3917]!	; 0xfffff0b3
    195c:	4500745f 	strmi	r7, [r0, #-1119]	; 0xfffffba1
    1960:	6c62616e 	stfvse	f6, [r2], #-440	; 0xfffffe48
    1964:	6e495f65 	cdpvs	15, 4, cr5, cr9, cr5, {3}
    1968:	72726574 	rsbsvc	r6, r2, #116, 10	; 0x1d000000
    196c:	4d747075 	ldclmi	0, cr7, [r4, #-468]!	; 0xfffffe2c
    1970:	006b7361 	rsbeq	r7, fp, r1, ror #6
    1974:	4f495047 	svcmi	0x00495047
    1978:	746c415f 	strbtvc	r4, [ip], #-351	; 0xfffffea1
    197c:	616e7265 	cmnvs	lr, r5, ror #4
    1980:	75466574 	strbvc	r6, [r6, #-1396]	; 0xfffffa8c
    1984:	6974636e 	ldmdbvs	r4!, {r1, r2, r3, r5, r6, r8, r9, sp, lr}^
    1988:	65536e6f 	ldrbvs	r6, [r3, #-3695]	; 0xfffff191
    198c:	7463656c 	strbtvc	r6, [r3], #-1388	; 0xfffffa94
    1990:	6765525f 			; <UNDEFINED> instruction: 0x6765525f
    1994:	65747369 	ldrbvs	r7, [r4, #-873]!	; 0xfffffc97
    1998:	47007372 	smlsdxmi	r0, r2, r3, r7
    199c:	5f4f4950 	svcpl	0x004f4950
    19a0:	64616552 	strbtvs	r6, [r1], #-1362	; 0xfffffaae
    19a4:	42746942 	rsbsmi	r6, r4, #1081344	; 0x108000
    19a8:	42646e61 	rsbmi	r6, r4, #1552	; 0x610
    19ac:	00737469 	rsbseq	r7, r3, r9, ror #8
    19b0:	5678754d 	ldrbtpl	r7, [r8], -sp, asr #10
    19b4:	65756c61 	ldrbvs	r6, [r5, #-3169]!	; 0xfffff39f
    19b8:	0035315f 	eorseq	r3, r5, pc, asr r1
    19bc:	4f495047 	svcmi	0x00495047
    19c0:	5449425f 	strbpl	r4, [r9], #-607	; 0xfffffda1
    19c4:	4e41425f 	mcrmi	2, 2, r4, cr1, cr15, {2}
    19c8:	65525f44 	ldrbvs	r5, [r2, #-3908]	; 0xfffff0bc
    19cc:	74736967 	ldrbtvc	r6, [r3], #-2407	; 0xfffff699
    19d0:	00737265 	rsbseq	r7, r3, r5, ror #4
    19d4:	5f4d5750 	svcpl	0x004d5750
    19d8:	656d6954 	strbvs	r6, [sp, #-2388]!	; 0xfffff6ac
    19dc:	6e495f72 	mcrvs	15, 2, r5, cr9, cr2, {3}
    19e0:	41786564 	cmnmi	r8, r4, ror #10
    19e4:	47007272 	smlsdxmi	r0, r2, r2, r7
    19e8:	5f4f4950 	svcpl	0x004f4950
    19ec:	50746553 	rsbspl	r6, r4, r3, asr r5
    19f0:	74536e69 	ldrbvc	r6, [r3], #-3689	; 0xfffff197
    19f4:	73757461 	cmnvc	r5, #1627389952	; 0x61000000
    19f8:	746e4900 	strbtvc	r4, [lr], #-2304	; 0xfffff700
    19fc:	75727265 	ldrbvc	r7, [r2, #-613]!	; 0xfffffd9b
    1a00:	614d7470 	hvcvs	55104	; 0xd740
    1a04:	6f4d6b73 	svcvs	0x004d6b73
    1a08:	41006564 	tstmi	r0, r4, ror #10
    1a0c:	4c45534d 	mcrrmi	3, 4, r5, r5, cr13
    1a10:	65646f4d 	strbvs	r6, [r4, #-3917]!	; 0xfffff0b3
    1a14:	49504700 	ldmdbmi	r0, {r8, r9, sl, lr}^
    1a18:	6e495f4f 	cdpvs	15, 4, cr5, cr9, cr15, {2}
    1a1c:	72726574 	rsbsvc	r6, r2, #116, 10	; 0x1d000000
    1a20:	4d747075 	ldclmi	0, cr7, [r4, #-468]!	; 0xfffffe2c
    1a24:	4d6b7361 	stclmi	3, cr7, [fp, #-388]!	; 0xfffffe7c
    1a28:	5f65646f 	svcpl	0x0065646f
    1a2c:	50470074 	subpl	r0, r7, r4, ror r0
    1a30:	435f4f49 	cmpmi	pc, #292	; 0x124
    1a34:	65525f52 	ldrbvs	r5, [r2, #-3922]	; 0xfffff0ae
    1a38:	43520067 	cmpmi	r2, #103	; 0x67
    1a3c:	50474347 	subpl	r4, r7, r7, asr #6
    1a40:	525f4f49 	subspl	r4, pc, #292	; 0x124
    1a44:	47006765 	strmi	r6, [r0, -r5, ror #14]
    1a48:	5f4f4950 	svcpl	0x004f4950
    1a4c:	5f524349 	svcpl	0x00524349
    1a50:	00676552 	rsbeq	r6, r7, r2, asr r5
    1a54:	4f495047 	svcmi	0x00495047
    1a58:	6c75505f 	ldclvs	0, cr5, [r5], #-380	; 0xfffffe84
    1a5c:	5f70556c 	svcpl	0x0070556c
    1a60:	69676552 	stmdbvs	r7!, {r1, r4, r6, r8, sl, sp, lr}^
    1a64:	72657473 	rsbvc	r7, r5, #1929379840	; 0x73000000
    1a68:	69440073 	stmdbvs	r4, {r0, r1, r4, r5, r6}^
    1a6c:	6c626173 	stfvse	f6, [r2], #-460	; 0xfffffe34
    1a70:	4d415f65 	stclmi	15, cr5, [r1, #-404]	; 0xfffffe6c
    1a74:	004c4553 	subeq	r4, ip, r3, asr r5
    1a78:	4f495047 	svcmi	0x00495047
    1a7c:	6e6f435f 	mcrvs	3, 3, r4, cr15, cr15, {2}
    1a80:	75676966 	strbvc	r6, [r7, #-2406]!	; 0xfffff69a
    1a84:	6f506572 	svcvs	0x00506572
    1a88:	6f437472 	svcvs	0x00437472
    1a8c:	6f72746e 	svcvs	0x0072746e
    1a90:	5047006c 	subpl	r0, r7, ip, rrx
    1a94:	545f4f49 	ldrbpl	r4, [pc], #-3913	; 1a9c <UART_InterruptFIFOLevelSelect+0x65c>
    1a98:	72656d69 	rsbvc	r6, r5, #6720	; 0x1a40
    1a9c:	666e6f43 	strbtvs	r6, [lr], -r3, asr #30
    1aa0:	68436769 	stmdavs	r3, {r0, r3, r5, r6, r8, r9, sl, sp, lr}^
    1aa4:	656e6e61 	strbvs	r6, [lr, #-3681]!	; 0xfffff19f
    1aa8:	00745f6c 	rsbseq	r5, r4, ip, ror #30
    1aac:	4f495047 	svcmi	0x00495047
    1ab0:	74726f50 	ldrbtvc	r6, [r2], #-3920	; 0xfffff0b0
    1ab4:	4d6e7552 	cfstr64mi	mvdx7, [lr, #-328]!	; 0xfffffeb8
    1ab8:	4365646f 	cmnmi	r5, #1862270976	; 0x6f000000
    1abc:	6b636f6c 	blvs	18dd874 <UART_InterruptFIFOLevelSelect+0x18dc434>
    1ac0:	69746147 	ldmdbvs	r4!, {r0, r1, r2, r6, r8, sp, lr}^
    1ac4:	6f43676e 	svcvs	0x0043676e
    1ac8:	6f72746e 	svcvs	0x0072746e
    1acc:	5047006c 	subpl	r0, r7, ip, rrx
    1ad0:	535f4f49 	cmppl	pc, #292	; 0x124
    1ad4:	69507465 	ldmdbvs	r0, {r0, r2, r5, r6, sl, ip, sp, lr}^
    1ad8:	7269446e 	rsbvc	r4, r9, #1845493760	; 0x6e000000
    1adc:	69746365 	ldmdbvs	r4!, {r0, r2, r5, r6, r8, r9, sp, lr}^
    1ae0:	54006e6f 	strpl	r6, [r0], #-3695	; 0xfffff191
    1ae4:	72656d69 	rsbvc	r6, r5, #6720	; 0x1a40
    1ae8:	335f4131 	cmpcc	pc, #1073741836	; 0x4000000c
    1aec:	34365f32 	ldrtcc	r5, [r6], #-3890	; 0xfffff0ce
    1af0:	00746942 	rsbseq	r6, r4, r2, asr #18
    1af4:	656d6954 	strbvs	r6, [sp, #-2388]!	; 0xfffff6ac
    1af8:	5f413072 	svcpl	0x00413072
    1afc:	365f3233 			; <UNDEFINED> instruction: 0x365f3233
    1b00:	74694234 	strbtvc	r4, [r9], #-564	; 0xfffffdcc
    1b04:	6d695400 	cfstrdvs	mvd5, [r9, #-0]
    1b08:	41347265 	teqmi	r4, r5, ror #4
    1b0c:	5f32335f 	svcpl	0x0032335f
    1b10:	69423436 	stmdbvs	r2, {r1, r2, r4, r5, sl, ip, sp}^
    1b14:	41550074 	cmpmi	r5, r4, ror r0
    1b18:	5f375452 	svcpl	0x00375452
    1b1c:	45534641 	ldrbmi	r4, [r3, #-1601]	; 0xfffff9bf
    1b20:	6e6f434c 	cdpvs	3, 6, cr4, cr15, cr12, {2}
    1b24:	00676966 	rsbeq	r6, r7, r6, ror #18
    1b28:	656d6954 	strbvs	r6, [sp, #-2388]!	; 0xfffff6ac
    1b2c:	5f413372 	svcpl	0x00413372
    1b30:	365f3233 			; <UNDEFINED> instruction: 0x365f3233
    1b34:	74694234 	strbtvc	r4, [r9], #-564	; 0xfffffdcc
    1b38:	52415500 	subpl	r5, r1, #0, 10
    1b3c:	415f3054 	cmpmi	pc, r4, asr r0	; <UNPREDICTABLE>
    1b40:	4c455346 	mcrrmi	3, 4, r5, r5, cr6
    1b44:	666e6f43 	strbtvs	r6, [lr], -r3, asr #30
    1b48:	55006769 	strpl	r6, [r0, #-1897]	; 0xfffff897
    1b4c:	35545241 	ldrbcc	r5, [r4, #-577]	; 0xfffffdbf
    1b50:	5346415f 	movtpl	r4, #24927	; 0x615f
    1b54:	6f434c45 	svcvs	0x00434c45
    1b58:	6769666e 	strbvs	r6, [r9, -lr, ror #12]!
    1b5c:	6d695400 	cfstrdvs	mvd5, [r9, #-0]
    1b60:	42317265 	eorsmi	r7, r1, #1342177286	; 0x50000006
    1b64:	5f32335f 	svcpl	0x0032335f
    1b68:	69423436 	stmdbvs	r2, {r1, r2, r4, r5, sl, ip, sp}^
    1b6c:	41550074 	cmpmi	r5, r4, ror r0
    1b70:	5f345452 	svcpl	0x00345452
    1b74:	45534641 	ldrbmi	r4, [r3, #-1601]	; 0xfffff9bf
    1b78:	6e6f434c 	cdpvs	3, 6, cr4, cr15, cr12, {2}
    1b7c:	00676966 	rsbeq	r6, r7, r6, ror #18
    1b80:	54524155 	ldrbpl	r4, [r2], #-341	; 0xfffffeab
    1b84:	46415f36 			; <UNDEFINED> instruction: 0x46415f36
    1b88:	434c4553 	movtmi	r4, #50515	; 0xc553
    1b8c:	69666e6f 	stmdbvs	r6!, {r0, r1, r2, r3, r5, r6, r9, sl, fp, sp, lr}^
    1b90:	69540067 	ldmdbvs	r4, {r0, r1, r2, r5, r6}^
    1b94:	3072656d 	rsbscc	r6, r2, sp, ror #10
    1b98:	32335f42 	eorscc	r5, r3, #264	; 0x108
    1b9c:	4234365f 	eorsmi	r3, r4, #99614720	; 0x5f00000
    1ba0:	54007469 	strpl	r7, [r0], #-1129	; 0xfffffb97
    1ba4:	72656d69 	rsbvc	r6, r5, #6720	; 0x1a40
    1ba8:	335f4132 	cmpcc	pc, #-2147483636	; 0x8000000c
    1bac:	34365f32 	ldrtcc	r5, [r6], #-3890	; 0xfffff0ce
    1bb0:	00746942 	rsbseq	r6, r4, r2, asr #18
    1bb4:	656d6954 	strbvs	r6, [sp, #-2388]!	; 0xfffff6ac
    1bb8:	5f423572 	svcpl	0x00423572
    1bbc:	365f3233 			; <UNDEFINED> instruction: 0x365f3233
    1bc0:	74694234 	strbtvc	r4, [r9], #-564	; 0xfffffdcc
    1bc4:	6d695400 	cfstrdvs	mvd5, [r9, #-0]
    1bc8:	42347265 	eorsmi	r7, r4, #1342177286	; 0x50000006
    1bcc:	5f32335f 	svcpl	0x0032335f
    1bd0:	69423436 	stmdbvs	r2, {r1, r2, r4, r5, sl, ip, sp}^
    1bd4:	69540074 	ldmdbvs	r4, {r2, r4, r5, r6}^
    1bd8:	3572656d 	ldrbcc	r6, [r2, #-1389]!	; 0xfffffa93
    1bdc:	32335f41 	eorscc	r5, r3, #260	; 0x104
    1be0:	4234365f 	eorsmi	r3, r4, #99614720	; 0x5f00000
    1be4:	55007469 	strpl	r7, [r0, #-1129]	; 0xfffffb97
    1be8:	31545241 	cmpcc	r4, r1, asr #4
    1bec:	5346415f 	movtpl	r4, #24927	; 0x615f
    1bf0:	6f434c45 	svcvs	0x00434c45
    1bf4:	6769666e 	strbvs	r6, [r9, -lr, ror #12]!
    1bf8:	52415500 	subpl	r5, r1, #0, 10
    1bfc:	415f3354 	cmpmi	pc, r4, asr r3	; <UNPREDICTABLE>
    1c00:	4c455346 	mcrrmi	3, 4, r5, r5, cr6
    1c04:	666e6f43 	strbtvs	r6, [lr], -r3, asr #30
    1c08:	47006769 	strmi	r6, [r0, -r9, ror #14]
    1c0c:	5f4f4950 	svcpl	0x004f4950
    1c10:	666e6f63 	strbtvs	r6, [lr], -r3, ror #30
    1c14:	632e6769 			; <UNDEFINED> instruction: 0x632e6769
    1c18:	6d695400 	cfstrdvs	mvd5, [r9, #-0]
    1c1c:	42337265 	eorsmi	r7, r3, #1342177286	; 0x50000006
    1c20:	5f32335f 	svcpl	0x0032335f
    1c24:	69423436 	stmdbvs	r2, {r1, r2, r4, r5, sl, ip, sp}^
    1c28:	50470074 	subpl	r0, r7, r4, ror r0
    1c2c:	545f4f49 	ldrbpl	r4, [pc], #-3913	; 1c34 <UART_InterruptFIFOLevelSelect+0x7f4>
    1c30:	72656d69 	rsbvc	r6, r5, #6720	; 0x1a40
    1c34:	45534641 	ldrbmi	r4, [r3, #-1601]	; 0xfffff9bf
    1c38:	6e6f434c 	cdpvs	3, 6, cr4, cr15, cr12, {2}
    1c3c:	5f676966 	svcpl	0x00676966
    1c40:	50727241 	rsbspl	r7, r2, r1, asr #4
    1c44:	74537274 	ldrbvc	r7, [r3], #-628	; 0xfffffd8c
    1c48:	74637572 	strbtvc	r7, [r3], #-1394	; 0xfffffa8e
    1c4c:	6d695400 	cfstrdvs	mvd5, [r9, #-0]
    1c50:	42327265 	eorsmi	r7, r2, #1342177286	; 0x50000006
    1c54:	5f32335f 	svcpl	0x0032335f
    1c58:	69423436 	stmdbvs	r2, {r1, r2, r4, r5, sl, ip, sp}^
    1c5c:	50470074 	subpl	r0, r7, r4, ror r0
    1c60:	415f4f49 	cmpmi	pc, r9, asr #30
    1c64:	4c455346 	mcrrmi	3, 4, r5, r5, cr6
    1c68:	54524155 	ldrbpl	r4, [r2], #-341	; 0xfffffeab
    1c6c:	666e6f43 	strbtvs	r6, [lr], -r3, asr #30
    1c70:	415f6769 	cmpmi	pc, r9, ror #14
    1c74:	74507272 	ldrbvc	r7, [r0], #-626	; 0xfffffd8e
    1c78:	72745372 	rsbsvc	r5, r4, #-939524095	; 0xc8000001
    1c7c:	00746375 	rsbseq	r6, r4, r5, ror r3
    1c80:	4f495047 	svcmi	0x00495047
    1c84:	6e6f435f 	mcrvs	3, 3, r4, cr15, cr15, {2}
    1c88:	75676966 	strbvc	r6, [r7, #-2406]!	; 0xfffff69a
    1c8c:	69506572 	ldmdbvs	r0, {r1, r4, r5, r6, r8, sl, sp, lr}^
    1c90:	46505f6e 	ldrbmi	r5, [r0], -lr, ror #30
    1c94:	50470030 	subpl	r0, r7, r0, lsr r0
    1c98:	435f4f49 	cmpmi	pc, #292	; 0x124
    1c9c:	69666e6f 	stmdbvs	r6!, {r0, r1, r2, r3, r5, r6, r9, sl, fp, sp, lr}^
    1ca0:	65727567 	ldrbvs	r7, [r2, #-1383]!	; 0xfffffa99
    1ca4:	5f6e6950 	svcpl	0x006e6950
    1ca8:	00314650 	eorseq	r4, r1, r0, asr r6
    1cac:	4f495047 	svcmi	0x00495047
    1cb0:	6e6f435f 	mcrvs	3, 3, r4, cr15, cr15, {2}
    1cb4:	75676966 	strbvc	r6, [r7, #-2406]!	; 0xfffff69a
    1cb8:	69506572 	ldmdbvs	r0, {r1, r4, r5, r6, r8, sl, sp, lr}^
    1cbc:	46505f6e 	ldrbmi	r5, [r0], -lr, ror #30
    1cc0:	50470032 	subpl	r0, r7, r2, lsr r0
    1cc4:	435f4f49 	cmpmi	pc, #292	; 0x124
    1cc8:	69666e6f 	stmdbvs	r6!, {r0, r1, r2, r3, r5, r6, r9, sl, fp, sp, lr}^
    1ccc:	65727567 	ldrbvs	r7, [r2, #-1383]!	; 0xfffffa99
    1cd0:	5f6e6950 	svcpl	0x006e6950
    1cd4:	00334650 	eorseq	r4, r3, r0, asr r6
    1cd8:	4f495047 	svcmi	0x00495047
    1cdc:	6e6f435f 	mcrvs	3, 3, r4, cr15, cr15, {2}
    1ce0:	75676966 	strbvc	r6, [r7, #-2406]!	; 0xfffff69a
    1ce4:	69506572 	ldmdbvs	r0, {r1, r4, r5, r6, r8, sl, sp, lr}^
    1ce8:	46505f6e 	ldrbmi	r5, [r0], -lr, ror #30
    1cec:	41550034 	cmpmi	r5, r4, lsr r0
    1cf0:	5f325452 	svcpl	0x00325452
    1cf4:	45534641 	ldrbmi	r4, [r3, #-1601]	; 0xfffff9bf
    1cf8:	6e6f434c 	cdpvs	3, 6, cr4, cr15, cr12, {2}
    1cfc:	00676966 	rsbeq	r6, r7, r6, ror #18
    1d00:	656d6954 	strbvs	r6, [sp, #-2388]!	; 0xfffff6ac
    1d04:	69615772 	stmdbvs	r1!, {r1, r4, r5, r6, r8, r9, sl, ip, lr}^
    1d08:	546e4f74 	strbtpl	r4, [lr], #-3956	; 0xfffff08c
    1d0c:	67676972 			; <UNDEFINED> instruction: 0x67676972
    1d10:	54007265 	strpl	r7, [r0], #-613	; 0xfffffd9b
    1d14:	72656d69 	rsbvc	r6, r5, #6720	; 0x1a40
    1d18:	69540030 	ldmdbvs	r4, {r4, r5}^
    1d1c:	3172656d 	cmncc	r2, sp, ror #10
    1d20:	6d695400 	cfstrdvs	mvd5, [r9, #-0]
    1d24:	00327265 	eorseq	r7, r2, r5, ror #4
    1d28:	656d6954 	strbvs	r6, [sp, #-2388]!	; 0xfffff6ac
    1d2c:	54003372 	strpl	r3, [r0], #-882	; 0xfffffc8e
    1d30:	72656d69 	rsbvc	r6, r5, #6720	; 0x1a40
    1d34:	69540034 	ldmdbvs	r4, {r2, r4, r5}^
    1d38:	3572656d 	ldrbcc	r6, [r2, #-1389]!	; 0xfffffa93
    1d3c:	36315f00 	ldrtcc	r5, [r1], -r0, lsl #30
    1d40:	4232335f 	eorsmi	r3, r2, #2080374785	; 0x7c000001
    1d44:	69547469 	ldmdbvs	r4, {r0, r3, r5, r6, sl, ip, sp, lr}^
    1d48:	5f72656d 	svcpl	0x0072656d
    1d4c:	69646e49 	stmdbvs	r4!, {r0, r3, r6, r9, sl, fp, sp, lr}^
    1d50:	6f43724f 	svcvs	0x0043724f
    1d54:	7461636e 	strbtvc	r6, [r1], #-878	; 0xfffffc92
    1d58:	6d695400 	cfstrdvs	mvd5, [r9, #-0]
    1d5c:	68437265 	stmdavs	r3, {r0, r2, r5, r6, r9, ip, sp, lr}^
    1d60:	656e6e61 	strbvs	r6, [lr, #-3681]!	; 0xfffff19f
    1d64:	6e495f6c 	cdpvs	15, 4, cr5, cr9, cr12, {3}
    1d68:	65636964 	strbvs	r6, [r3, #-2404]!	; 0xfffff69c
    1d6c:	50470073 	subpl	r0, r7, r3, ror r0
    1d70:	495f4d54 	ldmdbmi	pc, {r2, r4, r6, r8, sl, fp, lr}^	; <UNPREDICTABLE>
    1d74:	6974696e 	ldmdbvs	r4!, {r1, r2, r3, r5, r6, r8, fp, sp, lr}^
    1d78:	7a696c61 	bvc	1a5cf04 <UART_InterruptFIFOLevelSelect+0x1a5bac4>
    1d7c:	6c654465 	cfstrdvs	mvd4, [r5], #-404	; 0xfffffe6c
    1d80:	6f4d7961 	svcvs	0x004d7961
    1d84:	54006564 	strpl	r6, [r0], #-1380	; 0xfffffa9c
    1d88:	72656d69 	rsbvc	r6, r5, #6720	; 0x1a40
    1d8c:	76455f41 	strbvc	r5, [r5], -r1, asr #30
    1d90:	4d746e65 	ldclmi	14, cr6, [r4, #-404]!	; 0xfffffe6c
    1d94:	0065646f 	rsbeq	r6, r5, pc, ror #8
    1d98:	5f4d5750 	svcpl	0x004d5750
    1d9c:	7074754f 	rsbsvc	r7, r4, pc, asr #10
    1da0:	6f4e7475 	svcvs	0x004e7475
    1da4:	766e4974 			; <UNDEFINED> instruction: 0x766e4974
    1da8:	65747265 	ldrbvs	r7, [r4, #-613]!	; 0xfffffd9b
    1dac:	69540064 	ldmdbvs	r4, {r2, r5, r6}^
    1db0:	4d72656d 	cfldr64mi	mvdx6, [r2, #-436]!	; 0xfffffe4c
    1db4:	68637461 	stmdavs	r3!, {r0, r5, r6, sl, ip, sp, lr}^
    1db8:	69676552 	stmdbvs	r7!, {r1, r4, r6, r8, sl, sp, lr}^
    1dbc:	72657473 	rsbvc	r7, r5, #1929379840	; 0x73000000
    1dc0:	61647055 	qdsubvs	r7, r5, r4
    1dc4:	70006574 	andvc	r6, r0, r4, ror r5
    1dc8:	50475f74 	subpl	r5, r7, r4, ror pc
    1dcc:	69544f49 	ldmdbvs	r4, {r0, r3, r6, r8, r9, sl, fp, lr}^
    1dd0:	4372656d 	cmnmi	r2, #457179136	; 0x1b400000
    1dd4:	69666e6f 	stmdbvs	r6!, {r0, r1, r2, r3, r5, r6, r9, sl, fp, sp, lr}^
    1dd8:	61684367 	cmnvs	r8, r7, ror #6
    1ddc:	6c656e6e 	stclvs	14, cr6, [r5], #-440	; 0xfffffe48
    1de0:	32335f00 	eorscc	r5, r3, #0, 30
    1de4:	4234365f 	eorsmi	r3, r4, #99614720	; 0x5f00000
    1de8:	69547469 	ldmdbvs	r4, {r0, r3, r5, r6, sl, ip, sp, lr}^
    1dec:	5f72656d 	svcpl	0x0072656d
    1df0:	69646e49 	stmdbvs	r4!, {r0, r3, r6, r9, sl, fp, sp, lr}^
    1df4:	6f43724f 	svcvs	0x0043724f
    1df8:	7461636e 	strbtvc	r6, [r1], #-878	; 0xfffffc92
    1dfc:	72655000 	rsbvc	r5, r5, #0
    1e00:	69646f69 	stmdbvs	r4!, {r0, r3, r5, r6, r8, r9, sl, fp, sp, lr}^
    1e04:	646f4d63 	strbtvs	r4, [pc], #-3427	; 1e0c <UART_InterruptFIFOLevelSelect+0x9cc>
    1e08:	61430065 	cmpvs	r3, r5, rrx
    1e0c:	72757470 	rsbsvc	r7, r5, #112, 8	; 0x70000000
    1e10:	646f4d65 	strbtvs	r4, [pc], #-3429	; 1e18 <UART_InterruptFIFOLevelSelect+0x9d8>
    1e14:	64455f65 	strbvs	r5, [r5], #-3941	; 0xfffff09b
    1e18:	6f436567 	svcvs	0x00436567
    1e1c:	4d746e75 	ldclmi	14, cr6, [r4, #-468]!	; 0xfffffe2c
    1e20:	0065646f 	rsbeq	r6, r5, pc, ror #8
    1e24:	43454243 	movtmi	r4, #21059	; 0x5243
    1e28:	00544e49 	subseq	r4, r4, r9, asr #28
    1e2c:	524d4254 	subpl	r4, sp, #84, 4	; 0x40000005
    1e30:	47005349 	strmi	r5, [r0, -r9, asr #6]
    1e34:	5f4d5450 	svcpl	0x004d5450
    1e38:	666e6f43 	strbtvs	r6, [lr], -r3, asr #30
    1e3c:	72756769 	rsbsvc	r6, r5, #27525120	; 0x1a40000
    1e40:	6f697461 	svcvs	0x00697461
    1e44:	6765526e 	strbvs	r5, [r5, -lr, ror #4]!
    1e48:	65747369 	ldrbvs	r7, [r4, #-873]!	; 0xfffffc97
    1e4c:	47007372 	smlsdxmi	r0, r2, r3, r7
    1e50:	434d5450 	movtmi	r5, #54352	; 0xd450
    1e54:	725f4c54 	subsvc	r4, pc, #84, 24	; 0x5400
    1e58:	54006765 	strpl	r6, [r0], #-1893	; 0xfffff89b
    1e5c:	49434d42 	stmdbmi	r3, {r1, r6, r8, sl, fp, lr}^
    1e60:	4700544e 	strmi	r5, [r0, -lr, asr #8]
    1e64:	5f4d5450 	svcpl	0x004d5450
    1e68:	365f3233 			; <UNDEFINED> instruction: 0x365f3233
    1e6c:	69425f34 	stmdbvs	r2, {r2, r4, r5, r8, r9, sl, fp, ip, lr}^
    1e70:	6d695474 	cfstrdvs	mvd5, [r9, #-464]!	; 0xfffffe30
    1e74:	5f417265 	svcpl	0x00417265
    1e78:	6374614d 	cmnvs	r4, #1073741843	; 0x40000013
    1e7c:	69540068 	ldmdbvs	r4, {r3, r5, r6}^
    1e80:	4172656d 	cmnmi	r2, sp, ror #10
    1e84:	4d57505f 	ldclmi	0, cr5, [r7, #-380]	; 0xfffffe84
    1e88:	7074754f 	rsbsvc	r7, r4, pc, asr #10
    1e8c:	654c7475 	strbvs	r7, [ip, #-1141]	; 0xfffffb8b
    1e90:	006c6576 	rsbeq	r6, ip, r6, ror r5
    1e94:	656d6954 	strbvs	r6, [sp, #-2388]!	; 0xfffff6ac
    1e98:	4d575072 	ldclmi	0, cr5, [r7, #-456]	; 0xfffffe38
    1e9c:	65746e49 	ldrbvs	r6, [r4, #-3657]!	; 0xfffff1b7
    1ea0:	70757272 	rsbsvc	r7, r5, r2, ror r2
    1ea4:	616e4574 	smcvs	58452	; 0xe454
    1ea8:	00656c62 	rsbeq	r6, r5, r2, ror #24
    1eac:	6e616843 	cdpvs	8, 6, cr6, cr1, cr3, {2}
    1eb0:	496c656e 	stmdbmi	ip!, {r1, r2, r3, r5, r6, r8, sl, sp, lr}^
    1eb4:	7865646e 	stmdavc	r5!, {r1, r2, r3, r5, r6, sl, sp, lr}^
    1eb8:	00727241 	rsbseq	r7, r2, r1, asr #4
    1ebc:	4d545047 	ldclmi	0, cr5, [r4, #-284]	; 0xfffffee4
    1ec0:	5f524349 	svcpl	0x00524349
    1ec4:	00676552 	rsbeq	r6, r7, r2, asr r5
    1ec8:	4d545047 	ldclmi	0, cr5, [r4, #-284]	; 0xfffffee4
    1ecc:	6168435f 	cmnvs	r8, pc, asr r3
    1ed0:	6c656e6e 	stclvs	14, cr6, [r5], #-440	; 0xfffffe48
    1ed4:	65646e49 	strbvs	r6, [r4, #-3657]!	; 0xfffff1b7
    1ed8:	72724178 	rsbsvc	r4, r2, #120, 2
    1edc:	5200745f 	andpl	r7, r0, #1593835520	; 0x5f000000
    1ee0:	49524354 	ldmdbmi	r2, {r2, r4, r6, r8, r9, lr}^
    1ee4:	50470053 	subpl	r0, r7, r3, asr r0
    1ee8:	525f4d54 	subspl	r4, pc, #84, 26	; 0x1500
    1eec:	65525349 	ldrbvs	r5, [r2, #-841]	; 0xfffffcb7
    1ef0:	74736967 	ldrbtvc	r6, [r3], #-2407	; 0xfffff699
    1ef4:	00737265 	rsbseq	r7, r3, r5, ror #4
    1ef8:	5f727470 	svcpl	0x00727470
    1efc:	434d5750 	movtmi	r5, #55120	; 0xd750
    1f00:	69666e6f 	stmdbvs	r6!, {r0, r1, r2, r3, r5, r6, r9, sl, fp, sp, lr}^
    1f04:	61684367 	cmnvs	r8, r7, ror #6
    1f08:	6c656e6e 	stclvs	14, cr6, [r5], #-440	; 0xfffffe48
    1f0c:	54504700 	ldrbpl	r4, [r0], #-1792	; 0xfffff900
    1f10:	524d544d 	subpl	r5, sp, #1291845632	; 0x4d000000
    1f14:	6765525f 			; <UNDEFINED> instruction: 0x6765525f
    1f18:	54504700 	ldrbpl	r4, [r0], #-1792	; 0xfffff900
    1f1c:	69445f4d 	stmdbvs	r4, {r0, r2, r3, r6, r8, r9, sl, fp, ip, lr}^
    1f20:	6c626173 	stfvse	f6, [r2], #-460	; 0xfffffe34
    1f24:	6d695465 	cfstrdvs	mvd5, [r9, #-404]!	; 0xfffffe6c
    1f28:	47007265 	strmi	r7, [r0, -r5, ror #4]
    1f2c:	5f4d5450 	svcpl	0x004d5450
    1f30:	52524349 	subspl	r4, r2, #603979777	; 0x24000001
    1f34:	73696765 	cmnvc	r9, #26476544	; 0x1940000
    1f38:	73726574 	cmnvc	r2, #116, 10	; 0x1d000000
    1f3c:	6d695400 	cfstrdvs	mvd5, [r9, #-0]
    1f40:	5f427265 	svcpl	0x00427265
    1f44:	7074754f 	rsbsvc	r7, r4, pc, asr #10
    1f48:	72547475 	subsvc	r7, r4, #1962934272	; 0x75000000
    1f4c:	65676769 	strbvs	r6, [r7, #-1897]!	; 0xfffff897
    1f50:	616e4572 	smcvs	58450	; 0xe452
    1f54:	00656c62 	rsbeq	r6, r5, r2, ror #24
    1f58:	656d6954 	strbvs	r6, [sp, #-2388]!	; 0xfffff6ac
    1f5c:	616e5372 	smcvs	58674	; 0xe532
    1f60:	6f685370 	svcvs	0x00685370
    1f64:	646f4d74 	strbtvs	r4, [pc], #-3444	; 1f6c <UART_InterruptFIFOLevelSelect+0xb2c>
    1f68:	6e490065 	cdpvs	0, 4, cr0, cr9, cr5, {3}
    1f6c:	69766964 	ldmdbvs	r6!, {r2, r5, r6, r8, fp, sp, lr}^
    1f70:	6c617564 	cfstr64vs	mvdx7, [r1], #-400	; 0xfffffe70
    1f74:	65646f4d 	strbvs	r6, [r4, #-3917]!	; 0xfffff0b3
    1f78:	4d575000 	ldclmi	0, cr5, [r7, #-0]
    1f7c:	74754f5f 	ldrbtvc	r4, [r5], #-3935	; 0xfffff0a1
    1f80:	49747570 	ldmdbmi	r4!, {r4, r5, r6, r8, sl, ip, sp, lr}^
    1f84:	7265766e 	rsbvc	r7, r5, #115343360	; 0x6e00000
    1f88:	00646574 	rsbeq	r6, r4, r4, ror r5
    1f8c:	4d545047 	ldclmi	0, cr5, [r4, #-284]	; 0xfffffee4
    1f90:	6e6f435f 	mcrvs	3, 3, r4, cr15, cr15, {2}
    1f94:	75676966 	strbvc	r6, [r7, #-2406]!	; 0xfffff69a
    1f98:	69546572 	ldmdbvs	r4, {r1, r4, r5, r6, r8, sl, sp, lr}^
    1f9c:	4e72656d 	cdpmi	5, 7, cr6, cr2, cr13, {3}
    1fa0:	5f656d61 	svcpl	0x00656d61
    1fa4:	54520074 	ldrbpl	r0, [r2], #-116	; 0xffffff8c
    1fa8:	74535f43 	ldrbvc	r5, [r3], #-3907	; 0xfffff0bd
    1fac:	456c6c61 	strbmi	r6, [ip, #-3169]!	; 0xfffff39f
    1fb0:	6c62616e 	stfvse	f6, [r2], #-440	; 0xfffffe48
    1fb4:	42430065 	submi	r0, r3, #101	; 0x65
    1fb8:	53495245 	movtpl	r5, #37445	; 0x9245
    1fbc:	6d695400 	cfstrdvs	mvd5, [r9, #-0]
    1fc0:	69537265 	ldmdbvs	r3, {r0, r2, r5, r6, r9, ip, sp, lr}^
    1fc4:	614e657a 	hvcvs	58970	; 0xe65a
    1fc8:	495f656d 	ldmdbmi	pc, {r0, r2, r3, r5, r6, r8, sl, sp, lr}^	; <UNPREDICTABLE>
    1fcc:	6369646e 	cmnvs	r9, #1845493760	; 0x6e000000
    1fd0:	47007365 	strmi	r7, [r0, -r5, ror #6]
    1fd4:	5f4d5450 	svcpl	0x004d5450
    1fd8:	69423233 	stmdbvs	r2, {r0, r1, r4, r5, r9, ip, sp}^
    1fdc:	6d695474 	cfstrdvs	mvd5, [r9, #-464]!	; 0xfffffe30
    1fe0:	5f427265 	svcpl	0x00427265
    1fe4:	6374614d 	cmnvs	r4, #1073741843	; 0x40000013
    1fe8:	6f540068 	svcvs	0x00540068
    1fec:	546c6174 	strbtpl	r6, [ip], #-372	; 0xfffffe8c
    1ff0:	4e6b6369 	cdpmi	3, 6, cr6, cr11, cr9, {3}
    1ff4:	54006d75 	strpl	r6, [r0], #-3445	; 0xfffff28b
    1ff8:	434f5442 	movtmi	r5, #62530	; 0xf442
    1ffc:	00544e49 	subseq	r4, r4, r9, asr #28
    2000:	636e6f43 	cmnvs	lr, #268	; 0x10c
    2004:	6e657461 	cdpvs	4, 6, cr7, cr5, cr1, {3}
    2008:	64657461 	strbtvs	r7, [r5], #-1121	; 0xfffffb9f
    200c:	65646f4d 	strbvs	r6, [r4, #-3917]!	; 0xfffff0b3
    2010:	54504700 	ldrbpl	r4, [r0], #-1792	; 0xfffff900
    2014:	65475f4d 	strbvs	r5, [r7, #-3917]	; 0xfffff0b3
    2018:	6172656e 	cmnvs	r2, lr, ror #10
    201c:	65446574 	strbvs	r6, [r4, #-1396]	; 0xfffffa8c
    2020:	0079616c 	rsbseq	r6, r9, ip, ror #2
    2024:	656d6954 	strbvs	r6, [sp, #-2388]!	; 0xfffff6ac
    2028:	455f4272 	ldrbmi	r4, [pc, #-626]	; 1dbe <UART_InterruptFIFOLevelSelect+0x97e>
    202c:	746e6576 	strbtvc	r6, [lr], #-1398	; 0xfffffa8a
    2030:	65646f4d 	strbvs	r6, [r4, #-3917]!	; 0xfffff0b3
    2034:	4d415400 	cfstrdmi	mvd5, [r1, #-0]
    2038:	00534952 	subseq	r4, r3, r2, asr r9
    203c:	656d6954 	strbvs	r6, [sp, #-2388]!	; 0xfffff6ac
    2040:	7a695372 	bvc	1a56e10 <UART_InterruptFIFOLevelSelect+0x1a559d0>
    2044:	6d614e65 	stclvs	14, cr4, [r1, #-404]!	; 0xfffffe6c
    2048:	646e4965 	strbtvs	r4, [lr], #-2405	; 0xfffff69b
    204c:	72417865 	subvc	r7, r1, #6619136	; 0x650000
    2050:	50470072 	subpl	r0, r7, r2, ror r0
    2054:	315f4d54 	cmpcc	pc, r4, asr sp	; <UNPREDICTABLE>
    2058:	32335f36 	eorscc	r5, r3, #54, 30	; 0xd8
    205c:	7469425f 	strbtvc	r4, [r9], #-607	; 0xfffffda1
    2060:	656d6954 	strbvs	r6, [sp, #-2388]!	; 0xfffff6ac
    2064:	495f4172 	ldmdbmi	pc, {r1, r4, r5, r6, r8, lr}^	; <UNPREDICTABLE>
    2068:	7265746e 	rsbvc	r7, r5, #1845493760	; 0x6e000000
    206c:	4c6c6176 	stfmie	f6, [ip], #-472	; 0xfffffe28
    2070:	0064616f 	rsbeq	r6, r4, pc, ror #2
    2074:	656d6954 	strbvs	r6, [sp, #-2388]!	; 0xfffff6ac
    2078:	7a695372 	bvc	1a56e48 <UART_InterruptFIFOLevelSelect+0x1a55a08>
    207c:	6e495f65 	cdpvs	15, 4, cr5, cr9, cr5, {3}
    2080:	65636964 	strbvs	r6, [r3, #-2404]!	; 0xfffff69c
    2084:	75440073 	strbvc	r0, [r4, #-115]	; 0xffffff8d
    2088:	79437974 	stmdbvc	r3, {r2, r4, r5, r6, r8, fp, ip, sp, lr}^
    208c:	00656c63 	rsbeq	r6, r5, r3, ror #24
    2090:	524d4243 	subpl	r4, sp, #805306372	; 0x30000004
    2094:	5f005349 	svcpl	0x00005349
    2098:	365f3233 			; <UNDEFINED> instruction: 0x365f3233
    209c:	74694234 	strbtvc	r4, [r9], #-564	; 0xfffffdcc
    20a0:	656d6954 	strbvs	r6, [sp, #-2388]!	; 0xfffff6ac
    20a4:	54004272 	strpl	r4, [r0], #-626	; 0xfffffd8e
    20a8:	524f5441 	subpl	r5, pc, #1090519040	; 0x41000000
    20ac:	47005349 	strmi	r5, [r0, -r9, asr #6]
    20b0:	5f4d5450 	svcpl	0x004d5450
    20b4:	69423233 	stmdbvs	r2, {r0, r1, r4, r5, r9, ip, sp}^
    20b8:	6d695474 	cfstrdvs	mvd5, [r9, #-464]!	; 0xfffffe30
    20bc:	5f427265 	svcpl	0x00427265
    20c0:	65746e49 	ldrbvs	r6, [r4, #-3657]!	; 0xfffff1b7
    20c4:	6c617672 	stclvs	6, cr7, [r1], #-456	; 0xfffffe38
    20c8:	64616f4c 	strbtvs	r6, [r1], #-3916	; 0xfffff0b4
    20cc:	6d695400 	cfstrdvs	mvd5, [r9, #-0]
    20d0:	5f417265 	svcpl	0x00417265
    20d4:	6c617453 	cfstrdvs	mvd7, [r1], #-332	; 0xfffffeb4
    20d8:	616e456c 	cmnvs	lr, ip, ror #10
    20dc:	00656c62 	rsbeq	r6, r5, r2, ror #24
    20e0:	446d754e 	strbtmi	r7, [sp], #-1358	; 0xfffffab2
    20e4:	79616c65 	stmdbvc	r1!, {r0, r2, r5, r6, sl, fp, sp, lr}^
    20e8:	74696e55 	strbtvc	r6, [r9], #-3669	; 0xfffff1ab
    20ec:	43545200 	cmpmi	r4, #0, 4
    20f0:	544e4943 	strbpl	r4, [lr], #-2371	; 0xfffff6bd
    20f4:	54504700 	ldrbpl	r4, [r0], #-1792	; 0xfffff900
    20f8:	6f435f4d 	svcvs	0x00435f4d
    20fc:	6769666e 	strbvs	r6, [r9, -lr, ror #12]!
    2100:	74617275 	strbtvc	r7, [r1], #-629	; 0xfffffd8b
    2104:	436e6f69 	cmnmi	lr, #420	; 0x1a4
    2108:	6e6e6168 	powvsez	f6, f6, #0.0
    210c:	745f6c65 	ldrbvc	r6, [pc], #-3173	; 2114 <UART_InterruptFIFOLevelSelect+0xcd4>
    2110:	6d695400 	cfstrdvs	mvd5, [r9, #-0]
    2114:	614d7265 	cmpvs	sp, r5, ror #4
    2118:	49686374 	stmdbmi	r8!, {r2, r4, r5, r6, r8, r9, sp, lr}^
    211c:	7265746e 	rsbvc	r7, r5, #1845493760	; 0x6e000000
    2120:	74707572 	ldrbtvc	r7, [r0], #-1394	; 0xfffffa8e
    2124:	62616e45 	rsbvs	r6, r1, #1104	; 0x450
    2128:	4700656c 	strmi	r6, [r0, -ip, ror #10]
    212c:	434d5450 	movtmi	r5, #54352	; 0xd450
    2130:	525f4746 	subspl	r4, pc, #18350080	; 0x1180000
    2134:	4f006765 	svcmi	0x00006765
    2138:	6853656e 	ldmdavs	r3, {r1, r2, r3, r5, r6, r8, sl, sp, lr}^
    213c:	6f4d746f 	svcvs	0x004d746f
    2140:	57006564 	strpl	r6, [r0, -r4, ror #10]
    2144:	49524555 	ldmdbmi	r2, {r0, r2, r4, r6, r8, sl, lr}^
    2148:	50470053 	subpl	r0, r7, r3, asr r0
    214c:	545f4d54 	ldrbpl	r4, [pc], #-3412	; 2154 <UART_InterruptFIFOLevelSelect+0xd14>
    2150:	72656d69 	rsbvc	r6, r5, #6720	; 0x1a40
    2154:	65646f4d 	strbvs	r6, [r4, #-3917]!	; 0xfffff0b3
    2158:	6d695400 	cfstrdvs	mvd5, [r9, #-0]
    215c:	5f427265 	svcpl	0x00427265
    2160:	62616e45 	rsbvs	r6, r1, #1104	; 0x450
    2164:	4700656c 	strmi	r6, [r0, -ip, ror #10]
    2168:	5f4d5450 	svcpl	0x004d5450
    216c:	616c6544 	cmnvs	ip, r4, asr #10
    2170:	696e5579 	stmdbvs	lr!, {r0, r3, r4, r5, r6, r8, sl, ip, lr}^
    2174:	00745f74 	rsbseq	r5, r4, r4, ror pc
    2178:	4d545047 	ldclmi	0, cr5, [r4, #-284]	; 0xfffffee4
    217c:	6d69545f 	cfstrdvs	mvd5, [r9, #-380]!	; 0xfffffe84
    2180:	69537265 	ldmdbvs	r3, {r0, r2, r5, r6, r9, ip, sp, lr}^
    2184:	6e49657a 	mcrvs	5, 2, r6, cr9, cr10, {3}
    2188:	41786564 	cmnmi	r8, r4, ror #10
    218c:	745f7272 	ldrbvc	r7, [pc], #-626	; 2194 <UART_InterruptFIFOLevelSelect+0xd54>
    2190:	5f747000 	svcpl	0x00747000
    2194:	434d5750 	movtmi	r5, #55120	; 0xd750
    2198:	69666e6f 	stmdbvs	r6!, {r0, r1, r2, r3, r5, r6, r9, sl, fp, sp, lr}^
    219c:	53464167 	movtpl	r4, #24935	; 0x6167
    21a0:	54004c45 	strpl	r4, [r0], #-3141	; 0xfffff3bb
    21a4:	72656d69 	rsbvc	r6, r5, #6720	; 0x1a40
    21a8:	6e756f43 	cdpvs	15, 7, cr6, cr5, cr3, {2}
    21ac:	72694474 	rsbvc	r4, r9, #116, 8	; 0x74000000
    21b0:	69746365 	ldmdbvs	r4!, {r0, r2, r5, r6, r8, r9, sp, lr}^
    21b4:	75006e6f 	strvc	r6, [r0, #-3695]	; 0xfffff191
    21b8:	745f3436 	ldrbvc	r3, [pc], #-1078	; 21c0 <UART_InterruptFIFOLevelSelect+0xd80>
    21bc:	63696d00 	cmnvs	r9, #0, 26
    21c0:	535f6f72 	cmppl	pc, #456	; 0x1c8
    21c4:	47006365 	strmi	r6, [r0, -r5, ror #6]
    21c8:	5f4d5450 	svcpl	0x004d5450
    21cc:	656e6547 	strbvs	r6, [lr, #-1351]!	; 0xfffffab9
    21d0:	65746172 	ldrbvs	r6, [r4, #-370]!	; 0xfffffe8e
    21d4:	004d5750 	subeq	r5, sp, r0, asr r7
    21d8:	4d545047 	ldclmi	0, cr5, [r4, #-284]	; 0xfffffee4
    21dc:	616e455f 	cmnvs	lr, pc, asr r5
    21e0:	43656c62 	cmnmi	r5, #25088	; 0x6200
    21e4:	69546b6c 	ldmdbvs	r4, {r2, r3, r5, r6, r8, r9, fp, sp, lr}^
    21e8:	0072656d 	rsbseq	r6, r2, sp, ror #10
    21ec:	43454143 	movtmi	r4, #20803	; 0x5143
    21f0:	00544e49 	subseq	r4, r4, r9, asr #28
    21f4:	4d545047 	ldclmi	0, cr5, [r4, #-284]	; 0xfffffee4
    21f8:	4236315f 	eorsmi	r3, r6, #-1073741801	; 0xc0000017
    21fc:	69547469 	ldmdbvs	r4, {r0, r3, r5, r6, sl, ip, sp, lr}^
    2200:	4272656d 	rsbsmi	r6, r2, #457179136	; 0x1b400000
    2204:	746e495f 	strbtvc	r4, [lr], #-2399	; 0xfffff6a1
    2208:	61767265 	cmnvs	r6, r5, ror #4
    220c:	616f4c6c 	cmnvs	pc, ip, ror #24
    2210:	754e0064 	strbvc	r0, [lr, #-100]	; 0xffffff9c
    2214:	6c65446d 	cfstrdvs	mvd4, [r5], #-436	; 0xfffffe4c
    2218:	6e557961 	vnmlavs.f16	s15, s10, s3	; <UNPREDICTABLE>
    221c:	435f7469 	cmpmi	pc, #1761607680	; 0x69000000
    2220:	746e756f 	strbtvc	r7, [lr], #-1391	; 0xfffffa91
    2224:	54007265 	strpl	r7, [r0], #-613	; 0xfffffd9b
    2228:	72656d69 	rsbvc	r6, r5, #6720	; 0x1a40
    222c:	65746e49 	ldrbvs	r6, [r4, #-3657]!	; 0xfffff1b7
    2230:	6c617672 	stclvs	6, cr7, [r1], #-456	; 0xfffffe38
    2234:	64616f4c 	strbtvs	r6, [r1], #-3916	; 0xfffff0b4
    2238:	74697257 	strbtvc	r7, [r9], #-599	; 0xfffffda9
    223c:	41430065 	cmpmi	r3, r5, rrx
    2240:	4e49434d 	cdpmi	3, 4, cr4, cr9, cr13, {2}
    2244:	50470054 	subpl	r0, r7, r4, asr r0
    2248:	435f4d54 	cmpmi	pc, #84, 26	; 0x1500
    224c:	72746e6f 	rsbsvc	r6, r4, #1776	; 0x6f0
    2250:	5f006c6f 	svcpl	0x00006c6f
    2254:	365f3233 			; <UNDEFINED> instruction: 0x365f3233
    2258:	74694234 	strbtvc	r4, [r9], #-564	; 0xfffffdcc
    225c:	656d6954 	strbvs	r6, [sp, #-2388]!	; 0xfffff6ac
    2260:	47004172 	smlsdxmi	r0, r2, r1, r4
    2264:	5f4d5450 	svcpl	0x004d5450
    2268:	62616e45 	rsbvs	r6, r1, #1104	; 0x450
    226c:	6954656c 	ldmdbvs	r4, {r2, r3, r5, r6, r8, sl, sp, lr}^
    2270:	0072656d 	rsbseq	r6, r2, sp, ror #10
    2274:	656d6954 	strbvs	r6, [sp, #-2388]!	; 0xfffff6ac
    2278:	546e4f72 	strbtpl	r4, [lr], #-3954	; 0xfffff08e
    227c:	4e6b6369 	cdpmi	3, 6, cr6, cr11, cr9, {3}
    2280:	47006d75 	smlsdxmi	r0, r5, sp, r6
    2284:	2e4d5450 	mcrcs	4, 2, r5, cr13, cr0, {2}
    2288:	69540063 	ldmdbvs	r4, {r0, r1, r5, r6}^
    228c:	4172656d 	cmnmi	r2, sp, ror #10
    2290:	7265746c 	rsbvc	r7, r5, #108, 8	; 0x6c000000
    2294:	6574616e 	ldrbvs	r6, [r4, #-366]!	; 0xfffffe92
    2298:	65646f4d 	strbvs	r6, [r4, #-3917]!	; 0xfffff0b3
    229c:	656c6553 	strbvs	r6, [ip, #-1363]!	; 0xfffffaad
    22a0:	54007463 	strpl	r7, [r0], #-1123	; 0xfffffb9d
    22a4:	49434d41 	stmdbmi	r3, {r0, r6, r8, sl, fp, lr}^
    22a8:	5f00544e 	svcpl	0x0000544e
    22ac:	335f3631 	cmpcc	pc, #51380224	; 0x3100000
    22b0:	74694232 	strbtvc	r4, [r9], #-562	; 0xfffffdce
    22b4:	656d6954 	strbvs	r6, [sp, #-2388]!	; 0xfffff6ac
    22b8:	5f004172 	svcpl	0x00004172
    22bc:	335f3631 	cmpcc	pc, #51380224	; 0x3100000
    22c0:	74694232 	strbtvc	r4, [r9], #-562	; 0xfffffdce
    22c4:	656d6954 	strbvs	r6, [sp, #-2388]!	; 0xfffff6ac
    22c8:	43004272 	movwmi	r4, #626	; 0x272
    22cc:	49524541 	ldmdbmi	r2, {r0, r6, r8, sl, lr}^
    22d0:	69540053 	ldmdbvs	r4, {r0, r1, r4, r6}^
    22d4:	5072656d 	rsbspl	r6, r2, sp, ror #10
    22d8:	654c4d57 	strbvs	r4, [ip, #-3415]	; 0xfffff2a9
    22dc:	79636167 	stmdbvc	r3!, {r0, r1, r2, r5, r6, r8, sp, lr}^
    22e0:	7265704f 	rsbvc	r7, r5, #79	; 0x4f
    22e4:	6f697461 	svcvs	0x00697461
    22e8:	5047006e 	subpl	r0, r7, lr, rrx
    22ec:	495f4d54 	ldmdbmi	pc, {r2, r4, r6, r8, sl, fp, lr}^	; <UNPREDICTABLE>
    22f0:	6974696e 	ldmdbvs	r4!, {r1, r2, r3, r5, r6, r8, fp, sp, lr}^
    22f4:	7a696c61 	bvc	1a5d480 <UART_InterruptFIFOLevelSelect+0x1a5c040>
    22f8:	4d575065 	ldclmi	0, cr5, [r7, #-404]	; 0xfffffe6c
    22fc:	4d424300 	stclmi	3, cr4, [r2, #-0]
    2300:	544e4943 	strbpl	r4, [lr], #-2371	; 0xfffff6bd
    2304:	6d695400 	cfstrdvs	mvd5, [r9, #-0]
    2308:	5f427265 	svcpl	0x00427265
    230c:	6c617453 	cfstrdvs	mvd7, [r1], #-332	; 0xfffffeb4
    2310:	616e456c 	cmnvs	lr, ip, ror #10
    2314:	00656c62 	rsbeq	r6, r5, r2, ror #24
    2318:	6c6c696d 			; <UNDEFINED> instruction: 0x6c6c696d
    231c:	65535f69 	ldrbvs	r5, [r3, #-3945]	; 0xfffff097
    2320:	50470063 	subpl	r0, r7, r3, rrx
    2324:	49524d54 	ldmdbmi	r2, {r2, r4, r6, r8, sl, fp, lr}^
    2328:	65525f53 	ldrbvs	r5, [r2, #-3923]	; 0xfffff0ad
    232c:	55570067 	ldrbpl	r0, [r7, #-103]	; 0xffffff99
    2330:	4e494345 	cdpmi	3, 4, cr4, cr9, cr5, {2}
    2334:	31750054 	cmncc	r5, r4, asr r0
    2338:	00745f36 	rsbseq	r5, r4, r6, lsr pc
    233c:	4d545047 	ldclmi	0, cr5, [r4, #-284]	; 0xfffffee4
    2340:	6d69545f 	cfstrdvs	mvd5, [r9, #-380]!	; 0xfffffe84
    2344:	69537265 	ldmdbvs	r3, {r0, r2, r5, r6, r9, ip, sp, lr}^
    2348:	614e657a 	hvcvs	58970	; 0xe65a
    234c:	6e49656d 	cdpvs	5, 4, cr6, cr9, cr13, {3}
    2350:	41786564 	cmnmi	r8, r4, ror #10
    2354:	745f7272 	ldrbvc	r7, [pc], #-626	; 235c <UART_InterruptFIFOLevelSelect+0xf1c>
    2358:	73795300 	cmnvc	r9, #0, 6
    235c:	436d6574 	cmnmi	sp, #116, 10	; 0x1d000000
    2360:	72466b6c 	subvc	r6, r6, #108, 22	; 0x1b000
    2364:	54007165 	strpl	r7, [r0], #-357	; 0xfffffe9b
    2368:	72656d69 	rsbvc	r6, r5, #6720	; 0x1a40
    236c:	74706143 	ldrbtvc	r6, [r0], #-323	; 0xfffffebd
    2370:	4d657275 	sfmmi	f7, 2, [r5, #-468]!	; 0xfffffe2c
    2374:	0065646f 	rsbeq	r6, r5, pc, ror #8
    2378:	74706143 	ldrbtvc	r6, [r0], #-323	; 0xfffffebd
    237c:	4d657275 	sfmmi	f7, 2, [r5, #-468]!	; 0xfffffe2c
    2380:	5f65646f 	svcpl	0x0065646f
    2384:	65676445 	strbvs	r6, [r7, #-1093]!	; 0xfffffbbb
    2388:	656d6954 	strbvs	r6, [sp, #-2388]!	; 0xfffff6ac
    238c:	65646f4d 	strbvs	r6, [r4, #-3917]!	; 0xfffff0b3
    2390:	32335f00 	eorscc	r5, r3, #0, 30
    2394:	4234365f 	eorsmi	r3, r4, #99614720	; 0x5f00000
    2398:	54527469 	ldrbpl	r7, [r2], #-1129	; 0xfffffb97
    239c:	41430043 	cmpmi	r3, r3, asr #32
    23a0:	5349524d 	movtpl	r5, #37453	; 0x924d
    23a4:	6d695400 	cfstrdvs	mvd5, [r9, #-0]
    23a8:	5f417265 	svcpl	0x00417265
    23ac:	62616e45 	rsbvs	r6, r1, #1104	; 0x450
    23b0:	5400656c 	strpl	r6, [r0], #-1388	; 0xfffffa94
    23b4:	72656d69 	rsbvc	r6, r5, #6720	; 0x1a40
    23b8:	754f5f41 	strbvc	r5, [pc, #-3905]	; 147f <UART_InterruptFIFOLevelSelect+0x3f>
    23bc:	74757074 	ldrbtvc	r7, [r5], #-116	; 0xffffff8c
    23c0:	67697254 			; <UNDEFINED> instruction: 0x67697254
    23c4:	45726567 	ldrbmi	r6, [r2, #-1383]!	; 0xfffffa99
    23c8:	6c62616e 	stfvse	f6, [r2], #-440	; 0xfffffe48
    23cc:	41540065 	cmpmi	r4, r5, rrx
    23d0:	49434f54 	stmdbmi	r3, {r2, r4, r6, r8, r9, sl, fp, lr}^
    23d4:	4700544e 	strmi	r5, [r0, -lr, asr #8]
    23d8:	5f4d5450 	svcpl	0x004d5450
    23dc:	365f3233 			; <UNDEFINED> instruction: 0x365f3233
    23e0:	69425f34 	stmdbvs	r2, {r2, r4, r5, r8, r9, sl, fp, ip, lr}^
    23e4:	6d695474 	cfstrdvs	mvd5, [r9, #-464]!	; 0xfffffe30
    23e8:	5f417265 	svcpl	0x00417265
    23ec:	65746e49 	ldrbvs	r6, [r4, #-3657]!	; 0xfffff1b7
    23f0:	6c617672 	stclvs	6, cr7, [r1], #-456	; 0xfffffe38
    23f4:	64616f4c 	strbtvs	r6, [r1], #-3916	; 0xfffff0b4
    23f8:	6d695400 	cfstrdvs	mvd5, [r9, #-0]
    23fc:	69537265 	ldmdbvs	r3, {r0, r2, r5, r6, r9, ip, sp, lr}^
    2400:	6e49657a 	mcrvs	5, 2, r6, cr9, cr10, {3}
    2404:	41786564 	cmnmi	r8, r4, ror #10
    2408:	43007272 	movwmi	r7, #626	; 0x272
    240c:	69666e6f 	stmdbvs	r6!, {r0, r1, r2, r3, r5, r6, r9, sl, fp, sp, lr}^
    2410:	65727567 	ldrbvs	r7, [r2, #-1383]!	; 0xfffffa99
    2414:	656d6954 	strbvs	r6, [sp, #-2388]!	; 0xfffff6ac
    2418:	6d614e72 	stclvs	14, cr4, [r1, #-456]!	; 0xfffffe38
    241c:	69540065 	ldmdbvs	r4, {r0, r2, r5, r6}^
    2420:	4272656d 	rsbsmi	r6, r2, #457179136	; 0x1b400000
    2424:	4d57505f 	ldclmi	0, cr5, [r7, #-380]	; 0xfffffe84
    2428:	7074754f 	rsbsvc	r7, r4, pc, asr #10
    242c:	654c7475 	strbvs	r7, [ip, #-1141]	; 0xfffffb8b
    2430:	006c6576 	rsbeq	r6, ip, r6, ror r5
    2434:	4f544254 	svcmi	0x00544254
    2438:	00534952 	subseq	r4, r3, r2, asr r9
    243c:	4d545047 	ldclmi	0, cr5, [r4, #-284]	; 0xfffffee4
    2440:	6e6f435f 	mcrvs	3, 3, r4, cr15, cr15, {2}
    2444:	5f676966 	svcpl	0x00676966
    2448:	69423233 	stmdbvs	r2, {r0, r1, r4, r5, r9, ip, sp}^
    244c:	6d695474 	cfstrdvs	mvd5, [r9, #-464]!	; 0xfffffe30
    2450:	41317265 	teqmi	r1, r5, ror #4
    2454:	54504700 	ldrbpl	r4, [r0], #-1792	; 0xfffff900
    2458:	6f435f4d 	svcvs	0x00435f4d
    245c:	6769666e 	strbvs	r6, [r9, -lr, ror #12]!
    2460:	4232335f 	eorsmi	r3, r2, #2080374785	; 0x7c000001
    2464:	69547469 	ldmdbvs	r4, {r0, r3, r5, r6, sl, ip, sp, lr}^
    2468:	3172656d 	cmncc	r2, sp, ror #10
    246c:	50470042 	subpl	r0, r7, r2, asr #32
    2470:	435f4d54 	cmpmi	pc, #84, 26	; 0x1500
    2474:	69666e6f 	stmdbvs	r6!, {r0, r1, r2, r3, r5, r6, r9, sl, fp, sp, lr}^
    2478:	32335f67 	eorscc	r5, r3, #412	; 0x19c
    247c:	54746942 	ldrbtpl	r6, [r4], #-2370	; 0xfffff6be
    2480:	72656d69 	rsbvc	r6, r5, #6720	; 0x1a40
    2484:	47004135 	smladxmi	r0, r5, r1, r4
    2488:	5f4d5450 	svcpl	0x004d5450
    248c:	666e6f43 	strbtvs	r6, [lr], -r3, asr #30
    2490:	335f6769 	cmpcc	pc, #27525120	; 0x1a40000
    2494:	74694232 	strbtvc	r4, [r9], #-562	; 0xfffffdce
    2498:	656d6954 	strbvs	r6, [sp, #-2388]!	; 0xfffff6ac
    249c:	00423572 	subeq	r3, r2, r2, ror r5
    24a0:	4d545047 	ldclmi	0, cr5, [r4, #-284]	; 0xfffffee4
    24a4:	6e6f435f 	mcrvs	3, 3, r4, cr15, cr15, {2}
    24a8:	5f676966 	svcpl	0x00676966
    24ac:	69423233 	stmdbvs	r2, {r0, r1, r4, r5, r9, ip, sp}^
    24b0:	6d695474 	cfstrdvs	mvd5, [r9, #-464]!	; 0xfffffe30
    24b4:	41327265 	teqmi	r2, r5, ror #4
    24b8:	54504700 	ldrbpl	r4, [r0], #-1792	; 0xfffff900
    24bc:	6f435f4d 	svcvs	0x00435f4d
    24c0:	6769666e 	strbvs	r6, [r9, -lr, ror #12]!
    24c4:	4232335f 	eorsmi	r3, r2, #2080374785	; 0x7c000001
    24c8:	69547469 	ldmdbvs	r4, {r0, r3, r5, r6, sl, ip, sp, lr}^
    24cc:	3272656d 	rsbscc	r6, r2, #457179136	; 0x1b400000
    24d0:	50470042 	subpl	r0, r7, r2, asr #32
    24d4:	435f4d54 	cmpmi	pc, #84, 26	; 0x1500
    24d8:	69666e6f 	stmdbvs	r6!, {r0, r1, r2, r3, r5, r6, r9, sl, fp, sp, lr}^
    24dc:	72415f67 	subvc	r5, r1, #412	; 0x19c
    24e0:	72745072 	rsbsvc	r5, r4, #114	; 0x72
    24e4:	75727453 	ldrbvc	r7, [r2, #-1107]!	; 0xfffffbad
    24e8:	47007463 	strmi	r7, [r0, -r3, ror #8]
    24ec:	5f4d5450 	svcpl	0x004d5450
    24f0:	666e6f43 	strbtvs	r6, [lr], -r3, asr #30
    24f4:	335f6769 	cmpcc	pc, #27525120	; 0x1a40000
    24f8:	74694232 	strbtvc	r4, [r9], #-562	; 0xfffffdce
    24fc:	656d6954 	strbvs	r6, [sp, #-2388]!	; 0xfffff6ac
    2500:	00413372 	subeq	r3, r1, r2, ror r3
    2504:	4d545047 	ldclmi	0, cr5, [r4, #-284]	; 0xfffffee4
    2508:	6e6f435f 	mcrvs	3, 3, r4, cr15, cr15, {2}
    250c:	5f676966 	svcpl	0x00676966
    2510:	69423233 	stmdbvs	r2, {r0, r1, r4, r5, r9, ip, sp}^
    2514:	6d695474 	cfstrdvs	mvd5, [r9, #-464]!	; 0xfffffe30
    2518:	42337265 	eorsmi	r7, r3, #1342177286	; 0x50000006
    251c:	54504700 	ldrbpl	r4, [r0], #-1792	; 0xfffff900
    2520:	6f635f4d 	svcvs	0x00635f4d
    2524:	6769666e 	strbvs	r6, [r9, -lr, ror #12]!
    2528:	4700632e 	strmi	r6, [r0, -lr, lsr #6]
    252c:	5f4d5450 	svcpl	0x004d5450
    2530:	666e6f43 	strbtvs	r6, [lr], -r3, asr #30
    2534:	335f6769 	cmpcc	pc, #27525120	; 0x1a40000
    2538:	74694232 	strbtvc	r4, [r9], #-562	; 0xfffffdce
    253c:	656d6954 	strbvs	r6, [sp, #-2388]!	; 0xfffff6ac
    2540:	00413072 	subeq	r3, r1, r2, ror r0
    2544:	4d545047 	ldclmi	0, cr5, [r4, #-284]	; 0xfffffee4
    2548:	6e6f435f 	mcrvs	3, 3, r4, cr15, cr15, {2}
    254c:	5f676966 	svcpl	0x00676966
    2550:	69423233 	stmdbvs	r2, {r0, r1, r4, r5, r9, ip, sp}^
    2554:	6d695474 	cfstrdvs	mvd5, [r9, #-464]!	; 0xfffffe30
    2558:	42307265 	eorsmi	r7, r0, #1342177286	; 0x50000006
    255c:	54504700 	ldrbpl	r4, [r0], #-1792	; 0xfffff900
    2560:	6f435f4d 	svcvs	0x00435f4d
    2564:	6769666e 	strbvs	r6, [r9, -lr, ror #12]!
    2568:	4232335f 	eorsmi	r3, r2, #2080374785	; 0x7c000001
    256c:	69547469 	ldmdbvs	r4, {r0, r3, r5, r6, sl, ip, sp, lr}^
    2570:	3472656d 	ldrbtcc	r6, [r2], #-1389	; 0xfffffa93
    2574:	50470041 	subpl	r0, r7, r1, asr #32
    2578:	435f4d54 	cmpmi	pc, #84, 26	; 0x1500
    257c:	69666e6f 	stmdbvs	r6!, {r0, r1, r2, r3, r5, r6, r9, sl, fp, sp, lr}^
    2580:	32335f67 	eorscc	r5, r3, #412	; 0x19c
    2584:	54746942 	ldrbtpl	r6, [r4], #-2370	; 0xfffff6be
    2588:	72656d69 	rsbvc	r6, r5, #6720	; 0x1a40
    258c:	48004234 	stmdami	r0, {r2, r4, r5, r9, lr}
    2590:	5f353043 	svcpl	0x00353043
    2594:	65636552 	strbvs	r6, [r3, #-1362]!	; 0xfffffaae
    2598:	53657669 	cmnpl	r5, #110100480	; 0x6900000
    259c:	6e697274 	mcrvs	2, 3, r7, cr9, cr4, {3}
    25a0:	4d445f67 	stclmi	15, cr5, [r4, #-412]	; 0xfffffe64
    25a4:	375f0041 	ldrbcc	r0, [pc, -r1, asr #32]
    25a8:	73746962 	cmnvc	r4, #1605632	; 0x188000
    25ac:	52415500 	subpl	r5, r1, #0, 10
    25b0:	61684354 	cmnvs	r8, r4, asr r3
    25b4:	6c656e6e 	stclvs	14, cr6, [r5], #-440	; 0xfffffe48
    25b8:	6f435f31 	svcvs	0x00435f31
    25bc:	6769666e 	strbvs	r6, [r9, -lr, ror #12]!
    25c0:	78527000 	ldmdavc	r2, {ip, sp, lr}^
    25c4:	66667542 	strbtvs	r7, [r6], -r2, asr #10
    25c8:	70007265 	andvc	r7, r0, r5, ror #4
    25cc:	75427854 	strbvc	r7, [r2, #-2132]	; 0xfffff7ac
    25d0:	72656666 	rsbvc	r6, r5, #106954752	; 0x6600000
    25d4:	726f5700 	rsbvc	r5, pc, #0, 14
    25d8:	6e654c64 	cdpvs	12, 6, cr4, cr5, cr4, {3}
    25dc:	00746867 	rsbseq	r6, r4, r7, ror #16
    25e0:	54524155 	ldrbpl	r4, [r2], #-341	; 0xfffffeab
    25e4:	6f6c435f 	svcvs	0x006c435f
    25e8:	6f536b63 	svcvs	0x00536b63
    25ec:	65637275 	strbvs	r7, [r3, #-629]!	; 0xfffffd8b
    25f0:	4800745f 	stmdami	r0, {r0, r1, r2, r3, r4, r6, sl, ip, sp, lr}
    25f4:	35302d43 	ldrcc	r2, [r0, #-3395]!	; 0xfffff2bd
    25f8:	5500632e 	strpl	r6, [r0, #-814]	; 0xfffffcd2
    25fc:	5f545241 	svcpl	0x00545241
    2600:	6e616843 	cdpvs	8, 6, cr6, cr1, cr3, {2}
    2604:	306c656e 	rsbcc	r6, ip, lr, ror #10
    2608:	52415500 	subpl	r5, r1, #0, 10
    260c:	68435f54 	stmdavs	r3, {r2, r4, r6, r8, r9, sl, fp, ip, lr}^
    2610:	656e6e61 	strbvs	r6, [lr, #-3681]!	; 0xfffff19f
    2614:	5500316c 	strpl	r3, [r0, #-364]	; 0xfffffe94
    2618:	5f545241 	svcpl	0x00545241
    261c:	6e616843 	cdpvs	8, 6, cr6, cr1, cr3, {2}
    2620:	326c656e 	rsbcc	r6, ip, #461373440	; 0x1b800000
    2624:	52415500 	subpl	r5, r1, #0, 10
    2628:	68435f54 	stmdavs	r3, {r2, r4, r6, r8, r9, sl, fp, ip, lr}^
    262c:	656e6e61 	strbvs	r6, [lr, #-3681]!	; 0xfffff19f
    2630:	5500336c 	strpl	r3, [r0, #-876]	; 0xfffffc94
    2634:	5f545241 	svcpl	0x00545241
    2638:	6e616843 	cdpvs	8, 6, cr6, cr1, cr3, {2}
    263c:	346c656e 	strbtcc	r6, [ip], #-1390	; 0xfffffa92
    2640:	52415500 	subpl	r5, r1, #0, 10
    2644:	68435f54 	stmdavs	r3, {r2, r4, r6, r8, r9, sl, fp, ip, lr}^
    2648:	656e6e61 	strbvs	r6, [lr, #-3681]!	; 0xfffff19f
    264c:	5500356c 	strpl	r3, [r0, #-1388]	; 0xfffffa94
    2650:	5f545241 	svcpl	0x00545241
    2654:	6e616843 	cdpvs	8, 6, cr6, cr1, cr3, {2}
    2658:	366c656e 	strbtcc	r6, [ip], -lr, ror #10
    265c:	52415500 	subpl	r5, r1, #0, 10
    2660:	68435f54 	stmdavs	r3, {r2, r4, r6, r8, r9, sl, fp, ip, lr}^
    2664:	656e6e61 	strbvs	r6, [lr, #-3681]!	; 0xfffff19f
    2668:	5f00376c 	svcpl	0x0000376c
    266c:	74696236 	strbtvc	r6, [r9], #-566	; 0xfffffdca
    2670:	41550073 	cmpmi	r5, r3, ror r0
    2674:	435f5452 	cmpmi	pc, #1375731712	; 0x52000000
    2678:	6e6e6168 	powvsez	f6, f6, #0.0
    267c:	745f6c65 	ldrbvc	r6, [pc], #-3173	; 2684 <UART_InterruptFIFOLevelSelect+0x1244>
    2680:	30434800 	subcc	r4, r3, r0, lsl #16
    2684:	72575f35 	subsvc	r5, r7, #53, 30	; 0xd4
    2688:	53657469 	cmnpl	r5, #1761607680	; 0x69000000
    268c:	6e697274 	mcrvs	2, 3, r7, cr9, cr4, {3}
    2690:	41550067 	cmpmi	r5, r7, rrx
    2694:	435f5452 	cmpmi	pc, #1375731712	; 0x52000000
    2698:	69666e6f 	stmdbvs	r6!, {r0, r1, r2, r3, r5, r6, r9, sl, fp, sp, lr}^
    269c:	00745f67 	rsbseq	r5, r4, r7, ror #30
    26a0:	35304348 	ldrcc	r4, [r0, #-840]!	; 0xfffffcb8
    26a4:	6165525f 	cmnvs	r5, pc, asr r2
    26a8:	61684364 	cmnvs	r8, r4, ror #6
    26ac:	68430072 	stmdavs	r3, {r1, r4, r5, r6}^
    26b0:	63617261 	cmnvs	r1, #268435462	; 0x10000006
    26b4:	52726574 	rsbspl	r6, r2, #116, 10	; 0x1d000000
    26b8:	00646165 	rsbeq	r6, r4, r5, ror #2
    26bc:	35304348 	ldrcc	r4, [r0, #-840]!	; 0xfffffcb8
    26c0:	6e65535f 	mcrvs	3, 3, r5, cr5, cr15, {2}
    26c4:	72745364 	rsbsvc	r5, r4, #100, 6	; 0x90000001
    26c8:	5f676e69 	svcpl	0x00676e69
    26cc:	00414d44 	subeq	r4, r1, r4, asr #26
    26d0:	6962385f 	stmdbvs	r2!, {r0, r1, r2, r3, r4, r6, fp, ip, sp}^
    26d4:	48007374 	stmdami	r0, {r2, r4, r5, r6, r8, r9, ip, sp, lr}
    26d8:	5f353043 	svcpl	0x00353043
    26dc:	74696e49 	strbtvc	r6, [r9], #-3657	; 0xfffff1b7
    26e0:	696c6169 	stmdbvs	ip!, {r0, r3, r5, r6, r8, sp, lr}^
    26e4:	6974617a 	ldmdbvs	r4!, {r1, r3, r4, r5, r6, r8, sp, lr}^
    26e8:	70006e6f 	andvc	r6, r0, pc, ror #28
    26ec:	006b6c63 	rsbeq	r6, fp, r3, ror #24
    26f0:	54524155 	ldrbpl	r4, [r2], #-341	; 0xfffffeab
    26f4:	726f575f 	rsbvc	r5, pc, #24903680	; 0x17c0000
    26f8:	6e654c64 	cdpvs	12, 6, cr4, cr5, cr4, {3}
    26fc:	5f746867 	svcpl	0x00746867
    2700:	61620074 	smcvs	8196	; 0x2004
    2704:	5f006475 	svcpl	0x00006475
    2708:	74696235 	strbtvc	r6, [r9], #-565	; 0xfffffdcb
    270c:	43480073 	movtmi	r0, #32883	; 0x8073
    2710:	495f3530 	ldmdbmi	pc, {r4, r5, r8, sl, ip, sp}^	; <UNPREDICTABLE>
    2714:	6974696e 	ldmdbvs	r4!, {r1, r2, r3, r5, r6, r8, fp, sp, lr}^
    2718:	7a696c61 	bvc	1a5d8a4 <UART_InterruptFIFOLevelSelect+0x1a5c464>
    271c:	6f697461 	svcvs	0x00697461
    2720:	4d445f6e 	stclmi	15, cr5, [r4, #-440]	; 0xfffffe48
    2724:	43480041 	movtmi	r0, #32833	; 0x8041
    2728:	575f3530 	smmlarpl	pc, r0, r5, r3	; <UNPREDICTABLE>
    272c:	65746972 	ldrbvs	r6, [r4, #-2418]!	; 0xfffff68e
    2730:	72616843 	rsbvc	r6, r1, #4390912	; 0x430000
    2734:	6f6c4300 	svcvs	0x006c4300
    2738:	6f736b63 	svcvs	0x00736b63
    273c:	65637275 	strbvs	r7, [r3, #-629]!	; 0xfffffd8b
    2740:	4f495000 	svcmi	0x00495000
    2744:	616d0043 	cmnvs	sp, r3, asr #32
    2748:	632e6e69 			; <UNDEFINED> instruction: 0x632e6e69
    274c:	72747000 	rsbsvc	r7, r4, #0
    2750:	6168635f 	cmnvs	r8, pc, asr r3
    2754:	65746172 	ldrbvs	r6, [r4, #-370]!	; 0xfffffe8e
    2758:	53003172 	movwpl	r3, #370	; 0x172
    275c:	6372756f 	cmnvs	r2, #465567744	; 0x1bc00000
    2760:	66754265 	ldrbtvs	r4, [r5], -r5, ror #4
    2764:	5f726566 	svcpl	0x00726566
    2768:	00414d44 	subeq	r4, r1, r4, asr #26
    276c:	65646e69 	strbvs	r6, [r4, #-3689]!	; 0xfffff197
    2770:	756f4378 	strbvc	r4, [pc, #-888]!	; 2400 <UART_InterruptFIFOLevelSelect+0xfc0>
    2774:	7265746e 	rsbvc	r7, r5, #1845493760	; 0x6e000000
    2778:	646e4900 	strbtvs	r4, [lr], #-2304	; 0xfffff700
    277c:	6f437865 	svcvs	0x00437865
    2780:	65746e75 	ldrbvs	r6, [r4, #-3701]!	; 0xfffff18b
    2784:	64490072 	strbvs	r0, [r9], #-114	; 0xffffff8e
    2788:	6f4c656c 	svcvs	0x004c656c
    278c:	6f43706f 	svcvs	0x0043706f
    2790:	65746e75 	ldrbvs	r6, [r4, #-3701]!	; 0xfffff18b
    2794:	794d0072 	stmdbvc	sp, {r1, r4, r5, r6}^
    2798:	74737953 	ldrbtvc	r7, [r3], #-2387	; 0xfffff6ad
    279c:	6c436d65 	mcrrvs	13, 6, r6, r3, cr5
    27a0:	006b636f 	rsbeq	r6, fp, pc, ror #6
    27a4:	534f4950 	movtpl	r4, #63824	; 0xf950
    27a8:	69445f43 	stmdbvs	r4, {r0, r1, r6, r8, r9, sl, fp, ip, lr}^
    27ac:	49003476 	stmdbmi	r0, {r1, r2, r4, r5, r6, sl, ip, sp}
    27b0:	7865646e 	stmdavc	r5!, {r1, r2, r3, r5, r6, sl, sp, lr}^
    27b4:	6e756f63 	cdpvs	15, 7, cr6, cr5, cr3, {3}
    27b8:	00726574 	rsbseq	r6, r2, r4, ror r5
    27bc:	5f323373 	svcpl	0x00323373
    27c0:	6e750074 	mrcvs	0, 3, r0, cr5, cr4, {3}
    27c4:	64657375 	strbtvs	r7, [r5], #-885	; 0xfffffc8b
    27c8:	7261765f 	rsbvc	r7, r1, #99614720	; 0x5f00000
    27cc:	6f530032 	svcvs	0x00530032
    27d0:	65637275 	strbvs	r7, [r3, #-629]!	; 0xfffffd8b
    27d4:	66667542 	strbtvs	r7, [r6], -r2, asr #10
    27d8:	41557265 	cmpmi	r5, r5, ror #4
    27dc:	44005452 	strmi	r5, [r0], #-1106	; 0xfffffbae
    27e0:	42747365 	rsbsmi	r7, r4, #-1811939327	; 0x94000001
    27e4:	65666675 	strbvs	r6, [r6, #-1653]!	; 0xfffff98b
    27e8:	44004172 	strmi	r4, [r0], #-370	; 0xfffffe8e
    27ec:	42747365 	rsbsmi	r7, r4, #-1811939327	; 0x94000001
    27f0:	65666675 	strbvs	r6, [r6, #-1653]!	; 0xfffff98b
    27f4:	44004272 	strmi	r4, [r0], #-626	; 0xfffffd8e
    27f8:	41747365 	cmnmi	r4, r5, ror #6
    27fc:	79617272 	stmdbvc	r1!, {r1, r4, r5, r6, r9, ip, sp, lr}^
    2800:	00323135 	eorseq	r3, r2, r5, lsr r1
    2804:	73756e55 	cmnvc	r5, #1360	; 0x550
    2808:	75466465 	strbvc	r6, [r6, #-1125]	; 0xfffffb9b
    280c:	0031636e 	eorseq	r6, r1, lr, ror #6
    2810:	74736544 	ldrbtvc	r6, [r3], #-1348	; 0xfffffabc
    2814:	66667542 	strbtvs	r7, [r6], -r2, asr #10
    2818:	445f7265 	ldrbmi	r7, [pc], #-613	; 2820 <UART_InterruptFIFOLevelSelect+0x13e0>
    281c:	6c00414d 	stfvss	f4, [r0], {77}	; 0x4d
    2820:	6c61636f 	stclvs	3, cr6, [r1], #-444	; 0xfffffe44
    2824:	7261765f 	rsbvc	r7, r1, #99614720	; 0x5f00000
    2828:	756f5300 	strbvc	r5, [pc, #-768]!	; 2530 <UART_InterruptFIFOLevelSelect+0x10f0>
    282c:	49656372 	stmdbmi	r5!, {r1, r4, r5, r6, r8, r9, sp, lr}^
    2830:	7865646e 	stmdavc	r5!, {r1, r2, r3, r5, r6, sl, sp, lr}^
    2834:	6e756f43 	cdpvs	15, 7, cr6, cr5, cr3, {2}
    2838:	44726574 	ldrbtmi	r6, [r2], #-1396	; 0xfffffa8c
    283c:	7500414d 	strvc	r4, [r0, #-333]	; 0xfffffeb3
    2840:	6573756e 	ldrbvs	r7, [r3, #-1390]!	; 0xfffffa92
    2844:	61765f64 	cmnvs	r6, r4, ror #30
    2848:	75003172 	strvc	r3, [r0, #-370]	; 0xfffffe8e
    284c:	6573756e 	ldrbvs	r7, [r3, #-1390]!	; 0xfffffa92
    2850:	61765f64 	cmnvs	r6, r4, ror #30
    2854:	75003372 	strvc	r3, [r0, #-882]	; 0xfffffc8e
    2858:	6573756e 	ldrbvs	r7, [r3, #-1390]!	; 0xfffffa92
    285c:	61765f64 	cmnvs	r6, r4, ror #30
    2860:	73003472 	movwvc	r3, #1138	; 0x472
    2864:	69746174 	ldmdbvs	r4!, {r2, r4, r5, r6, r8, sp, lr}^
    2868:	61765f63 	cmnvs	r6, r3, ror #30
    286c:	79530072 	ldmdbvc	r3, {r1, r4, r5, r6}^
    2870:	6b6c4373 	blvs	1b13644 <UART_InterruptFIFOLevelSelect+0x1b12204>
    2874:	69616d00 	stmdbvs	r1!, {r8, sl, fp, sp, lr}^
    2878:	6f53006e 	svcvs	0x0053006e
    287c:	65637275 	strbvs	r7, [r3, #-629]!	; 0xfffffd8b
    2880:	65646e49 	strbvs	r6, [r4, #-3657]!	; 0xfffff1b7
    2884:	756f4378 	strbvc	r4, [pc, #-888]!	; 2514 <UART_InterruptFIFOLevelSelect+0x10d4>
    2888:	7265746e 	rsbvc	r7, r5, #1845493760	; 0x6e000000
    288c:	33414d44 	movtcc	r4, #7492	; 0x1d44
    2890:	53003635 	movwpl	r3, #1589	; 0x635
    2894:	6372756f 	cmnvs	r2, #465567744	; 0x1bc00000
    2898:	72724165 	rsbsvc	r4, r2, #1073741849	; 0x40000019
    289c:	31357961 	teqcc	r5, r1, ror #18
    28a0:	72470032 	subvc	r0, r7, #50	; 0x32
    28a4:	5070756f 	rsbspl	r7, r0, pc, ror #10
    28a8:	726f6972 	rsbvc	r6, pc, #1867776	; 0x1c8000
    28ac:	00797469 	rsbseq	r7, r9, r9, ror #8
    28b0:	4349564e 	movtmi	r5, #38478	; 0x964e
    28b4:	6972505f 	ldmdbvs	r2!, {r0, r1, r2, r3, r4, r6, ip, lr}^
    28b8:	7469726f 	strbtvc	r7, [r9], #-623	; 0xfffffd91
    28bc:	6f724779 	svcvs	0x00724779
    28c0:	65537075 	ldrbvs	r7, [r3, #-117]	; 0xffffff8b
    28c4:	00745f74 	rsbseq	r5, r4, r4, ror pc
    28c8:	49444e45 	stmdbmi	r4, {r0, r2, r6, r9, sl, fp, lr}^
    28cc:	53454e41 	movtpl	r4, #24129	; 0x5e41
    28d0:	49564e00 	ldmdbmi	r6, {r9, sl, fp, lr}^
    28d4:	6c435f43 	mcrrvs	15, 4, r5, r3, cr3
    28d8:	5f726165 	svcpl	0x00726165
    28dc:	646e6550 	strbtvs	r6, [lr], #-1360	; 0xfffffab0
    28e0:	00676e69 	rsbeq	r6, r7, r9, ror #28
    28e4:	4349564e 	movtmi	r5, #38478	; 0x964e
    28e8:	656c435f 	strbvs	r4, [ip, #-863]!	; 0xfffffca1
    28ec:	495f7261 	ldmdbmi	pc, {r0, r5, r6, r9, ip, sp, lr}^	; <UNPREDICTABLE>
    28f0:	7265746e 	rsbvc	r7, r5, #1845493760	; 0x6e000000
    28f4:	74707572 	ldrbtvc	r7, [r0], #-1394	; 0xfffffa8e
    28f8:	62755300 	rsbsvs	r5, r5, #0, 6
    28fc:	6f697250 	svcvs	0x00697250
    2900:	79746972 	ldmdbvc	r4!, {r1, r4, r5, r6, r8, fp, sp, lr}^
    2904:	38756100 	ldmdacc	r5!, {r8, sp, lr}^
    2908:	6765525f 			; <UNDEFINED> instruction: 0x6765525f
    290c:	006d754e 	rsbeq	r7, sp, lr, asr #10
    2910:	5f495250 	svcpl	0x00495250
    2914:	73746962 	cmnvc	r4, #1605632	; 0x188000
    2918:	43455600 	movtmi	r5, #22016	; 0x5600
    291c:	59454b54 	stmdbpl	r5, {r2, r4, r6, r8, r9, fp, lr}^
    2920:	62755300 	rsbsvs	r5, r5, #0, 6
    2924:	756f7247 	strbvc	r7, [pc, #-583]!	; 26e5 <UART_InterruptFIFOLevelSelect+0x12a5>
    2928:	69725070 	ldmdbvs	r2!, {r4, r5, r6, ip, lr}^
    292c:	7469726f 	strbtvc	r7, [r9], #-623	; 0xfffffd91
    2930:	53003579 	movwpl	r3, #1401	; 0x579
    2934:	72476275 	subvc	r6, r7, #1342177287	; 0x50000007
    2938:	5070756f 	rsbspl	r7, r0, pc, ror #10
    293c:	726f6972 	rsbvc	r6, pc, #1867776	; 0x1c8000
    2940:	33797469 	cmncc	r9, #1761607680	; 0x69000000
    2944:	62755300 	rsbsvs	r5, r5, #0, 6
    2948:	756f7247 	strbvc	r7, [pc, #-583]!	; 2709 <UART_InterruptFIFOLevelSelect+0x12c9>
    294c:	69725070 	ldmdbvs	r2!, {r4, r5, r6, ip, lr}^
    2950:	7469726f 	strbtvc	r7, [r9], #-623	; 0xfffffd91
    2954:	47003779 	smlsdxmi	r0, r9, r7, r3
    2958:	70756f72 	rsbsvc	r6, r5, r2, ror pc
    295c:	6f697250 	svcvs	0x00697250
    2960:	79746972 	ldmdbvc	r4!, {r1, r4, r5, r6, r8, fp, sp, lr}^
    2964:	75535f31 	ldrbvc	r5, [r3, #-3889]	; 0xfffff0cf
    2968:	4e003862 	cdpmi	8, 0, cr3, cr0, cr2, {3}
    296c:	5f434956 	svcpl	0x00434956
    2970:	50746553 	rsbspl	r6, r4, r3, asr r5
    2974:	726f6972 	rsbvc	r6, pc, #1867776	; 0x1c8000
    2978:	47797469 	ldrbmi	r7, [r9, -r9, ror #8]!
    297c:	70756f72 	rsbsvc	r6, r5, r2, ror pc
    2980:	00676e69 	rsbeq	r6, r7, r9, ror #28
    2984:	47627553 			; <UNDEFINED> instruction: 0x47627553
    2988:	70756f72 	rsbsvc	r6, r5, r2, ror pc
    298c:	6f697250 	svcvs	0x00697250
    2990:	79746972 	ldmdbvc	r4!, {r1, r4, r5, r6, r8, fp, sp, lr}^
    2994:	6e490036 	mcrvs	0, 2, r0, cr9, cr6, {1}
    2998:	72726574 	rsbsvc	r6, r2, #116, 10	; 0x1d000000
    299c:	5f747075 	svcpl	0x00747075
    29a0:	61656c43 	cmnvs	r5, r3, asr #24
    29a4:	65525f72 	ldrbvs	r5, [r2, #-3954]	; 0xfffff08e
    29a8:	74736967 	ldrbtvc	r6, [r3], #-2407	; 0xfffff699
    29ac:	00737265 	rsbseq	r7, r3, r5, ror #4
    29b0:	4349564e 	movtmi	r5, #38478	; 0x964e
    29b4:	7373415f 	cmnvc	r3, #-1073741801	; 0xc0000017
    29b8:	506e6769 	rsbpl	r6, lr, r9, ror #14
    29bc:	726f6972 	rsbvc	r6, pc, #1867776	; 0x1c8000
    29c0:	00797469 	rsbseq	r7, r9, r9, ror #8
    29c4:	5f746553 	svcpl	0x00746553
    29c8:	646e6550 	strbtvs	r6, [lr], #-1360	; 0xfffffab0
    29cc:	5f676e69 	svcpl	0x00676e69
    29d0:	69676552 	stmdbvs	r7!, {r1, r4, r6, r8, sl, sp, lr}^
    29d4:	72657473 	rsbvc	r7, r5, #1929379840	; 0x73000000
    29d8:	49525000 	ldmdbmi	r2, {ip, lr}^
    29dc:	554f5247 	strbpl	r5, [pc, #-583]	; 279d <UART_InterruptFIFOLevelSelect+0x135d>
    29e0:	6e490050 	mcrvs	0, 2, r0, cr9, cr0, {2}
    29e4:	72726574 	rsbsvc	r6, r2, #116, 10	; 0x1d000000
    29e8:	5f747075 	svcpl	0x00747075
    29ec:	62616e45 	rsbvs	r6, r1, #1104	; 0x450
    29f0:	525f656c 	subspl	r6, pc, #108, 10	; 0x1b000000
    29f4:	73696765 	cmnvc	r9, #26476544	; 0x1940000
    29f8:	73726574 	cmnvc	r2, #116, 10	; 0x1d000000
    29fc:	6f724700 	svcvs	0x00724700
    2a00:	72507075 	subsvc	r7, r0, #117	; 0x75
    2a04:	69726f69 	ldmdbvs	r2!, {r0, r3, r5, r6, r8, r9, sl, fp, sp, lr}^
    2a08:	5f387974 	svcpl	0x00387974
    2a0c:	31627553 	cmncc	r2, r3, asr r5
    2a10:	746e4900 	strbtvc	r4, [lr], #-2304	; 0xfffff700
    2a14:	75727265 	ldrbvc	r7, [r2, #-613]!	; 0xfffffd9b
    2a18:	505f7470 	subspl	r7, pc, r0, ror r4	; <UNPREDICTABLE>
    2a1c:	726f6972 	rsbvc	r6, pc, #1867776	; 0x1c8000
    2a20:	5f797469 	svcpl	0x00797469
    2a24:	69676552 	stmdbvs	r7!, {r1, r4, r6, r8, sl, sp, lr}^
    2a28:	72657473 	rsbvc	r7, r5, #1929379840	; 0x73000000
    2a2c:	49564e00 	ldmdbmi	r6, {r9, sl, fp, lr}^
    2a30:	6e455f43 	cdpvs	15, 4, cr5, cr5, cr3, {2}
    2a34:	656c6261 	strbvs	r6, [ip, #-609]!	; 0xfffffd9f
    2a38:	746e495f 	strbtvc	r4, [lr], #-2399	; 0xfffff6a1
    2a3c:	75727265 	ldrbvc	r7, [r2, #-613]!	; 0xfffffd9b
    2a40:	4e007470 	mcrmi	4, 0, r7, cr0, cr0, {3}
    2a44:	2e434956 			; <UNDEFINED> instruction: 0x2e434956
    2a48:	72700063 	rsbsvc	r0, r0, #99	; 0x63
    2a4c:	69726f69 	ldmdbvs	r2!, {r0, r3, r5, r6, r8, r9, sl, fp, sp, lr}^
    2a50:	72477974 	subvc	r7, r7, #116, 18	; 0x1d0000
    2a54:	0070756f 	rsbseq	r7, r0, pc, ror #10
    2a58:	4e495041 	cdpmi	0, 4, cr5, cr9, cr1, {2}
    2a5c:	69625f54 	stmdbvs	r2!, {r2, r4, r6, r8, r9, sl, fp, ip, lr}^
    2a60:	47007374 	smlsdxmi	r0, r4, r3, r7
    2a64:	70756f72 	rsbsvc	r6, r5, r2, ror pc
    2a68:	6f697250 	svcvs	0x00697250
    2a6c:	79746972 	ldmdbvc	r4!, {r1, r4, r5, r6, r8, fp, sp, lr}^
    2a70:	75535f32 	ldrbvc	r5, [r3, #-3890]	; 0xfffff0ce
    2a74:	61003462 	tstvs	r0, r2, ror #8
    2a78:	5f323375 	svcpl	0x00323375
    2a7c:	65746e49 	ldrbvs	r6, [r4, #-3657]!	; 0xfffff1b7
    2a80:	70757272 	rsbsvc	r7, r5, r2, ror r2
    2a84:	6d754e74 	ldclvs	14, cr4, [r5, #-464]!	; 0xfffffe30
    2a88:	62755300 	rsbsvs	r5, r5, #0, 6
    2a8c:	756f7247 	strbvc	r7, [pc, #-583]!	; 284d <UART_InterruptFIFOLevelSelect+0x140d>
    2a90:	69725070 	ldmdbvs	r2!, {r4, r5, r6, ip, lr}^
    2a94:	7469726f 	strbtvc	r7, [r9], #-623	; 0xfffffd91
    2a98:	53003079 	movwpl	r3, #121	; 0x79
    2a9c:	72476275 	subvc	r6, r7, #1342177287	; 0x50000007
    2aa0:	5070756f 	rsbspl	r7, r0, pc, ror #10
    2aa4:	726f6972 	rsbvc	r6, pc, #1867776	; 0x1c8000
    2aa8:	31797469 	cmncc	r9, r9, ror #8
    2aac:	62755300 	rsbsvs	r5, r5, #0, 6
    2ab0:	756f7247 	strbvc	r7, [pc, #-583]!	; 2871 <UART_InterruptFIFOLevelSelect+0x1431>
    2ab4:	69725070 	ldmdbvs	r2!, {r4, r5, r6, ip, lr}^
    2ab8:	7469726f 	strbtvc	r7, [r9], #-623	; 0xfffffd91
    2abc:	49003279 	stmdbmi	r0, {r0, r3, r4, r5, r6, r9, ip, sp}
    2ac0:	0041544e 	subeq	r5, r1, lr, asr #8
    2ac4:	42544e49 	subsmi	r4, r4, #1168	; 0x490
    2ac8:	544e4900 	strbpl	r4, [lr], #-2304	; 0xfffff700
    2acc:	4e490043 	cdpmi	0, 4, cr0, cr9, cr3, {2}
    2ad0:	4e004454 	cfmvsrmi	mvf0, r4
    2ad4:	5f434956 	svcpl	0x00434956
    2ad8:	5f746553 	svcpl	0x00746553
    2adc:	646e6550 	strbtvs	r6, [lr], #-1360	; 0xfffffab0
    2ae0:	00676e69 	rsbeq	r6, r7, r9, ror #28
    2ae4:	5f387561 	svcpl	0x00387561
    2ae8:	4e746942 	vsubmi.f16	s13, s8, s4	; <UNPREDICTABLE>
    2aec:	53006d75 	movwpl	r6, #3445	; 0xd75
    2af0:	72476275 	subvc	r6, r7, #1342177287	; 0x50000007
    2af4:	5070756f 	rsbspl	r7, r0, pc, ror #10
    2af8:	726f6972 	rsbvc	r6, pc, #1867776	; 0x1c8000
    2afc:	34797469 	ldrbtcc	r7, [r9], #-1129	; 0xfffffb97
    2b00:	49525000 	ldmdbmi	r2, {ip, lr}^
    2b04:	554f5247 	strbpl	r5, [pc, #-583]	; 28c5 <UART_InterruptFIFOLevelSelect+0x1485>
    2b08:	69625f50 	stmdbvs	r2!, {r4, r6, r8, r9, sl, fp, ip, lr}^
    2b0c:	53007374 	movwpl	r7, #884	; 0x374
    2b10:	72476275 	subvc	r6, r7, #1342177287	; 0x50000007
    2b14:	5070756f 	rsbspl	r7, r0, pc, ror #10
    2b18:	726f6972 	rsbvc	r6, pc, #1867776	; 0x1c8000
    2b1c:	38797469 	ldmdacc	r9!, {r0, r3, r5, r6, sl, ip, sp, lr}^
    2b20:	656c4300 	strbvs	r4, [ip, #-768]!	; 0xfffffd00
    2b24:	505f7261 	subspl	r7, pc, r1, ror #4
    2b28:	69646e65 	stmdbvs	r4!, {r0, r2, r5, r6, r9, sl, fp, sp, lr}^
    2b2c:	525f676e 	subspl	r6, pc, #28835840	; 0x1b80000
    2b30:	73696765 	cmnvc	r9, #26476544	; 0x1940000
    2b34:	00726574 	rsbseq	r6, r2, r4, ror r5
    2b38:	4349564e 	movtmi	r5, #38478	; 0x964e
    2b3c:	6275535f 	rsbsvs	r5, r5, #2080374785	; 0x7c000001
    2b40:	6f697250 	svcvs	0x00697250
    2b44:	79746972 	ldmdbvc	r4!, {r1, r4, r5, r6, r8, fp, sp, lr}^
    2b48:	756f7247 	strbvc	r7, [pc, #-583]!	; 2909 <UART_InterruptFIFOLevelSelect+0x14c9>
    2b4c:	74655370 	strbtvc	r5, [r5], #-880	; 0xfffffc90
    2b50:	4700745f 	smlsdmi	r0, pc, r4, r7	; <UNPREDICTABLE>
    2b54:	70756f72 	rsbsvc	r6, r5, r2, ror pc
    2b58:	6f697250 	svcvs	0x00697250
    2b5c:	79746972 	ldmdbvc	r4!, {r1, r4, r5, r6, r8, fp, sp, lr}^
    2b60:	75535f34 	ldrbvc	r5, [r3, #-3892]	; 0xfffff0cc
    2b64:	73003262 	movwvc	r3, #610	; 0x262
    2b68:	74726174 	ldrbtvc	r6, [r2], #-372	; 0xfffffe8c
    2b6c:	632e7075 			; <UNDEFINED> instruction: 0x632e7075
    2b70:	54414400 	strbpl	r4, [r1], #-1024	; 0xfffffc00
    2b74:	69735f41 	ldmdbvs	r3!, {r0, r6, r8, r9, sl, fp, ip, lr}^
    2b78:	5300657a 	movwpl	r6, #1402	; 0x57a
    2b7c:	6b636174 	blvs	18db154 <UART_InterruptFIFOLevelSelect+0x18d9d14>
    2b80:	706f745f 	rsbvc	r7, pc, pc, asr r4	; <UNPREDICTABLE>
    2b84:	73655200 	cmnvc	r5, #0, 4
    2b88:	485f7465 	ldmdami	pc, {r0, r2, r5, r6, sl, ip, sp, lr}^	; <UNPREDICTABLE>
    2b8c:	6c646e61 	stclvs	14, cr6, [r4], #-388	; 0xfffffe7c
    2b90:	70007265 	andvc	r7, r0, r5, ror #4
    2b94:	6372735f 	cmnvs	r2, #2080374785	; 0x7c000001
    2b98:	5f455f00 	svcpl	0x00455f00
    2b9c:	41544144 	cmpmi	r4, r4, asr #2
    2ba0:	5f455f00 	svcpl	0x00455f00
    2ba4:	00535342 	subseq	r5, r3, r2, asr #6
    2ba8:	745f455f 	ldrbvc	r4, [pc], #-1375	; 2bb0 <UART_InterruptFIFOLevelSelect+0x1770>
    2bac:	00747865 	rsbseq	r7, r4, r5, ror #16
    2bb0:	73645f70 	cmnvc	r4, #112, 30	; 0x1c0
    2bb4:	53420074 	movtpl	r0, #8308	; 0x2074
    2bb8:	69735f53 	ldmdbvs	r3!, {r0, r1, r4, r6, r8, r9, sl, fp, ip, lr}^
    2bbc:	4400657a 	strmi	r6, [r0], #-1402	; 0xfffffa86
    2bc0:	75616665 	strbvc	r6, [r1, #-1637]!	; 0xfffff99b
    2bc4:	485f746c 	ldmdami	pc, {r2, r3, r5, r6, sl, ip, sp, lr}^	; <UNPREDICTABLE>
    2bc8:	6c646e61 	stclvs	14, cr6, [r4], #-388	; 0xfffffe7c
    2bcc:	5f007265 	svcpl	0x00007265
    2bd0:	41445f53 	cmpmi	r4, r3, asr pc
    2bd4:	67004154 	smlsdvs	r0, r4, r1, r4
    2bd8:	6e665f70 	mcrvs	15, 3, r5, cr6, cr0, {3}
    2bdc:	6365765f 	cmnvs	r5, #99614720	; 0x5f00000
    2be0:	73726f74 	cmnvc	r2, #116, 30	; 0x1d0
    2be4:	5f535f00 	svcpl	0x00535f00
    2be8:	00535342 	subseq	r5, r3, r2, asr #6
    2bec:	484d355f 	stmdami	sp, {r0, r1, r2, r3, r4, r6, r8, sl, ip, sp}^
    2bf0:	53555f7a 	cmppl	r5, #488	; 0x1e8
    2bf4:	43530042 	cmpmi	r3, #66	; 0x42
    2bf8:	7465475f 	strbtvc	r4, [r5], #-1887	; 0xfffff8a1
    2bfc:	6963734f 	stmdbvs	r3!, {r0, r1, r2, r3, r6, r8, r9, ip, sp, lr}^
    2c00:	74616c6c 	strbtvc	r6, [r1], #-3180	; 0xfffff394
    2c04:	6156726f 	cmpvs	r6, pc, ror #4
    2c08:	0065756c 	rsbeq	r7, r5, ip, ror #10
    2c0c:	4d4d5750 	stclmi	7, cr5, [sp, #-320]	; 0xfffffec0
    2c10:	6c75646f 	cfldrdvs	mvd6, [r5], #-444	; 0xfffffe44
    2c14:	50003065 	andpl	r3, r0, r5, rrx
    2c18:	6f4d4d57 	svcvs	0x004d4d57
    2c1c:	656c7564 	strbvs	r7, [ip, #-1380]!	; 0xfffffa9c
    2c20:	57500031 	smmlarpl	r0, r1, r0, r0
    2c24:	696e554d 	stmdbvs	lr!, {r0, r2, r3, r6, r8, sl, ip, lr}^
    2c28:	6f6c4374 	svcvs	0x006c4374
    2c2c:	69446b63 	stmdbvs	r4, {r0, r1, r5, r6, r8, r9, fp, sp, lr}^
    2c30:	6f736976 	svcvs	0x00736976
    2c34:	43530072 	cmpmi	r3, #114	; 0x72
    2c38:	4d57505f 	ldclmi	0, cr5, [r7, #-380]	; 0xfffffe84
    2c3c:	00564944 	subseq	r4, r6, r4, asr #18
    2c40:	62616e45 	rsbvs	r6, r1, #1104	; 0x450
    2c44:	5750656c 	ldrbpl	r6, [r0, -ip, ror #10]
    2c48:	6b6c434d 	blvs	1b13984 <UART_InterruptFIFOLevelSelect+0x1b12544>
    2c4c:	00766944 	rsbseq	r6, r6, r4, asr #18
    2c50:	5f4d5750 	svcpl	0x004d5750
    2c54:	36766944 	ldrbtcc	r6, [r6], -r4, asr #18
    2c58:	6e450034 	mcrvs	0, 2, r0, cr5, cr4, {1}
    2c5c:	656c6261 	strbvs	r6, [ip, #-609]!	; 0xfffffd9f
    2c60:	74737953 	ldrbtvc	r7, [r3], #-2387	; 0xfffff6ad
    2c64:	6c436d65 	mcrrvs	13, 6, r6, r3, cr5
    2c68:	446b636f 	strbtmi	r6, [fp], #-879	; 0xfffffc91
    2c6c:	64697669 	strbtvs	r7, [r9], #-1641	; 0xfffff997
    2c70:	53007265 	movwpl	r7, #613	; 0x265
    2c74:	6f435f43 	svcvs	0x00435f43
    2c78:	6769666e 	strbvs	r6, [r9, -lr, ror #12]!
    2c7c:	4f657275 	svcmi	0x00657275
    2c80:	6f536373 	svcvs	0x00536373
    2c84:	65637275 	strbvs	r7, [r3, #-629]!	; 0xfffffd8b
    2c88:	4200745f 	andmi	r7, r0, #1593835520	; 0x5f000000
    2c8c:	5231524f 	eorspl	r5, r1, #-268435452	; 0xf0000004
    2c90:	53005349 	movwpl	r5, #841	; 0x349
    2c94:	6e455f43 	cdpvs	15, 4, cr5, cr5, cr3, {2}
    2c98:	656c6261 	strbvs	r6, [ip, #-609]!	; 0xfffffd9f
    2c9c:	4d6e7552 	cfstr64mi	mvdx7, [lr, #-328]!	; 0xfffffeb8
    2ca0:	4365646f 	cmnmi	r5, #1862270976	; 0x6f000000
    2ca4:	6b636f6c 	blvs	18dea5c <UART_InterruptFIFOLevelSelect+0x18dd61c>
    2ca8:	004d5750 	subeq	r5, sp, r0, asr r7
    2cac:	50425355 	subpl	r5, r2, r5, asr r3
    2cb0:	6f4c4c4c 	svcvs	0x004c4c4c
    2cb4:	61526b63 	cmpvs	r2, r3, ror #22
    2cb8:	746e4977 	strbtvc	r4, [lr], #-2423	; 0xfffff689
    2cbc:	75727265 	ldrbvc	r7, [r2, #-613]!	; 0xfffffd9b
    2cc0:	74537470 	ldrbvc	r7, [r3], #-1136	; 0xfffffb90
    2cc4:	73757461 	cmnvc	r5, #1627389952	; 0x61000000
    2cc8:	65725000 	ldrbvs	r5, [r2, #-0]!
    2ccc:	69736963 	ldmdbvs	r3!, {r0, r1, r5, r6, r8, fp, sp, lr}^
    2cd0:	6e496e6f 	cdpvs	14, 4, cr6, cr9, cr15, {3}
    2cd4:	4f726574 	svcmi	0x00726574
    2cd8:	6c696373 	stclvs	3, cr6, [r9], #-460	; 0xfffffe34
    2cdc:	6f74616c 	svcvs	0x0074616c
    2ce0:	6f430072 	svcvs	0x00430072
    2ce4:	6769666e 	strbvs	r6, [r9, -lr, ror #12]!
    2ce8:	5363734f 	cmnpl	r3, #1006632961	; 0x3c000001
    2cec:	6372756f 	cmnvs	r2, #465567744	; 0x1bc00000
    2cf0:	6f430065 	svcvs	0x00430065
    2cf4:	6769666e 	strbvs	r6, [r9, -lr, ror #12]!
    2cf8:	73797243 	cmnvc	r9, #805306372	; 0x30000004
    2cfc:	566c6174 			; <UNDEFINED> instruction: 0x566c6174
    2d00:	65756c61 	ldrbvs	r6, [r5, #-3169]!	; 0xfffff39f
    2d04:	5f375f00 	svcpl	0x00375f00
    2d08:	38323733 	ldmdacc	r2!, {r0, r1, r4, r5, r8, r9, sl, ip, sp}
    2d0c:	007a484d 	rsbseq	r4, sl, sp, asr #16
    2d10:	43737953 	cmnmi	r3, #1359872	; 0x14c000
    2d14:	72466b6c 	subvc	r6, r6, #108, 22	; 0x1b000
    2d18:	45007165 	strmi	r7, [r0, #-357]	; 0xfffffe9b
    2d1c:	6c62616e 	stfvse	f6, [r2], #-440	; 0xfffffe48
    2d20:	73795365 	cmnvc	r9, #-1811939327	; 0x94000001
    2d24:	00766944 	rsbseq	r6, r6, r4, asr #18
    2d28:	6f747541 	svcvs	0x00747541
    2d2c:	636f6c43 	cmnvs	pc, #17152	; 0x4300
    2d30:	7461476b 	strbtvc	r4, [r1], #-1899	; 0xfffff895
    2d34:	00676e69 	rsbeq	r6, r7, r9, ror #28
    2d38:	666e6f43 	strbtvs	r6, [lr], -r3, asr #30
    2d3c:	72756769 	rsbsvc	r6, r5, #27525120	; 0x1a40000
    2d40:	73795365 	cmnvc	r9, #-1811939327	; 0x94000001
    2d44:	00766944 	rsbseq	r6, r6, r4, asr #18
    2d48:	5f4d5750 	svcpl	0x004d5750
    2d4c:	33766944 	cmncc	r6, #68, 18	; 0x110000
    2d50:	74700032 	ldrbtvc	r0, [r0], #-50	; 0xffffffce
    2d54:	4d57505f 	ldclmi	0, cr5, [r7, #-380]	; 0xfffffe84
    2d58:	666e6f43 	strbtvs	r6, [lr], -r3, asr #30
    2d5c:	72756769 	rsbsvc	r6, r5, #27525120	; 0x1a40000
    2d60:	6f697461 	svcvs	0x00697461
    2d64:	734f006e 	movtvc	r0, #61550	; 0xf06e
    2d68:	6c6c6963 			; <UNDEFINED> instruction: 0x6c6c6963
    2d6c:	726f7461 	rsbvc	r7, pc, #1627389952	; 0x61000000
    2d70:	72756f53 	rsbsvc	r6, r5, #332	; 0x14c
    2d74:	53006563 	movwpl	r6, #1379	; 0x563
    2d78:	65475f43 	strbvs	r5, [r7, #-3907]	; 0xfffff0bd
    2d7c:	73795374 	cmnvc	r9, #116, 6	; 0xd0000001
    2d80:	436d6574 	cmnmi	sp, #116, 10	; 0x1d000000
    2d84:	6b636f6c 	blvs	18deb3c <UART_InterruptFIFOLevelSelect+0x18dd6fc>
    2d88:	5f435300 	svcpl	0x00435300
    2d8c:	44535953 	ldrbmi	r5, [r3], #-2387	; 0xfffff6ad
    2d90:	52005649 	andpl	r5, r0, #76546048	; 0x4900000
    2d94:	5f324343 	svcpl	0x00324343
    2d98:	00676552 	rsbeq	r6, r7, r2, asr r5
    2d9c:	61707942 	cmnvs	r0, r2, asr #18
    2da0:	61567373 	cmpvs	r6, r3, ror r3
    2da4:	5f65756c 	svcpl	0x0065756c
    2da8:	7074754f 	rsbsvc	r7, r4, pc, asr #10
    2dac:	6f537475 	svcvs	0x00537475
    2db0:	65637275 	strbvs	r7, [r3, #-629]!	; 0xfffffd8b
    2db4:	4f00745f 	svcmi	0x0000745f
    2db8:	61765f53 	cmnvs	r6, r3, asr pc
    2dbc:	0065756c 	rsbeq	r7, r5, ip, ror #10
    2dc0:	6f437470 	svcvs	0x00437470
    2dc4:	6769666e 	strbvs	r6, [r9, -lr, ror #12]!
    2dc8:	5f435300 	svcpl	0x00435300
    2dcc:	666e6f43 	strbtvs	r6, [lr], -r3, asr #30
    2dd0:	72756769 	rsbsvc	r6, r5, #27525120	; 0x1a40000
    2dd4:	79724365 	ldmdbvc	r2!, {r0, r2, r5, r6, r8, r9, lr}^
    2dd8:	6c617473 	cfstrdvs	mvd7, [r1], #-460	; 0xfffffe34
    2ddc:	756c6156 	strbvc	r6, [ip, #-342]!	; 0xfffffeaa
    2de0:	00745f65 	rsbseq	r5, r4, r5, ror #30
    2de4:	484d365f 	stmdami	sp, {r0, r1, r2, r3, r4, r6, r9, sl, ip, sp}^
    2de8:	53555f7a 	cmppl	r5, #488	; 0x1e8
    2dec:	57500042 	ldrbpl	r0, [r0, -r2, asr #32]
    2df0:	6572464d 	ldrbvs	r4, [r2, #-1613]!	; 0xfffff9b3
    2df4:	57500071 			; <UNDEFINED> instruction: 0x57500071
    2df8:	69445f4d 	stmdbvs	r4, {r0, r2, r3, r6, r8, r9, sl, fp, ip, lr}^
    2dfc:	53003876 	movwpl	r3, #2166	; 0x876
    2e00:	44415f43 	strbmi	r5, [r1], #-3907	; 0xfffff0bd
    2e04:	6c435f43 	mcrrvs	15, 4, r5, r3, cr3
    2e08:	746e496b 	strbtvc	r4, [lr], #-2411	; 0xfffff695
    2e0c:	696c6169 	stmdbvs	ip!, {r0, r3, r5, r6, r8, sp, lr}^
    2e10:	6974617a 	ldmdbvs	r4!, {r1, r3, r4, r5, r6, r8, sp, lr}^
    2e14:	4d006e6f 	stcmi	14, cr6, [r0, #-444]	; 0xfffffe44
    2e18:	6c75646f 	cfldrdvs	mvd6, [r5], #-444	; 0xfffffe44
    2e1c:	57503065 	ldrbpl	r3, [r0, -r5, rrx]
    2e20:	4353004d 	cmpmi	r3, #77	; 0x4d
    2e24:	6e6f435f 	mcrvs	3, 3, r4, cr15, cr15, {2}
    2e28:	75676966 	strbvc	r6, [r7, #-2406]!	; 0xfffff69a
    2e2c:	79536572 	ldmdbvc	r3, {r1, r4, r5, r6, r8, sl, sp, lr}^
    2e30:	76694473 			; <UNDEFINED> instruction: 0x76694473
    2e34:	65646f4d 	strbvs	r6, [r4, #-3917]!	; 0xfffff0b3
    2e38:	4300745f 	movwmi	r7, #1119	; 0x45f
    2e3c:	69666e6f 	stmdbvs	r6!, {r0, r1, r2, r3, r5, r6, r9, sl, fp, sp, lr}^
    2e40:	4d575067 	ldclmi	0, cr5, [r7, #-412]	; 0xfffffe64
    2e44:	75646f6d 	strbvc	r6, [r4, #-3949]!	; 0xfffff093
    2e48:	754e656c 	strbvc	r6, [lr, #-1388]	; 0xfffffa94
    2e4c:	6f4c006d 	svcvs	0x004c006d
    2e50:	65724677 	ldrbvs	r4, [r2, #-1655]!	; 0xfffff989
    2e54:	746e4971 	strbtvc	r4, [lr], #-2417	; 0xfffff68f
    2e58:	734f7265 	movtvc	r7, #62053	; 0xf265
    2e5c:	6c6c6963 			; <UNDEFINED> instruction: 0x6c6c6963
    2e60:	726f7461 	rsbvc	r7, pc, #1627389952	; 0x61000000
    2e64:	6e6f4300 	cdpvs	3, 6, cr4, cr15, cr0, {0}
    2e68:	75676966 	strbvc	r6, [r7, #-2406]!	; 0xfffff69a
    2e6c:	57506572 			; <UNDEFINED> instruction: 0x57506572
    2e70:	7669444d 	strbtvc	r4, [r9], -sp, asr #8
    2e74:	65646f4d 	strbvs	r6, [r4, #-3917]!	; 0xfffff0b3
    2e78:	776f5000 	strbvc	r5, [pc, -r0]!
    2e7c:	6f447265 	svcvs	0x00447265
    2e80:	53556e77 	cmppl	r5, #1904	; 0x770
    2e84:	4c4c5042 	mcrrmi	0, 4, r5, ip, cr2
    2e88:	53595300 	cmppl	r9, #0, 6
    2e8c:	32564944 	subscc	r4, r6, #68, 18	; 0x110000
    2e90:	0042534c 	subeq	r5, r2, ip, asr #6
    2e94:	505f4353 	subspl	r4, pc, r3, asr r3	; <UNPREDICTABLE>
    2e98:	6c434d57 	mcrrvs	13, 5, r4, r3, cr7
    2e9c:	746e496b 	strbtvc	r4, [lr], #-2411	; 0xfffff695
    2ea0:	696c6169 	stmdbvs	ip!, {r0, r3, r5, r6, r8, sp, lr}^
    2ea4:	6974617a 	ldmdbvs	r4!, {r1, r3, r4, r5, r6, r8, sp, lr}^
    2ea8:	4d006e6f 	stcmi	14, cr6, [r0, #-444]	; 0xfffffe44
    2eac:	4f6e6961 	svcmi	0x006e6961
    2eb0:	6c696373 	stclvs	3, cr6, [r9], #-460	; 0xfffffe34
    2eb4:	6f74616c 	svcvs	0x0074616c
    2eb8:	43520072 	cmpmi	r2, #114	; 0x72
    2ebc:	57504347 	ldrbpl	r4, [r0, -r7, asr #6]
    2ec0:	65525f4d 	ldrbvs	r5, [r2, #-3917]	; 0xfffff0b3
    2ec4:	57500067 	ldrbpl	r0, [r0, -r7, rrx]
    2ec8:	69445f4d 	stmdbvs	r4, {r0, r2, r3, r6, r8, r9, sl, fp, ip, lr}^
    2ecc:	50003276 	andpl	r3, r0, r6, ror r2
    2ed0:	4f5f4c4c 	svcmi	0x005f4c4c
    2ed4:	75707475 	ldrbvc	r7, [r0, #-1141]!	; 0xfffffb8b
    2ed8:	43520074 	cmpmi	r2, #116	; 0x74
    2edc:	65525f43 	ldrbvs	r5, [r2, #-3907]	; 0xfffff0bd
    2ee0:	57500067 	ldrbpl	r0, [r0, -r7, rrx]
    2ee4:	69445f4d 	stmdbvs	r4, {r0, r2, r3, r6, r8, r9, sl, fp, ip, lr}^
    2ee8:	53003476 	movwpl	r3, #1142	; 0x476
    2eec:	445f5359 	ldrbmi	r5, [pc], #-857	; 2ef4 <UART_InterruptFIFOLevelSelect+0x1ab4>
    2ef0:	00315649 	eorseq	r5, r1, r9, asr #12
    2ef4:	5f535953 	svcpl	0x00535953
    2ef8:	32564944 	subscc	r4, r6, #68, 18	; 0x110000
    2efc:	534f4d00 	movtpl	r4, #64768	; 0xfd00
    2f00:	776f5043 	strbvc	r5, [pc, -r3, asr #32]!
    2f04:	70557265 	subsvc	r7, r5, r5, ror #4
    2f08:	49776152 	ldmdbmi	r7!, {r1, r4, r6, r8, sp, lr}^
    2f0c:	7265746e 	rsbvc	r7, r5, #1845493760	; 0x6e000000
    2f10:	74707572 	ldrbtvc	r7, [r0], #-1394	; 0xfffffa8e
    2f14:	74617453 	strbtvc	r7, [r1], #-1107	; 0xfffffbad
    2f18:	50007375 	andpl	r7, r0, r5, ror r3
    2f1c:	6f504c4c 	svcvs	0x00504c4c
    2f20:	44726577 	ldrbtmi	r6, [r2], #-1399	; 0xfffffa89
    2f24:	006e776f 	rsbeq	r7, lr, pc, ror #14
    2f28:	5f535953 	svcpl	0x00535953
    2f2c:	35564944 	ldrbcc	r4, [r6, #-2372]	; 0xfffff6bc
    2f30:	65735500 	ldrbvs	r5, [r3, #-1280]!	; 0xfffffb00
    2f34:	32434352 	subcc	r4, r3, #1207959553	; 0x48000001
    2f38:	53595300 	cmppl	r9, #0, 6
    2f3c:	5649445f 			; <UNDEFINED> instruction: 0x5649445f
    2f40:	6f500037 	svcvs	0x00500037
    2f44:	44726577 	ldrbtmi	r6, [r2], #-1399	; 0xfffffa89
    2f48:	506e776f 	rsbpl	r7, lr, pc, ror #14
    2f4c:	53004c4c 	movwpl	r4, #3148	; 0xc4c
    2f50:	445f5359 	ldrbmi	r5, [pc], #-857	; 2f58 <UART_InterruptFIFOLevelSelect+0x1b18>
    2f54:	00395649 	eorseq	r5, r9, r9, asr #12
    2f58:	435f4353 	cmpmi	pc, #1275068417	; 0x4c000001
    2f5c:	69666e6f 	stmdbvs	r6!, {r0, r1, r2, r3, r5, r6, r9, sl, fp, sp, lr}^
    2f60:	65727567 	ldrbvs	r7, [r2, #-1383]!	; 0xfffffa99
    2f64:	444d5750 	strbmi	r5, [sp], #-1872	; 0xfffff8b0
    2f68:	6f4d7669 	svcvs	0x004d7669
    2f6c:	745f6564 	ldrbvc	r6, [pc], #-1380	; 2f74 <UART_InterruptFIFOLevelSelect+0x1b34>
    2f70:	5f435300 	svcpl	0x00435300
    2f74:	666e6f43 	strbtvs	r6, [lr], -r3, asr #30
    2f78:	72756769 	rsbsvc	r6, r5, #27525120	; 0x1a40000
    2f7c:	73795365 	cmnvc	r9, #-1811939327	; 0x94000001
    2f80:	5f766944 	svcpl	0x00766944
    2f84:	79530074 	ldmdbvc	r3, {r2, r4, r5, r6}^
    2f88:	6d657473 	cfstrdvs	mvd7, [r5, #-460]!	; 0xfffffe34
    2f8c:	636f6c43 	cmnvs	pc, #17152	; 0x4300
    2f90:	7669446b 	strbtvc	r4, [r9], -fp, ror #8
    2f94:	726f7369 	rsbvc	r7, pc, #-1543503871	; 0xa4000001
    2f98:	5f435300 	svcpl	0x00435300
    2f9c:	74696e49 	strbtvc	r6, [r9], #-3657	; 0xfffff1b7
    2fa0:	696c6169 	stmdbvs	ip!, {r0, r3, r5, r6, r8, sp, lr}^
    2fa4:	6974617a 	ldmdbvs	r4!, {r1, r3, r4, r5, r6, r8, sp, lr}^
    2fa8:	4d006e6f 	stcmi	14, cr6, [r0, #-444]	; 0xfffffe44
    2fac:	6c75646f 	cfldrdvs	mvd6, [r5], #-444	; 0xfffffe44
    2fb0:	57503165 	ldrbpl	r3, [r0, -r5, ror #2]
    2fb4:	5953004d 	ldmdbpl	r3, {r0, r2, r3, r6}^
    2fb8:	49445f53 	stmdbmi	r4, {r0, r1, r4, r6, r8, r9, sl, fp, ip, lr}^
    2fbc:	00303156 	eorseq	r3, r0, r6, asr r1
    2fc0:	5f535953 	svcpl	0x00535953
    2fc4:	31564944 	cmpcc	r6, r4, asr #18
    2fc8:	59530031 	ldmdbpl	r3, {r0, r4, r5}^
    2fcc:	49445f53 	stmdbmi	r4, {r0, r1, r4, r6, r8, r9, sl, fp, ip, lr}^
    2fd0:	00323156 	eorseq	r3, r2, r6, asr r1
    2fd4:	5f535953 	svcpl	0x00535953
    2fd8:	31564944 	cmpcc	r6, r4, asr #18
    2fdc:	59530033 	ldmdbpl	r3, {r0, r1, r4, r5}^
    2fe0:	49445f53 	stmdbmi	r4, {r0, r1, r4, r6, r8, r9, sl, fp, ip, lr}^
    2fe4:	00343156 	eorseq	r3, r4, r6, asr r1
    2fe8:	5f535953 	svcpl	0x00535953
    2fec:	31564944 	cmpcc	r6, r4, asr #18
    2ff0:	59530035 	ldmdbpl	r3, {r0, r2, r4, r5}^
    2ff4:	49445f53 	stmdbmi	r4, {r0, r1, r4, r6, r8, r9, sl, fp, ip, lr}^
    2ff8:	00363156 	eorseq	r3, r6, r6, asr r1
    2ffc:	74737953 	ldrbtvc	r7, [r3], #-2387	; 0xfffff6ad
    3000:	6c436d65 	mcrrvs	13, 6, r6, r3, cr5
    3004:	446b636f 	strbtmi	r6, [fp], #-879	; 0xfffffc91
    3008:	73697669 	cmnvc	r9, #110100480	; 0x6900000
    300c:	0032726f 	eorseq	r7, r2, pc, ror #4
    3010:	666e6f43 	strbtvs	r6, [lr], -r3, asr #30
    3014:	57506769 	ldrbpl	r6, [r0, -r9, ror #14]
    3018:	646f6d4d 	strbtvs	r6, [pc], #-3405	; 3020 <UART_InterruptFIFOLevelSelect+0x1be0>
    301c:	55656c75 	strbpl	r6, [r5, #-3189]!	; 0xfffff38b
    3020:	00646573 	rsbeq	r6, r4, r3, ror r5
    3024:	505f4353 	subspl	r4, pc, r3, asr r3	; <UNPREDICTABLE>
    3028:	6f434d57 	svcvs	0x00434d57
    302c:	6769666e 	strbvs	r6, [r9, -lr, ror #12]!
    3030:	74617275 	strbtvc	r7, [r1], #-629	; 0xfffffd8b
    3034:	5f6e6f69 	svcpl	0x006e6f69
    3038:	6e450074 	mcrvs	0, 2, r0, cr5, cr4, {3}
    303c:	656c6261 	strbvs	r6, [ip, #-609]!	; 0xfffffd9f
    3040:	434d5750 	movtmi	r5, #55120	; 0xd750
    3044:	6b636f6c 	blvs	18dedfc <UART_InterruptFIFOLevelSelect+0x18dd9bc>
    3048:	69766944 	ldmdbvs	r6!, {r2, r6, r8, fp, sp, lr}^
    304c:	00726f73 	rsbseq	r6, r2, r3, ror pc
    3050:	74737953 	ldrbtvc	r7, [r3], #-2387	; 0xfffff6ad
    3054:	6f436d65 	svcvs	0x00436d65
    3058:	6f72746e 	svcvs	0x0072746e
    305c:	6e6f436c 	cdpvs	3, 6, cr4, cr15, cr12, {3}
    3060:	5f676966 	svcpl	0x00676966
    3064:	4c500074 	mrrcmi	0, 7, r0, r0, cr4	; <UNPREDICTABLE>
    3068:	7079424c 	rsbsvc	r4, r9, ip, asr #4
    306c:	32737361 	rsbscc	r7, r3, #-2080374783	; 0x84000001
    3070:	4d575000 	ldclmi	0, cr5, [r7, #-0]
    3074:	7669445f 			; <UNDEFINED> instruction: 0x7669445f
    3078:	44003631 	strmi	r3, [r0], #-1585	; 0xfffff9cf
    307c:	30345649 	eorscc	r5, r4, r9, asr #12
    3080:	59530030 	ldmdbpl	r3, {r4, r5}^
    3084:	49445f53 	stmdbmi	r4, {r0, r1, r4, r6, r8, r9, sl, fp, ip, lr}^
    3088:	53003356 	movwpl	r3, #854	; 0x356
    308c:	445f5359 	ldrbmi	r5, [pc], #-857	; 3094 <UART_InterruptFIFOLevelSelect+0x1c54>
    3090:	00345649 	eorseq	r5, r4, r9, asr #12
    3094:	475f4353 			; <UNDEFINED> instruction: 0x475f4353
    3098:	57507465 	ldrbpl	r7, [r0, -r5, ror #8]
    309c:	6572464d 	ldrbvs	r4, [r2, #-1613]!	; 0xfffff9b3
    30a0:	6e657571 	mcrvs	5, 3, r7, cr5, cr1, {3}
    30a4:	53007963 	movwpl	r7, #2403	; 0x963
    30a8:	6f435f43 	svcvs	0x00435f43
    30ac:	6769666e 	strbvs	r6, [r9, -lr, ror #12]!
    30b0:	6d4d5750 	stclvs	7, cr5, [sp, #-320]	; 0xfffffec0
    30b4:	6c75646f 	cfldrdvs	mvd6, [r5], #-444	; 0xfffffe44
    30b8:	6d754e65 	ldclvs	14, cr4, [r5, #-404]!	; 0xfffffe6c
    30bc:	5300745f 	movwpl	r7, #1119	; 0x45f
    30c0:	445f5359 	ldrbmi	r5, [pc], #-857	; 30c8 <UART_InterruptFIFOLevelSelect+0x1c88>
    30c4:	00385649 	eorseq	r5, r8, r9, asr #12
    30c8:	7074754f 	rsbsvc	r7, r4, pc, asr #10
    30cc:	6f537475 	svcvs	0x00537475
    30d0:	65637275 	strbvs	r7, [r3, #-629]!	; 0xfffffd8b
    30d4:	4c4c5000 	marmi	acc0, r5, ip
    30d8:	61707942 	cmnvs	r0, r2, asr #18
    30dc:	4f007373 	svcmi	0x00007373
    30e0:	4f5f4353 	svcmi	0x005f4353
    30e4:	75707475 	ldrbvc	r7, [r0, #-1141]!	; 0xfffffb8b
    30e8:	72500074 	subsvc	r0, r0, #116	; 0x74
    30ec:	73696365 	cmnvc	r9, #-1811939327	; 0x94000001
    30f0:	496e6f69 	stmdbmi	lr!, {r0, r3, r5, r6, r8, r9, sl, fp, sp, lr}^
    30f4:	7265746e 	rsbvc	r7, r5, #1845493760	; 0x6e000000
    30f8:	6963734f 	stmdbvs	r3!, {r0, r1, r2, r3, r6, r8, r9, ip, sp, lr}^
    30fc:	74616c6c 	strbtvc	r6, [r1], #-3180	; 0xfffff394
    3100:	4944726f 	stmdbmi	r4, {r0, r1, r2, r3, r5, r6, r9, ip, sp, lr}^
    3104:	42003456 	andmi	r3, r0, #1442840576	; 0x56000000
    3108:	5230524f 	eorspl	r5, r0, #-268435452	; 0xf0000004
    310c:	5f005349 	svcpl	0x00005349
    3110:	7a484d38 	bvc	12165f8 <UART_InterruptFIFOLevelSelect+0x12151b8>
    3114:	4253555f 	subsmi	r5, r3, #398458880	; 0x17c00000
    3118:	73795300 	cmnvc	r9, #0, 6
    311c:	436d6574 	cmnmi	sp, #116, 10	; 0x1d000000
    3120:	72746e6f 	rsbsvc	r6, r4, #1776	; 0x6f0
    3124:	632e6c6f 			; <UNDEFINED> instruction: 0x632e6c6f
    3128:	63734f00 	cmnvs	r3, #0, 30
    312c:	616c6c69 	cmnvs	ip, r9, ror #24
    3130:	53726f74 	cmnpl	r2, #116, 30	; 0x1d0
    3134:	6372756f 	cmnvs	r2, #465567744	; 0x1bc00000
    3138:	4d003265 	sfmmi	f3, 4, [r0, #-404]	; 0xfffffe6c
    313c:	4f6e6961 	svcmi	0x006e6961
    3140:	6c696373 	stclvs	3, cr6, [r9], #-460	; 0xfffffe34
    3144:	6f74616c 	svcvs	0x0074616c
    3148:	73694472 	cmnvc	r9, #1912602624	; 0x72000000
    314c:	656c6261 	strbvs	r6, [ip, #-609]!	; 0xfffffd9f
    3150:	5f435300 	svcpl	0x00435300
    3154:	666e6f43 	strbtvs	r6, [lr], -r3, asr #30
    3158:	72756769 	rsbsvc	r6, r5, #27525120	; 0x1a40000
    315c:	4d575065 	ldclmi	0, cr5, [r7, #-404]	; 0xfffffe6c
    3160:	5f766944 	svcpl	0x00766944
    3164:	315f0074 	cmpcc	pc, r4, ror r0	; <UNPREDICTABLE>
    3168:	7a484d30 	bvc	1216630 <UART_InterruptFIFOLevelSelect+0x12151f0>
    316c:	4253555f 	subsmi	r5, r3, #398458880	; 0x17c00000
    3170:	53595300 	cmppl	r9, #0, 6
    3174:	5649445f 			; <UNDEFINED> instruction: 0x5649445f
    3178:	69440036 	stmdbvs	r4, {r1, r2, r4, r5}^
    317c:	6c626173 	stfvse	f6, [r2], #-460	; 0xfffffe34
    3180:	73795365 	cmnvc	r9, #-1811939327	; 0x94000001
    3184:	00766944 	rsbseq	r6, r6, r4, asr #18
    3188:	41444456 	cmpmi	r4, r6, asr r4
    318c:	00534952 	subseq	r4, r3, r2, asr r9
    3190:	52464f4d 	subpl	r4, r6, #308	; 0x134
    3194:	43005349 	movwmi	r5, #841	; 0x349
    3198:	69666e6f 	stmdbvs	r6!, {r0, r1, r2, r3, r5, r6, r9, sl, fp, sp, lr}^
    319c:	65727567 	ldrbvs	r7, [r2, #-1383]!	; 0xfffffa99
    31a0:	444d5750 	strbmi	r5, [sp], #-1872	; 0xfffff8b0
    31a4:	43007669 	movwmi	r7, #1641	; 0x669
    31a8:	69666e6f 	stmdbvs	r6!, {r0, r1, r2, r3, r5, r6, r9, sl, fp, sp, lr}^
    31ac:	65727567 	ldrbvs	r7, [r2, #-1383]!	; 0xfffffa99
    31b0:	44737953 	ldrbtmi	r7, [r3], #-2387	; 0xfffff6ad
    31b4:	6f4d7669 	svcvs	0x004d7669
    31b8:	44006564 	strmi	r6, [r0], #-1380	; 0xfffffa9c
    31bc:	62617369 	rsbvs	r7, r1, #-1543503871	; 0xa4000001
    31c0:	5750656c 	ldrbpl	r6, [r0, -ip, ror #10]
    31c4:	6b6c434d 	blvs	1b13f00 <UART_InterruptFIFOLevelSelect+0x1b12ac0>
    31c8:	00766944 	rsbseq	r6, r6, r4, asr #18
    31cc:	74737953 	ldrbtvc	r7, [r3], #-2387	; 0xfffff6ad
    31d0:	6f436d65 	svcvs	0x00436d65
    31d4:	6f72746e 	svcvs	0x0072746e
    31d8:	6f435f6c 	svcvs	0x00435f6c
    31dc:	6769666e 	strbvs	r6, [r9, -lr, ror #12]!
    31e0:	4300632e 	movwmi	r6, #814	; 0x32e
    31e4:	69666e6f 	stmdbvs	r6!, {r0, r1, r2, r3, r5, r6, r9, sl, fp, sp, lr}^
    31e8:	73795367 	cmnvc	r9, #-1677721599	; 0x9c000001
    31ec:	536d6574 	cmnpl	sp, #116, 10	; 0x1d000000
    31f0:	505f6372 	subspl	r6, pc, r2, ror r3	; <UNPREDICTABLE>
    31f4:	69636572 	stmdbvs	r3!, {r1, r4, r5, r6, r8, sl, sp, lr}^
    31f8:	6e6f6973 			; <UNDEFINED> instruction: 0x6e6f6973
    31fc:	65746e49 	ldrbvs	r6, [r4, #-3657]!	; 0xfffff1b7
    3200:	6c616e72 	stclvs	14, cr6, [r1], #-456	; 0xfffffe38
    3204:	5f43534f 	svcpl	0x0043534f
    3208:	34564944 	ldrbcc	r4, [r6], #-2372	; 0xfffff6bc
    320c:	6e6f4300 	cdpvs	3, 6, cr4, cr15, cr0, {0}
    3210:	53676966 	cmnpl	r7, #1671168	; 0x198000
    3214:	65747379 	ldrbvs	r7, [r4, #-889]!	; 0xfffffc87
    3218:	6372536d 	cmnvs	r2, #-1275068415	; 0xb4000001
    321c:	6572505f 	ldrbvs	r5, [r2, #-95]!	; 0xffffffa1
    3220:	69736963 	ldmdbvs	r3!, {r0, r1, r5, r6, r8, fp, sp, lr}^
    3224:	6e496e6f 	cdpvs	14, 4, cr6, cr9, cr15, {3}
    3228:	6e726574 	mrcvs	5, 3, r6, cr2, cr4, {3}
    322c:	534f6c61 	movtpl	r6, #64609	; 0xfc61
    3230:	57500043 	ldrbpl	r0, [r0, -r3, asr #32]
    3234:	6f4d5f4d 	svcvs	0x004d5f4d
    3238:	656c7564 	strbvs	r7, [ip, #-1380]!	; 0xfffffa9c
    323c:	6f430030 	svcvs	0x00430030
    3240:	6769666e 	strbvs	r6, [r9, -lr, ror #12]!
    3244:	74737953 	ldrbtvc	r7, [r3], #-2387	; 0xfffff6ad
    3248:	72536d65 	subsvc	r6, r3, #6464	; 0x1940
    324c:	4c505f63 	mrrcmi	15, 6, r5, r0, cr3
    3250:	5453004c 	ldrbpl	r0, [r3], #-76	; 0xffffffb4
    3254:	4f4c4552 	svcmi	0x004c4552
    3258:	525f4441 	subspl	r4, pc, #1090519040	; 0x41000000
    325c:	43006765 	movwmi	r6, #1893	; 0x765
    3260:	544e554f 	strbpl	r5, [lr], #-1359	; 0xfffffab1
    3264:	73795300 	cmnvc	r9, #0, 6
    3268:	6b636974 	blvs	18dd840 <UART_InterruptFIFOLevelSelect+0x18dc400>
    326c:	536b6c43 	cmnpl	fp, #17152	; 0x4300
    3270:	6372756f 	cmnvs	r2, #465567744	; 0x1bc00000
    3274:	72465f65 	subvc	r5, r6, #404	; 0x194
    3278:	61567165 	cmpvs	r6, r5, ror #2
    327c:	6552006c 	ldrbvs	r0, [r2, #-108]	; 0xffffff94
    3280:	6c466461 	cfstrdvs	mvd6, [r6], {97}	; 0x61
    3284:	49006761 	stmdbmi	r0, {r0, r5, r6, r8, r9, sl, sp, lr}
    3288:	4e45544e 	cdpmi	4, 4, cr5, cr5, cr14, {2}
    328c:	73795300 	cmnvc	r9, #0, 6
    3290:	6b636974 	blvs	18dd868 <UART_InterruptFIFOLevelSelect+0x18dc428>
    3294:	646e6148 	strbtvs	r6, [lr], #-328	; 0xfffffeb8
    3298:	0072656c 	rsbseq	r6, r2, ip, ror #10
    329c:	54737953 	ldrbtpl	r7, [r3], #-2387	; 0xfffff6ad
    32a0:	476b6369 	strbmi	r6, [fp, -r9, ror #6]!
    32a4:	72656e65 	rsbvc	r6, r5, #1616	; 0x650
    32a8:	44657461 	strbtmi	r7, [r5], #-1121	; 0xfffffb9f
    32ac:	79616c65 	stmdbvc	r1!, {r0, r2, r5, r6, sl, fp, sp, lr}^
    32b0:	6c6f505f 	stclvs	0, cr5, [pc], #-380	; 313c <UART_InterruptFIFOLevelSelect+0x1cfc>
    32b4:	676e696c 	strbvs	r6, [lr, -ip, ror #18]!
    32b8:	73795300 	cmnvc	r9, #0, 6
    32bc:	6b636974 	blvs	18dd894 <UART_InterruptFIFOLevelSelect+0x18dc454>
    32c0:	6c61435f 	stclvs	3, cr4, [r1], #-380	; 0xfffffe84
    32c4:	6361626c 	cmnvs	r1, #108, 4	; 0xc0000006
    32c8:	4552006b 	ldrbmi	r0, [r2, #-107]	; 0xffffff95
    32cc:	44414f4c 	strbmi	r4, [r1], #-3916	; 0xfffff0b4
    32d0:	4b4c4300 	blmi	1313ed8 <UART_InterruptFIFOLevelSelect+0x1312a98>
    32d4:	4352535f 	cmpmi	r2, #2080374785	; 0x7c000001
    32d8:	73795300 	cmnvc	r9, #0, 6
    32dc:	6b636954 	blvs	18dd834 <UART_InterruptFIFOLevelSelect+0x18dc3f4>
    32e0:	71657246 	cmnvc	r5, r6, asr #4
    32e4:	636e6575 	cmnvs	lr, #490733568	; 0x1d400000
    32e8:	74654779 	strbtvc	r4, [r5], #-1913	; 0xfffff887
    32ec:	73795300 	cmnvc	r9, #0, 6
    32f0:	6b636954 	blvs	18dd848 <UART_InterruptFIFOLevelSelect+0x18dc408>
    32f4:	62616e45 	rsbvs	r6, r1, #1104	; 0x450
    32f8:	4500656c 	strmi	r6, [r0, #-1388]	; 0xfffffa94
    32fc:	4c42414e 	stfmie	f4, [r2], {78}	; 0x4e
    3300:	79530045 	ldmdbvc	r3, {r0, r2, r6}^
    3304:	63697473 	cmnvs	r9, #1929379840	; 0x73000000
    3308:	6d69546b 	cfstrdvs	mvd5, [r9, #-428]!	; 0xfffffe54
    330c:	632e7265 			; <UNDEFINED> instruction: 0x632e7265
    3310:	73795300 	cmnvc	r9, #0, 6
    3314:	6b636954 	blvs	18dd86c <UART_InterruptFIFOLevelSelect+0x18dc42c>
    3318:	666e6f43 	strbtvs	r6, [lr], -r3, asr #30
    331c:	72756769 	rsbsvc	r6, r5, #27525120	; 0x1a40000
    3320:	6f6c4365 	svcvs	0x006c4365
    3324:	6f536b63 	svcvs	0x00536b63
    3328:	65637275 	strbvs	r7, [r3, #-629]!	; 0xfffffd8b
    332c:	73795300 	cmnvc	r9, #0, 6
    3330:	6b636954 	blvs	18dd888 <UART_InterruptFIFOLevelSelect+0x18dc448>
    3334:	61736944 	cmnvs	r3, r4, asr #18
    3338:	00656c62 	rsbeq	r6, r5, r2, ror #24
    333c:	74737953 	ldrbtvc	r7, [r3], #-2387	; 0xfffff6ad
    3340:	5f6b6369 	svcpl	0x006b6369
    3344:	61656c43 	cmnvs	r5, r3, asr #24
    3348:	616c4672 	smcvs	50274	; 0xc462
    334c:	79530067 	ldmdbvc	r3, {r0, r1, r2, r5, r6}^
    3350:	63697473 	cmnvs	r9, #1929379840	; 0x73000000
    3354:	65525f6b 	ldrbvs	r5, [r2, #-3947]	; 0xfffff095
    3358:	74736967 	ldrbtvc	r6, [r3], #-2407	; 0xfffff699
    335c:	61437265 	cmpvs	r3, r5, ror #4
    3360:	61626c6c 	cmnvs	r2, ip, ror #24
    3364:	75466b63 	strbvc	r6, [r6, #-2915]	; 0xfffff49d
    3368:	6974636e 	ldmdbvs	r4!, {r1, r2, r3, r5, r6, r8, r9, sp, lr}^
    336c:	53006e6f 	movwpl	r6, #3695	; 0xe6f
    3370:	52544354 	subspl	r4, r4, #84, 6	; 0x50000001
    3374:	65525f4c 	ldrbvs	r5, [r2, #-3916]	; 0xfffff0b4
    3378:	79530067 	ldmdbvc	r3, {r0, r1, r2, r5, r6}^
    337c:	63697473 	cmnvs	r9, #1929379840	; 0x73000000
    3380:	6c435f6b 	mcrrvs	15, 6, r5, r3, cr11
    3384:	756f536b 	strbvc	r5, [pc, #-875]!	; 3021 <UART_InterruptFIFOLevelSelect+0x1be1>
    3388:	00656372 	rsbeq	r6, r5, r2, ror r3
    338c:	54737953 	ldrbtpl	r7, [r3], #-2387	; 0xfffff6ad
    3390:	476b6369 	strbmi	r6, [fp, -r9, ror #6]!
    3394:	72656e65 	rsbvc	r6, r5, #1616	; 0x650
    3398:	44657461 	strbtmi	r7, [r5], #-1121	; 0xfffffb9f
    339c:	79616c65 	stmdbvc	r1!, {r0, r2, r5, r6, sl, fp, sp, lr}^
    33a0:	746e495f 	strbtvc	r4, [lr], #-2399	; 0xfffff6a1
    33a4:	75727265 	ldrbvc	r7, [r2, #-613]!	; 0xfffffd9b
    33a8:	50007470 	andpl	r7, r0, r0, ror r4
    33ac:	74697261 	strbtvc	r7, [r9], #-609	; 0xfffffd9f
    33b0:	72724579 	rsbsvc	r4, r2, #507510784	; 0x1e400000
    33b4:	6e49726f 	cdpvs	2, 4, cr7, cr9, cr15, {3}
    33b8:	72726574 	rsbsvc	r6, r2, #116, 10	; 0x1d000000
    33bc:	43747075 	cmnmi	r4, #117	; 0x75
    33c0:	7261656c 	rsbvc	r6, r1, #108, 10	; 0x1b000000
    33c4:	6f775400 	svcvs	0x00775400
    33c8:	706f7453 	rsbvc	r7, pc, r3, asr r4	; <UNPREDICTABLE>
    33cc:	73746942 	cmnvc	r4, #1081344	; 0x108000
    33d0:	656c6553 	strbvs	r6, [ip, #-1363]!	; 0xfffffaad
    33d4:	55007463 	strpl	r7, [r0, #-1123]	; 0xfffffb9d
    33d8:	37545241 	ldrbcc	r5, [r4, -r1, asr #4]
    33dc:	746e495f 	strbtvc	r4, [lr], #-2399	; 0xfffff6a1
    33e0:	646e6148 	strbtvs	r6, [lr], #-328	; 0xfffffeb8
    33e4:	0072656c 	rsbseq	r6, r2, ip, ror #10
    33e8:	43474352 	movtmi	r4, #29522	; 0x7352
    33ec:	54524155 	ldrbpl	r4, [r2], #-341	; 0xfffffeab
    33f0:	6765525f 			; <UNDEFINED> instruction: 0x6765525f
    33f4:	5f315f00 	svcpl	0x00315f00
    33f8:	5f564944 	svcpl	0x00564944
    33fc:	6d455f38 	stclvs	15, cr5, [r5, #-224]	; 0xffffff20
    3400:	00797470 	rsbseq	r7, r9, r0, ror r4
    3404:	54524155 	ldrbpl	r4, [r2], #-341	; 0xfffffeab
    3408:	525f5244 	subspl	r5, pc, #68, 4	; 0x40000004
    340c:	55006765 	strpl	r6, [r0, #-1893]	; 0xfffff89b
    3410:	5f545241 	svcpl	0x00545241
    3414:	5f414d44 	svcpl	0x00414d44
    3418:	6f6c6552 	svcvs	0x006c6552
    341c:	505f6461 	subspl	r6, pc, r1, ror #8
    3420:	616d6972 	smcvs	54930	; 0xd692
    3424:	6f437972 	svcvs	0x00437972
    3428:	6f72746e 	svcvs	0x0072746e
    342c:	7274536c 	rsbsvc	r5, r4, #108, 6	; 0xb0000001
    3430:	75746375 	ldrbvc	r6, [r4, #-885]!	; 0xfffffc8b
    3434:	54006572 	strpl	r6, [r0], #-1394	; 0xfffffa8e
    3438:	736e6172 	cmnvc	lr, #-2147483620	; 0x8000001c
    343c:	4674696d 	ldrbtmi	r6, [r4], -sp, ror #18
    3440:	454f4649 	strbmi	r4, [pc, #-1609]	; 2dff <UART_InterruptFIFOLevelSelect+0x19bf>
    3444:	7974706d 	ldmdbvc	r4!, {r0, r2, r3, r5, r6, ip, sp, lr}^
    3448:	53544300 	cmppl	r4, #0, 6
    344c:	0043494d 	subeq	r4, r3, sp, asr #18
    3450:	435f7470 	cmpmi	pc, #112, 8	; 0x70000000
    3454:	69666e6f 	stmdbvs	r6!, {r0, r1, r2, r3, r5, r6, r9, sl, fp, sp, lr}^
    3458:	65520067 	ldrbvs	r0, [r2, #-103]	; 0xffffff99
    345c:	76696563 	strbtvc	r6, [r9], -r3, ror #10
    3460:	6d695465 	cfstrdvs	mvd5, [r9, #-404]!	; 0xfffffe6c
    3464:	74754f65 	ldrbtvc	r4, [r5], #-3941	; 0xfffff09b
    3468:	6b73614d 	blvs	1cdb9a4 <UART_InterruptFIFOLevelSelect+0x1cda564>
    346c:	6e496465 	cdpvs	4, 4, cr6, cr9, cr5, {3}
    3470:	72726574 	rsbsvc	r6, r2, #116, 10	; 0x1d000000
    3474:	53747075 	cmnpl	r4, #117	; 0x75
    3478:	75746174 	ldrbvc	r6, [r4, #-372]!	; 0xfffffe8c
    347c:	54430073 	strbpl	r0, [r3], #-115	; 0xffffff8d
    3480:	53494d53 	movtpl	r4, #40275	; 0x9d53
    3484:	52415500 	subpl	r5, r1, #0, 10
    3488:	435f3454 	cmpmi	pc, #84, 8	; 0x54000000
    348c:	626c6c61 	rsbvs	r6, ip, #24832	; 0x6100
    3490:	006b6361 	rsbeq	r6, fp, r1, ror #6
    3494:	54524155 	ldrbpl	r4, [r2], #-341	; 0xfffffeab
    3498:	525f4d49 	subspl	r4, pc, #4672	; 0x1240
    349c:	55006765 	strpl	r6, [r0, #-1893]	; 0xfffff89b
    34a0:	45545241 	ldrbmi	r5, [r4, #-577]	; 0xfffffdbf
    34a4:	6c62616e 	stfvse	f6, [r2], #-440	; 0xfffffe48
    34a8:	6f570065 	svcvs	0x00570065
    34ac:	654c6472 	strbvs	r6, [ip, #-1138]	; 0xfffffb8e
    34b0:	6874676e 	ldmdavs	r4!, {r1, r2, r3, r5, r6, r8, r9, sl, sp, lr}^
    34b4:	73656400 	cmnvc	r5, #0, 8
    34b8:	64644174 	strbtvs	r4, [r4], #-372	; 0xfffffe8c
    34bc:	73736572 	cmnvc	r3, #478150656	; 0x1c800000
    34c0:	66667542 	strbtvs	r7, [r6], -r2, asr #10
    34c4:	45007265 	strmi	r7, [r0, #-613]	; 0xfffffd9b
    34c8:	6c62616e 	stfvse	f6, [r2], #-440	; 0xfffffe48
    34cc:	71655265 	cmnvc	r5, r5, ror #4
    34d0:	74736575 	ldrbtvc	r6, [r3], #-1397	; 0xfffffa8b
    34d4:	65536f54 	ldrbvs	r6, [r3, #-3924]	; 0xfffff0ac
    34d8:	5300646e 	movwpl	r6, #1134	; 0x46e
    34dc:	6b636974 	blvs	18ddab4 <UART_InterruptFIFOLevelSelect+0x18dc674>
    34e0:	69726150 	ldmdbvs	r2!, {r4, r6, r8, sp, lr}^
    34e4:	65537974 	ldrbvs	r7, [r3, #-2420]	; 0xfffff68c
    34e8:	7463656c 	strbtvc	r6, [r3], #-1388	; 0xfffffa94
    34ec:	52415500 	subpl	r5, r1, #0, 10
    34f0:	00632e54 	rsbeq	r2, r3, r4, asr lr
    34f4:	54524155 	ldrbpl	r4, [r2], #-341	; 0xfffffeab
    34f8:	6365525f 	cmnvs	r5, #-268435451	; 0xf0000005
    34fc:	65766965 	ldrbvs	r6, [r6, #-2405]!	; 0xfffff69b
    3500:	414d445f 	cmpmi	sp, pc, asr r4
    3504:	52415500 	subpl	r5, r1, #0, 10
    3508:	6e495f54 	mcrvs	15, 2, r5, cr9, cr4, {2}
    350c:	72726574 	rsbsvc	r6, r2, #116, 10	; 0x1d000000
    3510:	4d747075 	ldclmi	0, cr7, [r4, #-468]!	; 0xfffffe2c
    3514:	436b7361 	cmnmi	fp, #-2080374783	; 0x84000001
    3518:	69666e6f 	stmdbvs	r6!, {r0, r1, r2, r3, r5, r6, r9, sl, fp, sp, lr}^
    351c:	00745f67 	rsbseq	r5, r4, r7, ror #30
    3520:	61657242 	cmnvs	r5, r2, asr #4
    3524:	7272456b 	rsbsvc	r4, r2, #448790528	; 0x1ac00000
    3528:	614d726f 	cmpvs	sp, pc, ror #4
    352c:	64656b73 	strbtvs	r6, [r5], #-2931	; 0xfffff48d
    3530:	65746e49 	ldrbvs	r6, [r4, #-3657]!	; 0xfffff1b7
    3534:	70757272 	rsbsvc	r7, r5, r2, ror r2
    3538:	61745374 	cmnvs	r4, r4, ror r3
    353c:	00737574 	rsbseq	r7, r3, r4, ror r5
    3540:	54524155 	ldrbpl	r4, [r2], #-341	; 0xfffffeab
    3544:	65525f33 	ldrbvs	r5, [r2, #-3891]	; 0xfffff0cd
    3548:	74736967 	ldrbtvc	r6, [r3], #-2407	; 0xfffff699
    354c:	61437265 	cmpvs	r3, r5, ror #4
    3550:	61626c6c 	cmnvs	r2, ip, ror #24
    3554:	75466b63 	strbvc	r6, [r6, #-2915]	; 0xfffff49d
    3558:	6974636e 	ldmdbvs	r4!, {r1, r2, r3, r5, r6, r8, r9, sp, lr}^
    355c:	50006e6f 	andpl	r6, r0, pc, ror #28
    3560:	74697261 	strbtvc	r7, [r9], #-609	; 0xfffffd9f
    3564:	72724579 	rsbsvc	r4, r2, #507510784	; 0x1e400000
    3568:	4300726f 	movwmi	r7, #623	; 0x26f
    356c:	4d495354 	stclmi	3, cr5, [r9, #-336]	; 0xfffffeb0
    3570:	414d5300 	mrsmi	r5, (UNDEF: 125)
    3574:	55005452 	strpl	r5, [r0, #-1106]	; 0xfffffbae
    3578:	33545241 	cmpcc	r4, #268435460	; 0x10000004
    357c:	6c61435f 	stclvs	3, cr4, [r1], #-380	; 0xfffffe84
    3580:	6361626c 	cmnvs	r1, #108, 4	; 0xc0000006
    3584:	4155006b 	cmpmi	r5, fp, rrx
    3588:	5f325452 	svcpl	0x00325452
    358c:	6c6c6143 	stfvse	f6, [ip], #-268	; 0xfffffef4
    3590:	6b636162 	blvs	18dbb20 <UART_InterruptFIFOLevelSelect+0x18da6e0>
    3594:	72615000 	rsbvc	r5, r1, #0
    3598:	45797469 	ldrbmi	r7, [r9, #-1129]!	; 0xfffffb97
    359c:	726f7272 	rsbvc	r7, pc, #536870919	; 0x20000007
    35a0:	6b73614d 	blvs	1cdbadc <UART_InterruptFIFOLevelSelect+0x1cda69c>
    35a4:	6e496465 	cdpvs	4, 4, cr6, cr9, cr5, {3}
    35a8:	72726574 	rsbsvc	r6, r2, #116, 10	; 0x1d000000
    35ac:	53747075 	cmnpl	r4, #117	; 0x75
    35b0:	75746174 	ldrbvc	r6, [r4, #-372]!	; 0xfffffe8c
    35b4:	4d440073 	stclmi	0, cr0, [r4, #-460]	; 0xfffffe34
    35b8:	456e4f41 	strbmi	r4, [lr, #-3905]!	; 0xfffff0bf
    35bc:	726f7272 	rsbvc	r7, pc, #536870919	; 0x20000007
    35c0:	52415500 	subpl	r5, r1, #0, 10
    35c4:	435f3654 	cmpmi	pc, #84, 12	; 0x5400000
    35c8:	626c6c61 	rsbvs	r6, ip, #24832	; 0x6100
    35cc:	006b6361 	rsbeq	r6, fp, r1, ror #6
    35d0:	65636552 	strbvs	r6, [r3, #-1362]!	; 0xfffffaae
    35d4:	44657669 	strbtmi	r7, [r5], #-1641	; 0xfffff997
    35d8:	6e45414d 	dvfvssm	f4, f5, #5.0
    35dc:	656c6261 	strbvs	r6, [ip, #-609]!	; 0xfffffd9f
    35e0:	52415500 	subpl	r5, r1, #0, 10
    35e4:	525f3254 	subspl	r3, pc, #84, 4	; 0x40000005
    35e8:	73696765 	cmnvc	r9, #26476544	; 0x1940000
    35ec:	43726574 	cmnmi	r2, #116, 10	; 0x1d000000
    35f0:	626c6c61 	rsbvs	r6, ip, #24832	; 0x6100
    35f4:	466b6361 	strbtmi	r6, [fp], -r1, ror #6
    35f8:	74636e75 	strbtvc	r6, [r3], #-3701	; 0xfffff18b
    35fc:	006e6f69 	rsbeq	r6, lr, r9, ror #30
    3600:	54524155 	ldrbpl	r4, [r2], #-341	; 0xfffffeab
    3604:	616c465f 	cmnvs	ip, pc, asr r6
    3608:	67655267 	strbvs	r5, [r5, -r7, ror #4]!
    360c:	65747369 	ldrbvs	r7, [r4, #-873]!	; 0xfffffc97
    3610:	46007372 			; <UNDEFINED> instruction: 0x46007372
    3614:	696d6172 	stmdbvs	sp!, {r1, r4, r5, r6, r8, sp, lr}^
    3618:	7245676e 	subvc	r6, r5, #28835840	; 0x1b80000
    361c:	49726f72 	ldmdbmi	r2!, {r1, r4, r5, r6, r8, r9, sl, fp, sp, lr}^
    3620:	7265746e 	rsbvc	r7, r5, #1845493760	; 0x6e000000
    3624:	74707572 	ldrbtvc	r7, [r0], #-1394	; 0xfffffa8e
    3628:	6b73614d 	blvs	1cdbb64 <UART_InterruptFIFOLevelSelect+0x1cda724>
    362c:	6f6f4c00 	svcvs	0x006f4c00
    3630:	63614270 	cmnvs	r1, #112, 4
    3634:	616e456b 	cmnvs	lr, fp, ror #10
    3638:	00656c62 	rsbeq	r6, r5, r2, ror #24
    363c:	46495854 			; <UNDEFINED> instruction: 0x46495854
    3640:	4c45534c 	mcrrmi	3, 4, r5, r5, cr12
    3644:	52415500 	subpl	r5, r1, #0, 10
    3648:	614d5f54 	cmpvs	sp, r4, asr pc
    364c:	64656b73 	strbtvs	r6, [r5], #-2931	; 0xfffff48d
    3650:	65746e49 	ldrbvs	r6, [r4, #-3657]!	; 0xfffff1b7
    3654:	70757272 	rsbsvc	r7, r5, r2, ror r2
    3658:	61745374 	cmnvs	r4, r4, ror r3
    365c:	52737574 	rsbspl	r7, r3, #116, 10	; 0x1d000000
    3660:	73696765 	cmnvc	r9, #26476544	; 0x1940000
    3664:	73726574 	cmnvc	r2, #116, 10	; 0x1d000000
    3668:	746e4900 	strbtvc	r4, [lr], #-2304	; 0xfffff700
    366c:	72656765 	rsbvc	r6, r5, #26476544	; 0x1940000
    3670:	64756142 	ldrbtvs	r6, [r5], #-322	; 0xfffffebe
    3674:	65746152 	ldrbvs	r6, [r4, #-338]!	; 0xfffffeae
    3678:	69766944 	ldmdbvs	r6!, {r2, r6, r8, fp, sp, lr}^
    367c:	00726f73 	rsbseq	r6, r2, r3, ror pc
    3680:	65636552 	strbvs	r6, [r3, #-1362]!	; 0xfffffaae
    3684:	46657669 	strbtmi	r7, [r5], -r9, ror #12
    3688:	464f4649 	strbmi	r4, [pc], -r9, asr #12
    368c:	006c6c75 	rsbeq	r6, ip, r5, ror ip
    3690:	54524155 	ldrbpl	r4, [r2], #-341	; 0xfffffeab
    3694:	5152495f 	cmppl	r2, pc, asr r9
    3698:	0045465f 	subeq	r4, r5, pc, asr r6
    369c:	54524155 	ldrbpl	r4, [r2], #-341	; 0xfffffeab
    36a0:	6e495f35 	mcrvs	15, 2, r5, cr9, cr5, {1}
    36a4:	6e614874 	mcrvs	8, 3, r4, cr1, cr4, {3}
    36a8:	72656c64 	rsbvc	r6, r5, #100, 24	; 0x6400
    36ac:	67694800 	strbvs	r4, [r9, -r0, lsl #16]!
    36b0:	65705368 	ldrbvs	r5, [r0, #-872]!	; 0xfffffc98
    36b4:	6e456465 	cdpvs	4, 4, cr6, cr5, cr5, {3}
    36b8:	656c6261 	strbvs	r6, [ip, #-609]!	; 0xfffffd9f
    36bc:	52415500 	subpl	r5, r1, #0, 10
    36c0:	6c435f54 	mcrrvs	15, 5, r5, r3, cr4
    36c4:	436b636f 	cmnmi	fp, #-1140850687	; 0xbc000001
    36c8:	69666e6f 	stmdbvs	r6!, {r0, r1, r2, r3, r5, r6, r9, sl, fp, sp, lr}^
    36cc:	61727567 	cmnvs	r2, r7, ror #10
    36d0:	6e6f6974 			; <UNDEFINED> instruction: 0x6e6f6974
    36d4:	69676552 	stmdbvs	r7!, {r1, r4, r6, r8, sl, sp, lr}^
    36d8:	72657473 	rsbvc	r7, r5, #1929379840	; 0x73000000
    36dc:	41550073 	cmpmi	r5, r3, ror r0
    36e0:	46495452 			; <UNDEFINED> instruction: 0x46495452
    36e4:	525f534c 	subspl	r5, pc, #76, 6	; 0x30000001
    36e8:	52006765 	andpl	r6, r0, #26476544	; 0x1940000
    36ec:	69656365 	stmdbvs	r5!, {r0, r2, r5, r6, r8, r9, sp, lr}^
    36f0:	69546576 	ldmdbvs	r4, {r1, r2, r4, r5, r6, r8, sl, sp, lr}^
    36f4:	754f656d 	strbvc	r6, [pc, #-1389]	; 318f <UART_InterruptFIFOLevelSelect+0x1d4f>
    36f8:	746e4974 	strbtvc	r4, [lr], #-2420	; 0xfffff68c
    36fc:	75727265 	ldrbvc	r7, [r2, #-613]!	; 0xfffffd9b
    3700:	6c437470 	cfstrdvs	mvd7, [r3], {112}	; 0x70
    3704:	00726165 	rsbseq	r6, r2, r5, ror #2
    3708:	6942395f 	stmdbvs	r2, {r0, r1, r2, r3, r4, r6, r8, fp, ip, sp}^
    370c:	646f4d74 	strbtvs	r4, [pc], #-3444	; 3714 <UART_InterruptFIFOLevelSelect+0x22d4>
    3710:	73614d65 	cmnvc	r1, #6464	; 0x1940
    3714:	4964656b 	stmdbmi	r4!, {r0, r1, r3, r5, r6, r8, sl, sp, lr}^
    3718:	7265746e 	rsbvc	r7, r5, #1845493760	; 0x6e000000
    371c:	74707572 	ldrbtvc	r7, [r0], #-1394	; 0xfffffa8e
    3720:	74617453 	strbtvc	r7, [r1], #-1107	; 0xfffffbad
    3724:	55007375 	strpl	r7, [r0, #-885]	; 0xfffffc8b
    3728:	5f545241 	svcpl	0x00545241
    372c:	65746e49 	ldrbvs	r6, [r4, #-3657]!	; 0xfffff1b7
    3730:	70757272 	rsbsvc	r7, r5, r2, ror r2
    3734:	656c4374 	strbvs	r4, [ip, #-884]!	; 0xfffffc8c
    3738:	65527261 	ldrbvs	r7, [r2, #-609]	; 0xfffffd9f
    373c:	74736967 	ldrbtvc	r6, [r3], #-2407	; 0xfffff699
    3740:	00737265 	rsbseq	r7, r3, r5, ror #4
    3744:	63617246 	cmnvs	r1, #1610612740	; 0x60000004
    3748:	6e6f6974 			; <UNDEFINED> instruction: 0x6e6f6974
    374c:	61426c61 	cmpvs	r2, r1, ror #24
    3750:	61526475 	cmpvs	r2, r5, ror r4
    3754:	69446574 	stmdbvs	r4, {r2, r4, r5, r6, r8, sl, sp, lr}^
    3758:	6f736976 	svcvs	0x00736976
    375c:	41550072 	cmpmi	r5, r2, ror r0
    3760:	545f5452 	ldrbpl	r5, [pc], #-1106	; 3768 <UART_InterruptFIFOLevelSelect+0x2328>
    3764:	736e6172 	cmnvc	lr, #-2147483620	; 0x8000001c
    3768:	4374696d 	cmnmi	r4, #1785856	; 0x1b4000
    376c:	5f726168 	svcpl	0x00726168
    3770:	6c6c6f50 	stclvs	15, cr6, [ip], #-320	; 0xfffffec0
    3774:	00676e69 	rsbeq	r6, r7, r9, ror #28
    3778:	7265764f 	rsbvc	r7, r5, #82837504	; 0x4f00000
    377c:	456e7572 	strbmi	r7, [lr, #-1394]!	; 0xfffffa8e
    3780:	726f7272 	rsbvc	r7, pc, #536870919	; 0x20000007
    3784:	6b73614d 	blvs	1cdbcc0 <UART_InterruptFIFOLevelSelect+0x1cda880>
    3788:	6e496465 	cdpvs	4, 4, cr6, cr9, cr5, {3}
    378c:	72726574 	rsbsvc	r6, r2, #116, 10	; 0x1d000000
    3790:	53747075 	cmnpl	r4, #117	; 0x75
    3794:	75746174 	ldrbvc	r6, [r4, #-372]!	; 0xfffffe8c
    3798:	41550073 	cmpmi	r5, r3, ror r0
    379c:	545f5452 	ldrbpl	r5, [pc], #-1106	; 37a4 <UART_InterruptFIFOLevelSelect+0x2364>
    37a0:	736e6172 	cmnvc	lr, #-2147483620	; 0x8000001c
    37a4:	4374696d 	cmnmi	r4, #1785856	; 0x1b4000
    37a8:	5f726168 	svcpl	0x00726168
    37ac:	65746e49 	ldrbvs	r6, [r4, #-3657]!	; 0xfffff1b7
    37b0:	70757272 	rsbsvc	r7, r5, r2, ror r2
    37b4:	764f0074 			; <UNDEFINED> instruction: 0x764f0074
    37b8:	75727265 	ldrbvc	r7, [r2, #-613]!	; 0xfffffd9b
    37bc:	7272456e 	rsbsvc	r4, r2, #461373440	; 0x1b800000
    37c0:	6e49726f 	cdpvs	2, 4, cr7, cr9, cr15, {3}
    37c4:	72726574 	rsbsvc	r6, r2, #116, 10	; 0x1d000000
    37c8:	4d747075 	ldclmi	0, cr7, [r4, #-468]!	; 0xfffffe2c
    37cc:	006b7361 	rsbeq	r7, fp, r1, ror #6
    37d0:	54524155 	ldrbpl	r4, [r2], #-341	; 0xfffffeab
    37d4:	6e6f435f 	mcrvs	3, 3, r4, cr15, cr15, {2}
    37d8:	6c6f7274 	sfmvs	f7, 2, [pc], #-464	; 3610 <UART_InterruptFIFOLevelSelect+0x21d0>
    37dc:	69676552 	stmdbvs	r7!, {r1, r4, r6, r8, sl, sp, lr}^
    37e0:	72657473 	rsbvc	r7, r5, #1929379840	; 0x73000000
    37e4:	694e0073 	stmdbvs	lr, {r0, r1, r4, r5, r6}^
    37e8:	4942656e 	stmdbmi	r2, {r1, r2, r3, r5, r6, r8, sl, sp, lr}^
    37ec:	00434954 	subeq	r4, r3, r4, asr r9
    37f0:	6d617246 	sfmvs	f7, 2, [r1, #-280]!	; 0xfffffee8
    37f4:	45676e69 	strbmi	r6, [r7, #-3689]!	; 0xfffff197
    37f8:	726f7272 	rsbvc	r7, pc, #536870919	; 0x20000007
    37fc:	6b73614d 	blvs	1cdbd38 <UART_InterruptFIFOLevelSelect+0x1cda8f8>
    3800:	6e496465 	cdpvs	4, 4, cr6, cr9, cr5, {3}
    3804:	72726574 	rsbsvc	r6, r2, #116, 10	; 0x1d000000
    3808:	53747075 	cmnpl	r4, #117	; 0x75
    380c:	75746174 	ldrbvc	r6, [r4, #-372]!	; 0xfffffe8c
    3810:	41550073 	cmpmi	r5, r3, ror r0
    3814:	43495452 	movtmi	r5, #37970	; 0x9452
    3818:	65525f52 	ldrbvs	r5, [r2, #-3922]	; 0xfffff0ae
    381c:	6c660067 	stclvs	0, cr0, [r6], #-412	; 0xfffffe64
    3820:	5f006761 	svcpl	0x00006761
    3824:	49445f31 	stmdbmi	r4, {r0, r4, r5, r8, r9, sl, fp, ip, lr}^
    3828:	5f325f56 	svcpl	0x00325f56
    382c:	74706d45 	ldrbtvc	r6, [r0], #-3397	; 0xfffff2bb
    3830:	41550079 	cmpmi	r5, r9, ror r0
    3834:	5f315452 	svcpl	0x00315452
    3838:	69676552 	stmdbvs	r7!, {r1, r4, r6, r8, sl, sp, lr}^
    383c:	72657473 	rsbvc	r7, r5, #1929379840	; 0x73000000
    3840:	6c6c6143 	stfvse	f6, [ip], #-268	; 0xfffffef4
    3844:	6b636162 	blvs	18dbdd4 <UART_InterruptFIFOLevelSelect+0x18da994>
    3848:	636e7546 	cmnvs	lr, #293601280	; 0x11800000
    384c:	6e6f6974 			; <UNDEFINED> instruction: 0x6e6f6974
    3850:	52415500 	subpl	r5, r1, #0, 10
    3854:	6e495f54 	mcrvs	15, 2, r5, cr9, cr4, {2}
    3858:	72726574 	rsbsvc	r6, r2, #116, 10	; 0x1d000000
    385c:	46747075 			; <UNDEFINED> instruction: 0x46747075
    3860:	4c4f4649 	mcrrmi	6, 4, r4, pc, cr9
    3864:	6c657665 	stclvs	6, cr7, [r5], #-404	; 0xfffffe6c
    3868:	656c6553 	strbvs	r6, [ip, #-1363]!	; 0xfffffaad
    386c:	55007463 	strpl	r7, [r0, #-1123]	; 0xfffffb9d
    3870:	43545241 	cmpmi	r4, #268435460	; 0x10000004
    3874:	65525f43 	ldrbvs	r5, [r2, #-3907]	; 0xfffff0bd
    3878:	61640067 	cmnvs	r4, r7, rrx
    387c:	55006174 	strpl	r6, [r0, #-372]	; 0xfffffe8c
    3880:	34545241 	ldrbcc	r5, [r4], #-577	; 0xfffffdbf
    3884:	6765525f 			; <UNDEFINED> instruction: 0x6765525f
    3888:	65747369 	ldrbvs	r7, [r4, #-873]!	; 0xfffffc97
    388c:	6c614372 	stclvs	3, cr4, [r1], #-456	; 0xfffffe38
    3890:	6361626c 	cmnvs	r1, #108, 4	; 0xc0000006
    3894:	6e75466b 	cdpvs	6, 7, cr4, cr5, cr11, {3}
    3898:	6f697463 	svcvs	0x00697463
    389c:	6552006e 	ldrbvs	r0, [r2, #-110]	; 0xffffff92
    38a0:	76696563 	strbtvc	r6, [r9], -r3, ror #10
    38a4:	746e4965 	strbtvc	r4, [lr], #-2405	; 0xfffff69b
    38a8:	75727265 	ldrbvc	r7, [r2, #-613]!	; 0xfffffd9b
    38ac:	6c437470 	cfstrdvs	mvd7, [r3], {112}	; 0x70
    38b0:	00726165 	rsbseq	r6, r2, r5, ror #2
    38b4:	6e617254 	mcrvs	2, 3, r7, cr1, cr4, {2}
    38b8:	74696d73 	strbtvc	r6, [r9], #-3443	; 0xfffff28d
    38bc:	4f464946 	svcmi	0x00464946
    38c0:	6c6c7546 	cfstr64vs	mvdx7, [ip], #-280	; 0xfffffee8
    38c4:	63655200 	cmnvs	r5, #0, 4
    38c8:	65766965 	ldrbvs	r6, [r6, #-2405]!	; 0xfffff69b
    38cc:	4f464946 	svcmi	0x00464946
    38d0:	74706d45 	ldrbtvc	r6, [r0], #-3397	; 0xfffff2bb
    38d4:	41550079 	cmpmi	r5, r9, ror r0
    38d8:	5f305452 	svcpl	0x00305452
    38dc:	69676552 	stmdbvs	r7!, {r1, r4, r6, r8, sl, sp, lr}^
    38e0:	72657473 	rsbvc	r7, r5, #1929379840	; 0x73000000
    38e4:	6c6c6143 	stfvse	f6, [ip], #-268	; 0xfffffef4
    38e8:	6b636162 	blvs	18dbe78 <UART_InterruptFIFOLevelSelect+0x18daa38>
    38ec:	636e7546 	cmnvs	lr, #293601280	; 0x11800000
    38f0:	6e6f6974 			; <UNDEFINED> instruction: 0x6e6f6974
    38f4:	52415500 	subpl	r5, r1, #0, 10
    38f8:	72465f54 	subvc	r5, r6, #84, 30	; 0x150
    38fc:	69746361 	ldmdbvs	r4!, {r0, r5, r6, r8, r9, sp, lr}^
    3900:	6c616e6f 	stclvs	14, cr6, [r1], #-444	; 0xfffffe44
    3904:	64756142 	ldrbtvs	r6, [r5], #-322	; 0xfffffebe
    3908:	65746152 	ldrbvs	r6, [r4, #-338]!	; 0xfffffeae
    390c:	69766944 	ldmdbvs	r6!, {r2, r6, r8, fp, sp, lr}^
    3910:	52726f73 	rsbspl	r6, r2, #460	; 0x1cc
    3914:	73696765 	cmnvc	r9, #26476544	; 0x1940000
    3918:	73726574 	cmnvc	r2, #116, 10	; 0x1d000000
    391c:	52415500 	subpl	r5, r1, #0, 10
    3920:	61445f54 	cmpvs	r4, r4, asr pc
    3924:	65526174 	ldrbvs	r6, [r2, #-372]	; 0xfffffe8c
    3928:	74736967 	ldrbtvc	r6, [r3], #-2407	; 0xfffff699
    392c:	00737265 	rsbseq	r7, r3, r5, ror #4
    3930:	69726150 	ldmdbvs	r2!, {r4, r6, r8, sp, lr}^
    3934:	72457974 	subvc	r7, r5, #116, 18	; 0x1d0000
    3938:	49726f72 	ldmdbmi	r2!, {r1, r4, r5, r6, r8, r9, sl, fp, sp, lr}^
    393c:	7265746e 	rsbvc	r7, r5, #1845493760	; 0x6e000000
    3940:	74707572 	ldrbtvc	r7, [r0], #-1394	; 0xfffffa8e
    3944:	6b73614d 	blvs	1cdbe80 <UART_InterruptFIFOLevelSelect+0x1cdaa40>
    3948:	52415500 	subpl	r5, r1, #0, 10
    394c:	495f3054 	ldmdbmi	pc, {r2, r4, r6, ip, sp}^	; <UNPREDICTABLE>
    3950:	6148746e 	cmpvs	r8, lr, ror #8
    3954:	656c646e 	strbvs	r6, [ip, #-1134]!	; 0xfffffb92
    3958:	61500072 	cmpvs	r0, r2, ror r0
    395c:	79746972 	ldmdbvc	r4!, {r1, r4, r5, r6, r8, fp, sp, lr}^
    3960:	62616e45 	rsbvs	r6, r1, #1104	; 0x450
    3964:	4200656c 	andmi	r6, r0, #108, 10	; 0x1b000000
    3968:	43647561 	cmnmi	r4, #406847488	; 0x18400000
    396c:	6b636f6c 	blvs	18df724 <UART_InterruptFIFOLevelSelect+0x18de2e4>
    3970:	72756f53 	rsbsvc	r6, r5, #332	; 0x14c
    3974:	55006563 	strpl	r6, [r0, #-1379]	; 0xfffffa9d
    3978:	4d545241 	lfmmi	f5, 2, [r4, #-260]	; 0xfffffefc
    397c:	6c75646f 	cfldrdvs	mvd6, [r5], #-444	; 0xfffffe44
    3980:	75525f65 	ldrbvc	r5, [r2, #-3941]	; 0xfffff09b
    3984:	646f4d6e 	strbtvs	r4, [pc], #-3438	; 398c <UART_InterruptFIFOLevelSelect+0x254c>
    3988:	6f6c4365 	svcvs	0x006c4365
    398c:	61476b63 	cmpvs	r7, r3, ror #22
    3990:	676e6974 			; <UNDEFINED> instruction: 0x676e6974
    3994:	746e6f43 	strbtvc	r6, [lr], #-3907	; 0xfffff0bd
    3998:	006c6f72 	rsbeq	r6, ip, r2, ror pc
    399c:	61657242 	cmnvs	r5, r2, asr #4
    39a0:	7272456b 	rsbsvc	r4, r2, #448790528	; 0x1ac00000
    39a4:	4400726f 	strmi	r7, [r0], #-623	; 0xfffffd91
    39a8:	6843414d 	stmdavs	r3, {r0, r2, r3, r6, r8, lr}^
    39ac:	656e6e61 	strbvs	r6, [lr, #-3681]!	; 0xfffff19f
    39b0:	6d754e6c 	ldclvs	14, cr4, [r5, #-432]!	; 0xfffffe50
    39b4:	52415500 	subpl	r5, r1, #0, 10
    39b8:	5f524654 	svcpl	0x00524654
    39bc:	00676552 	rsbeq	r6, r7, r2, asr r5
    39c0:	445f315f 	ldrbmi	r3, [pc], #-351	; 39c8 <UART_InterruptFIFOLevelSelect+0x2588>
    39c4:	345f5649 	ldrbcc	r5, [pc], #-1609	; 39cc <UART_InterruptFIFOLevelSelect+0x258c>
    39c8:	706d455f 	rsbvc	r4, sp, pc, asr r5
    39cc:	54007974 	strpl	r7, [r0], #-2420	; 0xfffff68c
    39d0:	736e6172 	cmnvc	lr, #-2147483620	; 0x8000001c
    39d4:	4974696d 	ldmdbmi	r4!, {r0, r2, r3, r5, r6, r8, fp, sp, lr}^
    39d8:	7265746e 	rsbvc	r7, r5, #1845493760	; 0x6e000000
    39dc:	74707572 	ldrbtvc	r7, [r0], #-1394	; 0xfffffa8e
    39e0:	6b73614d 	blvs	1cdbf1c <UART_InterruptFIFOLevelSelect+0x1cdaadc>
    39e4:	646e4500 	strbtvs	r4, [lr], #-1280	; 0xfffffb00
    39e8:	7254666f 	subsvc	r6, r4, #116391936	; 0x6f00000
    39ec:	6d736e61 	ldclvs	14, cr6, [r3, #-388]!	; 0xfffffe7c
    39f0:	69737369 	ldmdbvs	r3!, {r0, r3, r5, r6, r8, r9, ip, sp, lr}^
    39f4:	52006e6f 	andpl	r6, r0, #1776	; 0x6f0
    39f8:	4c464958 	mcrrmi	9, 5, r4, r6, cr8	; <UNPREDICTABLE>
    39fc:	004c4553 	subeq	r4, ip, r3, asr r5
    3a00:	54524155 	ldrbpl	r4, [r2], #-341	; 0xfffffeab
    3a04:	5f53494d 	svcpl	0x0053494d
    3a08:	00676552 	rsbeq	r6, r7, r2, asr r5
    3a0c:	62616e45 	rsbvs	r6, r1, #1104	; 0x450
    3a10:	4946656c 	stmdbmi	r6, {r2, r3, r5, r6, r8, sl, sp, lr}^
    3a14:	00734f46 	rsbseq	r4, r3, r6, asr #30
    3a18:	54524155 	ldrbpl	r4, [r2], #-341	; 0xfffffeab
    3a1c:	6e495f36 	mcrvs	15, 2, r5, cr9, cr6, {1}
    3a20:	6e614874 	mcrvs	8, 3, r4, cr1, cr4, {3}
    3a24:	72656c64 	rsbvc	r6, r5, #100, 24	; 0x6400
    3a28:	65724200 	ldrbvs	r4, [r2, #-512]!	; 0xfffffe00
    3a2c:	72456b61 	subvc	r6, r5, #99328	; 0x18400
    3a30:	49726f72 	ldmdbmi	r2!, {r1, r4, r5, r6, r8, r9, sl, fp, sp, lr}^
    3a34:	7265746e 	rsbvc	r7, r5, #1845493760	; 0x6e000000
    3a38:	74707572 	ldrbtvc	r7, [r0], #-1394	; 0xfffffa8e
    3a3c:	6b73614d 	blvs	1cdbf78 <UART_InterruptFIFOLevelSelect+0x1cdab38>
    3a40:	52415500 	subpl	r5, r1, #0, 10
    3a44:	72545f54 	subsvc	r5, r4, #84, 30	; 0x150
    3a48:	6d736e61 	ldclvs	14, cr6, [r3, #-388]!	; 0xfffffe7c
    3a4c:	445f7469 	ldrbmi	r7, [pc], #-1129	; 3a54 <UART_InterruptFIFOLevelSelect+0x2614>
    3a50:	4600414d 	strmi	r4, [r0], -sp, asr #2
    3a54:	696d6172 	stmdbvs	sp!, {r1, r4, r5, r6, r8, sp, lr}^
    3a58:	7245676e 	subvc	r6, r5, #28835840	; 0x1b80000
    3a5c:	49726f72 	ldmdbmi	r2!, {r1, r4, r5, r6, r8, r9, sl, fp, sp, lr}^
    3a60:	7265746e 	rsbvc	r7, r5, #1845493760	; 0x6e000000
    3a64:	74707572 	ldrbtvc	r7, [r0], #-1394	; 0xfffffa8e
    3a68:	61656c43 	cmnvs	r5, r3, asr #24
    3a6c:	41550072 	cmpmi	r5, r2, ror r0
    3a70:	5f335452 	svcpl	0x00335452
    3a74:	48746e49 	ldmdami	r4!, {r0, r3, r6, r9, sl, fp, sp, lr}^
    3a78:	6c646e61 	stclvs	14, cr6, [r4], #-388	; 0xfffffe7c
    3a7c:	55007265 	strpl	r7, [r0, #-613]	; 0xfffffd9b
    3a80:	5f545241 	svcpl	0x00545241
    3a84:	43414d44 	movtmi	r4, #7492	; 0x1d44
    3a88:	72746e6f 	rsbsvc	r6, r4, #1776	; 0x6f0
    3a8c:	65526c6f 	ldrbvs	r6, [r2, #-3183]	; 0xfffff391
    3a90:	74736967 	ldrbtvc	r6, [r3], #-2407	; 0xfffff699
    3a94:	00737265 	rsbseq	r7, r3, r5, ror #4
    3a98:	6e524953 			; <UNDEFINED> instruction: 0x6e524953
    3a9c:	656c6261 	strbvs	r6, [ip, #-609]!	; 0xfffffd9f
    3aa0:	5f335f00 	svcpl	0x00335f00
    3aa4:	5f564944 	svcpl	0x00564944
    3aa8:	6d455f34 	stclvs	15, cr5, [r5, #-208]	; 0xffffff30
    3aac:	00797470 	rsbseq	r7, r9, r0, ror r4
    3ab0:	54524155 	ldrbpl	r4, [r2], #-341	; 0xfffffeab
    3ab4:	746e495f 	strbtvc	r4, [lr], #-2399	; 0xfffff6a1
    3ab8:	75727265 	ldrbvc	r7, [r2, #-613]!	; 0xfffffd9b
    3abc:	614d7470 	hvcvs	55104	; 0xd740
    3ac0:	65526b73 	ldrbvs	r6, [r2, #-2931]	; 0xfffff48d
    3ac4:	74736967 	ldrbtvc	r6, [r3], #-2407	; 0xfffff699
    3ac8:	00737265 	rsbseq	r7, r3, r5, ror #4
    3acc:	61657242 	cmnvs	r5, r2, asr #4
    3ad0:	7272456b 	rsbsvc	r4, r2, #448790528	; 0x1ac00000
    3ad4:	6e49726f 	cdpvs	2, 4, cr7, cr9, cr15, {3}
    3ad8:	72726574 	rsbsvc	r6, r2, #116, 10	; 0x1d000000
    3adc:	43747075 	cmnmi	r4, #117	; 0x75
    3ae0:	7261656c 	rsbvc	r6, r1, #108, 10	; 0x1b000000
    3ae4:	52415500 	subpl	r5, r1, #0, 10
    3ae8:	694c5f54 	stmdbvs	ip, {r2, r4, r6, r8, r9, sl, fp, ip, lr}^
    3aec:	6f43656e 	svcvs	0x0043656e
    3af0:	6f72746e 	svcvs	0x0072746e
    3af4:	6765526c 	strbvs	r5, [r5, -ip, ror #4]!
    3af8:	65747369 	ldrbvs	r7, [r4, #-873]!	; 0xfffffc97
    3afc:	52007372 	andpl	r7, r0, #-939524095	; 0xc8000001
    3b00:	69656365 	stmdbvs	r5!, {r0, r2, r5, r6, r8, r9, sp, lr}^
    3b04:	6e496576 	mcrvs	5, 2, r6, cr9, cr6, {3}
    3b08:	72726574 	rsbsvc	r6, r2, #116, 10	; 0x1d000000
    3b0c:	4d747075 	ldclmi	0, cr7, [r4, #-468]!	; 0xfffffe2c
    3b10:	006b7361 	rsbeq	r7, fp, r1, ror #6
    3b14:	6e616863 	cdpvs	8, 6, cr6, cr1, cr3, {3}
    3b18:	006c656e 	rsbeq	r6, ip, lr, ror #10
    3b1c:	65636552 	strbvs	r6, [r3, #-1362]!	; 0xfffffaae
    3b20:	4d657669 	stclmi	6, cr7, [r5, #-420]!	; 0xfffffe5c
    3b24:	656b7361 	strbvs	r7, [fp, #-865]!	; 0xfffffc9f
    3b28:	746e4964 	strbtvc	r4, [lr], #-2404	; 0xfffff69c
    3b2c:	75727265 	ldrbvc	r7, [r2, #-613]!	; 0xfffffd9b
    3b30:	74537470 	ldrbvc	r7, [r3], #-1136	; 0xfffffb90
    3b34:	73757461 	cmnvc	r5, #1627389952	; 0x61000000
    3b38:	61725400 	cmnvs	r2, r0, lsl #8
    3b3c:	696d736e 	stmdbvs	sp!, {r1, r2, r3, r5, r6, r8, r9, ip, sp, lr}^
    3b40:	746e4974 	strbtvc	r4, [lr], #-2420	; 0xfffff68c
    3b44:	75727265 	ldrbvc	r7, [r2, #-613]!	; 0xfffffd9b
    3b48:	6c437470 	cfstrdvs	mvd7, [r3], {112}	; 0x70
    3b4c:	00726165 	rsbseq	r6, r2, r5, ror #2
    3b50:	54524155 	ldrbpl	r4, [r2], #-341	; 0xfffffeab
    3b54:	5152495f 	cmppl	r2, pc, asr r9
    3b58:	45524f5f 	ldrbmi	r4, [r2, #-3935]	; 0xfffff0a1
    3b5c:	61725400 	cmnvs	r2, r0, lsl #8
    3b60:	696d736e 	stmdbvs	sp!, {r1, r2, r3, r5, r6, r8, r9, ip, sp, lr}^
    3b64:	616e4574 	smcvs	58452	; 0xe454
    3b68:	00656c62 	rsbeq	r6, r5, r2, ror #24
    3b6c:	54524155 	ldrbpl	r4, [r2], #-341	; 0xfffffeab
    3b70:	5152495f 	cmppl	r2, pc, asr r9
    3b74:	6576455f 	ldrbvs	r4, [r6, #-1375]!	; 0xfffffaa1
    3b78:	5500746e 	strpl	r7, [r0, #-1134]	; 0xfffffb92
    3b7c:	37545241 	ldrbcc	r5, [r4, -r1, asr #4]
    3b80:	6c61435f 	stclvs	3, cr4, [r1], #-380	; 0xfffffe84
    3b84:	6361626c 	cmnvs	r1, #108, 4	; 0xc0000006
    3b88:	4155006b 	cmpmi	r5, fp, rrx
    3b8c:	5f325452 	svcpl	0x00325452
    3b90:	48746e49 	ldmdami	r4!, {r0, r3, r6, r9, sl, fp, sp, lr}^
    3b94:	6c646e61 	stclvs	14, cr6, [r4], #-388	; 0xfffffe7c
    3b98:	53007265 	movwpl	r7, #613	; 0x265
    3b9c:	42646e65 	rsbmi	r6, r4, #1616	; 0x650
    3ba0:	6b616572 	blvs	185d170 <UART_InterruptFIFOLevelSelect+0x185bd30>
    3ba4:	52415500 	subpl	r5, r1, #0, 10
    3ba8:	4d445f54 	stclmi	15, cr5, [r4, #-336]	; 0xfffffeb0
    3bac:	65525f41 	ldrbvs	r5, [r2, #-3905]	; 0xfffff0bf
    3bb0:	64616f6c 	strbtvs	r6, [r1], #-3948	; 0xfffff094
    3bb4:	746c415f 	strbtvc	r4, [ip], #-351	; 0xfffffea1
    3bb8:	616e7265 	cmnvs	lr, r5, ror #4
    3bbc:	6f436574 	svcvs	0x00436574
    3bc0:	6f72746e 	svcvs	0x0072746e
    3bc4:	7274536c 	rsbsvc	r5, r4, #108, 6	; 0xb0000001
    3bc8:	75746375 	ldrbvc	r6, [r4, #-885]!	; 0xfffffc8b
    3bcc:	55006572 	strpl	r6, [r0, #-1394]	; 0xfffffa8e
    3bd0:	30545241 	subscc	r5, r4, r1, asr #4
    3bd4:	6c61435f 	stclvs	3, cr4, [r1], #-380	; 0xfffffe84
    3bd8:	6361626c 	cmnvs	r1, #108, 4	; 0xc0000006
    3bdc:	7246006b 	subvc	r0, r6, #107	; 0x6b
    3be0:	6e696d61 	cdpvs	13, 6, cr6, cr9, cr1, {3}
    3be4:	72724567 	rsbsvc	r4, r2, #432013312	; 0x19c00000
    3be8:	5500726f 	strpl	r7, [r0, #-623]	; 0xfffffd91
    3bec:	44545241 	ldrbmi	r5, [r4], #-577	; 0xfffffdbf
    3bf0:	5443414d 	strbpl	r4, [r3], #-333	; 0xfffffeb3
    3bf4:	7542004c 	strbvc	r0, [r2, #-76]	; 0xffffffb4
    3bf8:	4f007973 	svcmi	0x00007973
    3bfc:	72726576 	rsbsvc	r6, r2, #494927872	; 0x1d800000
    3c00:	72456e75 	subvc	r6, r5, #1872	; 0x750
    3c04:	00726f72 	rsbseq	r6, r2, r2, ror pc
    3c08:	65746e49 	ldrbvs	r6, [r4, #-3657]!	; 0xfffff1b7
    3c0c:	70757272 	rsbsvc	r7, r5, r2, ror r2
    3c10:	73614d74 	cmnvc	r1, #116, 26	; 0x1d00
    3c14:	6e6f436b 	cdpvs	3, 6, cr4, cr15, cr11, {3}
    3c18:	00676966 	rsbeq	r6, r7, r6, ror #18
    3c1c:	6942395f 	stmdbvs	r2, {r0, r1, r2, r3, r4, r6, r8, fp, ip, sp}^
    3c20:	746e4974 	strbtvc	r4, [lr], #-2420	; 0xfffff68c
    3c24:	75727265 	ldrbvc	r7, [r2, #-613]!	; 0xfffffd9b
    3c28:	614d7470 	hvcvs	55104	; 0xd740
    3c2c:	55006b73 	strpl	r6, [r0, #-2931]	; 0xfffff48d
    3c30:	49545241 	ldmdbmi	r4, {r0, r6, r9, ip, lr}^
    3c34:	5f445242 	svcpl	0x00445242
    3c38:	00676552 	rsbeq	r6, r7, r2, asr r5
    3c3c:	4c524953 	mrrcmi	9, 5, r4, r2, cr3	; <UNPREDICTABLE>
    3c40:	6f530050 	svcvs	0x00530050
    3c44:	65637275 	strbvs	r7, [r3, #-629]!	; 0xfffffd8b
    3c48:	72646441 	rsbvc	r6, r4, #1090519040	; 0x41000000
    3c4c:	42737365 	rsbsmi	r7, r3, #-1811939327	; 0x94000001
    3c50:	65666675 	strbvs	r6, [r6, #-1653]!	; 0xfffff98b
    3c54:	41550072 	cmpmi	r5, r2, ror r0
    3c58:	435f5452 	cmpmi	pc, #1375731712	; 0x52000000
    3c5c:	69666e6f 	stmdbvs	r6!, {r0, r1, r2, r3, r5, r6, r9, sl, fp, sp, lr}^
    3c60:	65727567 	ldrbvs	r7, [r2, #-1383]!	; 0xfffffa99
    3c64:	65746e49 	ldrbvs	r6, [r4, #-3657]!	; 0xfffff1b7
    3c68:	70757272 	rsbsvc	r7, r5, r2, ror r2
    3c6c:	756f5374 	strbvc	r5, [pc, #-884]!	; 3900 <UART_InterruptFIFOLevelSelect+0x24c0>
    3c70:	00656372 	rsbeq	r6, r5, r2, ror r3
    3c74:	54524155 	ldrbpl	r4, [r2], #-341	; 0xfffffeab
    3c78:	6365525f 	cmnvs	r5, #-268435451	; 0xf0000005
    3c7c:	65766569 	ldrbvs	r6, [r6, #-1385]!	; 0xfffffa97
    3c80:	72616843 	rsbvc	r6, r1, #4390912	; 0x430000
    3c84:	6c6f505f 	stclvs	0, cr5, [pc], #-380	; 3b10 <UART_InterruptFIFOLevelSelect+0x26d0>
    3c88:	676e696c 	strbvs	r6, [lr, -ip, ror #18]!
    3c8c:	52415500 	subpl	r5, r1, #0, 10
    3c90:	525f3754 	subspl	r3, pc, #84, 14	; 0x1500000
    3c94:	73696765 	cmnvc	r9, #26476544	; 0x1940000
    3c98:	43726574 	cmnmi	r2, #116, 10	; 0x1d000000
    3c9c:	626c6c61 	rsbvs	r6, ip, #24832	; 0x6100
    3ca0:	466b6361 	strbtmi	r6, [fp], -r1, ror #6
    3ca4:	74636e75 	strbtvc	r6, [r3], #-3701	; 0xfffff18b
    3ca8:	006e6f69 	rsbeq	r6, lr, r9, ror #30
    3cac:	445f375f 	ldrbmi	r3, [pc], #-1887	; 3cb4 <UART_InterruptFIFOLevelSelect+0x2874>
    3cb0:	385f5649 	ldmdacc	pc, {r0, r3, r6, r9, sl, ip, lr}^	; <UNPREDICTABLE>
    3cb4:	706d455f 	rsbvc	r4, sp, pc, asr r5
    3cb8:	45007974 	strmi	r7, [r0, #-2420]	; 0xfffff68c
    3cbc:	6c62616e 	stfvse	f6, [r2], #-440	; 0xfffffe48
    3cc0:	656c4365 	strbvs	r4, [ip, #-869]!	; 0xfffffc9b
    3cc4:	6f547261 	svcvs	0x00547261
    3cc8:	646e6553 	strbtvs	r6, [lr], #-1363	; 0xfffffaad
    3ccc:	61725400 	cmnvs	r2, r0, lsl #8
    3cd0:	696d736e 	stmdbvs	sp!, {r1, r2, r3, r5, r6, r8, r9, ip, sp, lr}^
    3cd4:	73614d74 	cmnvc	r1, #116, 26	; 0x1d00
    3cd8:	4964656b 	stmdbmi	r4!, {r0, r1, r3, r5, r6, r8, sl, sp, lr}^
    3cdc:	7265746e 	rsbvc	r7, r5, #1845493760	; 0x6e000000
    3ce0:	74707572 	ldrbtvc	r7, [r0], #-1394	; 0xfffffa8e
    3ce4:	74617453 	strbtvc	r7, [r1], #-1107	; 0xfffffbad
    3ce8:	54007375 	strpl	r7, [r0], #-885	; 0xfffffc8b
    3cec:	736e6172 	cmnvc	lr, #-2147483620	; 0x8000001c
    3cf0:	4474696d 	ldrbtmi	r6, [r4], #-2413	; 0xfffff693
    3cf4:	6e45414d 	dvfvssm	f4, f5, #5.0
    3cf8:	656c6261 	strbvs	r6, [ip, #-609]!	; 0xfffffd9f
    3cfc:	52415500 	subpl	r5, r1, #0, 10
    3d00:	525f3654 	subspl	r3, pc, #84, 12	; 0x5400000
    3d04:	73696765 	cmnvc	r9, #26476544	; 0x1940000
    3d08:	43726574 	cmnmi	r2, #116, 10	; 0x1d000000
    3d0c:	626c6c61 	rsbvs	r6, ip, #24832	; 0x6100
    3d10:	466b6361 	strbtmi	r6, [fp], -r1, ror #6
    3d14:	74636e75 	strbtvc	r6, [r3], #-3701	; 0xfffff18b
    3d18:	006e6f69 	rsbeq	r6, lr, r9, ror #30
    3d1c:	54524155 	ldrbpl	r4, [r2], #-341	; 0xfffffeab
    3d20:	44524246 	ldrbmi	r4, [r2], #-582	; 0xfffffdba
    3d24:	6765525f 			; <UNDEFINED> instruction: 0x6765525f
    3d28:	52415500 	subpl	r5, r1, #0, 10
    3d2c:	495f3454 	ldmdbmi	pc, {r2, r4, r6, sl, ip, sp}^	; <UNPREDICTABLE>
    3d30:	6148746e 	cmpvs	r8, lr, ror #8
    3d34:	656c646e 	strbvs	r6, [ip, #-1134]!	; 0xfffffb92
    3d38:	41550072 	cmpmi	r5, r2, ror r0
    3d3c:	5f315452 	svcpl	0x00315452
    3d40:	48746e49 	ldmdami	r4!, {r0, r3, r6, r9, sl, fp, sp, lr}^
    3d44:	6c646e61 	stclvs	14, cr6, [r4], #-388	; 0xfffffe7c
    3d48:	55007265 	strpl	r7, [r0, #-613]	; 0xfffffd9b
    3d4c:	5f545241 	svcpl	0x00545241
    3d50:	5f515249 	svcpl	0x00515249
    3d54:	454e5852 	strbmi	r5, [lr, #-2130]	; 0xfffff7ae
    3d58:	52415500 	subpl	r5, r1, #0, 10
    3d5c:	6e495f54 	mcrvs	15, 2, r5, cr9, cr4, {2}
    3d60:	65676574 	strbvs	r6, [r7, #-1396]!	; 0xfffffa8c
    3d64:	75614272 	strbvc	r4, [r1, #-626]!	; 0xfffffd8e
    3d68:	74615264 	strbtvc	r5, [r1], #-612	; 0xfffffd9c
    3d6c:	76694465 	strbtvc	r4, [r9], -r5, ror #8
    3d70:	726f7369 	rsbvc	r7, pc, #-1543503871	; 0xa4000001
    3d74:	69676552 	stmdbvs	r7!, {r1, r4, r6, r8, sl, sp, lr}^
    3d78:	72657473 	rsbvc	r7, r5, #1929379840	; 0x73000000
    3d7c:	41550073 	cmpmi	r5, r3, ror r0
    3d80:	495f5452 	ldmdbmi	pc, {r1, r4, r6, sl, ip, lr}^	; <UNPREDICTABLE>
    3d84:	6974696e 	ldmdbvs	r4!, {r1, r2, r3, r5, r6, r8, fp, sp, lr}^
    3d88:	7a696c61 	bvc	1a5ef14 <UART_InterruptFIFOLevelSelect+0x1a5dad4>
    3d8c:	6f697461 	svcvs	0x00697461
    3d90:	6552006e 	ldrbvs	r0, [r2, #-110]	; 0xffffff92
    3d94:	76696563 	strbtvc	r6, [r9], -r3, ror #10
    3d98:	616e4565 	cmnvs	lr, r5, ror #10
    3d9c:	00656c62 	rsbeq	r6, r5, r2, ror #24
    3da0:	54524155 	ldrbpl	r4, [r2], #-341	; 0xfffffeab
    3da4:	6365525f 	cmnvs	r5, #-268435451	; 0xf0000005
    3da8:	72616843 	rsbvc	r6, r1, #4390912	; 0x430000
    3dac:	6d695477 	cfstrdvs	mvd5, [r9, #-476]!	; 0xfffffe24
    3db0:	74754f65 	ldrbtvc	r4, [r5], #-3941	; 0xfffff09b
    3db4:	52415500 	subpl	r5, r1, #0, 10
    3db8:	52495f54 	subpl	r5, r9, #84, 30	; 0x150
    3dbc:	45505f51 	ldrbmi	r5, [r0, #-3921]	; 0xfffff0af
    3dc0:	73694400 	cmnvc	r9, #0, 8
    3dc4:	656c6261 	strbvs	r6, [ip, #-609]!	; 0xfffffd9f
    3dc8:	65746e49 	ldrbvs	r6, [r4, #-3657]!	; 0xfffff1b7
    3dcc:	70757272 	rsbsvc	r7, r5, r2, ror r2
    3dd0:	73614d74 	cmnvc	r1, #116, 26	; 0x1d00
    3dd4:	4155006b 	cmpmi	r5, fp, rrx
    3dd8:	434c5452 	movtmi	r5, #50258	; 0xc452
    3ddc:	525f4852 	subspl	r4, pc, #5373952	; 0x520000
    3de0:	52006765 	andpl	r6, r0, #26476544	; 0x1940000
    3de4:	69656365 	stmdbvs	r5!, {r0, r2, r5, r6, r8, r9, sp, lr}^
    3de8:	69546576 	ldmdbvs	r4, {r1, r2, r4, r5, r6, r8, sl, sp, lr}^
    3dec:	754f656d 	strbvc	r6, [pc, #-1389]	; 3887 <UART_InterruptFIFOLevelSelect+0x2447>
    3df0:	746e4974 	strbtvc	r4, [lr], #-2420	; 0xfffff68c
    3df4:	75727265 	ldrbvc	r7, [r2, #-613]!	; 0xfffffd9b
    3df8:	614d7470 	hvcvs	55104	; 0xd740
    3dfc:	55006b73 	strpl	r6, [r0, #-2931]	; 0xfffff48d
    3e00:	31545241 	cmpcc	r4, r1, asr #4
    3e04:	6c61435f 	stclvs	3, cr4, [r1], #-380	; 0xfffffe84
    3e08:	6361626c 	cmnvs	r1, #108, 4	; 0xc0000006
    3e0c:	4155006b 	cmpmi	r5, fp, rrx
    3e10:	5f355452 	svcpl	0x00355452
    3e14:	69676552 	stmdbvs	r7!, {r1, r4, r6, r8, sl, sp, lr}^
    3e18:	72657473 	rsbvc	r7, r5, #1929379840	; 0x73000000
    3e1c:	6c6c6143 	stfvse	f6, [ip], #-268	; 0xfffffef4
    3e20:	6b636162 	blvs	18dc3b0 <UART_InterruptFIFOLevelSelect+0x18daf70>
    3e24:	636e7546 	cmnvs	lr, #293601280	; 0x11800000
    3e28:	6e6f6974 			; <UNDEFINED> instruction: 0x6e6f6974
    3e2c:	52415500 	subpl	r5, r1, #0, 10
    3e30:	4c544354 	mrrcmi	3, 5, r4, r4, cr4	; <UNPREDICTABLE>
    3e34:	6765525f 			; <UNDEFINED> instruction: 0x6765525f
    3e38:	52415500 	subpl	r5, r1, #0, 10
    3e3c:	435f3554 	cmpmi	pc, #84, 10	; 0x15000000
    3e40:	626c6c61 	rsbvs	r6, ip, #24832	; 0x6100
    3e44:	006b6361 	rsbeq	r6, fp, r1, ror #6
    3e48:	7265764f 	rsbvc	r7, r5, #82837504	; 0x4f00000
    3e4c:	456e7572 	strbmi	r7, [lr, #-1394]!	; 0xfffffa8e
    3e50:	726f7272 	rsbvc	r7, pc, #536870919	; 0x20000007
    3e54:	65746e49 	ldrbvs	r6, [r4, #-3657]!	; 0xfffff1b7
    3e58:	70757272 	rsbsvc	r7, r5, r2, ror r2
    3e5c:	61656c43 	cmnvs	r5, r3, asr #24
    3e60:	6e450072 	mcrvs	0, 2, r0, cr5, cr2, {3}
    3e64:	656c6261 	strbvs	r6, [ip, #-609]!	; 0xfffffd9f
    3e68:	65746e49 	ldrbvs	r6, [r4, #-3657]!	; 0xfffff1b7
    3e6c:	70757272 	rsbsvc	r7, r5, r2, ror r2
    3e70:	73614d74 	cmnvc	r1, #116, 26	; 0x1d00
    3e74:	4155006b 	cmpmi	r5, fp, rrx
    3e78:	495f5452 	ldmdbmi	pc, {r1, r4, r6, sl, ip, lr}^	; <UNPREDICTABLE>
    3e7c:	7265746e 	rsbvc	r7, r5, #1845493760	; 0x6e000000
    3e80:	74707572 	ldrbtvc	r7, [r0], #-1394	; 0xfffffa8e
    3e84:	5f6d754e 	svcpl	0x006d754e
    3e88:	00727241 	rsbseq	r7, r2, r1, asr #4
    3e8c:	6e657645 	cdpvs	6, 6, cr7, cr5, cr5, {2}
    3e90:	69726150 	ldmdbvs	r2!, {r4, r6, r8, sp, lr}^
    3e94:	65537974 	ldrbvs	r7, [r3, #-2420]	; 0xfffff68c
    3e98:	7463656c 	strbtvc	r6, [r3], #-1388	; 0xfffffa94
    3e9c:	52415500 	subpl	r5, r1, #0, 10
    3ea0:	65525f54 	ldrbvs	r5, [r2, #-3924]	; 0xfffff0ac
    3ea4:	76656963 	strbtvc	r6, [r5], -r3, ror #18
    3ea8:	61684365 	cmnvs	r8, r5, ror #6
    3eac:	6e495f72 	mcrvs	15, 2, r5, cr9, cr2, {3}
    3eb0:	72726574 	rsbsvc	r6, r2, #116, 10	; 0x1d000000
    3eb4:	00747075 	rsbseq	r7, r4, r5, ror r0
    3eb8:	54524155 	ldrbpl	r4, [r2], #-341	; 0xfffffeab
    3ebc:	5152495f 	cmppl	r2, pc, asr r9
    3ec0:	4e58545f 	mrcmi	4, 2, r5, cr8, cr15, {2}
    3ec4:	41550046 	cmpmi	r5, r6, asr #32
    3ec8:	635f5452 	cmpvs	pc, #1375731712	; 0x52000000
    3ecc:	69666e6f 	stmdbvs	r6!, {r0, r1, r2, r3, r5, r6, r9, sl, fp, sp, lr}^
    3ed0:	00632e67 	rsbeq	r2, r3, r7, ror #28

Disassembly of section .comment:

00000000 <.comment>:
   0:	3a434347 	bcc	10d0d24 <UART_InterruptFIFOLevelSelect+0x10cf8e4>
   4:	4e472820 	cdpmi	8, 4, cr2, cr7, cr0, {1}
   8:	72412055 	subvc	r2, r1, #85	; 0x55
   c:	6d45206d 	stclvs	0, cr2, [r5, #-436]	; 0xfffffe4c
  10:	64646562 	strbtvs	r6, [r4], #-1378	; 0xfffffa9e
  14:	54206465 	strtpl	r6, [r0], #-1125	; 0xfffffb9b
  18:	636c6f6f 	cmnvs	ip, #444	; 0x1bc
  1c:	6e696168 	powvsez	f6, f1, #0.0
  20:	2e303120 	rsfcssp	f3, f0, f0
  24:	30322d33 	eorscc	r2, r2, r3, lsr sp
  28:	312e3132 			; <UNDEFINED> instruction: 0x312e3132
  2c:	31202930 			; <UNDEFINED> instruction: 0x31202930
  30:	2e332e30 	mrccs	14, 1, r2, cr3, cr0, {1}
  34:	30322031 	eorscc	r2, r2, r1, lsr r0
  38:	38303132 	ldmdacc	r0!, {r1, r4, r5, r8, ip, sp}
  3c:	28203432 	stmdacs	r0!, {r1, r4, r5, sl, ip, sp}
  40:	656c6572 	strbvs	r6, [ip, #-1394]!	; 0xfffffa8e
  44:	29657361 	stmdbcs	r5!, {r0, r5, r6, r8, r9, ip, sp, lr}^
	...

Disassembly of section .ARM.attributes:

00000000 <.ARM.attributes>:
   0:	00002d41 	andeq	r2, r0, r1, asr #26
   4:	61656100 	cmnvs	r5, r0, lsl #2
   8:	01006962 	tsteq	r0, r2, ror #18
   c:	00000023 	andeq	r0, r0, r3, lsr #32
  10:	2d453705 	stclcs	7, cr3, [r5, #-20]	; 0xffffffec
  14:	0d06004d 	stceq	0, cr0, [r6, #-308]	; 0xfffffecc
  18:	02094d07 	andeq	r4, r9, #448	; 0x1c0
  1c:	01140412 	tsteq	r4, r2, lsl r4
  20:	03170115 	tsteq	r7, #1073741829	; 0x40000005
  24:	01190118 	tsteq	r9, r8, lsl r1
  28:	061e011a 			; <UNDEFINED> instruction: 0x061e011a
  2c:	Address 0x0000002c is out of bounds.


Disassembly of section .debug_frame:

00000000 <.debug_frame>:
       0:	0000000c 	andeq	r0, r0, ip
       4:	ffffffff 			; <UNDEFINED> instruction: 0xffffffff
       8:	7c020001 	stcvc	0, cr0, [r2], {1}
       c:	000d0c0e 	andeq	r0, sp, lr, lsl #24
      10:	0000001c 	andeq	r0, r0, ip, lsl r0
	...
      1c:	00000020 	andeq	r0, r0, r0, lsr #32
      20:	87040e41 	strhi	r0, [r4, -r1, asr #28]
      24:	070d4101 	streq	r4, [sp, -r1, lsl #2]
      28:	410d0d49 	tstmi	sp, r9, asr #26
      2c:	00000ec7 	andeq	r0, r0, r7, asr #29
      30:	00000018 	andeq	r0, r0, r8, lsl r0
	...
      3c:	00000024 	andeq	r0, r0, r4, lsr #32
      40:	87080e41 	strhi	r0, [r8, -r1, asr #28]
      44:	41018e02 	tstmi	r1, r2, lsl #28
      48:	0000070d 	andeq	r0, r0, sp, lsl #14
      4c:	0000001c 	andeq	r0, r0, ip, lsl r0
      50:	00000000 	andeq	r0, r0, r0
      54:	0000001c 	andeq	r0, r0, ip, lsl r0
      58:	00000038 	andeq	r0, r0, r8, lsr r0
      5c:	87040e41 	strhi	r0, [r4, -r1, asr #28]
      60:	070d4101 	streq	r4, [sp, -r1, lsl #2]
      64:	410d0d50 	tstmi	sp, r0, asr sp
      68:	00000ec7 	andeq	r0, r0, r7, asr #29
      6c:	00000020 	andeq	r0, r0, r0, lsr #32
      70:	00000000 	andeq	r0, r0, r0
      74:	00000054 	andeq	r0, r0, r4, asr r0
      78:	0000008c 	andeq	r0, r0, ip, lsl #1
      7c:	87080e41 	strhi	r0, [r8, -r1, asr #28]
      80:	41018e02 	tstmi	r1, r2, lsl #28
      84:	0d41100e 	stcleq	0, cr1, [r1, #-56]	; 0xffffffc8
      88:	080e7a07 	stmdaeq	lr, {r0, r1, r2, r9, fp, ip, sp, lr}
      8c:	000d0d41 	andeq	r0, sp, r1, asr #26
      90:	00000024 	andeq	r0, r0, r4, lsr #32
	...
      9c:	00000070 	andeq	r0, r0, r0, ror r0
      a0:	87040e41 	strhi	r0, [r4, -r1, asr #28]
      a4:	100e4101 	andne	r4, lr, r1, lsl #2
      a8:	6c070d41 	stcvs	13, cr0, [r7], {65}	; 0x41
      ac:	0d41040e 	cfstrdeq	mvd0, [r1, #-56]	; 0xffffffc8
      b0:	0ec7410d 	poleqs	f4, f7, #5.0
      b4:	00000000 	andeq	r0, r0, r0
      b8:	00000024 	andeq	r0, r0, r4, lsr #32
	...
      c4:	00000028 	andeq	r0, r0, r8, lsr #32
      c8:	87040e41 	strhi	r0, [r4, -r1, asr #28]
      cc:	100e4101 	andne	r4, lr, r1, lsl #2
      d0:	4b070d41 	blmi	1c35dc <UART_InterruptFIFOLevelSelect+0x1c219c>
      d4:	0d41040e 	cfstrdeq	mvd0, [r1, #-56]	; 0xffffffc8
      d8:	0ec7410d 	poleqs	f4, f7, #5.0
      dc:	00000000 	andeq	r0, r0, r0
      e0:	00000024 	andeq	r0, r0, r4, lsr #32
      e4:	00000000 	andeq	r0, r0, r0
      e8:	000000e0 	andeq	r0, r0, r0, ror #1
      ec:	0000002c 	andeq	r0, r0, ip, lsr #32
      f0:	87040e41 	strhi	r0, [r4, -r1, asr #28]
      f4:	100e4101 	andne	r4, lr, r1, lsl #2
      f8:	4e070d41 	cdpmi	13, 0, cr0, cr7, cr1, {2}
      fc:	0d41040e 	cfstrdeq	mvd0, [r1, #-56]	; 0xffffffc8
     100:	0ec7410d 	poleqs	f4, f7, #5.0
     104:	00000000 	andeq	r0, r0, r0
     108:	00000024 	andeq	r0, r0, r4, lsr #32
     10c:	00000000 	andeq	r0, r0, r0
     110:	0000010c 	andeq	r0, r0, ip, lsl #2
     114:	00000158 	andeq	r0, r0, r8, asr r1
     118:	87040e41 	strhi	r0, [r4, -r1, asr #28]
     11c:	180e4101 	stmdane	lr, {r0, r8, lr}
     120:	02070d41 	andeq	r0, r7, #4160	; 0x1040
     124:	41040e99 			; <UNDEFINED> instruction: 0x41040e99
     128:	c7410d0d 	strbgt	r0, [r1, -sp, lsl #26]
     12c:	0000000e 	andeq	r0, r0, lr
     130:	00000024 	andeq	r0, r0, r4, lsr #32
	...
     13c:	00000158 	andeq	r0, r0, r8, asr r1
     140:	87040e41 	strhi	r0, [r4, -r1, asr #28]
     144:	180e4101 	stmdane	lr, {r0, r8, lr}
     148:	02070d41 	andeq	r0, r7, #4160	; 0x1040
     14c:	41040e99 			; <UNDEFINED> instruction: 0x41040e99
     150:	c7410d0d 	strbgt	r0, [r1, -sp, lsl #26]
     154:	0000000e 	andeq	r0, r0, lr
     158:	00000024 	andeq	r0, r0, r4, lsr #32
     15c:	00000000 	andeq	r0, r0, r0
     160:	00000264 	andeq	r0, r0, r4, ror #4
     164:	00000058 	andeq	r0, r0, r8, asr r0
     168:	87040e41 	strhi	r0, [r4, -r1, asr #28]
     16c:	100e4101 	andne	r4, lr, r1, lsl #2
     170:	64070d41 	strvs	r0, [r7], #-3393	; 0xfffff2bf
     174:	0d41040e 	cfstrdeq	mvd0, [r1, #-56]	; 0xffffffc8
     178:	0ec7410d 	poleqs	f4, f7, #5.0
     17c:	00000000 	andeq	r0, r0, r0
     180:	00000024 	andeq	r0, r0, r4, lsr #32
	...
     18c:	00000024 	andeq	r0, r0, r4, lsr #32
     190:	87040e41 	strhi	r0, [r4, -r1, asr #28]
     194:	100e4101 	andne	r4, lr, r1, lsl #2
     198:	49070d41 	stmdbmi	r7, {r0, r6, r8, sl, fp}
     19c:	0d41040e 	cfstrdeq	mvd0, [r1, #-56]	; 0xffffffc8
     1a0:	0ec7410d 	poleqs	f4, f7, #5.0
     1a4:	00000000 	andeq	r0, r0, r0
     1a8:	00000020 	andeq	r0, r0, r0, lsr #32
     1ac:	00000000 	andeq	r0, r0, r0
     1b0:	000002bc 			; <UNDEFINED> instruction: 0x000002bc
     1b4:	00000038 	andeq	r0, r0, r8, lsr r0
     1b8:	87080e41 	strhi	r0, [r8, -r1, asr #28]
     1bc:	41018e02 	tstmi	r1, r2, lsl #28
     1c0:	0d41100e 	stcleq	0, cr1, [r1, #-56]	; 0xffffffc8
     1c4:	080e5707 	stmdaeq	lr, {r0, r1, r2, r8, r9, sl, ip, lr}
     1c8:	000d0d41 	andeq	r0, sp, r1, asr #26
     1cc:	00000024 	andeq	r0, r0, r4, lsr #32
     1d0:	00000000 	andeq	r0, r0, r0
     1d4:	000002f4 	strdeq	r0, [r0], -r4
     1d8:	00000054 	andeq	r0, r0, r4, asr r0
     1dc:	87040e41 	strhi	r0, [r4, -r1, asr #28]
     1e0:	100e4101 	andne	r4, lr, r1, lsl #2
     1e4:	62070d41 	andvs	r0, r7, #4160	; 0x1040
     1e8:	0d41040e 	cfstrdeq	mvd0, [r1, #-56]	; 0xffffffc8
     1ec:	0ec7410d 	poleqs	f4, f7, #5.0
     1f0:	00000000 	andeq	r0, r0, r0
     1f4:	00000024 	andeq	r0, r0, r4, lsr #32
     1f8:	00000000 	andeq	r0, r0, r0
     1fc:	00000348 	andeq	r0, r0, r8, asr #6
     200:	00000058 	andeq	r0, r0, r8, asr r0
     204:	87040e41 	strhi	r0, [r4, -r1, asr #28]
     208:	100e4101 	andne	r4, lr, r1, lsl #2
     20c:	64070d41 	strvs	r0, [r7], #-3393	; 0xfffff2bf
     210:	0d41040e 	cfstrdeq	mvd0, [r1, #-56]	; 0xffffffc8
     214:	0ec7410d 	poleqs	f4, f7, #5.0
     218:	00000000 	andeq	r0, r0, r0
     21c:	00000024 	andeq	r0, r0, r4, lsr #32
     220:	00000000 	andeq	r0, r0, r0
     224:	000003a0 	andeq	r0, r0, r0, lsr #7
     228:	00000058 	andeq	r0, r0, r8, asr r0
     22c:	87040e41 	strhi	r0, [r4, -r1, asr #28]
     230:	180e4101 	stmdane	lr, {r0, r8, lr}
     234:	64070d41 	strvs	r0, [r7], #-3393	; 0xfffff2bf
     238:	0d41040e 	cfstrdeq	mvd0, [r1, #-56]	; 0xffffffc8
     23c:	0ec7410d 	poleqs	f4, f7, #5.0
     240:	00000000 	andeq	r0, r0, r0
     244:	00000024 	andeq	r0, r0, r4, lsr #32
	...
     250:	0000005c 	andeq	r0, r0, ip, asr r0
     254:	87040e41 	strhi	r0, [r4, -r1, asr #28]
     258:	180e4101 	stmdane	lr, {r0, r8, lr}
     25c:	65070d41 	strvs	r0, [r7, #-3393]	; 0xfffff2bf
     260:	0d41040e 	cfstrdeq	mvd0, [r1, #-56]	; 0xffffffc8
     264:	0ec7410d 	poleqs	f4, f7, #5.0
     268:	00000000 	andeq	r0, r0, r0
     26c:	00000020 	andeq	r0, r0, r0, lsr #32
	...
     278:	00000034 	andeq	r0, r0, r4, lsr r0
     27c:	87080e41 	strhi	r0, [r8, -r1, asr #28]
     280:	41018e02 	tstmi	r1, r2, lsl #28
     284:	0d41100e 	stcleq	0, cr1, [r1, #-56]	; 0xffffffc8
     288:	080e5207 	stmdaeq	lr, {r0, r1, r2, r9, ip, lr}
     28c:	000d0d41 	andeq	r0, sp, r1, asr #26
     290:	00000020 	andeq	r0, r0, r0, lsr #32
	...
     29c:	00000060 	andeq	r0, r0, r0, rrx
     2a0:	87080e41 	strhi	r0, [r8, -r1, asr #28]
     2a4:	41018e02 	tstmi	r1, r2, lsl #28
     2a8:	0d41100e 	stcleq	0, cr1, [r1, #-56]	; 0xffffffc8
     2ac:	080e5f07 	stmdaeq	lr, {r0, r1, r2, r8, r9, sl, fp, ip, lr}
     2b0:	000d0d41 	andeq	r0, sp, r1, asr #26
     2b4:	00000020 	andeq	r0, r0, r0, lsr #32
	...
     2c0:	00000060 	andeq	r0, r0, r0, rrx
     2c4:	87080e41 	strhi	r0, [r8, -r1, asr #28]
     2c8:	41018e02 	tstmi	r1, r2, lsl #28
     2cc:	0d41100e 	stcleq	0, cr1, [r1, #-56]	; 0xffffffc8
     2d0:	080e5f07 	stmdaeq	lr, {r0, r1, r2, r8, r9, sl, fp, ip, lr}
     2d4:	000d0d41 	andeq	r0, sp, r1, asr #26
     2d8:	00000024 	andeq	r0, r0, r4, lsr #32
	...
     2e4:	00000024 	andeq	r0, r0, r4, lsr #32
     2e8:	87040e41 	strhi	r0, [r4, -r1, asr #28]
     2ec:	100e4101 	andne	r4, lr, r1, lsl #2
     2f0:	4a070d41 	bmi	1c37fc <UART_InterruptFIFOLevelSelect+0x1c23bc>
     2f4:	0d41040e 	cfstrdeq	mvd0, [r1, #-56]	; 0xffffffc8
     2f8:	0ec7410d 	poleqs	f4, f7, #5.0
     2fc:	00000000 	andeq	r0, r0, r0
     300:	00000024 	andeq	r0, r0, r4, lsr #32
	...
     30c:	00000024 	andeq	r0, r0, r4, lsr #32
     310:	87040e41 	strhi	r0, [r4, -r1, asr #28]
     314:	100e4101 	andne	r4, lr, r1, lsl #2
     318:	4a070d41 	bmi	1c3824 <UART_InterruptFIFOLevelSelect+0x1c23e4>
     31c:	0d41040e 	cfstrdeq	mvd0, [r1, #-56]	; 0xffffffc8
     320:	0ec7410d 	poleqs	f4, f7, #5.0
     324:	00000000 	andeq	r0, r0, r0
     328:	0000000c 	andeq	r0, r0, ip
     32c:	ffffffff 			; <UNDEFINED> instruction: 0xffffffff
     330:	7c020001 	stcvc	0, cr0, [r2], {1}
     334:	000d0c0e 	andeq	r0, sp, lr, lsl #24
     338:	00000018 	andeq	r0, r0, r8, lsl r0
     33c:	00000328 	andeq	r0, r0, r8, lsr #6
     340:	00000000 	andeq	r0, r0, r0
     344:	0000001c 	andeq	r0, r0, ip, lsl r0
     348:	87080e41 	strhi	r0, [r8, -r1, asr #28]
     34c:	41018e02 	tstmi	r1, r2, lsl #28
     350:	0000070d 	andeq	r0, r0, sp, lsl #14
     354:	00000018 	andeq	r0, r0, r8, lsl r0
     358:	00000328 	andeq	r0, r0, r8, lsr #6
     35c:	00000000 	andeq	r0, r0, r0
     360:	0000001c 	andeq	r0, r0, ip, lsl r0
     364:	87080e41 	strhi	r0, [r8, -r1, asr #28]
     368:	41018e02 	tstmi	r1, r2, lsl #28
     36c:	0000070d 	andeq	r0, r0, sp, lsl #14
     370:	00000018 	andeq	r0, r0, r8, lsl r0
     374:	00000328 	andeq	r0, r0, r8, lsr #6
     378:	00000000 	andeq	r0, r0, r0
     37c:	0000001c 	andeq	r0, r0, ip, lsl r0
     380:	87080e41 	strhi	r0, [r8, -r1, asr #28]
     384:	41018e02 	tstmi	r1, r2, lsl #28
     388:	0000070d 	andeq	r0, r0, sp, lsl #14
     38c:	00000018 	andeq	r0, r0, r8, lsl r0
     390:	00000328 	andeq	r0, r0, r8, lsr #6
     394:	00000000 	andeq	r0, r0, r0
     398:	0000001c 	andeq	r0, r0, ip, lsl r0
     39c:	87080e41 	strhi	r0, [r8, -r1, asr #28]
     3a0:	41018e02 	tstmi	r1, r2, lsl #28
     3a4:	0000070d 	andeq	r0, r0, sp, lsl #14
     3a8:	00000018 	andeq	r0, r0, r8, lsl r0
     3ac:	00000328 	andeq	r0, r0, r8, lsr #6
     3b0:	00000000 	andeq	r0, r0, r0
     3b4:	0000001c 	andeq	r0, r0, ip, lsl r0
     3b8:	87080e41 	strhi	r0, [r8, -r1, asr #28]
     3bc:	41018e02 	tstmi	r1, r2, lsl #28
     3c0:	0000070d 	andeq	r0, r0, sp, lsl #14
     3c4:	00000018 	andeq	r0, r0, r8, lsl r0
     3c8:	00000328 	andeq	r0, r0, r8, lsr #6
     3cc:	00000000 	andeq	r0, r0, r0
     3d0:	0000001c 	andeq	r0, r0, ip, lsl r0
     3d4:	87080e41 	strhi	r0, [r8, -r1, asr #28]
     3d8:	41018e02 	tstmi	r1, r2, lsl #28
     3dc:	0000070d 	andeq	r0, r0, sp, lsl #14
     3e0:	00000024 	andeq	r0, r0, r4, lsr #32
     3e4:	00000328 	andeq	r0, r0, r8, lsr #6
     3e8:	000003f8 	strdeq	r0, [r0], -r8
     3ec:	00000060 	andeq	r0, r0, r0, rrx
     3f0:	87040e41 	strhi	r0, [r4, -r1, asr #28]
     3f4:	100e4101 	andne	r4, lr, r1, lsl #2
     3f8:	68070d41 	stmdavs	r7, {r0, r6, r8, sl, fp}
     3fc:	0d41040e 	cfstrdeq	mvd0, [r1, #-56]	; 0xffffffc8
     400:	0ec7410d 	poleqs	f4, f7, #5.0
     404:	00000000 	andeq	r0, r0, r0
     408:	00000024 	andeq	r0, r0, r4, lsr #32
     40c:	00000328 	andeq	r0, r0, r8, lsr #6
     410:	00000458 	andeq	r0, r0, r8, asr r4
     414:	00000090 	muleq	r0, r0, r0
     418:	87040e41 	strhi	r0, [r4, -r1, asr #28]
     41c:	100e4101 	andne	r4, lr, r1, lsl #2
     420:	02070d41 	andeq	r0, r7, #4160	; 0x1040
     424:	41040e40 	tstmi	r4, r0, asr #28
     428:	c7410d0d 	strbgt	r0, [r1, -sp, lsl #26]
     42c:	0000000e 	andeq	r0, r0, lr
     430:	00000024 	andeq	r0, r0, r4, lsr #32
     434:	00000328 	andeq	r0, r0, r8, lsr #6
     438:	000004e8 	andeq	r0, r0, r8, ror #9
     43c:	00000090 	muleq	r0, r0, r0
     440:	87040e41 	strhi	r0, [r4, -r1, asr #28]
     444:	100e4101 	andne	r4, lr, r1, lsl #2
     448:	02070d41 	andeq	r0, r7, #4160	; 0x1040
     44c:	41040e40 	tstmi	r4, r0, asr #28
     450:	c7410d0d 	strbgt	r0, [r1, -sp, lsl #26]
     454:	0000000e 	andeq	r0, r0, lr
     458:	00000024 	andeq	r0, r0, r4, lsr #32
     45c:	00000328 	andeq	r0, r0, r8, lsr #6
     460:	00000000 	andeq	r0, r0, r0
     464:	0000004c 	andeq	r0, r0, ip, asr #32
     468:	87040e41 	strhi	r0, [r4, -r1, asr #28]
     46c:	100e4101 	andne	r4, lr, r1, lsl #2
     470:	5e070d41 	cdppl	13, 0, cr0, cr7, cr1, {2}
     474:	0d41040e 	cfstrdeq	mvd0, [r1, #-56]	; 0xffffffc8
     478:	0ec7410d 	poleqs	f4, f7, #5.0
     47c:	00000000 	andeq	r0, r0, r0
     480:	00000024 	andeq	r0, r0, r4, lsr #32
     484:	00000328 	andeq	r0, r0, r8, lsr #6
     488:	00000000 	andeq	r0, r0, r0
     48c:	00000090 	muleq	r0, r0, r0
     490:	87040e41 	strhi	r0, [r4, -r1, asr #28]
     494:	100e4101 	andne	r4, lr, r1, lsl #2
     498:	02070d41 	andeq	r0, r7, #4160	; 0x1040
     49c:	41040e40 	tstmi	r4, r0, asr #28
     4a0:	c7410d0d 	strbgt	r0, [r1, -sp, lsl #26]
     4a4:	0000000e 	andeq	r0, r0, lr
     4a8:	00000024 	andeq	r0, r0, r4, lsr #32
     4ac:	00000328 	andeq	r0, r0, r8, lsr #6
     4b0:	00000000 	andeq	r0, r0, r0
     4b4:	00000028 	andeq	r0, r0, r8, lsr #32
     4b8:	87040e41 	strhi	r0, [r4, -r1, asr #28]
     4bc:	100e4101 	andne	r4, lr, r1, lsl #2
     4c0:	4e070d41 	cdpmi	13, 0, cr0, cr7, cr1, {2}
     4c4:	0d41040e 	cfstrdeq	mvd0, [r1, #-56]	; 0xffffffc8
     4c8:	0ec7410d 	poleqs	f4, f7, #5.0
     4cc:	00000000 	andeq	r0, r0, r0
     4d0:	00000024 	andeq	r0, r0, r4, lsr #32
     4d4:	00000328 	andeq	r0, r0, r8, lsr #6
     4d8:	00000000 	andeq	r0, r0, r0
     4dc:	00000060 	andeq	r0, r0, r0, rrx
     4e0:	87040e41 	strhi	r0, [r4, -r1, asr #28]
     4e4:	100e4101 	andne	r4, lr, r1, lsl #2
     4e8:	68070d41 	stmdavs	r7, {r0, r6, r8, sl, fp}
     4ec:	0d41040e 	cfstrdeq	mvd0, [r1, #-56]	; 0xffffffc8
     4f0:	0ec7410d 	poleqs	f4, f7, #5.0
     4f4:	00000000 	andeq	r0, r0, r0
     4f8:	00000024 	andeq	r0, r0, r4, lsr #32
     4fc:	00000328 	andeq	r0, r0, r8, lsr #6
     500:	00000578 	andeq	r0, r0, r8, ror r5
     504:	00000090 	muleq	r0, r0, r0
     508:	87040e41 	strhi	r0, [r4, -r1, asr #28]
     50c:	100e4101 	andne	r4, lr, r1, lsl #2
     510:	02070d41 	andeq	r0, r7, #4160	; 0x1040
     514:	41040e40 	tstmi	r4, r0, asr #28
     518:	c7410d0d 	strbgt	r0, [r1, -sp, lsl #26]
     51c:	0000000e 	andeq	r0, r0, lr
     520:	00000024 	andeq	r0, r0, r4, lsr #32
     524:	00000328 	andeq	r0, r0, r8, lsr #6
     528:	00000608 	andeq	r0, r0, r8, lsl #12
     52c:	00000080 	andeq	r0, r0, r0, lsl #1
     530:	87040e41 	strhi	r0, [r4, -r1, asr #28]
     534:	100e4101 	andne	r4, lr, r1, lsl #2
     538:	73070d41 	movwvc	r0, #32065	; 0x7d41
     53c:	0d41040e 	cfstrdeq	mvd0, [r1, #-56]	; 0xffffffc8
     540:	0ec7410d 	poleqs	f4, f7, #5.0
     544:	00000000 	andeq	r0, r0, r0
     548:	00000024 	andeq	r0, r0, r4, lsr #32
     54c:	00000328 	andeq	r0, r0, r8, lsr #6
     550:	00000000 	andeq	r0, r0, r0
     554:	0000004c 	andeq	r0, r0, ip, asr #32
     558:	87040e41 	strhi	r0, [r4, -r1, asr #28]
     55c:	100e4101 	andne	r4, lr, r1, lsl #2
     560:	5e070d41 	cdppl	13, 0, cr0, cr7, cr1, {2}
     564:	0d41040e 	cfstrdeq	mvd0, [r1, #-56]	; 0xffffffc8
     568:	0ec7410d 	poleqs	f4, f7, #5.0
     56c:	00000000 	andeq	r0, r0, r0
     570:	00000024 	andeq	r0, r0, r4, lsr #32
     574:	00000328 	andeq	r0, r0, r8, lsr #6
     578:	00000000 	andeq	r0, r0, r0
     57c:	00000090 	muleq	r0, r0, r0
     580:	87040e41 	strhi	r0, [r4, -r1, asr #28]
     584:	100e4101 	andne	r4, lr, r1, lsl #2
     588:	02070d41 	andeq	r0, r7, #4160	; 0x1040
     58c:	41040e40 	tstmi	r4, r0, asr #28
     590:	c7410d0d 	strbgt	r0, [r1, -sp, lsl #26]
     594:	0000000e 	andeq	r0, r0, lr
     598:	00000020 	andeq	r0, r0, r0, lsr #32
     59c:	00000328 	andeq	r0, r0, r8, lsr #6
     5a0:	00000688 	andeq	r0, r0, r8, lsl #13
     5a4:	0000005a 	andeq	r0, r0, sl, asr r0
     5a8:	87080e41 	strhi	r0, [r8, -r1, asr #28]
     5ac:	41018e02 	tstmi	r1, r2, lsl #28
     5b0:	0d41100e 	stcleq	0, cr1, [r1, #-56]	; 0xffffffc8
     5b4:	080e6807 	stmdaeq	lr, {r0, r1, r2, fp, sp, lr}
     5b8:	000d0d41 	andeq	r0, sp, r1, asr #26
     5bc:	00000024 	andeq	r0, r0, r4, lsr #32
     5c0:	00000328 	andeq	r0, r0, r8, lsr #6
     5c4:	000006e4 	andeq	r0, r0, r4, ror #13
     5c8:	00000090 	muleq	r0, r0, r0
     5cc:	87040e41 	strhi	r0, [r4, -r1, asr #28]
     5d0:	100e4101 	andne	r4, lr, r1, lsl #2
     5d4:	02070d41 	andeq	r0, r7, #4160	; 0x1040
     5d8:	41040e40 	tstmi	r4, r0, asr #28
     5dc:	c7410d0d 	strbgt	r0, [r1, -sp, lsl #26]
     5e0:	0000000e 	andeq	r0, r0, lr
     5e4:	00000024 	andeq	r0, r0, r4, lsr #32
     5e8:	00000328 	andeq	r0, r0, r8, lsr #6
     5ec:	00000774 	andeq	r0, r0, r4, ror r7
     5f0:	0000004c 	andeq	r0, r0, ip, asr #32
     5f4:	87040e41 	strhi	r0, [r4, -r1, asr #28]
     5f8:	100e4101 	andne	r4, lr, r1, lsl #2
     5fc:	5e070d41 	cdppl	13, 0, cr0, cr7, cr1, {2}
     600:	0d41040e 	cfstrdeq	mvd0, [r1, #-56]	; 0xffffffc8
     604:	0ec7410d 	poleqs	f4, f7, #5.0
     608:	00000000 	andeq	r0, r0, r0
     60c:	00000020 	andeq	r0, r0, r0, lsr #32
     610:	00000328 	andeq	r0, r0, r8, lsr #6
     614:	000007c0 	andeq	r0, r0, r0, asr #15
     618:	00000064 	andeq	r0, r0, r4, rrx
     61c:	87080e41 	strhi	r0, [r8, -r1, asr #28]
     620:	41018e02 	tstmi	r1, r2, lsl #28
     624:	0d41100e 	stcleq	0, cr1, [r1, #-56]	; 0xffffffc8
     628:	080e6d07 	stmdaeq	lr, {r0, r1, r2, r8, sl, fp, sp, lr}
     62c:	000d0d41 	andeq	r0, sp, r1, asr #26
     630:	00000024 	andeq	r0, r0, r4, lsr #32
     634:	00000328 	andeq	r0, r0, r8, lsr #6
     638:	00000000 	andeq	r0, r0, r0
     63c:	00000054 	andeq	r0, r0, r4, asr r0
     640:	84080e41 	strhi	r0, [r8], #-3649	; 0xfffff1bf
     644:	41018702 	tstmi	r1, r2, lsl #14
     648:	0d41100e 	stcleq	0, cr1, [r1, #-56]	; 0xffffffc8
     64c:	080e6107 	stmdaeq	lr, {r0, r1, r2, r8, sp, lr}
     650:	410d0d41 	tstmi	sp, r1, asr #26
     654:	000ec4c7 	andeq	ip, lr, r7, asr #9
     658:	00000024 	andeq	r0, r0, r4, lsr #32
     65c:	00000328 	andeq	r0, r0, r8, lsr #6
     660:	00000000 	andeq	r0, r0, r0
     664:	00000034 	andeq	r0, r0, r4, lsr r0
     668:	87040e41 	strhi	r0, [r4, -r1, asr #28]
     66c:	100e4101 	andne	r4, lr, r1, lsl #2
     670:	52070d41 	andpl	r0, r7, #4160	; 0x1040
     674:	0d41040e 	cfstrdeq	mvd0, [r1, #-56]	; 0xffffffc8
     678:	0ec7410d 	poleqs	f4, f7, #5.0
     67c:	00000000 	andeq	r0, r0, r0
     680:	00000024 	andeq	r0, r0, r4, lsr #32
     684:	00000328 	andeq	r0, r0, r8, lsr #6
     688:	00000000 	andeq	r0, r0, r0
     68c:	00000084 	andeq	r0, r0, r4, lsl #1
     690:	84080e41 	strhi	r0, [r8], #-3649	; 0xfffff1bf
     694:	41018702 	tstmi	r1, r2, lsl #14
     698:	0d41100e 	stcleq	0, cr1, [r1, #-56]	; 0xffffffc8
     69c:	080e7a07 	stmdaeq	lr, {r0, r1, r2, r9, fp, ip, sp, lr}
     6a0:	410d0d41 	tstmi	sp, r1, asr #26
     6a4:	000ec4c7 	andeq	ip, lr, r7, asr #9
     6a8:	00000020 	andeq	r0, r0, r0, lsr #32
     6ac:	00000328 	andeq	r0, r0, r8, lsr #6
     6b0:	00000000 	andeq	r0, r0, r0
     6b4:	0000005a 	andeq	r0, r0, sl, asr r0
     6b8:	87080e41 	strhi	r0, [r8, -r1, asr #28]
     6bc:	41018e02 	tstmi	r1, r2, lsl #28
     6c0:	0d41100e 	stcleq	0, cr1, [r1, #-56]	; 0xffffffc8
     6c4:	080e6807 	stmdaeq	lr, {r0, r1, r2, fp, sp, lr}
     6c8:	000d0d41 	andeq	r0, sp, r1, asr #26
     6cc:	00000020 	andeq	r0, r0, r0, lsr #32
     6d0:	00000328 	andeq	r0, r0, r8, lsr #6
     6d4:	00000000 	andeq	r0, r0, r0
     6d8:	0000007a 	andeq	r0, r0, sl, ror r0
     6dc:	87080e41 	strhi	r0, [r8, -r1, asr #28]
     6e0:	41018e02 	tstmi	r1, r2, lsl #28
     6e4:	0d41100e 	stcleq	0, cr1, [r1, #-56]	; 0xffffffc8
     6e8:	080e7807 	stmdaeq	lr, {r0, r1, r2, fp, ip, sp, lr}
     6ec:	000d0d41 	andeq	r0, sp, r1, asr #26
     6f0:	00000024 	andeq	r0, r0, r4, lsr #32
     6f4:	00000328 	andeq	r0, r0, r8, lsr #6
     6f8:	00000000 	andeq	r0, r0, r0
     6fc:	00000024 	andeq	r0, r0, r4, lsr #32
     700:	87040e41 	strhi	r0, [r4, -r1, asr #28]
     704:	100e4101 	andne	r4, lr, r1, lsl #2
     708:	4a070d41 	bmi	1c3c14 <UART_InterruptFIFOLevelSelect+0x1c27d4>
     70c:	0d41040e 	cfstrdeq	mvd0, [r1, #-56]	; 0xffffffc8
     710:	0ec7410d 	poleqs	f4, f7, #5.0
     714:	00000000 	andeq	r0, r0, r0
     718:	0000000c 	andeq	r0, r0, ip
     71c:	ffffffff 			; <UNDEFINED> instruction: 0xffffffff
     720:	7c020001 	stcvc	0, cr0, [r2], {1}
     724:	000d0c0e 	andeq	r0, sp, lr, lsl #24
     728:	00000024 	andeq	r0, r0, r4, lsr #32
     72c:	00000718 	andeq	r0, r0, r8, lsl r7
     730:	00000000 	andeq	r0, r0, r0
     734:	00000080 	andeq	r0, r0, r0, lsl #1
     738:	87040e41 	strhi	r0, [r4, -r1, asr #28]
     73c:	100e4101 	andne	r4, lr, r1, lsl #2
     740:	76070d41 	strvc	r0, [r7], -r1, asr #26
     744:	0d41040e 	cfstrdeq	mvd0, [r1, #-56]	; 0xffffffc8
     748:	0ec7410d 	poleqs	f4, f7, #5.0
     74c:	00000000 	andeq	r0, r0, r0
     750:	00000028 	andeq	r0, r0, r8, lsr #32
     754:	00000718 	andeq	r0, r0, r8, lsl r7
     758:	00000000 	andeq	r0, r0, r0
     75c:	0000005c 	andeq	r0, r0, ip, asr r0
     760:	840c0e41 	strhi	r0, [ip], #-3649	; 0xfffff1bf
     764:	87028503 	strhi	r8, [r2, -r3, lsl #10]
     768:	180e4101 	stmdane	lr, {r0, r8, lr}
     76c:	65070d41 	strvs	r0, [r7, #-3393]	; 0xfffff2bf
     770:	0d410c0e 	stcleq	12, cr0, [r1, #-56]	; 0xffffffc8
     774:	c5c7410d 	strbgt	r4, [r7, #269]	; 0x10d
     778:	00000ec4 	andeq	r0, r0, r4, asr #29
     77c:	00000028 	andeq	r0, r0, r8, lsr #32
     780:	00000718 	andeq	r0, r0, r8, lsl r7
     784:	00000000 	andeq	r0, r0, r0
     788:	0000005c 	andeq	r0, r0, ip, asr r0
     78c:	840c0e41 	strhi	r0, [ip], #-3649	; 0xfffff1bf
     790:	87028503 	strhi	r8, [r2, -r3, lsl #10]
     794:	180e4101 	stmdane	lr, {r0, r8, lr}
     798:	66070d41 	strvs	r0, [r7], -r1, asr #26
     79c:	0d410c0e 	stcleq	12, cr0, [r1, #-56]	; 0xffffffc8
     7a0:	c5c7410d 	strbgt	r4, [r7, #269]	; 0x10d
     7a4:	00000ec4 	andeq	r0, r0, r4, asr #29
     7a8:	00000020 	andeq	r0, r0, r0, lsr #32
     7ac:	00000718 	andeq	r0, r0, r8, lsl r7
     7b0:	00000000 	andeq	r0, r0, r0
     7b4:	00000124 	andeq	r0, r0, r4, lsr #2
     7b8:	87080e41 	strhi	r0, [r8, -r1, asr #28]
     7bc:	41018e02 	tstmi	r1, r2, lsl #28
     7c0:	0d41100e 	stcleq	0, cr1, [r1, #-56]	; 0xffffffc8
     7c4:	0e860207 	cdpeq	2, 8, cr0, cr6, cr7, {0}
     7c8:	0d0d4108 	stfeqs	f4, [sp, #-32]	; 0xffffffe0
     7cc:	00000020 	andeq	r0, r0, r0, lsr #32
     7d0:	00000718 	andeq	r0, r0, r8, lsl r7
     7d4:	00000000 	andeq	r0, r0, r0
     7d8:	000000b0 	strheq	r0, [r0], -r0	; <UNPREDICTABLE>
     7dc:	87080e41 	strhi	r0, [r8, -r1, asr #28]
     7e0:	41018e02 	tstmi	r1, r2, lsl #28
     7e4:	0d41280e 	stcleq	8, cr2, [r1, #-56]	; 0xffffffc8
     7e8:	0e4b0207 	cdpeq	2, 4, cr0, cr11, cr7, {0}
     7ec:	0d0d4108 	stfeqs	f4, [sp, #-32]	; 0xffffffe0
     7f0:	00000020 	andeq	r0, r0, r0, lsr #32
     7f4:	00000718 	andeq	r0, r0, r8, lsl r7
     7f8:	00000000 	andeq	r0, r0, r0
     7fc:	000000b4 	strheq	r0, [r0], -r4
     800:	87080e41 	strhi	r0, [r8, -r1, asr #28]
     804:	41018e02 	tstmi	r1, r2, lsl #28
     808:	0d41100e 	stcleq	0, cr1, [r1, #-56]	; 0xffffffc8
     80c:	0e500207 	cdpeq	2, 5, cr0, cr0, cr7, {0}
     810:	0d0d4108 	stfeqs	f4, [sp, #-32]	; 0xffffffe0
     814:	00000020 	andeq	r0, r0, r0, lsr #32
     818:	00000718 	andeq	r0, r0, r8, lsl r7
     81c:	00000000 	andeq	r0, r0, r0
     820:	000000cc 	andeq	r0, r0, ip, asr #1
     824:	87080e41 	strhi	r0, [r8, -r1, asr #28]
     828:	41018e02 	tstmi	r1, r2, lsl #28
     82c:	0d41300e 	stcleq	0, cr3, [r1, #-56]	; 0xffffffc8
     830:	0e580207 	cdpeq	2, 5, cr0, cr8, cr7, {0}
     834:	0d0d4108 	stfeqs	f4, [sp, #-32]	; 0xffffffe0
     838:	0000000c 	andeq	r0, r0, ip
     83c:	ffffffff 			; <UNDEFINED> instruction: 0xffffffff
     840:	7c020001 	stcvc	0, cr0, [r2], {1}
     844:	000d0c0e 	andeq	r0, sp, lr, lsl #24
     848:	00000018 	andeq	r0, r0, r8, lsl r0
     84c:	00000838 	andeq	r0, r0, r8, lsr r8
     850:	00000000 	andeq	r0, r0, r0
     854:	0000001c 	andeq	r0, r0, ip, lsl r0
     858:	87080e41 	strhi	r0, [r8, -r1, asr #28]
     85c:	41018e02 	tstmi	r1, r2, lsl #28
     860:	0000070d 	andeq	r0, r0, sp, lsl #14
     864:	00000018 	andeq	r0, r0, r8, lsl r0
     868:	00000838 	andeq	r0, r0, r8, lsr r8
     86c:	00000000 	andeq	r0, r0, r0
     870:	00000020 	andeq	r0, r0, r0, lsr #32
     874:	87080e41 	strhi	r0, [r8, -r1, asr #28]
     878:	41018e02 	tstmi	r1, r2, lsl #28
     87c:	0000070d 	andeq	r0, r0, sp, lsl #14
     880:	00000020 	andeq	r0, r0, r0, lsr #32
     884:	00000838 	andeq	r0, r0, r8, lsr r8
     888:	00000000 	andeq	r0, r0, r0
     88c:	00000026 	andeq	r0, r0, r6, lsr #32
     890:	87080e41 	strhi	r0, [r8, -r1, asr #28]
     894:	41018e02 	tstmi	r1, r2, lsl #28
     898:	0d41100e 	stcleq	0, cr1, [r1, #-56]	; 0xffffffc8
     89c:	080e4e07 	stmdaeq	lr, {r0, r1, r2, r9, sl, fp, lr}
     8a0:	000d0d41 	andeq	r0, sp, r1, asr #26
     8a4:	00000020 	andeq	r0, r0, r0, lsr #32
     8a8:	00000838 	andeq	r0, r0, r8, lsr r8
     8ac:	00000000 	andeq	r0, r0, r0
     8b0:	00000026 	andeq	r0, r0, r6, lsr #32
     8b4:	87080e41 	strhi	r0, [r8, -r1, asr #28]
     8b8:	41018e02 	tstmi	r1, r2, lsl #28
     8bc:	0d41100e 	stcleq	0, cr1, [r1, #-56]	; 0xffffffc8
     8c0:	080e4e07 	stmdaeq	lr, {r0, r1, r2, r9, sl, fp, lr}
     8c4:	000d0d41 	andeq	r0, sp, r1, asr #26
     8c8:	00000020 	andeq	r0, r0, r0, lsr #32
     8cc:	00000838 	andeq	r0, r0, r8, lsr r8
     8d0:	00000000 	andeq	r0, r0, r0
     8d4:	00000018 	andeq	r0, r0, r8, lsl r0
     8d8:	87080e41 	strhi	r0, [r8, -r1, asr #28]
     8dc:	41018e02 	tstmi	r1, r2, lsl #28
     8e0:	0d41100e 	stcleq	0, cr1, [r1, #-56]	; 0xffffffc8
     8e4:	080e4707 	stmdaeq	lr, {r0, r1, r2, r8, r9, sl, lr}
     8e8:	000d0d41 	andeq	r0, sp, r1, asr #26
     8ec:	00000020 	andeq	r0, r0, r0, lsr #32
     8f0:	00000838 	andeq	r0, r0, r8, lsr r8
     8f4:	00000000 	andeq	r0, r0, r0
     8f8:	00000018 	andeq	r0, r0, r8, lsl r0
     8fc:	87080e41 	strhi	r0, [r8, -r1, asr #28]
     900:	41018e02 	tstmi	r1, r2, lsl #28
     904:	0d41100e 	stcleq	0, cr1, [r1, #-56]	; 0xffffffc8
     908:	080e4707 	stmdaeq	lr, {r0, r1, r2, r8, r9, sl, lr}
     90c:	000d0d41 	andeq	r0, sp, r1, asr #26
     910:	00000020 	andeq	r0, r0, r0, lsr #32
     914:	00000838 	andeq	r0, r0, r8, lsr r8
     918:	00000000 	andeq	r0, r0, r0
     91c:	00000028 	andeq	r0, r0, r8, lsr #32
     920:	87080e41 	strhi	r0, [r8, -r1, asr #28]
     924:	41018e02 	tstmi	r1, r2, lsl #28
     928:	0d41100e 	stcleq	0, cr1, [r1, #-56]	; 0xffffffc8
     92c:	080e4f07 	stmdaeq	lr, {r0, r1, r2, r8, r9, sl, fp, lr}
     930:	000d0d41 	andeq	r0, sp, r1, asr #26
     934:	0000000c 	andeq	r0, r0, ip
     938:	ffffffff 			; <UNDEFINED> instruction: 0xffffffff
     93c:	7c020001 	stcvc	0, cr0, [r2], {1}
     940:	000d0c0e 	andeq	r0, sp, lr, lsl #24
     944:	00000024 	andeq	r0, r0, r4, lsr #32
     948:	00000934 	andeq	r0, r0, r4, lsr r9
     94c:	00000000 	andeq	r0, r0, r0
     950:	0000002a 	andeq	r0, r0, sl, lsr #32
     954:	87040e41 	strhi	r0, [r4, -r1, asr #28]
     958:	100e4101 	andne	r4, lr, r1, lsl #2
     95c:	4f070d41 	svcmi	0x00070d41
     960:	0d41040e 	cfstrdeq	mvd0, [r1, #-56]	; 0xffffffc8
     964:	0ec7410d 	poleqs	f4, f7, #5.0
     968:	00000000 	andeq	r0, r0, r0
     96c:	0000001c 	andeq	r0, r0, ip, lsl r0
     970:	00000934 	andeq	r0, r0, r4, lsr r9
     974:	00000824 	andeq	r0, r0, r4, lsr #16
     978:	0000009c 	muleq	r0, ip, r0
     97c:	87080e41 	strhi	r0, [r8, -r1, asr #28]
     980:	41018e02 	tstmi	r1, r2, lsl #28
     984:	0d41100e 	stcleq	0, cr1, [r1, #-56]	; 0xffffffc8
     988:	00000007 	andeq	r0, r0, r7
     98c:	0000000c 	andeq	r0, r0, ip
     990:	ffffffff 			; <UNDEFINED> instruction: 0xffffffff
     994:	7c020001 	stcvc	0, cr0, [r2], {1}
     998:	000d0c0e 	andeq	r0, sp, lr, lsl #24
     99c:	00000024 	andeq	r0, r0, r4, lsr #32
     9a0:	0000098c 	andeq	r0, r0, ip, lsl #19
     9a4:	000008c0 	andeq	r0, r0, r0, asr #17
     9a8:	0000004c 	andeq	r0, r0, ip, asr #32
     9ac:	87040e41 	strhi	r0, [r4, -r1, asr #28]
     9b0:	180e4101 	stmdane	lr, {r0, r8, lr}
     9b4:	5d070d41 	stcpl	13, cr0, [r7, #-260]	; 0xfffffefc
     9b8:	0d41040e 	cfstrdeq	mvd0, [r1, #-56]	; 0xffffffc8
     9bc:	0ec7410d 	poleqs	f4, f7, #5.0
     9c0:	00000000 	andeq	r0, r0, r0
     9c4:	00000024 	andeq	r0, r0, r4, lsr #32
     9c8:	0000098c 	andeq	r0, r0, ip, lsl #19
     9cc:	0000090c 	andeq	r0, r0, ip, lsl #18
     9d0:	0000004c 	andeq	r0, r0, ip, asr #32
     9d4:	87040e41 	strhi	r0, [r4, -r1, asr #28]
     9d8:	180e4101 	stmdane	lr, {r0, r8, lr}
     9dc:	5e070d41 	cdppl	13, 0, cr0, cr7, cr1, {2}
     9e0:	0d41040e 	cfstrdeq	mvd0, [r1, #-56]	; 0xffffffc8
     9e4:	0ec7410d 	poleqs	f4, f7, #5.0
     9e8:	00000000 	andeq	r0, r0, r0
     9ec:	00000024 	andeq	r0, r0, r4, lsr #32
     9f0:	0000098c 	andeq	r0, r0, ip, lsl #19
     9f4:	00000000 	andeq	r0, r0, r0
     9f8:	0000004c 	andeq	r0, r0, ip, asr #32
     9fc:	87040e41 	strhi	r0, [r4, -r1, asr #28]
     a00:	180e4101 	stmdane	lr, {r0, r8, lr}
     a04:	5d070d41 	stcpl	13, cr0, [r7, #-260]	; 0xfffffefc
     a08:	0d41040e 	cfstrdeq	mvd0, [r1, #-56]	; 0xffffffc8
     a0c:	0ec7410d 	poleqs	f4, f7, #5.0
     a10:	00000000 	andeq	r0, r0, r0
     a14:	00000024 	andeq	r0, r0, r4, lsr #32
     a18:	0000098c 	andeq	r0, r0, ip, lsl #19
     a1c:	00000000 	andeq	r0, r0, r0
     a20:	0000004c 	andeq	r0, r0, ip, asr #32
     a24:	87040e41 	strhi	r0, [r4, -r1, asr #28]
     a28:	180e4101 	stmdane	lr, {r0, r8, lr}
     a2c:	5e070d41 	cdppl	13, 0, cr0, cr7, cr1, {2}
     a30:	0d41040e 	cfstrdeq	mvd0, [r1, #-56]	; 0xffffffc8
     a34:	0ec7410d 	poleqs	f4, f7, #5.0
     a38:	00000000 	andeq	r0, r0, r0
     a3c:	00000024 	andeq	r0, r0, r4, lsr #32
     a40:	0000098c 	andeq	r0, r0, ip, lsl #19
     a44:	00000000 	andeq	r0, r0, r0
     a48:	00000038 	andeq	r0, r0, r8, lsr r0
     a4c:	87040e41 	strhi	r0, [r4, -r1, asr #28]
     a50:	100e4101 	andne	r4, lr, r1, lsl #2
     a54:	54070d41 	strpl	r0, [r7], #-3393	; 0xfffff2bf
     a58:	0d41040e 	cfstrdeq	mvd0, [r1, #-56]	; 0xffffffc8
     a5c:	0ec7410d 	poleqs	f4, f7, #5.0
     a60:	00000000 	andeq	r0, r0, r0
     a64:	00000024 	andeq	r0, r0, r4, lsr #32
     a68:	0000098c 	andeq	r0, r0, ip, lsl #19
     a6c:	00000000 	andeq	r0, r0, r0
     a70:	00000134 	andeq	r0, r0, r4, lsr r1
     a74:	87040e41 	strhi	r0, [r4, -r1, asr #28]
     a78:	180e4101 	stmdane	lr, {r0, r8, lr}
     a7c:	02070d41 	andeq	r0, r7, #4160	; 0x1040
     a80:	41040e91 			; <UNDEFINED> instruction: 0x41040e91
     a84:	c7410d0d 	strbgt	r0, [r1, -sp, lsl #26]
     a88:	0000000e 	andeq	r0, r0, lr
     a8c:	0000000c 	andeq	r0, r0, ip
     a90:	ffffffff 			; <UNDEFINED> instruction: 0xffffffff
     a94:	7c020001 	stcvc	0, cr0, [r2], {1}
     a98:	000d0c0e 	andeq	r0, sp, lr, lsl #24
     a9c:	00000018 	andeq	r0, r0, r8, lsl r0
     aa0:	00000a8c 	andeq	r0, r0, ip, lsl #21
     aa4:	00000958 	andeq	r0, r0, r8, asr r9
     aa8:	0000000c 	andeq	r0, r0, ip
     aac:	87080e41 	strhi	r0, [r8, -r1, asr #28]
     ab0:	41018e02 	tstmi	r1, r2, lsl #28
     ab4:	0000070d 	andeq	r0, r0, sp, lsl #14
     ab8:	00000020 	andeq	r0, r0, r0, lsr #32
     abc:	00000a8c 	andeq	r0, r0, ip, lsl #21
     ac0:	00000964 	andeq	r0, r0, r4, ror #18
     ac4:	00000080 	andeq	r0, r0, r0, lsl #1
     ac8:	87080e41 	strhi	r0, [r8, -r1, asr #28]
     acc:	41018e02 	tstmi	r1, r2, lsl #28
     ad0:	0d41200e 	stcleq	0, cr2, [r1, #-56]	; 0xffffffc8
     ad4:	080e7107 	stmdaeq	lr, {r0, r1, r2, r8, ip, sp, lr}
     ad8:	000d0d41 	andeq	r0, sp, r1, asr #26
     adc:	0000000c 	andeq	r0, r0, ip
     ae0:	ffffffff 			; <UNDEFINED> instruction: 0xffffffff
     ae4:	7c020001 	stcvc	0, cr0, [r2], {1}
     ae8:	000d0c0e 	andeq	r0, sp, lr, lsl #24
     aec:	00000024 	andeq	r0, r0, r4, lsr #32
     af0:	00000adc 	ldrdeq	r0, [r0], -ip
     af4:	00000000 	andeq	r0, r0, r0
     af8:	00000030 	andeq	r0, r0, r0, lsr r0
     afc:	87040e41 	strhi	r0, [r4, -r1, asr #28]
     b00:	100e4101 	andne	r4, lr, r1, lsl #2
     b04:	4f070d41 	svcmi	0x00070d41
     b08:	0d41040e 	cfstrdeq	mvd0, [r1, #-56]	; 0xffffffc8
     b0c:	0ec7410d 	poleqs	f4, f7, #5.0
     b10:	00000000 	andeq	r0, r0, r0
     b14:	00000024 	andeq	r0, r0, r4, lsr #32
     b18:	00000adc 	ldrdeq	r0, [r0], -ip
     b1c:	00000000 	andeq	r0, r0, r0
     b20:	0000012c 	andeq	r0, r0, ip, lsr #2
     b24:	87040e41 	strhi	r0, [r4, -r1, asr #28]
     b28:	100e4101 	andne	r4, lr, r1, lsl #2
     b2c:	02070d41 	andeq	r0, r7, #4160	; 0x1040
     b30:	41040e89 	smlabbmi	r4, r9, lr, r0
     b34:	c7410d0d 	strbgt	r0, [r1, -sp, lsl #26]
     b38:	0000000e 	andeq	r0, r0, lr
     b3c:	0000001c 	andeq	r0, r0, ip, lsl r0
     b40:	00000adc 	ldrdeq	r0, [r0], -ip
     b44:	000009e4 	andeq	r0, r0, r4, ror #19
     b48:	00000048 	andeq	r0, r0, r8, asr #32
     b4c:	87040e41 	strhi	r0, [r4, -r1, asr #28]
     b50:	070d4101 	streq	r4, [sp, -r1, lsl #2]
     b54:	410d0d57 	tstmi	sp, r7, asr sp
     b58:	00000ec7 	andeq	r0, r0, r7, asr #29
     b5c:	00000020 	andeq	r0, r0, r0, lsr #32
     b60:	00000adc 	ldrdeq	r0, [r0], -ip
     b64:	00000a2c 	andeq	r0, r0, ip, lsr #20
     b68:	0000009c 	muleq	r0, ip, r0
     b6c:	87080e41 	strhi	r0, [r8, -r1, asr #28]
     b70:	41018e02 	tstmi	r1, r2, lsl #28
     b74:	0d41100e 	stcleq	0, cr1, [r1, #-56]	; 0xffffffc8
     b78:	0e420207 	cdpeq	2, 4, cr0, cr2, cr7, {0}
     b7c:	0d0d4108 	stfeqs	f4, [sp, #-32]	; 0xffffffe0
     b80:	00000020 	andeq	r0, r0, r0, lsr #32
     b84:	00000adc 	ldrdeq	r0, [r0], -ip
     b88:	00000000 	andeq	r0, r0, r0
     b8c:	0000004c 	andeq	r0, r0, ip, asr #32
     b90:	87080e41 	strhi	r0, [r8, -r1, asr #28]
     b94:	41018e02 	tstmi	r1, r2, lsl #28
     b98:	0d41100e 	stcleq	0, cr1, [r1, #-56]	; 0xffffffc8
     b9c:	080e5e07 	stmdaeq	lr, {r0, r1, r2, r9, sl, fp, ip, lr}
     ba0:	000d0d41 	andeq	r0, sp, r1, asr #26
     ba4:	00000020 	andeq	r0, r0, r0, lsr #32
     ba8:	00000adc 	ldrdeq	r0, [r0], -ip
     bac:	00000000 	andeq	r0, r0, r0
     bb0:	00000048 	andeq	r0, r0, r8, asr #32
     bb4:	87080e41 	strhi	r0, [r8, -r1, asr #28]
     bb8:	41018e02 	tstmi	r1, r2, lsl #28
     bbc:	0d41180e 	stcleq	8, cr1, [r1, #-56]	; 0xffffffc8
     bc0:	080e5a07 	stmdaeq	lr, {r0, r1, r2, r9, fp, ip, lr}
     bc4:	000d0d41 	andeq	r0, sp, r1, asr #26
     bc8:	00000024 	andeq	r0, r0, r4, lsr #32
     bcc:	00000adc 	ldrdeq	r0, [r0], -ip
     bd0:	00000000 	andeq	r0, r0, r0
     bd4:	0000002c 	andeq	r0, r0, ip, lsr #32
     bd8:	87040e41 	strhi	r0, [r4, -r1, asr #28]
     bdc:	100e4101 	andne	r4, lr, r1, lsl #2
     be0:	4e070d41 	cdpmi	13, 0, cr0, cr7, cr1, {2}
     be4:	0d41040e 	cfstrdeq	mvd0, [r1, #-56]	; 0xffffffc8
     be8:	0ec7410d 	poleqs	f4, f7, #5.0
     bec:	00000000 	andeq	r0, r0, r0
     bf0:	0000000c 	andeq	r0, r0, ip
     bf4:	ffffffff 			; <UNDEFINED> instruction: 0xffffffff
     bf8:	7c020001 	stcvc	0, cr0, [r2], {1}
     bfc:	000d0c0e 	andeq	r0, sp, lr, lsl #24
     c00:	00000018 	andeq	r0, r0, r8, lsl r0
     c04:	00000bf0 	strdeq	r0, [r0], -r0	; <UNPREDICTABLE>
     c08:	00000000 	andeq	r0, r0, r0
     c0c:	0000001c 	andeq	r0, r0, ip, lsl r0
     c10:	87080e41 	strhi	r0, [r8, -r1, asr #28]
     c14:	41018e02 	tstmi	r1, r2, lsl #28
     c18:	0000070d 	andeq	r0, r0, sp, lsl #14
     c1c:	0000001c 	andeq	r0, r0, ip, lsl r0
     c20:	00000bf0 	strdeq	r0, [r0], -r0	; <UNPREDICTABLE>
     c24:	00000ac8 	andeq	r0, r0, r8, asr #21
     c28:	0000001c 	andeq	r0, r0, ip, lsl r0
     c2c:	87040e41 	strhi	r0, [r4, -r1, asr #28]
     c30:	070d4101 	streq	r4, [sp, -r1, lsl #2]
     c34:	410d0d47 	tstmi	sp, r7, asr #26
     c38:	00000ec7 	andeq	r0, r0, r7, asr #29
     c3c:	0000001c 	andeq	r0, r0, ip, lsl r0
     c40:	00000bf0 	strdeq	r0, [r0], -r0	; <UNPREDICTABLE>
     c44:	00000ae4 	andeq	r0, r0, r4, ror #21
     c48:	0000001c 	andeq	r0, r0, ip, lsl r0
     c4c:	87040e41 	strhi	r0, [r4, -r1, asr #28]
     c50:	070d4101 	streq	r4, [sp, -r1, lsl #2]
     c54:	410d0d47 	tstmi	sp, r7, asr #26
     c58:	00000ec7 	andeq	r0, r0, r7, asr #29
     c5c:	00000024 	andeq	r0, r0, r4, lsr #32
     c60:	00000bf0 	strdeq	r0, [r0], -r0	; <UNPREDICTABLE>
     c64:	00000b00 	andeq	r0, r0, r0, lsl #22
     c68:	00000044 	andeq	r0, r0, r4, asr #32
     c6c:	84100e41 	ldrhi	r0, [r0], #-3649	; 0xfffff1bf
     c70:	87038504 	strhi	r8, [r3, -r4, lsl #10]
     c74:	41018e02 	tstmi	r1, r2, lsl #28
     c78:	0d41180e 	stcleq	8, cr1, [r1, #-56]	; 0xffffffc8
     c7c:	100e5807 	andne	r5, lr, r7, lsl #16
     c80:	000d0d41 	andeq	r0, sp, r1, asr #26
     c84:	00000024 	andeq	r0, r0, r4, lsr #32
     c88:	00000bf0 	strdeq	r0, [r0], -r0	; <UNPREDICTABLE>
     c8c:	00000b44 	andeq	r0, r0, r4, asr #22
     c90:	0000002c 	andeq	r0, r0, ip, lsr #32
     c94:	87040e41 	strhi	r0, [r4, -r1, asr #28]
     c98:	100e4101 	andne	r4, lr, r1, lsl #2
     c9c:	4d070d41 	stcmi	13, cr0, [r7, #-260]	; 0xfffffefc
     ca0:	0d41040e 	cfstrdeq	mvd0, [r1, #-56]	; 0xffffffc8
     ca4:	0ec7410d 	poleqs	f4, f7, #5.0
     ca8:	00000000 	andeq	r0, r0, r0
     cac:	00000020 	andeq	r0, r0, r0, lsr #32
     cb0:	00000bf0 	strdeq	r0, [r0], -r0	; <UNPREDICTABLE>
     cb4:	00000000 	andeq	r0, r0, r0
     cb8:	00000074 	andeq	r0, r0, r4, ror r0
     cbc:	87080e41 	strhi	r0, [r8, -r1, asr #28]
     cc0:	41018e02 	tstmi	r1, r2, lsl #28
     cc4:	0d41280e 	stcleq	8, cr2, [r1, #-56]	; 0xffffffc8
     cc8:	080e7007 	stmdaeq	lr, {r0, r1, r2, ip, sp, lr}
     ccc:	000d0d41 	andeq	r0, sp, r1, asr #26
     cd0:	00000024 	andeq	r0, r0, r4, lsr #32
     cd4:	00000bf0 	strdeq	r0, [r0], -r0	; <UNPREDICTABLE>
     cd8:	00000000 	andeq	r0, r0, r0
     cdc:	0000001c 	andeq	r0, r0, ip, lsl r0
     ce0:	87040e41 	strhi	r0, [r4, -r1, asr #28]
     ce4:	100e4101 	andne	r4, lr, r1, lsl #2
     ce8:	46070d41 	strmi	r0, [r7], -r1, asr #26
     cec:	0d41040e 	cfstrdeq	mvd0, [r1, #-56]	; 0xffffffc8
     cf0:	0ec7410d 	poleqs	f4, f7, #5.0
     cf4:	00000000 	andeq	r0, r0, r0
     cf8:	00000020 	andeq	r0, r0, r0, lsr #32
     cfc:	00000bf0 	strdeq	r0, [r0], -r0	; <UNPREDICTABLE>
     d00:	00000b70 	andeq	r0, r0, r0, ror fp
     d04:	00000058 	andeq	r0, r0, r8, asr r0
     d08:	87080e41 	strhi	r0, [r8, -r1, asr #28]
     d0c:	41018e02 	tstmi	r1, r2, lsl #28
     d10:	0d41200e 	stcleq	0, cr2, [r1, #-56]	; 0xffffffc8
     d14:	080e6207 	stmdaeq	lr, {r0, r1, r2, r9, sp, lr}
     d18:	000d0d41 	andeq	r0, sp, r1, asr #26
     d1c:	00000024 	andeq	r0, r0, r4, lsr #32
     d20:	00000bf0 	strdeq	r0, [r0], -r0	; <UNPREDICTABLE>
     d24:	00000000 	andeq	r0, r0, r0
     d28:	0000001c 	andeq	r0, r0, ip, lsl r0
     d2c:	87040e41 	strhi	r0, [r4, -r1, asr #28]
     d30:	100e4101 	andne	r4, lr, r1, lsl #2
     d34:	45070d41 	strmi	r0, [r7, #-3393]	; 0xfffff2bf
     d38:	0d41040e 	cfstrdeq	mvd0, [r1, #-56]	; 0xffffffc8
     d3c:	0ec7410d 	poleqs	f4, f7, #5.0
     d40:	00000000 	andeq	r0, r0, r0
     d44:	0000000c 	andeq	r0, r0, ip
     d48:	ffffffff 			; <UNDEFINED> instruction: 0xffffffff
     d4c:	7c020001 	stcvc	0, cr0, [r2], {1}
     d50:	000d0c0e 	andeq	r0, sp, lr, lsl #24
     d54:	00000020 	andeq	r0, r0, r0, lsr #32
     d58:	00000d44 	andeq	r0, r0, r4, asr #26
     d5c:	00000000 	andeq	r0, r0, r0
     d60:	00000090 	muleq	r0, r0, r0
     d64:	87080e41 	strhi	r0, [r8, -r1, asr #28]
     d68:	41018e02 	tstmi	r1, r2, lsl #28
     d6c:	0d41100e 	stcleq	0, cr1, [r1, #-56]	; 0xffffffc8
     d70:	080e7f07 	stmdaeq	lr, {r0, r1, r2, r8, r9, sl, fp, ip, sp, lr}
     d74:	000d0d41 	andeq	r0, sp, r1, asr #26
     d78:	00000020 	andeq	r0, r0, r0, lsr #32
     d7c:	00000d44 	andeq	r0, r0, r4, asr #26
     d80:	00000000 	andeq	r0, r0, r0
     d84:	00000090 	muleq	r0, r0, r0
     d88:	87080e41 	strhi	r0, [r8, -r1, asr #28]
     d8c:	41018e02 	tstmi	r1, r2, lsl #28
     d90:	0d41100e 	stcleq	0, cr1, [r1, #-56]	; 0xffffffc8
     d94:	080e7f07 	stmdaeq	lr, {r0, r1, r2, r8, r9, sl, fp, ip, sp, lr}
     d98:	000d0d41 	andeq	r0, sp, r1, asr #26
     d9c:	00000020 	andeq	r0, r0, r0, lsr #32
     da0:	00000d44 	andeq	r0, r0, r4, asr #26
     da4:	00000000 	andeq	r0, r0, r0
     da8:	00000090 	muleq	r0, r0, r0
     dac:	87080e41 	strhi	r0, [r8, -r1, asr #28]
     db0:	41018e02 	tstmi	r1, r2, lsl #28
     db4:	0d41100e 	stcleq	0, cr1, [r1, #-56]	; 0xffffffc8
     db8:	080e7f07 	stmdaeq	lr, {r0, r1, r2, r8, r9, sl, fp, ip, sp, lr}
     dbc:	000d0d41 	andeq	r0, sp, r1, asr #26
     dc0:	00000020 	andeq	r0, r0, r0, lsr #32
     dc4:	00000d44 	andeq	r0, r0, r4, asr #26
     dc8:	00000000 	andeq	r0, r0, r0
     dcc:	00000090 	muleq	r0, r0, r0
     dd0:	87080e41 	strhi	r0, [r8, -r1, asr #28]
     dd4:	41018e02 	tstmi	r1, r2, lsl #28
     dd8:	0d41100e 	stcleq	0, cr1, [r1, #-56]	; 0xffffffc8
     ddc:	080e7f07 	stmdaeq	lr, {r0, r1, r2, r8, r9, sl, fp, ip, sp, lr}
     de0:	000d0d41 	andeq	r0, sp, r1, asr #26
     de4:	00000020 	andeq	r0, r0, r0, lsr #32
     de8:	00000d44 	andeq	r0, r0, r4, asr #26
     dec:	00000000 	andeq	r0, r0, r0
     df0:	00000090 	muleq	r0, r0, r0
     df4:	87080e41 	strhi	r0, [r8, -r1, asr #28]
     df8:	41018e02 	tstmi	r1, r2, lsl #28
     dfc:	0d41100e 	stcleq	0, cr1, [r1, #-56]	; 0xffffffc8
     e00:	080e7f07 	stmdaeq	lr, {r0, r1, r2, r8, r9, sl, fp, ip, sp, lr}
     e04:	000d0d41 	andeq	r0, sp, r1, asr #26
     e08:	00000020 	andeq	r0, r0, r0, lsr #32
     e0c:	00000d44 	andeq	r0, r0, r4, asr #26
     e10:	00000000 	andeq	r0, r0, r0
     e14:	00000090 	muleq	r0, r0, r0
     e18:	87080e41 	strhi	r0, [r8, -r1, asr #28]
     e1c:	41018e02 	tstmi	r1, r2, lsl #28
     e20:	0d41100e 	stcleq	0, cr1, [r1, #-56]	; 0xffffffc8
     e24:	080e7f07 	stmdaeq	lr, {r0, r1, r2, r8, r9, sl, fp, ip, sp, lr}
     e28:	000d0d41 	andeq	r0, sp, r1, asr #26
     e2c:	00000020 	andeq	r0, r0, r0, lsr #32
     e30:	00000d44 	andeq	r0, r0, r4, asr #26
     e34:	00000000 	andeq	r0, r0, r0
     e38:	00000090 	muleq	r0, r0, r0
     e3c:	87080e41 	strhi	r0, [r8, -r1, asr #28]
     e40:	41018e02 	tstmi	r1, r2, lsl #28
     e44:	0d41100e 	stcleq	0, cr1, [r1, #-56]	; 0xffffffc8
     e48:	080e7f07 	stmdaeq	lr, {r0, r1, r2, r8, r9, sl, fp, ip, sp, lr}
     e4c:	000d0d41 	andeq	r0, sp, r1, asr #26
     e50:	00000020 	andeq	r0, r0, r0, lsr #32
     e54:	00000d44 	andeq	r0, r0, r4, asr #26
     e58:	00000000 	andeq	r0, r0, r0
     e5c:	00000090 	muleq	r0, r0, r0
     e60:	87080e41 	strhi	r0, [r8, -r1, asr #28]
     e64:	41018e02 	tstmi	r1, r2, lsl #28
     e68:	0d41100e 	stcleq	0, cr1, [r1, #-56]	; 0xffffffc8
     e6c:	080e7f07 	stmdaeq	lr, {r0, r1, r2, r8, r9, sl, fp, ip, sp, lr}
     e70:	000d0d41 	andeq	r0, sp, r1, asr #26
     e74:	00000020 	andeq	r0, r0, r0, lsr #32
     e78:	00000d44 	andeq	r0, r0, r4, asr #26
     e7c:	00000000 	andeq	r0, r0, r0
     e80:	00000110 	andeq	r0, r0, r0, lsl r1
     e84:	87080e41 	strhi	r0, [r8, -r1, asr #28]
     e88:	41018e02 	tstmi	r1, r2, lsl #28
     e8c:	0d41100e 	stcleq	0, cr1, [r1, #-56]	; 0xffffffc8
     e90:	0e770207 	cdpeq	2, 7, cr0, cr7, cr7, {0}
     e94:	0d0d4108 	stfeqs	f4, [sp, #-32]	; 0xffffffe0
     e98:	00000024 	andeq	r0, r0, r4, lsr #32
     e9c:	00000d44 	andeq	r0, r0, r4, asr #26
     ea0:	00000000 	andeq	r0, r0, r0
     ea4:	000000b8 	strheq	r0, [r0], -r8
     ea8:	87040e41 	strhi	r0, [r4, -r1, asr #28]
     eac:	100e4101 	andne	r4, lr, r1, lsl #2
     eb0:	02070d41 	andeq	r0, r7, #4160	; 0x1040
     eb4:	41040e51 	tstmi	r4, r1, asr lr
     eb8:	c7410d0d 	strbgt	r0, [r1, -sp, lsl #26]
     ebc:	0000000e 	andeq	r0, r0, lr
     ec0:	00000024 	andeq	r0, r0, r4, lsr #32
     ec4:	00000d44 	andeq	r0, r0, r4, asr #26
     ec8:	00000000 	andeq	r0, r0, r0
     ecc:	0000005c 	andeq	r0, r0, ip, asr r0
     ed0:	87040e41 	strhi	r0, [r4, -r1, asr #28]
     ed4:	100e4101 	andne	r4, lr, r1, lsl #2
     ed8:	62070d41 	andvs	r0, r7, #4160	; 0x1040
     edc:	0d41040e 	cfstrdeq	mvd0, [r1, #-56]	; 0xffffffc8
     ee0:	0ec7410d 	poleqs	f4, f7, #5.0
     ee4:	00000000 	andeq	r0, r0, r0
     ee8:	00000024 	andeq	r0, r0, r4, lsr #32
     eec:	00000d44 	andeq	r0, r0, r4, asr #26
     ef0:	00000000 	andeq	r0, r0, r0
     ef4:	00000058 	andeq	r0, r0, r8, asr r0
     ef8:	87040e41 	strhi	r0, [r4, -r1, asr #28]
     efc:	100e4101 	andne	r4, lr, r1, lsl #2
     f00:	60070d41 	andvs	r0, r7, r1, asr #26
     f04:	0d41040e 	cfstrdeq	mvd0, [r1, #-56]	; 0xffffffc8
     f08:	0ec7410d 	poleqs	f4, f7, #5.0
     f0c:	00000000 	andeq	r0, r0, r0
     f10:	00000020 	andeq	r0, r0, r0, lsr #32
     f14:	00000d44 	andeq	r0, r0, r4, asr #26
     f18:	00000000 	andeq	r0, r0, r0
     f1c:	00000064 	andeq	r0, r0, r4, rrx
     f20:	87080e41 	strhi	r0, [r8, -r1, asr #28]
     f24:	41018e02 	tstmi	r1, r2, lsl #28
     f28:	0d41100e 	stcleq	0, cr1, [r1, #-56]	; 0xffffffc8
     f2c:	080e6507 	stmdaeq	lr, {r0, r1, r2, r8, sl, sp, lr}
     f30:	000d0d41 	andeq	r0, sp, r1, asr #26
     f34:	00000020 	andeq	r0, r0, r0, lsr #32
     f38:	00000d44 	andeq	r0, r0, r4, asr #26
     f3c:	00000000 	andeq	r0, r0, r0
     f40:	00000060 	andeq	r0, r0, r0, rrx
     f44:	87080e41 	strhi	r0, [r8, -r1, asr #28]
     f48:	41018e02 	tstmi	r1, r2, lsl #28
     f4c:	0d41100e 	stcleq	0, cr1, [r1, #-56]	; 0xffffffc8
     f50:	080e6307 	stmdaeq	lr, {r0, r1, r2, r8, r9, sp, lr}
     f54:	000d0d41 	andeq	r0, sp, r1, asr #26
     f58:	00000020 	andeq	r0, r0, r0, lsr #32
     f5c:	00000d44 	andeq	r0, r0, r4, asr #26
     f60:	00000000 	andeq	r0, r0, r0
     f64:	00000098 	muleq	r0, r8, r0
     f68:	87080e41 	strhi	r0, [r8, -r1, asr #28]
     f6c:	41018e02 	tstmi	r1, r2, lsl #28
     f70:	0d41100e 	stcleq	0, cr1, [r1, #-56]	; 0xffffffc8
     f74:	080e7807 	stmdaeq	lr, {r0, r1, r2, fp, ip, sp, lr}
     f78:	000d0d41 	andeq	r0, sp, r1, asr #26
     f7c:	00000024 	andeq	r0, r0, r4, lsr #32
     f80:	00000d44 	andeq	r0, r0, r4, asr #26
     f84:	00000000 	andeq	r0, r0, r0
     f88:	0000003c 	andeq	r0, r0, ip, lsr r0
     f8c:	87040e41 	strhi	r0, [r4, -r1, asr #28]
     f90:	100e4101 	andne	r4, lr, r1, lsl #2
     f94:	54070d41 	strpl	r0, [r7], #-3393	; 0xfffff2bf
     f98:	0d41040e 	cfstrdeq	mvd0, [r1, #-56]	; 0xffffffc8
     f9c:	0ec7410d 	poleqs	f4, f7, #5.0
     fa0:	00000000 	andeq	r0, r0, r0
     fa4:	00000020 	andeq	r0, r0, r0, lsr #32
     fa8:	00000d44 	andeq	r0, r0, r4, asr #26
     fac:	00000000 	andeq	r0, r0, r0
     fb0:	00000054 	andeq	r0, r0, r4, asr r0
     fb4:	87080e41 	strhi	r0, [r8, -r1, asr #28]
     fb8:	41018e02 	tstmi	r1, r2, lsl #28
     fbc:	0d41100e 	stcleq	0, cr1, [r1, #-56]	; 0xffffffc8
     fc0:	080e5d07 	stmdaeq	lr, {r0, r1, r2, r8, sl, fp, ip, lr}
     fc4:	000d0d41 	andeq	r0, sp, r1, asr #26
     fc8:	00000020 	andeq	r0, r0, r0, lsr #32
     fcc:	00000d44 	andeq	r0, r0, r4, asr #26
     fd0:	00000000 	andeq	r0, r0, r0
     fd4:	00000054 	andeq	r0, r0, r4, asr r0
     fd8:	87080e41 	strhi	r0, [r8, -r1, asr #28]
     fdc:	41018e02 	tstmi	r1, r2, lsl #28
     fe0:	0d41100e 	stcleq	0, cr1, [r1, #-56]	; 0xffffffc8
     fe4:	080e5d07 	stmdaeq	lr, {r0, r1, r2, r8, sl, fp, ip, lr}
     fe8:	000d0d41 	andeq	r0, sp, r1, asr #26
     fec:	00000020 	andeq	r0, r0, r0, lsr #32
     ff0:	00000d44 	andeq	r0, r0, r4, asr #26
     ff4:	00000000 	andeq	r0, r0, r0
     ff8:	0000005c 	andeq	r0, r0, ip, asr r0
     ffc:	87080e41 	strhi	r0, [r8, -r1, asr #28]
    1000:	41018e02 	tstmi	r1, r2, lsl #28
    1004:	0d41100e 	stcleq	0, cr1, [r1, #-56]	; 0xffffffc8
    1008:	080e6307 	stmdaeq	lr, {r0, r1, r2, r8, r9, sp, lr}
    100c:	000d0d41 	andeq	r0, sp, r1, asr #26
    1010:	00000024 	andeq	r0, r0, r4, lsr #32
    1014:	00000d44 	andeq	r0, r0, r4, asr #26
    1018:	00000000 	andeq	r0, r0, r0
    101c:	00000024 	andeq	r0, r0, r4, lsr #32
    1020:	87040e41 	strhi	r0, [r4, -r1, asr #28]
    1024:	100e4101 	andne	r4, lr, r1, lsl #2
    1028:	4a070d41 	bmi	1c4534 <UART_InterruptFIFOLevelSelect+0x1c30f4>
    102c:	0d41040e 	cfstrdeq	mvd0, [r1, #-56]	; 0xffffffc8
    1030:	0ec7410d 	poleqs	f4, f7, #5.0
    1034:	00000000 	andeq	r0, r0, r0
    1038:	00000024 	andeq	r0, r0, r4, lsr #32
    103c:	00000d44 	andeq	r0, r0, r4, asr #26
    1040:	00000000 	andeq	r0, r0, r0
    1044:	00000024 	andeq	r0, r0, r4, lsr #32
    1048:	87040e41 	strhi	r0, [r4, -r1, asr #28]
    104c:	100e4101 	andne	r4, lr, r1, lsl #2
    1050:	4a070d41 	bmi	1c455c <UART_InterruptFIFOLevelSelect+0x1c311c>
    1054:	0d41040e 	cfstrdeq	mvd0, [r1, #-56]	; 0xffffffc8
    1058:	0ec7410d 	poleqs	f4, f7, #5.0
    105c:	00000000 	andeq	r0, r0, r0
    1060:	00000024 	andeq	r0, r0, r4, lsr #32
    1064:	00000d44 	andeq	r0, r0, r4, asr #26
    1068:	00000000 	andeq	r0, r0, r0
    106c:	00000024 	andeq	r0, r0, r4, lsr #32
    1070:	87040e41 	strhi	r0, [r4, -r1, asr #28]
    1074:	100e4101 	andne	r4, lr, r1, lsl #2
    1078:	4a070d41 	bmi	1c4584 <UART_InterruptFIFOLevelSelect+0x1c3144>
    107c:	0d41040e 	cfstrdeq	mvd0, [r1, #-56]	; 0xffffffc8
    1080:	0ec7410d 	poleqs	f4, f7, #5.0
    1084:	00000000 	andeq	r0, r0, r0
    1088:	00000024 	andeq	r0, r0, r4, lsr #32
    108c:	00000d44 	andeq	r0, r0, r4, asr #26
    1090:	00000000 	andeq	r0, r0, r0
    1094:	00000024 	andeq	r0, r0, r4, lsr #32
    1098:	87040e41 	strhi	r0, [r4, -r1, asr #28]
    109c:	100e4101 	andne	r4, lr, r1, lsl #2
    10a0:	4a070d41 	bmi	1c45ac <UART_InterruptFIFOLevelSelect+0x1c316c>
    10a4:	0d41040e 	cfstrdeq	mvd0, [r1, #-56]	; 0xffffffc8
    10a8:	0ec7410d 	poleqs	f4, f7, #5.0
    10ac:	00000000 	andeq	r0, r0, r0
    10b0:	00000024 	andeq	r0, r0, r4, lsr #32
    10b4:	00000d44 	andeq	r0, r0, r4, asr #26
    10b8:	00000000 	andeq	r0, r0, r0
    10bc:	00000024 	andeq	r0, r0, r4, lsr #32
    10c0:	87040e41 	strhi	r0, [r4, -r1, asr #28]
    10c4:	100e4101 	andne	r4, lr, r1, lsl #2
    10c8:	4a070d41 	bmi	1c45d4 <UART_InterruptFIFOLevelSelect+0x1c3194>
    10cc:	0d41040e 	cfstrdeq	mvd0, [r1, #-56]	; 0xffffffc8
    10d0:	0ec7410d 	poleqs	f4, f7, #5.0
    10d4:	00000000 	andeq	r0, r0, r0
    10d8:	00000024 	andeq	r0, r0, r4, lsr #32
    10dc:	00000d44 	andeq	r0, r0, r4, asr #26
    10e0:	00000000 	andeq	r0, r0, r0
    10e4:	00000024 	andeq	r0, r0, r4, lsr #32
    10e8:	87040e41 	strhi	r0, [r4, -r1, asr #28]
    10ec:	100e4101 	andne	r4, lr, r1, lsl #2
    10f0:	4a070d41 	bmi	1c45fc <UART_InterruptFIFOLevelSelect+0x1c31bc>
    10f4:	0d41040e 	cfstrdeq	mvd0, [r1, #-56]	; 0xffffffc8
    10f8:	0ec7410d 	poleqs	f4, f7, #5.0
    10fc:	00000000 	andeq	r0, r0, r0
    1100:	00000024 	andeq	r0, r0, r4, lsr #32
    1104:	00000d44 	andeq	r0, r0, r4, asr #26
    1108:	00000000 	andeq	r0, r0, r0
    110c:	00000024 	andeq	r0, r0, r4, lsr #32
    1110:	87040e41 	strhi	r0, [r4, -r1, asr #28]
    1114:	100e4101 	andne	r4, lr, r1, lsl #2
    1118:	4a070d41 	bmi	1c4624 <UART_InterruptFIFOLevelSelect+0x1c31e4>
    111c:	0d41040e 	cfstrdeq	mvd0, [r1, #-56]	; 0xffffffc8
    1120:	0ec7410d 	poleqs	f4, f7, #5.0
    1124:	00000000 	andeq	r0, r0, r0
    1128:	00000024 	andeq	r0, r0, r4, lsr #32
    112c:	00000d44 	andeq	r0, r0, r4, asr #26
    1130:	00000000 	andeq	r0, r0, r0
    1134:	00000024 	andeq	r0, r0, r4, lsr #32
    1138:	87040e41 	strhi	r0, [r4, -r1, asr #28]
    113c:	100e4101 	andne	r4, lr, r1, lsl #2
    1140:	4a070d41 	bmi	1c464c <UART_InterruptFIFOLevelSelect+0x1c320c>
    1144:	0d41040e 	cfstrdeq	mvd0, [r1, #-56]	; 0xffffffc8
    1148:	0ec7410d 	poleqs	f4, f7, #5.0
    114c:	00000000 	andeq	r0, r0, r0
