
D:\gcc_arm_none_eabi\gcc-arm-none-eabi-10.3-2021.10-win32\Unit3_Revision\HC-05_UART\DMA_Project.elf:     file format elf32-littlearm


Disassembly of section .vectors:

00000000 <gp_fn_vectors>:
   0:	20001d4c 	andcs	r1, r0, ip, asr #26
   4:	00000965 	andeq	r0, r0, r5, ror #18
   8:	00000959 	andeq	r0, r0, r9, asr r9
   c:	00000959 	andeq	r0, r0, r9, asr r9
  10:	00000959 	andeq	r0, r0, r9, asr r9
  14:	00000959 	andeq	r0, r0, r9, asr r9
  18:	00000959 	andeq	r0, r0, r9, asr r9

Disassembly of section .text:

0000001c <DMA_PeripheralInitialization>:
  1c:	b480      	push	{r7}
  1e:	af00      	add	r7, sp, #0
  20:	4a08      	ldr	r2, [pc, #32]	; (44 <DMA_PeripheralInitialization+0x28>)
  22:	6813      	ldr	r3, [r2, #0]
  24:	f043 0301 	orr.w	r3, r3, #1
  28:	6013      	str	r3, [r2, #0]
  2a:	4b07      	ldr	r3, [pc, #28]	; (48 <DMA_PeripheralInitialization+0x2c>)
  2c:	681b      	ldr	r3, [r3, #0]
  2e:	4a06      	ldr	r2, [pc, #24]	; (48 <DMA_PeripheralInitialization+0x2c>)
  30:	f043 0301 	orr.w	r3, r3, #1
  34:	6013      	str	r3, [r2, #0]
  36:	4b05      	ldr	r3, [pc, #20]	; (4c <DMA_PeripheralInitialization+0x30>)
  38:	4a05      	ldr	r2, [pc, #20]	; (50 <DMA_PeripheralInitialization+0x34>)
  3a:	601a      	str	r2, [r3, #0]
  3c:	bf00      	nop
  3e:	46bd      	mov	sp, r7
  40:	bc80      	pop	{r7}
  42:	4770      	bx	lr
  44:	400fe60c 	andmi	lr, pc, ip, lsl #12
  48:	400ff004 	andmi	pc, pc, r4
  4c:	400ff008 	andmi	pc, pc, r8
  50:	20000800 	andcs	r0, r0, r0, lsl #16

00000054 <DMA_EnableChannelAttributes>:
  54:	b580      	push	{r7, lr}
  56:	b082      	sub	sp, #8
  58:	af00      	add	r7, sp, #0
  5a:	6078      	str	r0, [r7, #4]
  5c:	687b      	ldr	r3, [r7, #4]
  5e:	799a      	ldrb	r2, [r3, #6]
  60:	687b      	ldr	r3, [r7, #4]
  62:	781b      	ldrb	r3, [r3, #0]
  64:	4619      	mov	r1, r3
  66:	4610      	mov	r0, r2
  68:	f000 f96e 	bl	348 <DMA_ConfigurePriority>
  6c:	4b19      	ldr	r3, [pc, #100]	; (d4 <DMA_EnableChannelAttributes+0x80>)
  6e:	681b      	ldr	r3, [r3, #0]
  70:	687a      	ldr	r2, [r7, #4]
  72:	7812      	ldrb	r2, [r2, #0]
  74:	4611      	mov	r1, r2
  76:	2201      	movs	r2, #1
  78:	408a      	lsls	r2, r1
  7a:	4611      	mov	r1, r2
  7c:	4a15      	ldr	r2, [pc, #84]	; (d4 <DMA_EnableChannelAttributes+0x80>)
  7e:	430b      	orrs	r3, r1
  80:	6013      	str	r3, [r2, #0]
  82:	4b15      	ldr	r3, [pc, #84]	; (d8 <DMA_EnableChannelAttributes+0x84>)
  84:	681b      	ldr	r3, [r3, #0]
  86:	687a      	ldr	r2, [r7, #4]
  88:	7812      	ldrb	r2, [r2, #0]
  8a:	4611      	mov	r1, r2
  8c:	2201      	movs	r2, #1
  8e:	408a      	lsls	r2, r1
  90:	4611      	mov	r1, r2
  92:	4a11      	ldr	r2, [pc, #68]	; (d8 <DMA_EnableChannelAttributes+0x84>)
  94:	430b      	orrs	r3, r1
  96:	6013      	str	r3, [r2, #0]
  98:	4b10      	ldr	r3, [pc, #64]	; (dc <DMA_EnableChannelAttributes+0x88>)
  9a:	681b      	ldr	r3, [r3, #0]
  9c:	687a      	ldr	r2, [r7, #4]
  9e:	7812      	ldrb	r2, [r2, #0]
  a0:	4611      	mov	r1, r2
  a2:	2201      	movs	r2, #1
  a4:	408a      	lsls	r2, r1
  a6:	4611      	mov	r1, r2
  a8:	4a0c      	ldr	r2, [pc, #48]	; (dc <DMA_EnableChannelAttributes+0x88>)
  aa:	430b      	orrs	r3, r1
  ac:	6013      	str	r3, [r2, #0]
  ae:	687b      	ldr	r3, [r7, #4]
  b0:	781a      	ldrb	r2, [r3, #0]
  b2:	687b      	ldr	r3, [r7, #4]
  b4:	79db      	ldrb	r3, [r3, #7]
  b6:	4619      	mov	r1, r3
  b8:	4610      	mov	r0, r2
  ba:	f000 f971 	bl	3a0 <DMA_AssignChannel>
  be:	687b      	ldr	r3, [r7, #4]
  c0:	781b      	ldrb	r3, [r3, #0]
  c2:	4619      	mov	r1, r3
  c4:	2000      	movs	r0, #0
  c6:	f000 f915 	bl	2f4 <DMA_ConfigureChannelInterrupt>
  ca:	bf00      	nop
  cc:	3708      	adds	r7, #8
  ce:	46bd      	mov	sp, r7
  d0:	bd80      	pop	{r7, pc}
  d2:	bf00      	nop
  d4:	400ff034 	andmi	pc, pc, r4, lsr r0	; <UNPREDICTABLE>
  d8:	400ff01c 	andmi	pc, pc, ip, lsl r0	; <UNPREDICTABLE>
  dc:	400ff024 	andmi	pc, pc, r4, lsr #32

000000e0 <DMA_EnableChannel>:
  e0:	b480      	push	{r7}
  e2:	b083      	sub	sp, #12
  e4:	af00      	add	r7, sp, #0
  e6:	4603      	mov	r3, r0
  e8:	71fb      	strb	r3, [r7, #7]
  ea:	4b07      	ldr	r3, [pc, #28]	; (108 <DMA_EnableChannel+0x28>)
  ec:	681b      	ldr	r3, [r3, #0]
  ee:	79fa      	ldrb	r2, [r7, #7]
  f0:	2101      	movs	r1, #1
  f2:	fa01 f202 	lsl.w	r2, r1, r2
  f6:	4611      	mov	r1, r2
  f8:	4a03      	ldr	r2, [pc, #12]	; (108 <DMA_EnableChannel+0x28>)
  fa:	430b      	orrs	r3, r1
  fc:	6013      	str	r3, [r2, #0]
  fe:	bf00      	nop
 100:	370c      	adds	r7, #12
 102:	46bd      	mov	sp, r7
 104:	bc80      	pop	{r7}
 106:	4770      	bx	lr
 108:	400ff028 	andmi	pc, pc, r8, lsr #32

0000010c <DMA_ChannelControlStructureSet>:
 10c:	b480      	push	{r7}
 10e:	b085      	sub	sp, #20
 110:	af00      	add	r7, sp, #0
 112:	60f8      	str	r0, [r7, #12]
 114:	60b9      	str	r1, [r7, #8]
 116:	607a      	str	r2, [r7, #4]
 118:	4b4c      	ldr	r3, [pc, #304]	; (24c <DMA_ChannelControlStructureSet+0x140>)
 11a:	781b      	ldrb	r3, [r3, #0]
 11c:	b2db      	uxtb	r3, r3
 11e:	2b00      	cmp	r3, #0
 120:	d004      	beq.n	12c <DMA_ChannelControlStructureSet+0x20>
 122:	4b4b      	ldr	r3, [pc, #300]	; (250 <DMA_ChannelControlStructureSet+0x144>)
 124:	781b      	ldrb	r3, [r3, #0]
 126:	b2db      	uxtb	r3, r3
 128:	2b00      	cmp	r3, #0
 12a:	d107      	bne.n	13c <DMA_ChannelControlStructureSet+0x30>
 12c:	68fb      	ldr	r3, [r7, #12]
 12e:	781b      	ldrb	r3, [r3, #0]
 130:	461a      	mov	r2, r3
 132:	4b48      	ldr	r3, [pc, #288]	; (254 <DMA_ChannelControlStructureSet+0x148>)
 134:	f853 3022 	ldr.w	r3, [r3, r2, lsl #2]
 138:	68ba      	ldr	r2, [r7, #8]
 13a:	601a      	str	r2, [r3, #0]
 13c:	4b46      	ldr	r3, [pc, #280]	; (258 <DMA_ChannelControlStructureSet+0x14c>)
 13e:	781b      	ldrb	r3, [r3, #0]
 140:	b2db      	uxtb	r3, r3
 142:	2b00      	cmp	r3, #0
 144:	d004      	beq.n	150 <DMA_ChannelControlStructureSet+0x44>
 146:	4b42      	ldr	r3, [pc, #264]	; (250 <DMA_ChannelControlStructureSet+0x144>)
 148:	781b      	ldrb	r3, [r3, #0]
 14a:	b2db      	uxtb	r3, r3
 14c:	2b00      	cmp	r3, #0
 14e:	d107      	bne.n	160 <DMA_ChannelControlStructureSet+0x54>
 150:	68fb      	ldr	r3, [r7, #12]
 152:	781b      	ldrb	r3, [r3, #0]
 154:	461a      	mov	r2, r3
 156:	4b41      	ldr	r3, [pc, #260]	; (25c <DMA_ChannelControlStructureSet+0x150>)
 158:	f853 3022 	ldr.w	r3, [r3, r2, lsl #2]
 15c:	687a      	ldr	r2, [r7, #4]
 15e:	601a      	str	r2, [r3, #0]
 160:	68fb      	ldr	r3, [r7, #12]
 162:	7859      	ldrb	r1, [r3, #1]
 164:	68fb      	ldr	r3, [r7, #12]
 166:	781b      	ldrb	r3, [r3, #0]
 168:	461a      	mov	r2, r3
 16a:	4b3d      	ldr	r3, [pc, #244]	; (260 <DMA_ChannelControlStructureSet+0x154>)
 16c:	f853 2022 	ldr.w	r2, [r3, r2, lsl #2]
 170:	460b      	mov	r3, r1
 172:	f003 0303 	and.w	r3, r3, #3
 176:	b2d9      	uxtb	r1, r3
 178:	6813      	ldr	r3, [r2, #0]
 17a:	f361 739f 	bfi	r3, r1, #30, #2
 17e:	6013      	str	r3, [r2, #0]
 180:	68fb      	ldr	r3, [r7, #12]
 182:	78d9      	ldrb	r1, [r3, #3]
 184:	68fb      	ldr	r3, [r7, #12]
 186:	781b      	ldrb	r3, [r3, #0]
 188:	461a      	mov	r2, r3
 18a:	4b35      	ldr	r3, [pc, #212]	; (260 <DMA_ChannelControlStructureSet+0x154>)
 18c:	f853 2022 	ldr.w	r2, [r3, r2, lsl #2]
 190:	460b      	mov	r3, r1
 192:	f003 0303 	and.w	r3, r3, #3
 196:	b2d9      	uxtb	r1, r3
 198:	6813      	ldr	r3, [r2, #0]
 19a:	f361 731d 	bfi	r3, r1, #28, #2
 19e:	6013      	str	r3, [r2, #0]
 1a0:	68fb      	ldr	r3, [r7, #12]
 1a2:	7899      	ldrb	r1, [r3, #2]
 1a4:	68fb      	ldr	r3, [r7, #12]
 1a6:	781b      	ldrb	r3, [r3, #0]
 1a8:	461a      	mov	r2, r3
 1aa:	4b2d      	ldr	r3, [pc, #180]	; (260 <DMA_ChannelControlStructureSet+0x154>)
 1ac:	f853 2022 	ldr.w	r2, [r3, r2, lsl #2]
 1b0:	460b      	mov	r3, r1
 1b2:	f003 0303 	and.w	r3, r3, #3
 1b6:	b2d9      	uxtb	r1, r3
 1b8:	6813      	ldr	r3, [r2, #0]
 1ba:	f361 639b 	bfi	r3, r1, #26, #2
 1be:	6013      	str	r3, [r2, #0]
 1c0:	68fb      	ldr	r3, [r7, #12]
 1c2:	7919      	ldrb	r1, [r3, #4]
 1c4:	68fb      	ldr	r3, [r7, #12]
 1c6:	781b      	ldrb	r3, [r3, #0]
 1c8:	461a      	mov	r2, r3
 1ca:	4b25      	ldr	r3, [pc, #148]	; (260 <DMA_ChannelControlStructureSet+0x154>)
 1cc:	f853 2022 	ldr.w	r2, [r3, r2, lsl #2]
 1d0:	460b      	mov	r3, r1
 1d2:	f003 0303 	and.w	r3, r3, #3
 1d6:	b2d9      	uxtb	r1, r3
 1d8:	6813      	ldr	r3, [r2, #0]
 1da:	f361 6319 	bfi	r3, r1, #24, #2
 1de:	6013      	str	r3, [r2, #0]
 1e0:	68fb      	ldr	r3, [r7, #12]
 1e2:	7959      	ldrb	r1, [r3, #5]
 1e4:	68fb      	ldr	r3, [r7, #12]
 1e6:	781b      	ldrb	r3, [r3, #0]
 1e8:	461a      	mov	r2, r3
 1ea:	4b1d      	ldr	r3, [pc, #116]	; (260 <DMA_ChannelControlStructureSet+0x154>)
 1ec:	f853 2022 	ldr.w	r2, [r3, r2, lsl #2]
 1f0:	460b      	mov	r3, r1
 1f2:	f003 0307 	and.w	r3, r3, #7
 1f6:	b2d9      	uxtb	r1, r3
 1f8:	6813      	ldr	r3, [r2, #0]
 1fa:	f361 0302 	bfi	r3, r1, #0, #3
 1fe:	6013      	str	r3, [r2, #0]
 200:	68fb      	ldr	r3, [r7, #12]
 202:	68d9      	ldr	r1, [r3, #12]
 204:	68fb      	ldr	r3, [r7, #12]
 206:	781b      	ldrb	r3, [r3, #0]
 208:	461a      	mov	r2, r3
 20a:	4b15      	ldr	r3, [pc, #84]	; (260 <DMA_ChannelControlStructureSet+0x154>)
 20c:	f853 2022 	ldr.w	r2, [r3, r2, lsl #2]
 210:	460b      	mov	r3, r1
 212:	f3c3 0309 	ubfx	r3, r3, #0, #10
 216:	b299      	uxth	r1, r3
 218:	6813      	ldr	r3, [r2, #0]
 21a:	f361 130d 	bfi	r3, r1, #4, #10
 21e:	6013      	str	r3, [r2, #0]
 220:	68fb      	ldr	r3, [r7, #12]
 222:	7a19      	ldrb	r1, [r3, #8]
 224:	68fb      	ldr	r3, [r7, #12]
 226:	781b      	ldrb	r3, [r3, #0]
 228:	461a      	mov	r2, r3
 22a:	4b0d      	ldr	r3, [pc, #52]	; (260 <DMA_ChannelControlStructureSet+0x154>)
 22c:	f853 2022 	ldr.w	r2, [r3, r2, lsl #2]
 230:	460b      	mov	r3, r1
 232:	f003 030f 	and.w	r3, r3, #15
 236:	b2d9      	uxtb	r1, r3
 238:	6813      	ldr	r3, [r2, #0]
 23a:	f361 3391 	bfi	r3, r1, #14, #4
 23e:	6013      	str	r3, [r2, #0]
 240:	bf00      	nop
 242:	3714      	adds	r7, #20
 244:	46bd      	mov	sp, r7
 246:	bc80      	pop	{r7}
 248:	4770      	bx	lr
 24a:	bf00      	nop
 24c:	20001d51 	andcs	r1, r0, r1, asr sp
 250:	20000401 	andcs	r0, r0, r1, lsl #8
 254:	00000bc8 	andeq	r0, r0, r8, asr #23
 258:	20001d50 	andcs	r1, r0, r0, asr sp
 25c:	00000cc8 	andeq	r0, r0, r8, asr #25
 260:	00000e48 	andeq	r0, r0, r8, asr #28

00000264 <DMA_ConfigureChannelSoftwareRequest>:
 264:	b480      	push	{r7}
 266:	b083      	sub	sp, #12
 268:	af00      	add	r7, sp, #0
 26a:	4603      	mov	r3, r0
 26c:	460a      	mov	r2, r1
 26e:	71fb      	strb	r3, [r7, #7]
 270:	4613      	mov	r3, r2
 272:	71bb      	strb	r3, [r7, #6]
 274:	79fb      	ldrb	r3, [r7, #7]
 276:	2b00      	cmp	r3, #0
 278:	d002      	beq.n	280 <DMA_ConfigureChannelSoftwareRequest+0x1c>
 27a:	2b01      	cmp	r3, #1
 27c:	d00c      	beq.n	298 <DMA_ConfigureChannelSoftwareRequest+0x34>
 27e:	e016      	b.n	2ae <DMA_ConfigureChannelSoftwareRequest+0x4a>
 280:	4b0d      	ldr	r3, [pc, #52]	; (2b8 <DMA_ConfigureChannelSoftwareRequest+0x54>)
 282:	681b      	ldr	r3, [r3, #0]
 284:	79ba      	ldrb	r2, [r7, #6]
 286:	2101      	movs	r1, #1
 288:	fa01 f202 	lsl.w	r2, r1, r2
 28c:	43d2      	mvns	r2, r2
 28e:	4611      	mov	r1, r2
 290:	4a09      	ldr	r2, [pc, #36]	; (2b8 <DMA_ConfigureChannelSoftwareRequest+0x54>)
 292:	400b      	ands	r3, r1
 294:	6013      	str	r3, [r2, #0]
 296:	e00a      	b.n	2ae <DMA_ConfigureChannelSoftwareRequest+0x4a>
 298:	4b07      	ldr	r3, [pc, #28]	; (2b8 <DMA_ConfigureChannelSoftwareRequest+0x54>)
 29a:	681b      	ldr	r3, [r3, #0]
 29c:	79ba      	ldrb	r2, [r7, #6]
 29e:	2101      	movs	r1, #1
 2a0:	fa01 f202 	lsl.w	r2, r1, r2
 2a4:	4611      	mov	r1, r2
 2a6:	4a04      	ldr	r2, [pc, #16]	; (2b8 <DMA_ConfigureChannelSoftwareRequest+0x54>)
 2a8:	430b      	orrs	r3, r1
 2aa:	6013      	str	r3, [r2, #0]
 2ac:	bf00      	nop
 2ae:	bf00      	nop
 2b0:	370c      	adds	r7, #12
 2b2:	46bd      	mov	sp, r7
 2b4:	bc80      	pop	{r7}
 2b6:	4770      	bx	lr
 2b8:	400ff014 	andmi	pc, pc, r4, lsl r0	; <UNPREDICTABLE>

000002bc <DMA_ConfigurePeripheralInterrupt>:
 2bc:	b580      	push	{r7, lr}
 2be:	b082      	sub	sp, #8
 2c0:	af00      	add	r7, sp, #0
 2c2:	4603      	mov	r3, r0
 2c4:	71fb      	strb	r3, [r7, #7]
 2c6:	79fb      	ldrb	r3, [r7, #7]
 2c8:	2b00      	cmp	r3, #0
 2ca:	d106      	bne.n	2da <DMA_ConfigurePeripheralInterrupt+0x1e>
 2cc:	202e      	movs	r0, #46	; 0x2e
 2ce:	f000 faf7 	bl	8c0 <NVIC_Enable_Interrupt>
 2d2:	202f      	movs	r0, #47	; 0x2f
 2d4:	f000 faf4 	bl	8c0 <NVIC_Enable_Interrupt>
 2d8:	e008      	b.n	2ec <DMA_ConfigurePeripheralInterrupt+0x30>
 2da:	79fb      	ldrb	r3, [r7, #7]
 2dc:	2b01      	cmp	r3, #1
 2de:	d105      	bne.n	2ec <DMA_ConfigurePeripheralInterrupt+0x30>
 2e0:	202e      	movs	r0, #46	; 0x2e
 2e2:	f000 fb13 	bl	90c <NVIC_Clear_Interrupt>
 2e6:	202f      	movs	r0, #47	; 0x2f
 2e8:	f000 fb10 	bl	90c <NVIC_Clear_Interrupt>
 2ec:	bf00      	nop
 2ee:	3708      	adds	r7, #8
 2f0:	46bd      	mov	sp, r7
 2f2:	bd80      	pop	{r7, pc}

000002f4 <DMA_ConfigureChannelInterrupt>:
 2f4:	b480      	push	{r7}
 2f6:	b083      	sub	sp, #12
 2f8:	af00      	add	r7, sp, #0
 2fa:	4603      	mov	r3, r0
 2fc:	460a      	mov	r2, r1
 2fe:	71fb      	strb	r3, [r7, #7]
 300:	4613      	mov	r3, r2
 302:	71bb      	strb	r3, [r7, #6]
 304:	79fb      	ldrb	r3, [r7, #7]
 306:	2b00      	cmp	r3, #0
 308:	d002      	beq.n	310 <DMA_ConfigureChannelInterrupt+0x1c>
 30a:	2b01      	cmp	r3, #1
 30c:	d00a      	beq.n	324 <DMA_ConfigureChannelInterrupt+0x30>
 30e:	e014      	b.n	33a <DMA_ConfigureChannelInterrupt+0x46>
 310:	4b0c      	ldr	r3, [pc, #48]	; (344 <DMA_ConfigureChannelInterrupt+0x50>)
 312:	681b      	ldr	r3, [r3, #0]
 314:	79ba      	ldrb	r2, [r7, #6]
 316:	2101      	movs	r1, #1
 318:	fa01 f202 	lsl.w	r2, r1, r2
 31c:	4611      	mov	r1, r2
 31e:	4a09      	ldr	r2, [pc, #36]	; (344 <DMA_ConfigureChannelInterrupt+0x50>)
 320:	430b      	orrs	r3, r1
 322:	6013      	str	r3, [r2, #0]
 324:	4b07      	ldr	r3, [pc, #28]	; (344 <DMA_ConfigureChannelInterrupt+0x50>)
 326:	681b      	ldr	r3, [r3, #0]
 328:	79ba      	ldrb	r2, [r7, #6]
 32a:	2101      	movs	r1, #1
 32c:	fa01 f202 	lsl.w	r2, r1, r2
 330:	43d2      	mvns	r2, r2
 332:	4611      	mov	r1, r2
 334:	4a03      	ldr	r2, [pc, #12]	; (344 <DMA_ConfigureChannelInterrupt+0x50>)
 336:	400b      	ands	r3, r1
 338:	6013      	str	r3, [r2, #0]
 33a:	bf00      	nop
 33c:	370c      	adds	r7, #12
 33e:	46bd      	mov	sp, r7
 340:	bc80      	pop	{r7}
 342:	4770      	bx	lr
 344:	400ff504 	andmi	pc, pc, r4, lsl #10

00000348 <DMA_ConfigurePriority>:
 348:	b480      	push	{r7}
 34a:	b083      	sub	sp, #12
 34c:	af00      	add	r7, sp, #0
 34e:	4603      	mov	r3, r0
 350:	460a      	mov	r2, r1
 352:	71fb      	strb	r3, [r7, #7]
 354:	4613      	mov	r3, r2
 356:	71bb      	strb	r3, [r7, #6]
 358:	79fb      	ldrb	r3, [r7, #7]
 35a:	2b00      	cmp	r3, #0
 35c:	d002      	beq.n	364 <DMA_ConfigurePriority+0x1c>
 35e:	2b01      	cmp	r3, #1
 360:	d00c      	beq.n	37c <DMA_ConfigurePriority+0x34>
 362:	e016      	b.n	392 <DMA_ConfigurePriority+0x4a>
 364:	4b0d      	ldr	r3, [pc, #52]	; (39c <DMA_ConfigurePriority+0x54>)
 366:	681b      	ldr	r3, [r3, #0]
 368:	79ba      	ldrb	r2, [r7, #6]
 36a:	2101      	movs	r1, #1
 36c:	fa01 f202 	lsl.w	r2, r1, r2
 370:	43d2      	mvns	r2, r2
 372:	4611      	mov	r1, r2
 374:	4a09      	ldr	r2, [pc, #36]	; (39c <DMA_ConfigurePriority+0x54>)
 376:	400b      	ands	r3, r1
 378:	6013      	str	r3, [r2, #0]
 37a:	e00a      	b.n	392 <DMA_ConfigurePriority+0x4a>
 37c:	4b07      	ldr	r3, [pc, #28]	; (39c <DMA_ConfigurePriority+0x54>)
 37e:	681b      	ldr	r3, [r3, #0]
 380:	79ba      	ldrb	r2, [r7, #6]
 382:	2101      	movs	r1, #1
 384:	fa01 f202 	lsl.w	r2, r1, r2
 388:	4611      	mov	r1, r2
 38a:	4a04      	ldr	r2, [pc, #16]	; (39c <DMA_ConfigurePriority+0x54>)
 38c:	430b      	orrs	r3, r1
 38e:	6013      	str	r3, [r2, #0]
 390:	bf00      	nop
 392:	bf00      	nop
 394:	370c      	adds	r7, #12
 396:	46bd      	mov	sp, r7
 398:	bc80      	pop	{r7}
 39a:	4770      	bx	lr
 39c:	400ff038 	andmi	pc, pc, r8, lsr r0	; <UNPREDICTABLE>

000003a0 <DMA_AssignChannel>:
 3a0:	b480      	push	{r7}
 3a2:	b085      	sub	sp, #20
 3a4:	af00      	add	r7, sp, #0
 3a6:	4603      	mov	r3, r0
 3a8:	460a      	mov	r2, r1
 3aa:	71fb      	strb	r3, [r7, #7]
 3ac:	4613      	mov	r3, r2
 3ae:	71bb      	strb	r3, [r7, #6]
 3b0:	79fb      	ldrb	r3, [r7, #7]
 3b2:	08db      	lsrs	r3, r3, #3
 3b4:	73fb      	strb	r3, [r7, #15]
 3b6:	79fa      	ldrb	r2, [r7, #7]
 3b8:	7bfb      	ldrb	r3, [r7, #15]
 3ba:	00db      	lsls	r3, r3, #3
 3bc:	1ad3      	subs	r3, r2, r3
 3be:	b2db      	uxtb	r3, r3
 3c0:	009b      	lsls	r3, r3, #2
 3c2:	b2da      	uxtb	r2, r3
 3c4:	79bb      	ldrb	r3, [r7, #6]
 3c6:	4413      	add	r3, r2
 3c8:	73bb      	strb	r3, [r7, #14]
 3ca:	7bfb      	ldrb	r3, [r7, #15]
 3cc:	4a09      	ldr	r2, [pc, #36]	; (3f4 <DMA_AssignChannel+0x54>)
 3ce:	f852 3023 	ldr.w	r3, [r2, r3, lsl #2]
 3d2:	681a      	ldr	r2, [r3, #0]
 3d4:	7bbb      	ldrb	r3, [r7, #14]
 3d6:	2101      	movs	r1, #1
 3d8:	fa01 f303 	lsl.w	r3, r1, r3
 3dc:	4618      	mov	r0, r3
 3de:	7bfb      	ldrb	r3, [r7, #15]
 3e0:	4904      	ldr	r1, [pc, #16]	; (3f4 <DMA_AssignChannel+0x54>)
 3e2:	f851 3023 	ldr.w	r3, [r1, r3, lsl #2]
 3e6:	4302      	orrs	r2, r0
 3e8:	601a      	str	r2, [r3, #0]
 3ea:	bf00      	nop
 3ec:	3714      	adds	r7, #20
 3ee:	46bd      	mov	sp, r7
 3f0:	bc80      	pop	{r7}
 3f2:	4770      	bx	lr
 3f4:	20000000 	andcs	r0, r0, r0

000003f8 <GPIO_EnableRunModeClockGateControl>:
 3f8:	b480      	push	{r7}
 3fa:	b083      	sub	sp, #12
 3fc:	af00      	add	r7, sp, #0
 3fe:	4603      	mov	r3, r0
 400:	71fb      	strb	r3, [r7, #7]
 402:	4b14      	ldr	r3, [pc, #80]	; (454 <GPIO_EnableRunModeClockGateControl+0x5c>)
 404:	681b      	ldr	r3, [r3, #0]
 406:	f3c3 0305 	ubfx	r3, r3, #0, #6
 40a:	b2db      	uxtb	r3, r3
 40c:	b25a      	sxtb	r2, r3
 40e:	79fb      	ldrb	r3, [r7, #7]
 410:	2101      	movs	r1, #1
 412:	fa01 f303 	lsl.w	r3, r1, r3
 416:	b25b      	sxtb	r3, r3
 418:	4313      	orrs	r3, r2
 41a:	b25b      	sxtb	r3, r3
 41c:	4a0d      	ldr	r2, [pc, #52]	; (454 <GPIO_EnableRunModeClockGateControl+0x5c>)
 41e:	f003 033f 	and.w	r3, r3, #63	; 0x3f
 422:	b2d9      	uxtb	r1, r3
 424:	6813      	ldr	r3, [r2, #0]
 426:	f361 0305 	bfi	r3, r1, #0, #6
 42a:	6013      	str	r3, [r2, #0]
 42c:	bf00      	nop
 42e:	4b09      	ldr	r3, [pc, #36]	; (454 <GPIO_EnableRunModeClockGateControl+0x5c>)
 430:	681b      	ldr	r3, [r3, #0]
 432:	f3c3 0305 	ubfx	r3, r3, #0, #6
 436:	b2db      	uxtb	r3, r3
 438:	461a      	mov	r2, r3
 43a:	79fb      	ldrb	r3, [r7, #7]
 43c:	fa42 f303 	asr.w	r3, r2, r3
 440:	f003 0301 	and.w	r3, r3, #1
 444:	2b00      	cmp	r3, #0
 446:	d0f2      	beq.n	42e <GPIO_EnableRunModeClockGateControl+0x36>
 448:	bf00      	nop
 44a:	bf00      	nop
 44c:	370c      	adds	r7, #12
 44e:	46bd      	mov	sp, r7
 450:	bc80      	pop	{r7}
 452:	4770      	bx	lr
 454:	400fe608 	andmi	lr, pc, r8, lsl #12

00000458 <GPIO_SetPinStatus>:
 458:	b480      	push	{r7}
 45a:	b083      	sub	sp, #12
 45c:	af00      	add	r7, sp, #0
 45e:	4603      	mov	r3, r0
 460:	71fb      	strb	r3, [r7, #7]
 462:	460b      	mov	r3, r1
 464:	71bb      	strb	r3, [r7, #6]
 466:	4613      	mov	r3, r2
 468:	717b      	strb	r3, [r7, #5]
 46a:	797b      	ldrb	r3, [r7, #5]
 46c:	2b00      	cmp	r3, #0
 46e:	d002      	beq.n	476 <GPIO_SetPinStatus+0x1e>
 470:	2b01      	cmp	r3, #1
 472:	d01a      	beq.n	4aa <GPIO_SetPinStatus+0x52>
 474:	e031      	b.n	4da <GPIO_SetPinStatus+0x82>
 476:	79fb      	ldrb	r3, [r7, #7]
 478:	4a1a      	ldr	r2, [pc, #104]	; (4e4 <GPIO_SetPinStatus+0x8c>)
 47a:	f852 3023 	ldr.w	r3, [r2, r3, lsl #2]
 47e:	681b      	ldr	r3, [r3, #0]
 480:	b2db      	uxtb	r3, r3
 482:	b25a      	sxtb	r2, r3
 484:	79bb      	ldrb	r3, [r7, #6]
 486:	2101      	movs	r1, #1
 488:	fa01 f303 	lsl.w	r3, r1, r3
 48c:	b25b      	sxtb	r3, r3
 48e:	43db      	mvns	r3, r3
 490:	b25b      	sxtb	r3, r3
 492:	4013      	ands	r3, r2
 494:	b259      	sxtb	r1, r3
 496:	79fb      	ldrb	r3, [r7, #7]
 498:	4a12      	ldr	r2, [pc, #72]	; (4e4 <GPIO_SetPinStatus+0x8c>)
 49a:	f852 2023 	ldr.w	r2, [r2, r3, lsl #2]
 49e:	b2c9      	uxtb	r1, r1
 4a0:	6813      	ldr	r3, [r2, #0]
 4a2:	f361 0307 	bfi	r3, r1, #0, #8
 4a6:	6013      	str	r3, [r2, #0]
 4a8:	e017      	b.n	4da <GPIO_SetPinStatus+0x82>
 4aa:	79fb      	ldrb	r3, [r7, #7]
 4ac:	4a0d      	ldr	r2, [pc, #52]	; (4e4 <GPIO_SetPinStatus+0x8c>)
 4ae:	f852 3023 	ldr.w	r3, [r2, r3, lsl #2]
 4b2:	681b      	ldr	r3, [r3, #0]
 4b4:	b2db      	uxtb	r3, r3
 4b6:	b25a      	sxtb	r2, r3
 4b8:	79bb      	ldrb	r3, [r7, #6]
 4ba:	2101      	movs	r1, #1
 4bc:	fa01 f303 	lsl.w	r3, r1, r3
 4c0:	b25b      	sxtb	r3, r3
 4c2:	4313      	orrs	r3, r2
 4c4:	b259      	sxtb	r1, r3
 4c6:	79fb      	ldrb	r3, [r7, #7]
 4c8:	4a06      	ldr	r2, [pc, #24]	; (4e4 <GPIO_SetPinStatus+0x8c>)
 4ca:	f852 2023 	ldr.w	r2, [r2, r3, lsl #2]
 4ce:	b2c9      	uxtb	r1, r1
 4d0:	6813      	ldr	r3, [r2, #0]
 4d2:	f361 0307 	bfi	r3, r1, #0, #8
 4d6:	6013      	str	r3, [r2, #0]
 4d8:	bf00      	nop
 4da:	bf00      	nop
 4dc:	370c      	adds	r7, #12
 4de:	46bd      	mov	sp, r7
 4e0:	bc80      	pop	{r7}
 4e2:	4770      	bx	lr
 4e4:	00000ec8 	andeq	r0, r0, r8, asr #29

000004e8 <GPIO_SetData>:
 4e8:	b480      	push	{r7}
 4ea:	b083      	sub	sp, #12
 4ec:	af00      	add	r7, sp, #0
 4ee:	4603      	mov	r3, r0
 4f0:	71fb      	strb	r3, [r7, #7]
 4f2:	460b      	mov	r3, r1
 4f4:	71bb      	strb	r3, [r7, #6]
 4f6:	4613      	mov	r3, r2
 4f8:	717b      	strb	r3, [r7, #5]
 4fa:	797b      	ldrb	r3, [r7, #5]
 4fc:	2b00      	cmp	r3, #0
 4fe:	d002      	beq.n	506 <GPIO_SetData+0x1e>
 500:	2b01      	cmp	r3, #1
 502:	d01a      	beq.n	53a <GPIO_SetData+0x52>
 504:	e031      	b.n	56a <GPIO_SetData+0x82>
 506:	79fb      	ldrb	r3, [r7, #7]
 508:	4a1a      	ldr	r2, [pc, #104]	; (574 <GPIO_SetData+0x8c>)
 50a:	f852 3023 	ldr.w	r3, [r2, r3, lsl #2]
 50e:	681b      	ldr	r3, [r3, #0]
 510:	b2db      	uxtb	r3, r3
 512:	b25a      	sxtb	r2, r3
 514:	79bb      	ldrb	r3, [r7, #6]
 516:	2101      	movs	r1, #1
 518:	fa01 f303 	lsl.w	r3, r1, r3
 51c:	b25b      	sxtb	r3, r3
 51e:	43db      	mvns	r3, r3
 520:	b25b      	sxtb	r3, r3
 522:	4013      	ands	r3, r2
 524:	b259      	sxtb	r1, r3
 526:	79fb      	ldrb	r3, [r7, #7]
 528:	4a12      	ldr	r2, [pc, #72]	; (574 <GPIO_SetData+0x8c>)
 52a:	f852 2023 	ldr.w	r2, [r2, r3, lsl #2]
 52e:	b2c9      	uxtb	r1, r1
 530:	6813      	ldr	r3, [r2, #0]
 532:	f361 0307 	bfi	r3, r1, #0, #8
 536:	6013      	str	r3, [r2, #0]
 538:	e017      	b.n	56a <GPIO_SetData+0x82>
 53a:	79fb      	ldrb	r3, [r7, #7]
 53c:	4a0d      	ldr	r2, [pc, #52]	; (574 <GPIO_SetData+0x8c>)
 53e:	f852 3023 	ldr.w	r3, [r2, r3, lsl #2]
 542:	681b      	ldr	r3, [r3, #0]
 544:	b2db      	uxtb	r3, r3
 546:	b25a      	sxtb	r2, r3
 548:	79bb      	ldrb	r3, [r7, #6]
 54a:	2101      	movs	r1, #1
 54c:	fa01 f303 	lsl.w	r3, r1, r3
 550:	b25b      	sxtb	r3, r3
 552:	4313      	orrs	r3, r2
 554:	b259      	sxtb	r1, r3
 556:	79fb      	ldrb	r3, [r7, #7]
 558:	4a06      	ldr	r2, [pc, #24]	; (574 <GPIO_SetData+0x8c>)
 55a:	f852 2023 	ldr.w	r2, [r2, r3, lsl #2]
 55e:	b2c9      	uxtb	r1, r1
 560:	6813      	ldr	r3, [r2, #0]
 562:	f361 0307 	bfi	r3, r1, #0, #8
 566:	6013      	str	r3, [r2, #0]
 568:	bf00      	nop
 56a:	bf00      	nop
 56c:	370c      	adds	r7, #12
 56e:	46bd      	mov	sp, r7
 570:	bc80      	pop	{r7}
 572:	4770      	bx	lr
 574:	00000f40 	andeq	r0, r0, r0, asr #30

00000578 <GPIO_ConfigureDigitalEnable>:
 578:	b480      	push	{r7}
 57a:	b083      	sub	sp, #12
 57c:	af00      	add	r7, sp, #0
 57e:	4603      	mov	r3, r0
 580:	71fb      	strb	r3, [r7, #7]
 582:	460b      	mov	r3, r1
 584:	71bb      	strb	r3, [r7, #6]
 586:	4613      	mov	r3, r2
 588:	717b      	strb	r3, [r7, #5]
 58a:	797b      	ldrb	r3, [r7, #5]
 58c:	2b00      	cmp	r3, #0
 58e:	d002      	beq.n	596 <GPIO_ConfigureDigitalEnable+0x1e>
 590:	2b01      	cmp	r3, #1
 592:	d01a      	beq.n	5ca <GPIO_ConfigureDigitalEnable+0x52>
 594:	e031      	b.n	5fa <GPIO_ConfigureDigitalEnable+0x82>
 596:	79fb      	ldrb	r3, [r7, #7]
 598:	4a1a      	ldr	r2, [pc, #104]	; (604 <GPIO_ConfigureDigitalEnable+0x8c>)
 59a:	f852 3023 	ldr.w	r3, [r2, r3, lsl #2]
 59e:	681b      	ldr	r3, [r3, #0]
 5a0:	b2db      	uxtb	r3, r3
 5a2:	b25a      	sxtb	r2, r3
 5a4:	79bb      	ldrb	r3, [r7, #6]
 5a6:	2101      	movs	r1, #1
 5a8:	fa01 f303 	lsl.w	r3, r1, r3
 5ac:	b25b      	sxtb	r3, r3
 5ae:	43db      	mvns	r3, r3
 5b0:	b25b      	sxtb	r3, r3
 5b2:	4013      	ands	r3, r2
 5b4:	b259      	sxtb	r1, r3
 5b6:	79fb      	ldrb	r3, [r7, #7]
 5b8:	4a12      	ldr	r2, [pc, #72]	; (604 <GPIO_ConfigureDigitalEnable+0x8c>)
 5ba:	f852 2023 	ldr.w	r2, [r2, r3, lsl #2]
 5be:	b2c9      	uxtb	r1, r1
 5c0:	6813      	ldr	r3, [r2, #0]
 5c2:	f361 0307 	bfi	r3, r1, #0, #8
 5c6:	6013      	str	r3, [r2, #0]
 5c8:	e017      	b.n	5fa <GPIO_ConfigureDigitalEnable+0x82>
 5ca:	79fb      	ldrb	r3, [r7, #7]
 5cc:	4a0d      	ldr	r2, [pc, #52]	; (604 <GPIO_ConfigureDigitalEnable+0x8c>)
 5ce:	f852 3023 	ldr.w	r3, [r2, r3, lsl #2]
 5d2:	681b      	ldr	r3, [r3, #0]
 5d4:	b2db      	uxtb	r3, r3
 5d6:	b25a      	sxtb	r2, r3
 5d8:	79bb      	ldrb	r3, [r7, #6]
 5da:	2101      	movs	r1, #1
 5dc:	fa01 f303 	lsl.w	r3, r1, r3
 5e0:	b25b      	sxtb	r3, r3
 5e2:	4313      	orrs	r3, r2
 5e4:	b259      	sxtb	r1, r3
 5e6:	79fb      	ldrb	r3, [r7, #7]
 5e8:	4a06      	ldr	r2, [pc, #24]	; (604 <GPIO_ConfigureDigitalEnable+0x8c>)
 5ea:	f852 2023 	ldr.w	r2, [r2, r3, lsl #2]
 5ee:	b2c9      	uxtb	r1, r1
 5f0:	6813      	ldr	r3, [r2, #0]
 5f2:	f361 0307 	bfi	r3, r1, #0, #8
 5f6:	6013      	str	r3, [r2, #0]
 5f8:	bf00      	nop
 5fa:	bf00      	nop
 5fc:	370c      	adds	r7, #12
 5fe:	46bd      	mov	sp, r7
 600:	bc80      	pop	{r7}
 602:	4770      	bx	lr
 604:	00000f58 	andeq	r0, r0, r8, asr pc

00000608 <GPIO_ConfigureCommit>:
 608:	b480      	push	{r7}
 60a:	b083      	sub	sp, #12
 60c:	af00      	add	r7, sp, #0
 60e:	4603      	mov	r3, r0
 610:	71fb      	strb	r3, [r7, #7]
 612:	460b      	mov	r3, r1
 614:	71bb      	strb	r3, [r7, #6]
 616:	4613      	mov	r3, r2
 618:	717b      	strb	r3, [r7, #5]
 61a:	797b      	ldrb	r3, [r7, #5]
 61c:	2b00      	cmp	r3, #0
 61e:	d002      	beq.n	626 <GPIO_ConfigureCommit+0x1e>
 620:	2b01      	cmp	r3, #1
 622:	d007      	beq.n	634 <GPIO_ConfigureCommit+0x2c>
 624:	e024      	b.n	670 <GPIO_ConfigureCommit+0x68>
 626:	79fb      	ldrb	r3, [r7, #7]
 628:	4a14      	ldr	r2, [pc, #80]	; (67c <GPIO_ConfigureCommit+0x74>)
 62a:	f852 3023 	ldr.w	r3, [r2, r3, lsl #2]
 62e:	2200      	movs	r2, #0
 630:	601a      	str	r2, [r3, #0]
 632:	e01d      	b.n	670 <GPIO_ConfigureCommit+0x68>
 634:	79fb      	ldrb	r3, [r7, #7]
 636:	4a11      	ldr	r2, [pc, #68]	; (67c <GPIO_ConfigureCommit+0x74>)
 638:	f852 3023 	ldr.w	r3, [r2, r3, lsl #2]
 63c:	4a10      	ldr	r2, [pc, #64]	; (680 <GPIO_ConfigureCommit+0x78>)
 63e:	601a      	str	r2, [r3, #0]
 640:	79fb      	ldrb	r3, [r7, #7]
 642:	4a10      	ldr	r2, [pc, #64]	; (684 <GPIO_ConfigureCommit+0x7c>)
 644:	f852 3023 	ldr.w	r3, [r2, r3, lsl #2]
 648:	681b      	ldr	r3, [r3, #0]
 64a:	b2db      	uxtb	r3, r3
 64c:	b25a      	sxtb	r2, r3
 64e:	79bb      	ldrb	r3, [r7, #6]
 650:	2101      	movs	r1, #1
 652:	fa01 f303 	lsl.w	r3, r1, r3
 656:	b25b      	sxtb	r3, r3
 658:	4313      	orrs	r3, r2
 65a:	b259      	sxtb	r1, r3
 65c:	79fb      	ldrb	r3, [r7, #7]
 65e:	4a09      	ldr	r2, [pc, #36]	; (684 <GPIO_ConfigureCommit+0x7c>)
 660:	f852 2023 	ldr.w	r2, [r2, r3, lsl #2]
 664:	b2c9      	uxtb	r1, r1
 666:	6813      	ldr	r3, [r2, #0]
 668:	f361 0307 	bfi	r3, r1, #0, #8
 66c:	6013      	str	r3, [r2, #0]
 66e:	bf00      	nop
 670:	bf00      	nop
 672:	370c      	adds	r7, #12
 674:	46bd      	mov	sp, r7
 676:	bc80      	pop	{r7}
 678:	4770      	bx	lr
 67a:	bf00      	nop
 67c:	00000f88 	andeq	r0, r0, r8, lsl #31
 680:	4c4f434b 	mcrrmi	3, 4, r4, pc, cr11
 684:	00000fa0 	andeq	r0, r0, r0, lsr #31

00000688 <GPIO_ConfigureOutputPin>:
 688:	b580      	push	{r7, lr}
 68a:	b082      	sub	sp, #8
 68c:	af00      	add	r7, sp, #0
 68e:	6078      	str	r0, [r7, #4]
 690:	687b      	ldr	r3, [r7, #4]
 692:	781b      	ldrb	r3, [r3, #0]
 694:	4618      	mov	r0, r3
 696:	f7ff feaf 	bl	3f8 <GPIO_EnableRunModeClockGateControl>
 69a:	687b      	ldr	r3, [r7, #4]
 69c:	7818      	ldrb	r0, [r3, #0]
 69e:	687b      	ldr	r3, [r7, #4]
 6a0:	785b      	ldrb	r3, [r3, #1]
 6a2:	2201      	movs	r2, #1
 6a4:	4619      	mov	r1, r3
 6a6:	f7ff fed7 	bl	458 <GPIO_SetPinStatus>
 6aa:	687b      	ldr	r3, [r7, #4]
 6ac:	7818      	ldrb	r0, [r3, #0]
 6ae:	687b      	ldr	r3, [r7, #4]
 6b0:	785b      	ldrb	r3, [r3, #1]
 6b2:	2200      	movs	r2, #0
 6b4:	4619      	mov	r1, r3
 6b6:	f7ff ff17 	bl	4e8 <GPIO_SetData>
 6ba:	687b      	ldr	r3, [r7, #4]
 6bc:	7818      	ldrb	r0, [r3, #0]
 6be:	687b      	ldr	r3, [r7, #4]
 6c0:	785b      	ldrb	r3, [r3, #1]
 6c2:	2201      	movs	r2, #1
 6c4:	4619      	mov	r1, r3
 6c6:	f7ff ff57 	bl	578 <GPIO_ConfigureDigitalEnable>
 6ca:	687b      	ldr	r3, [r7, #4]
 6cc:	7818      	ldrb	r0, [r3, #0]
 6ce:	687b      	ldr	r3, [r7, #4]
 6d0:	785b      	ldrb	r3, [r3, #1]
 6d2:	2201      	movs	r2, #1
 6d4:	4619      	mov	r1, r3
 6d6:	f7ff ff97 	bl	608 <GPIO_ConfigureCommit>
 6da:	bf00      	nop
 6dc:	3708      	adds	r7, #8
 6de:	46bd      	mov	sp, r7
 6e0:	bd80      	pop	{r7, pc}
	...

000006e4 <GPIO_SetPinDirection>:
 6e4:	b480      	push	{r7}
 6e6:	b083      	sub	sp, #12
 6e8:	af00      	add	r7, sp, #0
 6ea:	4603      	mov	r3, r0
 6ec:	71fb      	strb	r3, [r7, #7]
 6ee:	460b      	mov	r3, r1
 6f0:	71bb      	strb	r3, [r7, #6]
 6f2:	4613      	mov	r3, r2
 6f4:	717b      	strb	r3, [r7, #5]
 6f6:	797b      	ldrb	r3, [r7, #5]
 6f8:	2b00      	cmp	r3, #0
 6fa:	d002      	beq.n	702 <GPIO_SetPinDirection+0x1e>
 6fc:	2b01      	cmp	r3, #1
 6fe:	d01a      	beq.n	736 <GPIO_SetPinDirection+0x52>
 700:	e031      	b.n	766 <GPIO_SetPinDirection+0x82>
 702:	79fb      	ldrb	r3, [r7, #7]
 704:	4a1a      	ldr	r2, [pc, #104]	; (770 <GPIO_SetPinDirection+0x8c>)
 706:	f852 3023 	ldr.w	r3, [r2, r3, lsl #2]
 70a:	681b      	ldr	r3, [r3, #0]
 70c:	b2db      	uxtb	r3, r3
 70e:	b25a      	sxtb	r2, r3
 710:	79bb      	ldrb	r3, [r7, #6]
 712:	2101      	movs	r1, #1
 714:	fa01 f303 	lsl.w	r3, r1, r3
 718:	b25b      	sxtb	r3, r3
 71a:	43db      	mvns	r3, r3
 71c:	b25b      	sxtb	r3, r3
 71e:	4013      	ands	r3, r2
 720:	b259      	sxtb	r1, r3
 722:	79fb      	ldrb	r3, [r7, #7]
 724:	4a12      	ldr	r2, [pc, #72]	; (770 <GPIO_SetPinDirection+0x8c>)
 726:	f852 2023 	ldr.w	r2, [r2, r3, lsl #2]
 72a:	b2c9      	uxtb	r1, r1
 72c:	6813      	ldr	r3, [r2, #0]
 72e:	f361 0307 	bfi	r3, r1, #0, #8
 732:	6013      	str	r3, [r2, #0]
 734:	e017      	b.n	766 <GPIO_SetPinDirection+0x82>
 736:	79fb      	ldrb	r3, [r7, #7]
 738:	4a0d      	ldr	r2, [pc, #52]	; (770 <GPIO_SetPinDirection+0x8c>)
 73a:	f852 3023 	ldr.w	r3, [r2, r3, lsl #2]
 73e:	681b      	ldr	r3, [r3, #0]
 740:	b2db      	uxtb	r3, r3
 742:	b25a      	sxtb	r2, r3
 744:	79bb      	ldrb	r3, [r7, #6]
 746:	2101      	movs	r1, #1
 748:	fa01 f303 	lsl.w	r3, r1, r3
 74c:	b25b      	sxtb	r3, r3
 74e:	4313      	orrs	r3, r2
 750:	b259      	sxtb	r1, r3
 752:	79fb      	ldrb	r3, [r7, #7]
 754:	4a06      	ldr	r2, [pc, #24]	; (770 <GPIO_SetPinDirection+0x8c>)
 756:	f852 2023 	ldr.w	r2, [r2, r3, lsl #2]
 75a:	b2c9      	uxtb	r1, r1
 75c:	6813      	ldr	r3, [r2, #0]
 75e:	f361 0307 	bfi	r3, r1, #0, #8
 762:	6013      	str	r3, [r2, #0]
 764:	bf00      	nop
 766:	bf00      	nop
 768:	370c      	adds	r7, #12
 76a:	46bd      	mov	sp, r7
 76c:	bc80      	pop	{r7}
 76e:	4770      	bx	lr
 770:	00000ec8 	andeq	r0, r0, r8, asr #29

00000774 <GPIO_SetInputStatus>:
 774:	b480      	push	{r7}
 776:	b083      	sub	sp, #12
 778:	af00      	add	r7, sp, #0
 77a:	4603      	mov	r3, r0
 77c:	460a      	mov	r2, r1
 77e:	71fb      	strb	r3, [r7, #7]
 780:	4613      	mov	r3, r2
 782:	71bb      	strb	r3, [r7, #6]
 784:	79fb      	ldrb	r3, [r7, #7]
 786:	4a0d      	ldr	r2, [pc, #52]	; (7bc <GPIO_SetInputStatus+0x48>)
 788:	f852 3023 	ldr.w	r3, [r2, r3, lsl #2]
 78c:	681b      	ldr	r3, [r3, #0]
 78e:	b2db      	uxtb	r3, r3
 790:	b25a      	sxtb	r2, r3
 792:	79bb      	ldrb	r3, [r7, #6]
 794:	2101      	movs	r1, #1
 796:	fa01 f303 	lsl.w	r3, r1, r3
 79a:	b25b      	sxtb	r3, r3
 79c:	4313      	orrs	r3, r2
 79e:	b259      	sxtb	r1, r3
 7a0:	79fb      	ldrb	r3, [r7, #7]
 7a2:	4a06      	ldr	r2, [pc, #24]	; (7bc <GPIO_SetInputStatus+0x48>)
 7a4:	f852 2023 	ldr.w	r2, [r2, r3, lsl #2]
 7a8:	b2c9      	uxtb	r1, r1
 7aa:	6813      	ldr	r3, [r2, #0]
 7ac:	f361 0307 	bfi	r3, r1, #0, #8
 7b0:	6013      	str	r3, [r2, #0]
 7b2:	bf00      	nop
 7b4:	370c      	adds	r7, #12
 7b6:	46bd      	mov	sp, r7
 7b8:	bc80      	pop	{r7}
 7ba:	4770      	bx	lr
 7bc:	00000fd0 	ldrdeq	r0, [r0], -r0	; <UNPREDICTABLE>

000007c0 <GPIO_ConfigureInputPin>:
 7c0:	b580      	push	{r7, lr}
 7c2:	b082      	sub	sp, #8
 7c4:	af00      	add	r7, sp, #0
 7c6:	6078      	str	r0, [r7, #4]
 7c8:	687b      	ldr	r3, [r7, #4]
 7ca:	781b      	ldrb	r3, [r3, #0]
 7cc:	4618      	mov	r0, r3
 7ce:	f7ff fe13 	bl	3f8 <GPIO_EnableRunModeClockGateControl>
 7d2:	687b      	ldr	r3, [r7, #4]
 7d4:	781b      	ldrb	r3, [r3, #0]
 7d6:	2b05      	cmp	r3, #5
 7d8:	d108      	bne.n	7ec <GPIO_ConfigureInputPin+0x2c>
 7da:	687b      	ldr	r3, [r7, #4]
 7dc:	785b      	ldrb	r3, [r3, #1]
 7de:	2b00      	cmp	r3, #0
 7e0:	d104      	bne.n	7ec <GPIO_ConfigureInputPin+0x2c>
 7e2:	2201      	movs	r2, #1
 7e4:	2100      	movs	r1, #0
 7e6:	2005      	movs	r0, #5
 7e8:	f7ff ff0e 	bl	608 <GPIO_ConfigureCommit>
 7ec:	687b      	ldr	r3, [r7, #4]
 7ee:	7818      	ldrb	r0, [r3, #0]
 7f0:	687b      	ldr	r3, [r7, #4]
 7f2:	785b      	ldrb	r3, [r3, #1]
 7f4:	2200      	movs	r2, #0
 7f6:	4619      	mov	r1, r3
 7f8:	f7ff ff74 	bl	6e4 <GPIO_SetPinDirection>
 7fc:	687b      	ldr	r3, [r7, #4]
 7fe:	781a      	ldrb	r2, [r3, #0]
 800:	687b      	ldr	r3, [r7, #4]
 802:	785b      	ldrb	r3, [r3, #1]
 804:	4619      	mov	r1, r3
 806:	4610      	mov	r0, r2
 808:	f7ff ffb4 	bl	774 <GPIO_SetInputStatus>
 80c:	687b      	ldr	r3, [r7, #4]
 80e:	7818      	ldrb	r0, [r3, #0]
 810:	687b      	ldr	r3, [r7, #4]
 812:	785b      	ldrb	r3, [r3, #1]
 814:	2201      	movs	r2, #1
 816:	4619      	mov	r1, r3
 818:	f7ff feae 	bl	578 <GPIO_ConfigureDigitalEnable>
 81c:	bf00      	nop
 81e:	3708      	adds	r7, #8
 820:	46bd      	mov	sp, r7
 822:	bd80      	pop	{r7, pc}

00000824 <main>:
 824:	b580      	push	{r7, lr}
 826:	b082      	sub	sp, #8
 828:	af00      	add	r7, sp, #0
 82a:	b662      	cpsie	i
 82c:	2001      	movs	r0, #1
 82e:	f000 f989 	bl	b44 <SysTickConfigureClockSource>
 832:	f000 f8fb 	bl	a2c <SC_GetSystemClock>
 836:	4603      	mov	r3, r0
 838:	4a1a      	ldr	r2, [pc, #104]	; (8a4 <main+0x80>)
 83a:	6013      	str	r3, [r2, #0]
 83c:	481a      	ldr	r0, [pc, #104]	; (8a8 <main+0x84>)
 83e:	f7ff ff23 	bl	688 <GPIO_ConfigureOutputPin>
 842:	481a      	ldr	r0, [pc, #104]	; (8ac <main+0x88>)
 844:	f7ff ffbc 	bl	7c0 <GPIO_ConfigureInputPin>
 848:	4819      	ldr	r0, [pc, #100]	; (8b0 <main+0x8c>)
 84a:	f7ff ffb9 	bl	7c0 <GPIO_ConfigureInputPin>
 84e:	f7ff fbe5 	bl	1c <DMA_PeripheralInitialization>
 852:	4b18      	ldr	r3, [pc, #96]	; (8b4 <main+0x90>)
 854:	681b      	ldr	r3, [r3, #0]
 856:	4a18      	ldr	r2, [pc, #96]	; (8b8 <main+0x94>)
 858:	4918      	ldr	r1, [pc, #96]	; (8bc <main+0x98>)
 85a:	4618      	mov	r0, r3
 85c:	f7ff fc56 	bl	10c <DMA_ChannelControlStructureSet>
 860:	4b14      	ldr	r3, [pc, #80]	; (8b4 <main+0x90>)
 862:	681b      	ldr	r3, [r3, #0]
 864:	4618      	mov	r0, r3
 866:	f7ff fbf5 	bl	54 <DMA_EnableChannelAttributes>
 86a:	2100      	movs	r1, #0
 86c:	201e      	movs	r0, #30
 86e:	f7ff fd97 	bl	3a0 <DMA_AssignChannel>
 872:	201e      	movs	r0, #30
 874:	f7ff fc34 	bl	e0 <DMA_EnableChannel>
 878:	2000      	movs	r0, #0
 87a:	f7ff fd1f 	bl	2bc <DMA_ConfigurePeripheralInterrupt>
 87e:	211e      	movs	r1, #30
 880:	2000      	movs	r0, #0
 882:	f7ff fd37 	bl	2f4 <DMA_ConfigureChannelInterrupt>
 886:	2101      	movs	r1, #1
 888:	2001      	movs	r0, #1
 88a:	f000 f971 	bl	b70 <SysTickGenerateDelay_Interrupt>
 88e:	211e      	movs	r1, #30
 890:	2001      	movs	r0, #1
 892:	f7ff fce7 	bl	264 <DMA_ConfigureChannelSoftwareRequest>
 896:	2300      	movs	r3, #0
 898:	607b      	str	r3, [r7, #4]
 89a:	687b      	ldr	r3, [r7, #4]
 89c:	3301      	adds	r3, #1
 89e:	607b      	str	r3, [r7, #4]
 8a0:	e7fb      	b.n	89a <main+0x76>
 8a2:	bf00      	nop
 8a4:	20001544 	andcs	r1, r0, r4, asr #10
 8a8:	20000028 	andcs	r0, r0, r8, lsr #32
 8ac:	2000002c 	andcs	r0, r0, ip, lsr #32
 8b0:	20000024 	andcs	r0, r0, r4, lsr #32
 8b4:	20000020 	andcs	r0, r0, r0, lsr #32
 8b8:	20001523 	andcs	r1, r0, r3, lsr #10
 8bc:	2000111b 	andcs	r1, r0, fp, lsl r1

000008c0 <NVIC_Enable_Interrupt>:
 8c0:	b480      	push	{r7}
 8c2:	b085      	sub	sp, #20
 8c4:	af00      	add	r7, sp, #0
 8c6:	6078      	str	r0, [r7, #4]
 8c8:	687b      	ldr	r3, [r7, #4]
 8ca:	095b      	lsrs	r3, r3, #5
 8cc:	73fb      	strb	r3, [r7, #15]
 8ce:	687b      	ldr	r3, [r7, #4]
 8d0:	b2da      	uxtb	r2, r3
 8d2:	7bfb      	ldrb	r3, [r7, #15]
 8d4:	015b      	lsls	r3, r3, #5
 8d6:	b2db      	uxtb	r3, r3
 8d8:	1ad3      	subs	r3, r2, r3
 8da:	73bb      	strb	r3, [r7, #14]
 8dc:	7bfb      	ldrb	r3, [r7, #15]
 8de:	4a0a      	ldr	r2, [pc, #40]	; (908 <NVIC_Enable_Interrupt+0x48>)
 8e0:	f852 3023 	ldr.w	r3, [r2, r3, lsl #2]
 8e4:	681a      	ldr	r2, [r3, #0]
 8e6:	7bbb      	ldrb	r3, [r7, #14]
 8e8:	2101      	movs	r1, #1
 8ea:	fa01 f303 	lsl.w	r3, r1, r3
 8ee:	4618      	mov	r0, r3
 8f0:	7bfb      	ldrb	r3, [r7, #15]
 8f2:	4905      	ldr	r1, [pc, #20]	; (908 <NVIC_Enable_Interrupt+0x48>)
 8f4:	f851 3023 	ldr.w	r3, [r1, r3, lsl #2]
 8f8:	4302      	orrs	r2, r0
 8fa:	601a      	str	r2, [r3, #0]
 8fc:	bf00      	nop
 8fe:	3714      	adds	r7, #20
 900:	46bd      	mov	sp, r7
 902:	bc80      	pop	{r7}
 904:	4770      	bx	lr
 906:	bf00      	nop
 908:	00001268 	andeq	r1, r0, r8, ror #4

0000090c <NVIC_Clear_Interrupt>:
 90c:	b480      	push	{r7}
 90e:	b085      	sub	sp, #20
 910:	af00      	add	r7, sp, #0
 912:	6078      	str	r0, [r7, #4]
 914:	687b      	ldr	r3, [r7, #4]
 916:	095b      	lsrs	r3, r3, #5
 918:	73fb      	strb	r3, [r7, #15]
 91a:	687b      	ldr	r3, [r7, #4]
 91c:	b2da      	uxtb	r2, r3
 91e:	7bfb      	ldrb	r3, [r7, #15]
 920:	015b      	lsls	r3, r3, #5
 922:	b2db      	uxtb	r3, r3
 924:	1ad3      	subs	r3, r2, r3
 926:	73bb      	strb	r3, [r7, #14]
 928:	7bfb      	ldrb	r3, [r7, #15]
 92a:	4a0a      	ldr	r2, [pc, #40]	; (954 <NVIC_Clear_Interrupt+0x48>)
 92c:	f852 3023 	ldr.w	r3, [r2, r3, lsl #2]
 930:	681a      	ldr	r2, [r3, #0]
 932:	7bbb      	ldrb	r3, [r7, #14]
 934:	2101      	movs	r1, #1
 936:	fa01 f303 	lsl.w	r3, r1, r3
 93a:	43db      	mvns	r3, r3
 93c:	4618      	mov	r0, r3
 93e:	7bfb      	ldrb	r3, [r7, #15]
 940:	4904      	ldr	r1, [pc, #16]	; (954 <NVIC_Clear_Interrupt+0x48>)
 942:	f851 3023 	ldr.w	r3, [r1, r3, lsl #2]
 946:	4002      	ands	r2, r0
 948:	601a      	str	r2, [r3, #0]
 94a:	bf00      	nop
 94c:	3714      	adds	r7, #20
 94e:	46bd      	mov	sp, r7
 950:	bc80      	pop	{r7}
 952:	4770      	bx	lr
 954:	00001278 	andeq	r1, r0, r8, ror r2

00000958 <Default_Handler>:
 958:	b580      	push	{r7, lr}
 95a:	af00      	add	r7, sp, #0
 95c:	f000 f802 	bl	964 <Reset_Handler>
 960:	bf00      	nop
 962:	bd80      	pop	{r7, pc}

00000964 <Reset_Handler>:
 964:	b580      	push	{r7, lr}
 966:	b086      	sub	sp, #24
 968:	af00      	add	r7, sp, #0
 96a:	4a19      	ldr	r2, [pc, #100]	; (9d0 <Reset_Handler+0x6c>)
 96c:	4b19      	ldr	r3, [pc, #100]	; (9d4 <Reset_Handler+0x70>)
 96e:	1ad3      	subs	r3, r2, r3
 970:	60bb      	str	r3, [r7, #8]
 972:	4a19      	ldr	r2, [pc, #100]	; (9d8 <Reset_Handler+0x74>)
 974:	4b19      	ldr	r3, [pc, #100]	; (9dc <Reset_Handler+0x78>)
 976:	1ad3      	subs	r3, r2, r3
 978:	607b      	str	r3, [r7, #4]
 97a:	4b19      	ldr	r3, [pc, #100]	; (9e0 <Reset_Handler+0x7c>)
 97c:	603b      	str	r3, [r7, #0]
 97e:	4b15      	ldr	r3, [pc, #84]	; (9d4 <Reset_Handler+0x70>)
 980:	617b      	str	r3, [r7, #20]
 982:	2300      	movs	r3, #0
 984:	613b      	str	r3, [r7, #16]
 986:	e00a      	b.n	99e <Reset_Handler+0x3a>
 988:	697a      	ldr	r2, [r7, #20]
 98a:	1c53      	adds	r3, r2, #1
 98c:	617b      	str	r3, [r7, #20]
 98e:	697b      	ldr	r3, [r7, #20]
 990:	1c59      	adds	r1, r3, #1
 992:	6179      	str	r1, [r7, #20]
 994:	7812      	ldrb	r2, [r2, #0]
 996:	701a      	strb	r2, [r3, #0]
 998:	693b      	ldr	r3, [r7, #16]
 99a:	3301      	adds	r3, #1
 99c:	613b      	str	r3, [r7, #16]
 99e:	693b      	ldr	r3, [r7, #16]
 9a0:	68ba      	ldr	r2, [r7, #8]
 9a2:	429a      	cmp	r2, r3
 9a4:	d8f0      	bhi.n	988 <Reset_Handler+0x24>
 9a6:	2300      	movs	r3, #0
 9a8:	60fb      	str	r3, [r7, #12]
 9aa:	e007      	b.n	9bc <Reset_Handler+0x58>
 9ac:	697b      	ldr	r3, [r7, #20]
 9ae:	1c5a      	adds	r2, r3, #1
 9b0:	617a      	str	r2, [r7, #20]
 9b2:	2200      	movs	r2, #0
 9b4:	701a      	strb	r2, [r3, #0]
 9b6:	68fb      	ldr	r3, [r7, #12]
 9b8:	3301      	adds	r3, #1
 9ba:	60fb      	str	r3, [r7, #12]
 9bc:	68fb      	ldr	r3, [r7, #12]
 9be:	687a      	ldr	r2, [r7, #4]
 9c0:	429a      	cmp	r2, r3
 9c2:	d8f3      	bhi.n	9ac <Reset_Handler+0x48>
 9c4:	f7ff ff2e 	bl	824 <main>
 9c8:	bf00      	nop
 9ca:	3718      	adds	r7, #24
 9cc:	46bd      	mov	sp, r7
 9ce:	bd80      	pop	{r7, pc}
 9d0:	20000000 	andcs	r0, r0, r0
 9d4:	20000000 	andcs	r0, r0, r0
 9d8:	20000400 	andcs	r0, r0, r0, lsl #8
 9dc:	20001df4 	strdcs	r1, [r0], -r4
 9e0:	00000bc8 	andeq	r0, r0, r8, asr #23

000009e4 <SC_GetOscillatorValue>:
 9e4:	b480      	push	{r7}
 9e6:	af00      	add	r7, sp, #0
 9e8:	4b0c      	ldr	r3, [pc, #48]	; (a1c <SC_GetOscillatorValue+0x38>)
 9ea:	681b      	ldr	r3, [r3, #0]
 9ec:	f3c3 1301 	ubfx	r3, r3, #4, #2
 9f0:	b2db      	uxtb	r3, r3
 9f2:	2b03      	cmp	r3, #3
 9f4:	d00b      	beq.n	a0e <SC_GetOscillatorValue+0x2a>
 9f6:	2b03      	cmp	r3, #3
 9f8:	dc03      	bgt.n	a02 <SC_GetOscillatorValue+0x1e>
 9fa:	2b01      	cmp	r3, #1
 9fc:	d003      	beq.n	a06 <SC_GetOscillatorValue+0x22>
 9fe:	2b02      	cmp	r3, #2
 a00:	d003      	beq.n	a0a <SC_GetOscillatorValue+0x26>
 a02:	4b07      	ldr	r3, [pc, #28]	; (a20 <SC_GetOscillatorValue+0x3c>)
 a04:	e005      	b.n	a12 <SC_GetOscillatorValue+0x2e>
 a06:	4b07      	ldr	r3, [pc, #28]	; (a24 <SC_GetOscillatorValue+0x40>)
 a08:	e003      	b.n	a12 <SC_GetOscillatorValue+0x2e>
 a0a:	4b07      	ldr	r3, [pc, #28]	; (a28 <SC_GetOscillatorValue+0x44>)
 a0c:	e001      	b.n	a12 <SC_GetOscillatorValue+0x2e>
 a0e:	f247 5330 	movw	r3, #30000	; 0x7530
 a12:	4618      	mov	r0, r3
 a14:	46bd      	mov	sp, r7
 a16:	bc80      	pop	{r7}
 a18:	4770      	bx	lr
 a1a:	bf00      	nop
 a1c:	400fe060 	andmi	lr, pc, r0, rrx
 a20:	004c4b40 	subeq	r4, ip, r0, asr #22
 a24:	00f42400 	rscseq	r2, r4, r0, lsl #8
 a28:	003d0900 	eorseq	r0, sp, r0, lsl #18

00000a2c <SC_GetSystemClock>:
 a2c:	b580      	push	{r7, lr}
 a2e:	b082      	sub	sp, #8
 a30:	af00      	add	r7, sp, #0
 a32:	4b22      	ldr	r3, [pc, #136]	; (abc <SC_GetSystemClock+0x90>)
 a34:	681b      	ldr	r3, [r3, #0]
 a36:	f3c3 23c0 	ubfx	r3, r3, #11, #1
 a3a:	b2db      	uxtb	r3, r3
 a3c:	2b00      	cmp	r3, #0
 a3e:	d117      	bne.n	a70 <SC_GetSystemClock+0x44>
 a40:	4b1e      	ldr	r3, [pc, #120]	; (abc <SC_GetSystemClock+0x90>)
 a42:	681b      	ldr	r3, [r3, #0]
 a44:	f3c3 5380 	ubfx	r3, r3, #22, #1
 a48:	b2db      	uxtb	r3, r3
 a4a:	2b01      	cmp	r3, #1
 a4c:	d10e      	bne.n	a6c <SC_GetSystemClock+0x40>
 a4e:	4b1c      	ldr	r3, [pc, #112]	; (ac0 <SC_GetSystemClock+0x94>)
 a50:	607b      	str	r3, [r7, #4]
 a52:	4b1a      	ldr	r3, [pc, #104]	; (abc <SC_GetSystemClock+0x90>)
 a54:	681b      	ldr	r3, [r3, #0]
 a56:	f3c3 53c3 	ubfx	r3, r3, #23, #4
 a5a:	b2db      	uxtb	r3, r3
 a5c:	461a      	mov	r2, r3
 a5e:	4b19      	ldr	r3, [pc, #100]	; (ac4 <SC_GetSystemClock+0x98>)
 a60:	5c9b      	ldrb	r3, [r3, r2]
 a62:	461a      	mov	r2, r3
 a64:	687b      	ldr	r3, [r7, #4]
 a66:	fbb3 f3f2 	udiv	r3, r3, r2
 a6a:	607b      	str	r3, [r7, #4]
 a6c:	687b      	ldr	r3, [r7, #4]
 a6e:	e020      	b.n	ab2 <SC_GetSystemClock+0x86>
 a70:	4b12      	ldr	r3, [pc, #72]	; (abc <SC_GetSystemClock+0x90>)
 a72:	681b      	ldr	r3, [r3, #0]
 a74:	f3c3 23c0 	ubfx	r3, r3, #11, #1
 a78:	b2db      	uxtb	r3, r3
 a7a:	2b01      	cmp	r3, #1
 a7c:	d118      	bne.n	ab0 <SC_GetSystemClock+0x84>
 a7e:	f7ff ffb1 	bl	9e4 <SC_GetOscillatorValue>
 a82:	6078      	str	r0, [r7, #4]
 a84:	4b0d      	ldr	r3, [pc, #52]	; (abc <SC_GetSystemClock+0x90>)
 a86:	681b      	ldr	r3, [r3, #0]
 a88:	f3c3 5380 	ubfx	r3, r3, #22, #1
 a8c:	b2db      	uxtb	r3, r3
 a8e:	2b01      	cmp	r3, #1
 a90:	d10c      	bne.n	aac <SC_GetSystemClock+0x80>
 a92:	4b0a      	ldr	r3, [pc, #40]	; (abc <SC_GetSystemClock+0x90>)
 a94:	681b      	ldr	r3, [r3, #0]
 a96:	f3c3 53c3 	ubfx	r3, r3, #23, #4
 a9a:	b2db      	uxtb	r3, r3
 a9c:	461a      	mov	r2, r3
 a9e:	4b09      	ldr	r3, [pc, #36]	; (ac4 <SC_GetSystemClock+0x98>)
 aa0:	5c9b      	ldrb	r3, [r3, r2]
 aa2:	461a      	mov	r2, r3
 aa4:	687b      	ldr	r3, [r7, #4]
 aa6:	fbb3 f3f2 	udiv	r3, r3, r2
 aaa:	607b      	str	r3, [r7, #4]
 aac:	687b      	ldr	r3, [r7, #4]
 aae:	e000      	b.n	ab2 <SC_GetSystemClock+0x86>
 ab0:	2300      	movs	r3, #0
 ab2:	4618      	mov	r0, r3
 ab4:	3708      	adds	r7, #8
 ab6:	46bd      	mov	sp, r7
 ab8:	bd80      	pop	{r7, pc}
 aba:	bf00      	nop
 abc:	400fe060 	andmi	lr, pc, r0, rrx
 ac0:	0bebc200 	bleq	ffaf12c8 <_E_BSS+0xdfaef4d4>
 ac4:	000012c8 	andeq	r1, r0, r8, asr #5

00000ac8 <SysTickEnable>:
 ac8:	b480      	push	{r7}
 aca:	af00      	add	r7, sp, #0
 acc:	4a04      	ldr	r2, [pc, #16]	; (ae0 <SysTickEnable+0x18>)
 ace:	6813      	ldr	r3, [r2, #0]
 ad0:	f043 0301 	orr.w	r3, r3, #1
 ad4:	6013      	str	r3, [r2, #0]
 ad6:	bf00      	nop
 ad8:	46bd      	mov	sp, r7
 ada:	bc80      	pop	{r7}
 adc:	4770      	bx	lr
 ade:	bf00      	nop
 ae0:	e000e010 	and	lr, r0, r0, lsl r0

00000ae4 <SysTickDisable>:
 ae4:	b480      	push	{r7}
 ae6:	af00      	add	r7, sp, #0
 ae8:	4a04      	ldr	r2, [pc, #16]	; (afc <SysTickDisable+0x18>)
 aea:	6813      	ldr	r3, [r2, #0]
 aec:	f36f 0300 	bfc	r3, #0, #1
 af0:	6013      	str	r3, [r2, #0]
 af2:	bf00      	nop
 af4:	46bd      	mov	sp, r7
 af6:	bc80      	pop	{r7}
 af8:	4770      	bx	lr
 afa:	bf00      	nop
 afc:	e000e010 	and	lr, r0, r0, lsl r0

00000b00 <SysTickFrequencyGet>:
 b00:	b5b0      	push	{r4, r5, r7, lr}
 b02:	b082      	sub	sp, #8
 b04:	af00      	add	r7, sp, #0
 b06:	4b0d      	ldr	r3, [pc, #52]	; (b3c <SysTickFrequencyGet+0x3c>)
 b08:	681b      	ldr	r3, [r3, #0]
 b0a:	f3c3 0380 	ubfx	r3, r3, #2, #1
 b0e:	b2db      	uxtb	r3, r3
 b10:	2b00      	cmp	r3, #0
 b12:	d103      	bne.n	b1c <SysTickFrequencyGet+0x1c>
 b14:	4a0a      	ldr	r2, [pc, #40]	; (b40 <SysTickFrequencyGet+0x40>)
 b16:	f04f 0300 	mov.w	r3, #0
 b1a:	e009      	b.n	b30 <SysTickFrequencyGet+0x30>
 b1c:	f7ff ff86 	bl	a2c <SC_GetSystemClock>
 b20:	4603      	mov	r3, r0
 b22:	2200      	movs	r2, #0
 b24:	461c      	mov	r4, r3
 b26:	4615      	mov	r5, r2
 b28:	e9c7 4500 	strd	r4, r5, [r7]
 b2c:	e9d7 2300 	ldrd	r2, r3, [r7]
 b30:	4610      	mov	r0, r2
 b32:	4619      	mov	r1, r3
 b34:	3708      	adds	r7, #8
 b36:	46bd      	mov	sp, r7
 b38:	bdb0      	pop	{r4, r5, r7, pc}
 b3a:	bf00      	nop
 b3c:	e000e010 	and	lr, r0, r0, lsl r0
 b40:	003d0900 	eorseq	r0, sp, r0, lsl #18

00000b44 <SysTickConfigureClockSource>:
 b44:	b480      	push	{r7}
 b46:	b083      	sub	sp, #12
 b48:	af00      	add	r7, sp, #0
 b4a:	4603      	mov	r3, r0
 b4c:	71fb      	strb	r3, [r7, #7]
 b4e:	4a07      	ldr	r2, [pc, #28]	; (b6c <SysTickConfigureClockSource+0x28>)
 b50:	79fb      	ldrb	r3, [r7, #7]
 b52:	f003 0301 	and.w	r3, r3, #1
 b56:	b2d9      	uxtb	r1, r3
 b58:	6813      	ldr	r3, [r2, #0]
 b5a:	f361 0382 	bfi	r3, r1, #2, #1
 b5e:	6013      	str	r3, [r2, #0]
 b60:	bf00      	nop
 b62:	370c      	adds	r7, #12
 b64:	46bd      	mov	sp, r7
 b66:	bc80      	pop	{r7}
 b68:	4770      	bx	lr
 b6a:	bf00      	nop
 b6c:	e000e010 	and	lr, r0, r0, lsl r0

00000b70 <SysTickGenerateDelay_Interrupt>:
 b70:	b580      	push	{r7, lr}
 b72:	b086      	sub	sp, #24
 b74:	af00      	add	r7, sp, #0
 b76:	6078      	str	r0, [r7, #4]
 b78:	6039      	str	r1, [r7, #0]
 b7a:	f7ff ffb3 	bl	ae4 <SysTickDisable>
 b7e:	f7ff ffbf 	bl	b00 <SysTickFrequencyGet>
 b82:	e9c7 0104 	strd	r0, r1, [r7, #16]
 b86:	f04f 0200 	mov.w	r2, #0
 b8a:	f04f 0300 	mov.w	r3, #0
 b8e:	e9c7 2302 	strd	r2, r3, [r7, #8]
 b92:	490b      	ldr	r1, [pc, #44]	; (bc0 <SysTickGenerateDelay_Interrupt+0x50>)
 b94:	68ba      	ldr	r2, [r7, #8]
 b96:	f022 427f 	bic.w	r2, r2, #4278190080	; 0xff000000
 b9a:	680b      	ldr	r3, [r1, #0]
 b9c:	f362 0317 	bfi	r3, r2, #0, #24
 ba0:	600b      	str	r3, [r1, #0]
 ba2:	4a08      	ldr	r2, [pc, #32]	; (bc4 <SysTickGenerateDelay_Interrupt+0x54>)
 ba4:	6813      	ldr	r3, [r2, #0]
 ba6:	f043 0302 	orr.w	r3, r3, #2
 baa:	6013      	str	r3, [r2, #0]
 bac:	200f      	movs	r0, #15
 bae:	f7ff fe87 	bl	8c0 <NVIC_Enable_Interrupt>
 bb2:	f7ff ff89 	bl	ac8 <SysTickEnable>
 bb6:	bf00      	nop
 bb8:	3718      	adds	r7, #24
 bba:	46bd      	mov	sp, r7
 bbc:	bd80      	pop	{r7, pc}
 bbe:	bf00      	nop
 bc0:	e000e014 	and	lr, r0, r4, lsl r0
 bc4:	e000e010 	and	lr, r0, r0, lsl r0
